
./build/test:     file format elf64-littleriscv


Disassembly of section .text:

0000000080000000 <_start>:
    80000000:	40ee8cbb          	subw	x25,x29,x14
    80000004:	010884b3          	add	x9,x17,x16
    80000008:	40be8e3b          	subw	x28,x29,x11
    8000000c:	007a26b3          	slt	x13,x20,x7
    80000010:	0055b2b3          	sltu	x5,x11,x5
    80000014:	40bf0bb3          	sub	x23,x30,x11
    80000018:	016f3d33          	sltu	x26,x30,x22
    8000001c:	01c245b3          	xor	x11,x4,x28
    80000020:	41268cb3          	sub	x25,x13,x18
    80000024:	00f6b233          	sltu	x4,x13,x15
    80000028:	008b8b3b          	addw	x22,x23,x8
    8000002c:	0138b933          	sltu	x18,x17,x19
    80000030:	014f7133          	and	x2,x30,x20
    80000034:	01fe02b3          	add	x5,x28,x31
    80000038:	41ef8dbb          	subw	x27,x31,x30
    8000003c:	01f98bb3          	add	x23,x19,x31
    80000040:	00de053b          	addw	x10,x28,x13
    80000044:	409a8433          	sub	x8,x21,x9
    80000048:	01e2ef33          	or	x30,x5,x30
    8000004c:	0031b8b3          	sltu	x17,x3,x3
    80000050:	00498a3b          	addw	x20,x19,x4
    80000054:	01a5fab3          	and	x21,x11,x26
    80000058:	41f589b3          	sub	x19,x11,x31
    8000005c:	018f33b3          	sltu	x7,x30,x24
    80000060:	0105bbb3          	sltu	x23,x11,x16
    80000064:	40ef0c33          	sub	x24,x30,x14
    80000068:	00b48abb          	addw	x21,x9,x11
    8000006c:	006fc433          	xor	x8,x31,x6
    80000070:	00ad0b33          	add	x22,x26,x10
    80000074:	01a1a1b3          	slt	x3,x3,x26
    80000078:	01f14333          	xor	x6,x2,x31
    8000007c:	415f8db3          	sub	x27,x31,x21
    80000080:	413d0fbb          	subw	x31,x26,x19
    80000084:	00aef9b3          	and	x19,x29,x10
    80000088:	01eaec33          	or	x24,x21,x30
    8000008c:	40f48a3b          	subw	x20,x9,x15
    80000090:	01abacb3          	slt	x25,x23,x26
    80000094:	016581bb          	addw	x3,x11,x22
    80000098:	417a88b3          	sub	x17,x21,x23
    8000009c:	0004843b          	addw	x8,x9,x0
    800000a0:	00adf2b3          	and	x5,x27,x10
    800000a4:	00e48f3b          	addw	x30,x9,x14
    800000a8:	40410fbb          	subw	x31,x2,x4
    800000ac:	00254cb3          	xor	x25,x10,x2
    800000b0:	003bbab3          	sltu	x21,x23,x3
    800000b4:	007b0233          	add	x4,x22,x7
    800000b8:	40d18733          	sub	x14,x3,x13
    800000bc:	400b8133          	sub	x2,x23,x0
    800000c0:	006de433          	or	x8,x27,x6
    800000c4:	01ee2533          	slt	x10,x28,x30
    800000c8:	01600d33          	add	x26,x0,x22
    800000cc:	41f28bbb          	subw	x23,x5,x31
    800000d0:	0034f1b3          	and	x3,x9,x3
    800000d4:	00787733          	and	x14,x16,x7
    800000d8:	002889b3          	add	x19,x17,x2
    800000dc:	40878db3          	sub	x27,x15,x8
    800000e0:	012e76b3          	and	x13,x28,x18
    800000e4:	007ccd33          	xor	x26,x25,x7
    800000e8:	006c0f33          	add	x30,x24,x6
    800000ec:	009945b3          	xor	x11,x18,x9
    800000f0:	41888b33          	sub	x22,x17,x24
    800000f4:	0188c033          	xor	x0,x17,x24
    800000f8:	40c98abb          	subw	x21,x19,x12
    800000fc:	01af87bb          	addw	x15,x31,x26
    80000100:	01ba7333          	and	x6,x20,x27
    80000104:	004e0933          	add	x18,x28,x4
    80000108:	01610e3b          	addw	x28,x2,x22
    8000010c:	01d4f2b3          	and	x5,x9,x29
    80000110:	00cba733          	slt	x14,x23,x12
    80000114:	017c0b3b          	addw	x22,x24,x23
    80000118:	00f5cd33          	xor	x26,x11,x15
    8000011c:	403c0fbb          	subw	x31,x24,x3
    80000120:	01938ab3          	add	x21,x7,x25
    80000124:	0084033b          	addw	x6,x8,x8
    80000128:	018ca733          	slt	x14,x25,x24
    8000012c:	41a7813b          	subw	x2,x15,x26
    80000130:	41bd0ebb          	subw	x29,x26,x27
    80000134:	00490433          	add	x8,x18,x4
    80000138:	0123fd33          	and	x26,x7,x18
    8000013c:	016a3933          	sltu	x18,x20,x22
    80000140:	00c88133          	add	x2,x17,x12
    80000144:	0038ffb3          	and	x31,x17,x3
    80000148:	417a043b          	subw	x8,x20,x23
    8000014c:	406d8f33          	sub	x30,x27,x6
    80000150:	010c07b3          	add	x15,x24,x16
    80000154:	0003803b          	addw	x0,x7,x0
    80000158:	014c8fb3          	add	x31,x25,x20
    8000015c:	41628433          	sub	x8,x5,x22
    80000160:	01a5e633          	or	x12,x11,x26
    80000164:	0109c2b3          	xor	x5,x19,x16
    80000168:	41258033          	sub	x0,x11,x18
    8000016c:	419386b3          	sub	x13,x7,x25
    80000170:	019cbfb3          	sltu	x31,x25,x25
    80000174:	00b3833b          	addw	x6,x7,x11
    80000178:	009181b3          	add	x3,x3,x9
    8000017c:	00f77ab3          	and	x21,x14,x15
    80000180:	017d0db3          	add	x27,x26,x23
    80000184:	011c2d33          	slt	x26,x24,x17
    80000188:	407986bb          	subw	x13,x19,x7
    8000018c:	00aa6733          	or	x14,x20,x10
    80000190:	009282b3          	add	x5,x5,x9
    80000194:	00ff063b          	addw	x12,x30,x15
    80000198:	418e87b3          	sub	x15,x29,x24
    8000019c:	00750133          	add	x2,x10,x7
    800001a0:	0106cbb3          	xor	x23,x13,x16
    800001a4:	40b30abb          	subw	x21,x6,x11
    800001a8:	409e0933          	sub	x18,x28,x9
    800001ac:	013385b3          	add	x11,x7,x19
    800001b0:	41f70533          	sub	x10,x14,x31
    800001b4:	0048063b          	addw	x12,x16,x4
    800001b8:	414a0b33          	sub	x22,x20,x20
    800001bc:	01ef0fbb          	addw	x31,x30,x30
    800001c0:	0049023b          	addw	x4,x18,x4
    800001c4:	00b12833          	slt	x16,x2,x11
    800001c8:	006c8dbb          	addw	x27,x25,x6
    800001cc:	00eacbb3          	xor	x23,x21,x14
    800001d0:	403f01b3          	sub	x3,x30,x3
    800001d4:	0024ee33          	or	x28,x9,x2
    800001d8:	40e2803b          	subw	x0,x5,x14
    800001dc:	011639b3          	sltu	x19,x12,x17
    800001e0:	01ab2f33          	slt	x30,x22,x26
    800001e4:	00d267b3          	or	x15,x4,x13
    800001e8:	01cb6533          	or	x10,x22,x28
    800001ec:	00d3c833          	xor	x16,x7,x13
    800001f0:	41af81b3          	sub	x3,x31,x26
    800001f4:	01d98ab3          	add	x21,x19,x29
    800001f8:	00f9e2b3          	or	x5,x19,x15
    800001fc:	002cf4b3          	and	x9,x25,x2
    80000200:	0063ec33          	or	x24,x7,x6
    80000204:	00e7e8b3          	or	x17,x15,x14
    80000208:	00433fb3          	sltu	x31,x6,x4
    8000020c:	00eaa2b3          	slt	x5,x21,x14
    80000210:	419909bb          	subw	x19,x18,x25
    80000214:	01290f3b          	addw	x30,x18,x18
    80000218:	009b6a33          	or	x20,x22,x9
    8000021c:	01bd0633          	add	x12,x26,x27
    80000220:	00258fbb          	addw	x31,x11,x2
    80000224:	0164b2b3          	sltu	x5,x9,x22
    80000228:	0167cf33          	xor	x30,x15,x22
    8000022c:	01ccfcb3          	and	x25,x25,x28
    80000230:	003e21b3          	slt	x3,x28,x3
    80000234:	00a23133          	sltu	x2,x4,x10
    80000238:	00064233          	xor	x4,x12,x0
    8000023c:	01e4a733          	slt	x14,x9,x30
    80000240:	0109ccb3          	xor	x25,x19,x16
    80000244:	014a3833          	sltu	x16,x20,x20
    80000248:	01a18b33          	add	x22,x3,x26
    8000024c:	003bbeb3          	sltu	x29,x23,x3
    80000250:	40a38e3b          	subw	x28,x7,x10
    80000254:	01f73ab3          	sltu	x21,x14,x31
    80000258:	0146af33          	slt	x30,x13,x20
    8000025c:	01706db3          	or	x27,x0,x23
    80000260:	00a30cb3          	add	x25,x6,x10
    80000264:	00b4b9b3          	sltu	x19,x9,x11
    80000268:	41f48833          	sub	x16,x9,x31
    8000026c:	00d77eb3          	and	x29,x14,x13
    80000270:	4173013b          	subw	x2,x6,x23
    80000274:	01b5c4b3          	xor	x9,x11,x27
    80000278:	013181bb          	addw	x3,x3,x19
    8000027c:	417983bb          	subw	x7,x19,x23
    80000280:	408d8d33          	sub	x26,x27,x8
    80000284:	017108bb          	addw	x17,x2,x23
    80000288:	002927b3          	slt	x15,x18,x2
    8000028c:	405e89b3          	sub	x19,x29,x5
    80000290:	017b8133          	add	x2,x23,x23
    80000294:	00564cb3          	xor	x25,x12,x5
    80000298:	0086bc33          	sltu	x24,x13,x8
    8000029c:	41de8f3b          	subw	x30,x29,x29
    800002a0:	0151a2b3          	slt	x5,x3,x21
    800002a4:	00cb2ab3          	slt	x21,x22,x12
    800002a8:	416d0cb3          	sub	x25,x26,x22
    800002ac:	00e37eb3          	and	x29,x6,x14
    800002b0:	01ec7db3          	and	x27,x24,x30
    800002b4:	407f08b3          	sub	x17,x30,x7
    800002b8:	00f68f33          	add	x30,x13,x15
    800002bc:	00f38d3b          	addw	x26,x7,x15
    800002c0:	003b0ebb          	addw	x29,x22,x3
    800002c4:	00980133          	add	x2,x16,x9
    800002c8:	014b8933          	add	x18,x23,x20
    800002cc:	01c264b3          	or	x9,x4,x28
    800002d0:	010a3d33          	sltu	x26,x20,x16
    800002d4:	0062b633          	sltu	x12,x5,x6
    800002d8:	40380b3b          	subw	x22,x16,x3
    800002dc:	40418833          	sub	x16,x3,x4
    800002e0:	41c28ebb          	subw	x29,x5,x28
    800002e4:	00f88f33          	add	x30,x17,x15
    800002e8:	40b8803b          	subw	x0,x17,x11
    800002ec:	0046f233          	and	x4,x13,x4
    800002f0:	402c8733          	sub	x14,x25,x2
    800002f4:	002407bb          	addw	x15,x8,x2
    800002f8:	00586fb3          	or	x31,x16,x5
    800002fc:	00804433          	xor	x8,x0,x8
    80000300:	40b00db3          	sub	x27,x0,x11
    80000304:	01600cbb          	addw	x25,x0,x22
    80000308:	010362b3          	or	x5,x6,x16
    8000030c:	41a70933          	sub	x18,x14,x26
    80000310:	00807333          	and	x6,x0,x8
    80000314:	00c986bb          	addw	x13,x19,x12
    80000318:	00ecfb33          	and	x22,x25,x14
    8000031c:	0041cbb3          	xor	x23,x3,x4
    80000320:	0075bab3          	sltu	x21,x11,x7
    80000324:	41e282bb          	subw	x5,x5,x30
    80000328:	00996633          	or	x12,x18,x9
    8000032c:	00b3eeb3          	or	x29,x7,x11
    80000330:	002c883b          	addw	x16,x25,x2
    80000334:	00f04bb3          	xor	x23,x0,x15
    80000338:	40518d33          	sub	x26,x3,x5
    8000033c:	40e9853b          	subw	x10,x19,x14
    80000340:	00b7cab3          	xor	x21,x15,x11
    80000344:	010401bb          	addw	x3,x8,x16
    80000348:	00298c3b          	addw	x24,x19,x2
    8000034c:	4100083b          	subw	x16,x0,x16
    80000350:	00d408bb          	addw	x17,x8,x13
    80000354:	007279b3          	and	x19,x4,x7
    80000358:	415204b3          	sub	x9,x4,x21
    8000035c:	012dcf33          	xor	x30,x27,x18
    80000360:	40fe033b          	subw	x6,x28,x15
    80000364:	411503bb          	subw	x7,x10,x17
    80000368:	00f28a3b          	addw	x20,x5,x15
    8000036c:	003c2c33          	slt	x24,x24,x3
    80000370:	00c4aeb3          	slt	x29,x9,x12
    80000374:	010d0fb3          	add	x31,x26,x16
    80000378:	00a3a033          	slt	x0,x7,x10
    8000037c:	40bb0db3          	sub	x27,x22,x11
    80000380:	00f33ab3          	sltu	x21,x6,x15
    80000384:	011c2233          	slt	x4,x24,x17
    80000388:	00feea33          	or	x20,x29,x15
    8000038c:	00507c33          	and	x24,x0,x5
    80000390:	00017d33          	and	x26,x2,x0
    80000394:	01597733          	and	x14,x18,x21
    80000398:	41c2083b          	subw	x16,x4,x28
    8000039c:	01d57633          	and	x12,x10,x29
    800003a0:	0021ebb3          	or	x23,x3,x2
    800003a4:	40a48f33          	sub	x30,x9,x10
    800003a8:	013235b3          	sltu	x11,x4,x19
    800003ac:	00336e33          	or	x28,x6,x3
    800003b0:	4125053b          	subw	x10,x10,x18
    800003b4:	0179cab3          	xor	x21,x19,x23
    800003b8:	01026a33          	or	x20,x4,x16
    800003bc:	01ddb733          	sltu	x14,x27,x29
    800003c0:	00d8f5b3          	and	x11,x17,x13
    800003c4:	01b24333          	xor	x6,x4,x27
    800003c8:	41780833          	sub	x16,x16,x23
    800003cc:	01ab22b3          	slt	x5,x22,x26
    800003d0:	014cf7b3          	and	x15,x25,x20
    800003d4:	414a04bb          	subw	x9,x20,x20
    800003d8:	019a36b3          	sltu	x13,x20,x25
    800003dc:	006609b3          	add	x19,x12,x6
    800003e0:	007c2133          	slt	x2,x24,x7
    800003e4:	010a07b3          	add	x15,x20,x16
    800003e8:	01a20ab3          	add	x21,x4,x26
    800003ec:	41ae0d33          	sub	x26,x28,x26
    800003f0:	4036803b          	subw	x0,x13,x3
    800003f4:	40a10bb3          	sub	x23,x2,x10
    800003f8:	0064fe33          	and	x28,x9,x6
    800003fc:	00f2f433          	and	x8,x5,x15
    80000400:	00f6ad33          	slt	x26,x13,x15
    80000404:	0167c633          	xor	x12,x15,x22
    80000408:	419882bb          	subw	x5,x17,x25
    8000040c:	00674a33          	xor	x20,x14,x6
    80000410:	00e8e3b3          	or	x7,x17,x14
    80000414:	413f08bb          	subw	x17,x30,x19
    80000418:	41e50e3b          	subw	x28,x10,x30
    8000041c:	01646833          	or	x16,x8,x22
    80000420:	00910733          	add	x14,x2,x9
    80000424:	40260333          	sub	x6,x12,x2
    80000428:	00bbc4b3          	xor	x9,x23,x11
    8000042c:	41da8db3          	sub	x27,x21,x29
    80000430:	0117feb3          	and	x29,x15,x17
    80000434:	019ba133          	slt	x2,x23,x25
    80000438:	014bbc33          	sltu	x24,x23,x20
    8000043c:	41180a3b          	subw	x20,x16,x17
    80000440:	0088fd33          	and	x26,x17,x8
    80000444:	0031853b          	addw	x10,x3,x3
    80000448:	00068333          	add	x6,x13,x0
    8000044c:	00507c33          	and	x24,x0,x5
    80000450:	41980f33          	sub	x30,x16,x25
    80000454:	0147eb33          	or	x22,x15,x20
    80000458:	00c46833          	or	x16,x8,x12
    8000045c:	41d18ab3          	sub	x21,x3,x29
    80000460:	00f985bb          	addw	x11,x19,x15
    80000464:	013004bb          	addw	x9,x0,x19
    80000468:	003703b3          	add	x7,x14,x3
    8000046c:	0087ea33          	or	x20,x15,x8
    80000470:	01cd6633          	or	x12,x26,x28
    80000474:	010af6b3          	and	x13,x21,x16
    80000478:	01b7f9b3          	and	x19,x15,x27
    8000047c:	01656133          	or	x2,x10,x22
    80000480:	41490033          	sub	x0,x18,x20
    80000484:	011f2233          	slt	x4,x30,x17
    80000488:	00792933          	slt	x18,x18,x7
    8000048c:	40758333          	sub	x6,x11,x7
    80000490:	013548b3          	xor	x17,x10,x19
    80000494:	41680fb3          	sub	x31,x16,x22
    80000498:	4093813b          	subw	x2,x7,x9
    8000049c:	01e3a533          	slt	x10,x7,x30
    800004a0:	0106f733          	and	x14,x13,x16
    800004a4:	41760ab3          	sub	x21,x12,x23
    800004a8:	01b43f33          	sltu	x30,x8,x27
    800004ac:	0138fe33          	and	x28,x17,x19
    800004b0:	009ba9b3          	slt	x19,x23,x9
    800004b4:	00407433          	and	x8,x0,x4
    800004b8:	40fd0333          	sub	x6,x26,x15
    800004bc:	01b664b3          	or	x9,x12,x27
    800004c0:	015b0e33          	add	x28,x22,x21
    800004c4:	4102013b          	subw	x2,x4,x16
    800004c8:	016df2b3          	and	x5,x27,x22
    800004cc:	01ac85bb          	addw	x11,x25,x26
    800004d0:	00a6bcb3          	sltu	x25,x13,x10
    800004d4:	00da6233          	or	x4,x20,x13
    800004d8:	0187853b          	addw	x10,x15,x24
    800004dc:	007b26b3          	slt	x13,x22,x7
    800004e0:	01504f33          	xor	x30,x0,x21
    800004e4:	0167b733          	sltu	x14,x15,x22
    800004e8:	01028eb3          	add	x29,x5,x16
    800004ec:	0039c333          	xor	x6,x19,x3
    800004f0:	01c44db3          	xor	x27,x8,x28
    800004f4:	019e2ab3          	slt	x21,x28,x25
    800004f8:	005d64b3          	or	x9,x26,x5
    800004fc:	00e7eeb3          	or	x29,x15,x14
    80000500:	0048cbb3          	xor	x23,x17,x4
    80000504:	00db0933          	add	x18,x22,x13
    80000508:	0005a833          	slt	x16,x11,x0
    8000050c:	006c6a33          	or	x20,x24,x6
    80000510:	011e2f33          	slt	x30,x28,x17
    80000514:	003d35b3          	sltu	x11,x26,x3
    80000518:	00ebf2b3          	and	x5,x23,x14
    8000051c:	01d6efb3          	or	x31,x13,x29
    80000520:	008177b3          	and	x15,x2,x8
    80000524:	01bd86b3          	add	x13,x27,x27
    80000528:	01996633          	or	x12,x18,x25
    8000052c:	019764b3          	or	x9,x14,x25
    80000530:	010045b3          	xor	x11,x0,x16
    80000534:	019e3133          	sltu	x2,x28,x25
    80000538:	01404833          	xor	x16,x0,x20
    8000053c:	00350033          	add	x0,x10,x3
    80000540:	00ec8533          	add	x10,x25,x14
    80000544:	40f20fb3          	sub	x31,x4,x15
    80000548:	4124033b          	subw	x6,x8,x18
    8000054c:	40d783bb          	subw	x7,x15,x13
    80000550:	01b74c33          	xor	x24,x14,x27
    80000554:	410007bb          	subw	x15,x0,x16
    80000558:	01eafab3          	and	x21,x21,x30
    8000055c:	01612eb3          	slt	x29,x2,x22
    80000560:	40668733          	sub	x14,x13,x6
    80000564:	017289b3          	add	x19,x5,x23
    80000568:	01adbfb3          	sltu	x31,x27,x26
    8000056c:	0085c1b3          	xor	x3,x11,x8
    80000570:	01d044b3          	xor	x9,x0,x29
    80000574:	01eecdb3          	xor	x27,x29,x30
    80000578:	004cb3b3          	sltu	x7,x25,x4
    8000057c:	41728bbb          	subw	x23,x5,x23
    80000580:	0162ad33          	slt	x26,x5,x22
    80000584:	01e60533          	add	x10,x12,x30
    80000588:	402c003b          	subw	x0,x24,x2
    8000058c:	00c72233          	slt	x4,x14,x12
    80000590:	0145c933          	xor	x18,x11,x20
    80000594:	01de043b          	addw	x8,x28,x29
    80000598:	41e6073b          	subw	x14,x12,x30
    8000059c:	00c02833          	slt	x16,x0,x12
    800005a0:	014b35b3          	sltu	x11,x22,x20
    800005a4:	017b0eb3          	add	x29,x22,x23
    800005a8:	002cb4b3          	sltu	x9,x25,x2
    800005ac:	004da7b3          	slt	x15,x27,x4
    800005b0:	4029873b          	subw	x14,x19,x2
    800005b4:	002d8533          	add	x10,x27,x2
    800005b8:	017d7d33          	and	x26,x26,x23
    800005bc:	007efcb3          	and	x25,x29,x7
    800005c0:	00f639b3          	sltu	x19,x12,x15
    800005c4:	015273b3          	and	x7,x4,x21
    800005c8:	01548f3b          	addw	x30,x9,x21
    800005cc:	0066bc33          	sltu	x24,x13,x6
    800005d0:	01fdc633          	xor	x12,x27,x31
    800005d4:	002f8ab3          	add	x21,x31,x2
    800005d8:	00a6c6b3          	xor	x13,x13,x10
    800005dc:	01e975b3          	and	x11,x18,x30
    800005e0:	40688c3b          	subw	x24,x17,x6
    800005e4:	01628f33          	add	x30,x5,x22
    800005e8:	00c288b3          	add	x17,x5,x12
    800005ec:	01990db3          	add	x27,x18,x25
    800005f0:	007afd33          	and	x26,x21,x7
    800005f4:	409709b3          	sub	x19,x14,x9
    800005f8:	00334933          	xor	x18,x6,x3
    800005fc:	01124ab3          	xor	x21,x4,x17
    80000600:	01d6bbb3          	sltu	x23,x13,x29
    80000604:	40a504bb          	subw	x9,x10,x10
    80000608:	01fe87b3          	add	x15,x29,x31
    8000060c:	013a7533          	and	x10,x20,x19
    80000610:	0076b6b3          	sltu	x13,x13,x7
    80000614:	40028f3b          	subw	x30,x5,x0
    80000618:	019eb2b3          	sltu	x5,x29,x25
    8000061c:	402907bb          	subw	x15,x18,x2
    80000620:	017c38b3          	sltu	x17,x24,x23
    80000624:	0146e033          	or	x0,x13,x20
    80000628:	0194cd33          	xor	x26,x9,x25
    8000062c:	013d8c3b          	addw	x24,x27,x19
    80000630:	009e0e33          	add	x28,x28,x9
    80000634:	01d3e533          	or	x10,x7,x29
    80000638:	410a01bb          	subw	x3,x20,x16
    8000063c:	011d6db3          	or	x27,x26,x17
    80000640:	019f3f33          	sltu	x30,x30,x25
    80000644:	41138433          	sub	x8,x7,x17
    80000648:	40fb8833          	sub	x16,x23,x15
    8000064c:	01c7f533          	and	x10,x15,x28
    80000650:	00368bbb          	addw	x23,x13,x3
    80000654:	0009f033          	and	x0,x19,x0
    80000658:	00fef433          	and	x8,x29,x15
    8000065c:	419e88bb          	subw	x17,x29,x25
    80000660:	403f8dbb          	subw	x27,x31,x3
    80000664:	016fa733          	slt	x14,x31,x22
    80000668:	00ad4b33          	xor	x22,x26,x10
    8000066c:	00d00fbb          	addw	x31,x0,x13
    80000670:	0022a933          	slt	x18,x5,x2
    80000674:	40c60ab3          	sub	x21,x12,x12
    80000678:	01a381b3          	add	x3,x7,x26
    8000067c:	411a0cb3          	sub	x25,x20,x17
    80000680:	000f8633          	add	x12,x31,x0
    80000684:	01d307bb          	addw	x15,x6,x29
    80000688:	006d78b3          	and	x17,x26,x6
    8000068c:	01454733          	xor	x14,x10,x20
    80000690:	00528333          	add	x6,x5,x5
    80000694:	01bcadb3          	slt	x27,x25,x27
    80000698:	014f8e33          	add	x28,x31,x20
    8000069c:	019a0fb3          	add	x31,x20,x25
    800006a0:	41d683bb          	subw	x7,x13,x29
    800006a4:	406981b3          	sub	x3,x19,x6
    800006a8:	00bef4b3          	and	x9,x29,x11
    800006ac:	00cd0d3b          	addw	x26,x26,x12
    800006b0:	00697a33          	and	x20,x18,x6
    800006b4:	00232ab3          	slt	x21,x6,x2
    800006b8:	00294c33          	xor	x24,x18,x2
    800006bc:	00718fbb          	addw	x31,x3,x7
    800006c0:	01d42b33          	slt	x22,x8,x29
    800006c4:	01a328b3          	slt	x17,x6,x26
    800006c8:	01028bbb          	addw	x23,x5,x16
    800006cc:	0039b133          	sltu	x2,x19,x3
    800006d0:	01f03633          	sltu	x12,x0,x31
    800006d4:	418802b3          	sub	x5,x16,x24
    800006d8:	00e90b3b          	addw	x22,x18,x14
    800006dc:	41f78a3b          	subw	x20,x15,x31
    800006e0:	40068333          	sub	x6,x13,x0
    800006e4:	0003ce33          	xor	x28,x7,x0
    800006e8:	00240bbb          	addw	x23,x8,x2
    800006ec:	41a10c3b          	subw	x24,x2,x26
    800006f0:	00277f33          	and	x30,x14,x2
    800006f4:	003fc633          	xor	x12,x31,x3
    800006f8:	40d8013b          	subw	x2,x16,x13
    800006fc:	0155fcb3          	and	x25,x11,x21
    80000700:	0003a833          	slt	x16,x7,x0
    80000704:	00852f33          	slt	x30,x10,x8
    80000708:	4056823b          	subw	x4,x13,x5
    8000070c:	40068033          	sub	x0,x13,x0
    80000710:	01abc7b3          	xor	x15,x23,x26
    80000714:	01d906b3          	add	x13,x18,x29
    80000718:	014dbe33          	sltu	x28,x27,x20
    8000071c:	0151a233          	slt	x4,x3,x21
    80000720:	40af0f3b          	subw	x30,x30,x10
    80000724:	00598bb3          	add	x23,x19,x5
    80000728:	40568633          	sub	x12,x13,x5
    8000072c:	01332133          	slt	x2,x6,x19
    80000730:	00f071b3          	and	x3,x0,x15
    80000734:	01ba843b          	addw	x8,x21,x27
    80000738:	01d4c4b3          	xor	x9,x9,x29
    8000073c:	00cd4cb3          	xor	x25,x26,x12
    80000740:	0189803b          	addw	x0,x19,x24
    80000744:	40b581bb          	subw	x3,x11,x11
    80000748:	00b47733          	and	x14,x8,x11
    8000074c:	0114053b          	addw	x10,x8,x17
    80000750:	007ba833          	slt	x16,x23,x7
    80000754:	400e8bbb          	subw	x23,x29,x0
    80000758:	01a04b33          	xor	x22,x0,x26
    8000075c:	406f0dbb          	subw	x27,x30,x6
    80000760:	01f04033          	xor	x0,x0,x31
    80000764:	0031093b          	addw	x18,x2,x3
    80000768:	01528eb3          	add	x29,x5,x21
    8000076c:	01834e33          	xor	x28,x6,x24
    80000770:	40f10f3b          	subw	x30,x2,x15
    80000774:	40bb8a3b          	subw	x20,x23,x11
    80000778:	011662b3          	or	x5,x12,x17
    8000077c:	003769b3          	or	x19,x14,x3
    80000780:	019b47b3          	xor	x15,x22,x25
    80000784:	0108023b          	addw	x4,x16,x16
    80000788:	00a86a33          	or	x20,x16,x10
    8000078c:	412c84bb          	subw	x9,x25,x18
    80000790:	41f18bbb          	subw	x23,x3,x31
    80000794:	00e9f5b3          	and	x11,x19,x14
    80000798:	018c3033          	sltu	x0,x24,x24
    8000079c:	00362533          	slt	x10,x12,x3
    800007a0:	01980f3b          	addw	x30,x16,x25
    800007a4:	40618ab3          	sub	x21,x3,x6
    800007a8:	410e013b          	subw	x2,x28,x16
    800007ac:	41a2883b          	subw	x16,x5,x26
    800007b0:	0078abb3          	slt	x23,x17,x7
    800007b4:	00f94633          	xor	x12,x18,x15
    800007b8:	01d5cb33          	xor	x22,x11,x29
    800007bc:	00d6b233          	sltu	x4,x13,x13
    800007c0:	01d74cb3          	xor	x25,x14,x29
    800007c4:	01d9ac33          	slt	x24,x19,x29
    800007c8:	00750433          	add	x8,x10,x7
    800007cc:	0177863b          	addw	x12,x15,x23
    800007d0:	010a05b3          	add	x11,x20,x16
    800007d4:	00a88d33          	add	x26,x17,x10
    800007d8:	40f38e3b          	subw	x28,x7,x15
    800007dc:	016242b3          	xor	x5,x4,x22
    800007e0:	010003bb          	addw	x7,x0,x16
    800007e4:	417188bb          	subw	x17,x3,x23
    800007e8:	41580eb3          	sub	x29,x16,x21
    800007ec:	00643333          	sltu	x6,x8,x6
    800007f0:	00056433          	or	x8,x10,x0
    800007f4:	013fb2b3          	sltu	x5,x31,x19
    800007f8:	00dd8bbb          	addw	x23,x27,x13
    800007fc:	01e20d3b          	addw	x26,x4,x30
    80000800:	40758ebb          	subw	x29,x11,x7
    80000804:	00c90b3b          	addw	x22,x18,x12
    80000808:	00d2bcb3          	sltu	x25,x5,x13
    8000080c:	00d43533          	sltu	x10,x8,x13
    80000810:	0128873b          	addw	x14,x17,x18
    80000814:	01f87833          	and	x16,x16,x31
    80000818:	40528d33          	sub	x26,x5,x5
    8000081c:	018b8b33          	add	x22,x23,x24
    80000820:	01ddb233          	sltu	x4,x27,x29
    80000824:	017c6bb3          	or	x23,x24,x23
    80000828:	01b532b3          	sltu	x5,x10,x27
    8000082c:	01e1c7b3          	xor	x15,x3,x30
    80000830:	00e30033          	add	x0,x6,x14
    80000834:	01a326b3          	slt	x13,x6,x26
    80000838:	01bba833          	slt	x16,x23,x27
    8000083c:	01ea7d33          	and	x26,x20,x30
    80000840:	015ae3b3          	or	x7,x21,x21
    80000844:	406a0eb3          	sub	x29,x20,x6
    80000848:	006b8fb3          	add	x31,x23,x6
    8000084c:	017ab7b3          	sltu	x15,x21,x23
    80000850:	018ce8b3          	or	x17,x25,x24
    80000854:	415004bb          	subw	x9,x0,x21
    80000858:	01234733          	xor	x14,x6,x18
    8000085c:	003f0833          	add	x16,x30,x3
    80000860:	4154063b          	subw	x12,x8,x21
    80000864:	018a2133          	slt	x2,x20,x24
    80000868:	415f8533          	sub	x10,x31,x21
    8000086c:	011cab33          	slt	x22,x25,x17
    80000870:	0093a5b3          	slt	x11,x7,x9
    80000874:	00d3b7b3          	sltu	x15,x7,x13
    80000878:	0031c933          	xor	x18,x3,x3
    8000087c:	010ba733          	slt	x14,x23,x16
    80000880:	0144b1b3          	sltu	x3,x9,x20
    80000884:	00b2efb3          	or	x31,x5,x11
    80000888:	005ec6b3          	xor	x13,x29,x5
    8000088c:	01e14cb3          	xor	x25,x2,x30
    80000890:	008a4ab3          	xor	x21,x20,x8
    80000894:	01370133          	add	x2,x14,x19
    80000898:	005dadb3          	slt	x27,x27,x5
    8000089c:	01d6a9b3          	slt	x19,x13,x29
    800008a0:	000c82bb          	addw	x5,x25,x0
    800008a4:	01f96533          	or	x10,x18,x31
    800008a8:	0004f5b3          	and	x11,x9,x0
    800008ac:	00eaa7b3          	slt	x15,x21,x14
    800008b0:	417681b3          	sub	x3,x13,x23
    800008b4:	410e04bb          	subw	x9,x28,x16
    800008b8:	40a30ebb          	subw	x29,x6,x10
    800008bc:	01cdf433          	and	x8,x27,x28
    800008c0:	00ff2cb3          	slt	x25,x30,x15
    800008c4:	005b77b3          	and	x15,x22,x5
    800008c8:	41368733          	sub	x14,x13,x19
    800008cc:	01bc24b3          	slt	x9,x24,x27
    800008d0:	01168c3b          	addw	x24,x13,x17
    800008d4:	01d876b3          	and	x13,x16,x29
    800008d8:	00b9f233          	and	x4,x19,x11
    800008dc:	40f30933          	sub	x18,x6,x15
    800008e0:	00c3ee33          	or	x28,x7,x12
    800008e4:	0192a4b3          	slt	x9,x5,x25
    800008e8:	414887bb          	subw	x15,x17,x20
    800008ec:	017fab33          	slt	x22,x31,x23
    800008f0:	01376cb3          	or	x25,x14,x19
    800008f4:	00c47933          	and	x18,x8,x12
    800008f8:	00303d33          	sltu	x26,x0,x3
    800008fc:	0086a5b3          	slt	x11,x13,x8
    80000900:	41da813b          	subw	x2,x21,x29
    80000904:	00a20833          	add	x16,x4,x10
    80000908:	0076ee33          	or	x28,x13,x7
    8000090c:	41af03b3          	sub	x7,x30,x26
    80000910:	0035003b          	addw	x0,x10,x3
    80000914:	002a87b3          	add	x15,x21,x2
    80000918:	017fc2b3          	xor	x5,x31,x23
    8000091c:	013e6233          	or	x4,x28,x19
    80000920:	018ae133          	or	x2,x21,x24
    80000924:	409b033b          	subw	x6,x22,x9
    80000928:	01196633          	or	x12,x18,x17
    8000092c:	01202f33          	slt	x30,x0,x18
    80000930:	003e6833          	or	x16,x28,x3
    80000934:	00eb7033          	and	x0,x22,x14
    80000938:	01968fbb          	addw	x31,x13,x25
    8000093c:	01632bb3          	slt	x23,x6,x22
    80000940:	00553233          	sltu	x4,x10,x5
    80000944:	41a105b3          	sub	x11,x2,x26
    80000948:	019e4b33          	xor	x22,x28,x25
    8000094c:	015447b3          	xor	x15,x8,x21
    80000950:	0148843b          	addw	x8,x17,x20
    80000954:	004ab233          	sltu	x4,x21,x4
    80000958:	012a22b3          	slt	x5,x20,x18
    8000095c:	0169a4b3          	slt	x9,x19,x22
    80000960:	00d903bb          	addw	x7,x18,x13
    80000964:	415b81bb          	subw	x3,x23,x21
    80000968:	00cf8fbb          	addw	x31,x31,x12
    8000096c:	0137a5b3          	slt	x11,x15,x19
    80000970:	41b9003b          	subw	x0,x18,x27
    80000974:	01c80ab3          	add	x21,x16,x28
    80000978:	009824b3          	slt	x9,x16,x9
    8000097c:	0069f9b3          	and	x19,x19,x6
    80000980:	00e668b3          	or	x17,x12,x14
    80000984:	01f2ac33          	slt	x24,x5,x31
    80000988:	0071bd33          	sltu	x26,x3,x7
    8000098c:	019bf933          	and	x18,x23,x25
    80000990:	40b28133          	sub	x2,x5,x11
    80000994:	01eb0633          	add	x12,x22,x30
    80000998:	00f8ceb3          	xor	x29,x17,x15
    8000099c:	0089e833          	or	x16,x19,x8
    800009a0:	01e1c7b3          	xor	x15,x3,x30
    800009a4:	01fc8e3b          	addw	x28,x25,x31
    800009a8:	00bd33b3          	sltu	x7,x26,x11
    800009ac:	01aaca33          	xor	x20,x21,x26
    800009b0:	41ac02bb          	subw	x5,x24,x26
    800009b4:	009b2cb3          	slt	x25,x22,x9
    800009b8:	01252133          	slt	x2,x10,x18
    800009bc:	009e0abb          	addw	x21,x28,x9
    800009c0:	007181b3          	add	x3,x3,x7
    800009c4:	017d68b3          	or	x17,x26,x23
    800009c8:	006d6d33          	or	x26,x26,x6
    800009cc:	018c37b3          	sltu	x15,x24,x24
    800009d0:	01367cb3          	and	x25,x12,x19
    800009d4:	01466333          	or	x6,x12,x20
    800009d8:	00e88dbb          	addw	x27,x17,x14
    800009dc:	01162c33          	slt	x24,x12,x17
    800009e0:	41d482b3          	sub	x5,x9,x29
    800009e4:	40f38eb3          	sub	x29,x7,x15
    800009e8:	0089acb3          	slt	x25,x19,x8
    800009ec:	00010d3b          	addw	x26,x2,x0
    800009f0:	40f1843b          	subw	x8,x3,x15
    800009f4:	416389bb          	subw	x19,x7,x22
    800009f8:	01228c33          	add	x24,x5,x18
    800009fc:	014725b3          	slt	x11,x14,x20
    80000a00:	0171b1b3          	sltu	x3,x3,x23
    80000a04:	00802eb3          	slt	x29,x0,x8
    80000a08:	40ee0b3b          	subw	x22,x28,x14
    80000a0c:	000df233          	and	x4,x27,x0
    80000a10:	01506bb3          	or	x23,x0,x21
    80000a14:	010336b3          	sltu	x13,x6,x16
    80000a18:	011af2b3          	and	x5,x21,x17
    80000a1c:	01057fb3          	and	x31,x10,x16
    80000a20:	40c98dbb          	subw	x27,x19,x12
    80000a24:	00aaef33          	or	x30,x21,x10
    80000a28:	40c30133          	sub	x2,x6,x12
    80000a2c:	01192233          	slt	x4,x18,x17
    80000a30:	41a786bb          	subw	x13,x15,x26
    80000a34:	01788333          	add	x6,x17,x23
    80000a38:	00044eb3          	xor	x29,x8,x0
    80000a3c:	40a88d33          	sub	x26,x17,x10
    80000a40:	00a50bb3          	add	x23,x10,x10
    80000a44:	40b6823b          	subw	x4,x13,x11
    80000a48:	016f0abb          	addw	x21,x30,x22
    80000a4c:	013fee33          	or	x28,x31,x19
    80000a50:	01263133          	sltu	x2,x12,x18
    80000a54:	01243033          	sltu	x0,x8,x18
    80000a58:	00d58c33          	add	x24,x11,x13
    80000a5c:	01634733          	xor	x14,x6,x22
    80000a60:	01df38b3          	sltu	x17,x30,x29
    80000a64:	405b0533          	sub	x10,x22,x5
    80000a68:	005b31b3          	sltu	x3,x22,x5
    80000a6c:	01faa133          	slt	x2,x21,x31
    80000a70:	016367b3          	or	x15,x6,x22
    80000a74:	01ade433          	or	x8,x27,x26
    80000a78:	018568b3          	or	x17,x10,x24
    80000a7c:	00b3a733          	slt	x14,x7,x11
    80000a80:	00738b3b          	addw	x22,x7,x7
    80000a84:	00562fb3          	slt	x31,x12,x5
    80000a88:	01ccfa33          	and	x20,x25,x28
    80000a8c:	01ec81b3          	add	x3,x25,x30
    80000a90:	01dd05bb          	addw	x11,x26,x29
    80000a94:	0172013b          	addw	x2,x4,x23
    80000a98:	006f06b3          	add	x13,x30,x6
    80000a9c:	00964db3          	xor	x27,x12,x9
    80000aa0:	0127bab3          	sltu	x21,x15,x18
    80000aa4:	41498833          	sub	x16,x19,x20
    80000aa8:	4161823b          	subw	x4,x3,x22
    80000aac:	00b3a633          	slt	x12,x7,x11
    80000ab0:	01a8ecb3          	or	x25,x17,x26
    80000ab4:	01f07133          	and	x2,x0,x31
    80000ab8:	00558c33          	add	x24,x11,x5
    80000abc:	017a06bb          	addw	x13,x20,x23
    80000ac0:	01bf71b3          	and	x3,x30,x27
    80000ac4:	007a6db3          	or	x27,x20,x7
    80000ac8:	01e17b33          	and	x22,x2,x30
    80000acc:	4155083b          	subw	x16,x10,x21
    80000ad0:	01e66533          	or	x10,x12,x30
    80000ad4:	01a8b933          	sltu	x18,x17,x26
    80000ad8:	406687b3          	sub	x15,x13,x6
    80000adc:	01b43133          	sltu	x2,x8,x27
    80000ae0:	00902833          	slt	x16,x0,x9
    80000ae4:	41f285b3          	sub	x11,x5,x31
    80000ae8:	0009c333          	xor	x6,x19,x0
    80000aec:	00590abb          	addw	x21,x18,x5
    80000af0:	00c9b4b3          	sltu	x9,x19,x12
    80000af4:	0138f833          	and	x16,x17,x19
    80000af8:	014d83b3          	add	x7,x27,x20
    80000afc:	0055043b          	addw	x8,x10,x5
    80000b00:	01e6ef33          	or	x30,x13,x30
    80000b04:	00bac333          	xor	x6,x21,x11
    80000b08:	00b4b033          	sltu	x0,x9,x11
    80000b0c:	40b48d3b          	subw	x26,x9,x11
    80000b10:	015fb3b3          	sltu	x7,x31,x21
    80000b14:	0145ce33          	xor	x28,x11,x20
    80000b18:	019f7f33          	and	x30,x30,x25
    80000b1c:	01d80cb3          	add	x25,x16,x29
    80000b20:	0067e133          	or	x2,x15,x6
    80000b24:	4087093b          	subw	x18,x14,x8
    80000b28:	41198a3b          	subw	x20,x19,x17
    80000b2c:	41520333          	sub	x6,x4,x21
    80000b30:	00020fb3          	add	x31,x4,x0
    80000b34:	01076db3          	or	x27,x14,x16
    80000b38:	0186f7b3          	and	x15,x13,x24
    80000b3c:	403d053b          	subw	x10,x26,x3
    80000b40:	01a44ab3          	xor	x21,x8,x26
    80000b44:	002ee133          	or	x2,x29,x2
    80000b48:	01b23f33          	sltu	x30,x4,x27
    80000b4c:	01a8a4b3          	slt	x9,x17,x26
    80000b50:	013c4bb3          	xor	x23,x24,x19
    80000b54:	006b7033          	and	x0,x22,x6
    80000b58:	00e70cbb          	addw	x25,x14,x14
    80000b5c:	01bc79b3          	and	x19,x24,x27
    80000b60:	01117333          	and	x6,x2,x17
    80000b64:	00d7ebb3          	or	x23,x15,x13
    80000b68:	005825b3          	slt	x11,x16,x5
    80000b6c:	01e62fb3          	slt	x31,x12,x30
    80000b70:	016c073b          	addw	x14,x24,x22
    80000b74:	40fa87bb          	subw	x15,x21,x15
    80000b78:	01ecb533          	sltu	x10,x25,x30
    80000b7c:	0078e3b3          	or	x7,x17,x7
    80000b80:	01537ab3          	and	x21,x6,x21
    80000b84:	014c4f33          	xor	x30,x24,x20
    80000b88:	01f9be33          	sltu	x28,x19,x31
    80000b8c:	00f52633          	slt	x12,x10,x15
    80000b90:	012bf833          	and	x16,x23,x18
    80000b94:	007d0eb3          	add	x29,x26,x7
    80000b98:	003cf8b3          	and	x17,x25,x3
    80000b9c:	004b83b3          	add	x7,x23,x4
    80000ba0:	01f07f33          	and	x30,x0,x31
    80000ba4:	006b6333          	or	x6,x22,x6
    80000ba8:	00be8bbb          	addw	x23,x29,x11
    80000bac:	000c8cb3          	add	x25,x25,x0
    80000bb0:	01f38ab3          	add	x21,x7,x31
    80000bb4:	00e4ffb3          	and	x31,x9,x14
    80000bb8:	00c62db3          	slt	x27,x12,x12
    80000bbc:	41d709b3          	sub	x19,x14,x29
    80000bc0:	41c00cb3          	sub	x25,x0,x28
    80000bc4:	012ac033          	xor	x0,x21,x18
    80000bc8:	008e76b3          	and	x13,x28,x8
    80000bcc:	4076043b          	subw	x8,x12,x7
    80000bd0:	006d49b3          	xor	x19,x26,x6
    80000bd4:	019bb8b3          	sltu	x17,x23,x25
    80000bd8:	01016033          	or	x0,x2,x16
    80000bdc:	019c8cb3          	add	x25,x25,x25
    80000be0:	00f24a33          	xor	x20,x4,x15
    80000be4:	018c7633          	and	x12,x24,x24
    80000be8:	00d1edb3          	or	x27,x3,x13
    80000bec:	01cc45b3          	xor	x11,x24,x28
    80000bf0:	01797933          	and	x18,x18,x23
    80000bf4:	003c04bb          	addw	x9,x24,x3
    80000bf8:	006eaf33          	slt	x30,x29,x6
    80000bfc:	41550a33          	sub	x20,x10,x21
    80000c00:	40f80bbb          	subw	x23,x16,x15
    80000c04:	01c7cb33          	xor	x22,x15,x28
    80000c08:	01fcccb3          	xor	x25,x25,x31
    80000c0c:	404e89b3          	sub	x19,x29,x4
    80000c10:	00a84e33          	xor	x28,x16,x10
    80000c14:	40ee8c33          	sub	x24,x29,x14
    80000c18:	004f74b3          	and	x9,x30,x4
    80000c1c:	014f893b          	addw	x18,x31,x20
    80000c20:	41610033          	sub	x0,x2,x22
    80000c24:	00530eb3          	add	x29,x6,x5
    80000c28:	413f07bb          	subw	x15,x30,x19
    80000c2c:	01fc0633          	add	x12,x24,x31
    80000c30:	010d4233          	xor	x4,x26,x16
    80000c34:	01146133          	or	x2,x8,x17
    80000c38:	01ec01b3          	add	x3,x24,x30
    80000c3c:	41cb043b          	subw	x8,x22,x28
    80000c40:	01f8f933          	and	x18,x17,x31
    80000c44:	01fe3233          	sltu	x4,x28,x31
    80000c48:	0163ab33          	slt	x22,x7,x22
    80000c4c:	0174ccb3          	xor	x25,x9,x23
    80000c50:	0151cfb3          	xor	x31,x3,x21
    80000c54:	00a525b3          	slt	x11,x10,x10
    80000c58:	000c6733          	or	x14,x24,x0
    80000c5c:	01ce09b3          	add	x19,x28,x28
    80000c60:	40ac0033          	sub	x0,x24,x10
    80000c64:	01f34eb3          	xor	x29,x6,x31
    80000c68:	00c2b333          	sltu	x6,x5,x12
    80000c6c:	00df8db3          	add	x27,x31,x13
    80000c70:	01cac6b3          	xor	x13,x21,x28
    80000c74:	408701b3          	sub	x3,x14,x8
    80000c78:	01977933          	and	x18,x14,x25
    80000c7c:	014aa9b3          	slt	x19,x21,x20
    80000c80:	41160233          	sub	x4,x12,x17
    80000c84:	41678ebb          	subw	x29,x15,x22
    80000c88:	0147aab3          	slt	x21,x15,x20
    80000c8c:	418304b3          	sub	x9,x6,x24
    80000c90:	40d98fbb          	subw	x31,x19,x13
    80000c94:	0052c1b3          	xor	x3,x5,x5
    80000c98:	016c07b3          	add	x15,x24,x22
    80000c9c:	41420cb3          	sub	x25,x4,x20
    80000ca0:	00d5fab3          	and	x21,x11,x13
    80000ca4:	01fb2733          	slt	x14,x22,x31
    80000ca8:	017d0e3b          	addw	x28,x26,x23
    80000cac:	00862933          	slt	x18,x12,x8
    80000cb0:	00ddb133          	sltu	x2,x27,x13
    80000cb4:	014f063b          	addw	x12,x30,x20
    80000cb8:	004b04b3          	add	x9,x22,x4
    80000cbc:	0117a2b3          	slt	x5,x15,x17
    80000cc0:	01506b33          	or	x22,x0,x21
    80000cc4:	01713233          	sltu	x4,x2,x23
    80000cc8:	0087813b          	addw	x2,x15,x8
    80000ccc:	0139863b          	addw	x12,x19,x19
    80000cd0:	419f003b          	subw	x0,x30,x25
    80000cd4:	014cecb3          	or	x25,x25,x20
    80000cd8:	01ff0d3b          	addw	x26,x30,x31
    80000cdc:	01cec1b3          	xor	x3,x29,x28
    80000ce0:	008c29b3          	slt	x19,x24,x8
    80000ce4:	41858dbb          	subw	x27,x11,x24
    80000ce8:	01902433          	slt	x8,x0,x25
    80000cec:	01fbabb3          	slt	x23,x23,x31
    80000cf0:	00c84b33          	xor	x22,x16,x12
    80000cf4:	01da07bb          	addw	x15,x20,x29
    80000cf8:	00e849b3          	xor	x19,x16,x14
    80000cfc:	00a6e633          	or	x12,x13,x10
    80000d00:	0084e3b3          	or	x7,x9,x8
    80000d04:	01273bb3          	sltu	x23,x14,x18
    80000d08:	0186ec33          	or	x24,x13,x24
    80000d0c:	0054c6b3          	xor	x13,x9,x5
    80000d10:	01437a33          	and	x20,x6,x20
    80000d14:	40788833          	sub	x16,x17,x7
    80000d18:	01764bb3          	xor	x23,x12,x23
    80000d1c:	003f6db3          	or	x27,x30,x3
    80000d20:	00a3b8b3          	sltu	x17,x7,x10
    80000d24:	407984bb          	subw	x9,x19,x7
    80000d28:	01c607bb          	addw	x15,x12,x28
    80000d2c:	00738133          	add	x2,x7,x7
    80000d30:	0049cb33          	xor	x22,x19,x4
    80000d34:	01b67a33          	and	x20,x12,x27
    80000d38:	00cfa833          	slt	x16,x31,x12
    80000d3c:	403281bb          	subw	x3,x5,x3
    80000d40:	00ae83bb          	addw	x7,x29,x10
    80000d44:	01663933          	sltu	x18,x12,x22
    80000d48:	40a70a3b          	subw	x20,x14,x10
    80000d4c:	41e20e33          	sub	x28,x4,x30
    80000d50:	419009b3          	sub	x19,x0,x25
    80000d54:	01fdb5b3          	sltu	x11,x27,x31
    80000d58:	40040b33          	sub	x22,x8,x0
    80000d5c:	01f20f33          	add	x30,x4,x31
    80000d60:	015ff1b3          	and	x3,x31,x21
    80000d64:	41c30d3b          	subw	x26,x6,x28
    80000d68:	00b53433          	sltu	x8,x10,x11
    80000d6c:	00aac3b3          	xor	x7,x21,x10
    80000d70:	00c5c333          	xor	x6,x11,x12
    80000d74:	0056af33          	slt	x30,x13,x5
    80000d78:	0051f533          	and	x10,x3,x5
    80000d7c:	4164843b          	subw	x8,x9,x22
    80000d80:	019a87b3          	add	x15,x21,x25
    80000d84:	01c2acb3          	slt	x25,x5,x28
    80000d88:	01be71b3          	and	x3,x28,x27
    80000d8c:	01cbff33          	and	x30,x23,x28
    80000d90:	01f36033          	or	x0,x6,x31
    80000d94:	018aedb3          	or	x27,x21,x24
    80000d98:	00738833          	add	x16,x7,x7
    80000d9c:	0131aa33          	slt	x20,x3,x19
    80000da0:	007c84bb          	addw	x9,x25,x7
    80000da4:	011ca633          	slt	x12,x25,x17
    80000da8:	01ccecb3          	or	x25,x25,x28
    80000dac:	007dfd33          	and	x26,x27,x7
    80000db0:	40a90733          	sub	x14,x18,x10
    80000db4:	00aa8a3b          	addw	x20,x21,x10
    80000db8:	00d9e533          	or	x10,x19,x13
    80000dbc:	40478333          	sub	x6,x15,x4
    80000dc0:	41b28ab3          	sub	x21,x5,x27
    80000dc4:	00b822b3          	slt	x5,x16,x11
    80000dc8:	01eeb4b3          	sltu	x9,x29,x30
    80000dcc:	00c1ce33          	xor	x28,x3,x12
    80000dd0:	0137a6b3          	slt	x13,x15,x19
    80000dd4:	010f87b3          	add	x15,x31,x16
    80000dd8:	41d28abb          	subw	x21,x5,x29
    80000ddc:	0182bb33          	sltu	x22,x5,x24
    80000de0:	011c0533          	add	x10,x24,x17
    80000de4:	010bbeb3          	sltu	x29,x23,x16
    80000de8:	00e3e833          	or	x16,x7,x14
    80000dec:	40ea0233          	sub	x4,x20,x14
    80000df0:	412c8a33          	sub	x20,x25,x18
    80000df4:	00944133          	xor	x2,x8,x9
    80000df8:	00fc6333          	or	x6,x24,x15
    80000dfc:	416f82bb          	subw	x5,x31,x22
    80000e00:	00a56ab3          	or	x21,x10,x10
    80000e04:	00752233          	slt	x4,x10,x7
    80000e08:	00ac3433          	sltu	x8,x24,x10
    80000e0c:	019a3bb3          	sltu	x23,x20,x25
    80000e10:	41978c3b          	subw	x24,x15,x25
    80000e14:	012f7d33          	and	x26,x30,x18
    80000e18:	01d686b3          	add	x13,x13,x29
    80000e1c:	002b6db3          	or	x27,x22,x2
    80000e20:	0123e833          	or	x16,x7,x18
    80000e24:	00506fb3          	or	x31,x0,x5
    80000e28:	003968b3          	or	x17,x18,x3
    80000e2c:	00abff33          	and	x30,x23,x10
    80000e30:	41ad05bb          	subw	x11,x26,x26
    80000e34:	0161fc33          	and	x24,x3,x22
    80000e38:	40d90fb3          	sub	x31,x18,x13
    80000e3c:	40f28433          	sub	x8,x5,x15
    80000e40:	00c96033          	or	x0,x18,x12
    80000e44:	00ebc9b3          	xor	x19,x23,x14
    80000e48:	00da42b3          	xor	x5,x20,x13
    80000e4c:	004e0d3b          	addw	x26,x28,x4
    80000e50:	009f8f3b          	addw	x30,x31,x9
    80000e54:	019965b3          	or	x11,x18,x25
    80000e58:	41bd8bbb          	subw	x23,x27,x27
    80000e5c:	4051073b          	subw	x14,x2,x5
    80000e60:	018521b3          	slt	x3,x10,x24
    80000e64:	01f44a33          	xor	x20,x8,x31
    80000e68:	016326b3          	slt	x13,x6,x22
    80000e6c:	00a8cbb3          	xor	x23,x17,x10
    80000e70:	0063e2b3          	or	x5,x7,x6
    80000e74:	00782ab3          	slt	x21,x16,x7
    80000e78:	012e85b3          	add	x11,x29,x18
    80000e7c:	41970d33          	sub	x26,x14,x25
    80000e80:	40990233          	sub	x4,x18,x9
    80000e84:	01b03133          	sltu	x2,x0,x27
    80000e88:	40cf8933          	sub	x18,x31,x12
    80000e8c:	01eafdb3          	and	x27,x21,x30
    80000e90:	4185043b          	subw	x8,x10,x24
    80000e94:	416f8cb3          	sub	x25,x31,x22
    80000e98:	0178b333          	sltu	x6,x17,x23
    80000e9c:	00556033          	or	x0,x10,x5
    80000ea0:	01d3cc33          	xor	x24,x7,x29
    80000ea4:	00b2c233          	xor	x4,x5,x11
    80000ea8:	412b8633          	sub	x12,x23,x18
    80000eac:	0038fb33          	and	x22,x17,x3
    80000eb0:	411f8333          	sub	x6,x31,x17
    80000eb4:	00b707b3          	add	x15,x14,x11
    80000eb8:	40b0083b          	subw	x16,x0,x11
    80000ebc:	003ee433          	or	x8,x29,x3
    80000ec0:	009ac533          	xor	x10,x21,x9
    80000ec4:	01d026b3          	slt	x13,x0,x29
    80000ec8:	015bf933          	and	x18,x23,x21
    80000ecc:	00edb2b3          	sltu	x5,x27,x14
    80000ed0:	00c43833          	sltu	x16,x8,x12
    80000ed4:	419c89b3          	sub	x19,x25,x25
    80000ed8:	019f74b3          	and	x9,x30,x25
    80000edc:	00367eb3          	and	x29,x12,x3
    80000ee0:	000882bb          	addw	x5,x17,x0
    80000ee4:	40288c3b          	subw	x24,x17,x2
    80000ee8:	01cb79b3          	and	x19,x22,x28
    80000eec:	41fb083b          	subw	x16,x22,x31
    80000ef0:	01f3b433          	sltu	x8,x7,x31
    80000ef4:	01f20533          	add	x10,x4,x31
    80000ef8:	40758dbb          	subw	x27,x11,x7
    80000efc:	0145a9b3          	slt	x19,x11,x20
    80000f00:	412b82bb          	subw	x5,x23,x18
    80000f04:	000d73b3          	and	x7,x26,x0
    80000f08:	01a5e6b3          	or	x13,x11,x26
    80000f0c:	41100d33          	sub	x26,x0,x17
    80000f10:	01cbf733          	and	x14,x23,x28
    80000f14:	01d8e633          	or	x12,x17,x29
    80000f18:	00824c33          	xor	x24,x4,x8
    80000f1c:	012e0ebb          	addw	x29,x28,x18
    80000f20:	01fca333          	slt	x6,x25,x31
    80000f24:	0108083b          	addw	x16,x16,x16
    80000f28:	00320abb          	addw	x21,x4,x3
    80000f2c:	0058bf33          	sltu	x30,x17,x5
    80000f30:	413e8033          	sub	x0,x29,x19
    80000f34:	40990c3b          	subw	x24,x18,x9
    80000f38:	405d8bbb          	subw	x23,x27,x5
    80000f3c:	41fc81bb          	subw	x3,x25,x31
    80000f40:	00c47b33          	and	x22,x8,x12
    80000f44:	0132f933          	and	x18,x5,x19
    80000f48:	0003003b          	addw	x0,x6,x0
    80000f4c:	40de86b3          	sub	x13,x29,x13
    80000f50:	00e4a433          	slt	x8,x9,x14
    80000f54:	007b25b3          	slt	x11,x22,x7
    80000f58:	005128b3          	slt	x17,x2,x5
    80000f5c:	01c70233          	add	x4,x14,x28
    80000f60:	005b66b3          	or	x13,x22,x5
    80000f64:	00363eb3          	sltu	x29,x12,x3
    80000f68:	40bb8ab3          	sub	x21,x23,x11
    80000f6c:	005f84b3          	add	x9,x31,x5
    80000f70:	006348b3          	xor	x17,x6,x6
    80000f74:	01afa533          	slt	x10,x31,x26
    80000f78:	01fdc933          	xor	x18,x27,x31
    80000f7c:	00078b33          	add	x22,x15,x0
    80000f80:	40358233          	sub	x4,x11,x3
    80000f84:	41c5843b          	subw	x8,x11,x28
    80000f88:	4198853b          	subw	x10,x17,x25
    80000f8c:	00ffbab3          	sltu	x21,x31,x15
    80000f90:	01ecc8b3          	xor	x17,x25,x30
    80000f94:	01880bb3          	add	x23,x16,x24
    80000f98:	0136e5b3          	or	x11,x13,x19
    80000f9c:	01dc893b          	addw	x18,x25,x29
    80000fa0:	009dae33          	slt	x28,x27,x9
    80000fa4:	006e84bb          	addw	x9,x29,x6
    80000fa8:	00d8c433          	xor	x8,x17,x13
    80000fac:	01798733          	add	x14,x19,x23
    80000fb0:	00057cb3          	and	x25,x10,x0
    80000fb4:	414e0933          	sub	x18,x28,x20
    80000fb8:	00ffc3b3          	xor	x7,x31,x15
    80000fbc:	00228abb          	addw	x21,x5,x2
    80000fc0:	01e827b3          	slt	x15,x16,x30
    80000fc4:	008026b3          	slt	x13,x0,x8
    80000fc8:	0059e1b3          	or	x3,x19,x5
    80000fcc:	41ba0e33          	sub	x28,x20,x27
    80000fd0:	00abb833          	sltu	x16,x23,x10
    80000fd4:	0008e233          	or	x4,x17,x0
    80000fd8:	01bd39b3          	sltu	x19,x26,x27
    80000fdc:	00800dbb          	addw	x27,x0,x8
    80000fe0:	01deffb3          	and	x31,x29,x29
    80000fe4:	412c883b          	subw	x16,x25,x18
    80000fe8:	003171b3          	and	x3,x2,x3
    80000fec:	00fb873b          	addw	x14,x23,x15
    80000ff0:	41ac0ebb          	subw	x29,x24,x26
    80000ff4:	00f9e5b3          	or	x11,x19,x15
    80000ff8:	011c3033          	sltu	x0,x24,x17
    80000ffc:	0069fcb3          	and	x25,x19,x6
    80001000:	410f8c3b          	subw	x24,x31,x16
    80001004:	41fe8dbb          	subw	x27,x29,x31
    80001008:	00d9f8b3          	and	x17,x19,x13
    8000100c:	014ff733          	and	x14,x31,x20
    80001010:	00f14633          	xor	x12,x2,x15
    80001014:	00352933          	slt	x18,x10,x3
    80001018:	00f465b3          	or	x11,x8,x15
    8000101c:	00568c33          	add	x24,x13,x5
    80001020:	0039cfb3          	xor	x31,x19,x3
    80001024:	402b0333          	sub	x6,x22,x2
    80001028:	0003ebb3          	or	x23,x7,x0
    8000102c:	0197bcb3          	sltu	x25,x15,x25
    80001030:	40e583bb          	subw	x7,x11,x14
    80001034:	002a2633          	slt	x12,x20,x2
    80001038:	00434933          	xor	x18,x6,x4
    8000103c:	41cf89b3          	sub	x19,x31,x28
    80001040:	00bf7e33          	and	x28,x30,x11
    80001044:	01617733          	and	x14,x2,x22
    80001048:	010ef5b3          	and	x11,x29,x16
    8000104c:	418e8133          	sub	x2,x29,x24
    80001050:	018974b3          	and	x9,x18,x24
    80001054:	01147b33          	and	x22,x8,x17
    80001058:	403188b3          	sub	x17,x3,x3
    8000105c:	40c00733          	sub	x14,x0,x12
    80001060:	00207133          	and	x2,x0,x2
    80001064:	007c0333          	add	x6,x24,x7
    80001068:	01722cb3          	slt	x25,x4,x23
    8000106c:	015e4033          	xor	x0,x28,x21
    80001070:	0053cf33          	xor	x30,x7,x5
    80001074:	418e0b33          	sub	x22,x28,x24
    80001078:	405f8433          	sub	x8,x31,x5
    8000107c:	00522833          	slt	x16,x4,x5
    80001080:	0138ad33          	slt	x26,x17,x19
    80001084:	00524a33          	xor	x20,x4,x5
    80001088:	01378e3b          	addw	x28,x15,x19
    8000108c:	012bc1b3          	xor	x3,x23,x18
    80001090:	00998db3          	add	x27,x19,x9
    80001094:	40ef0d33          	sub	x26,x30,x14
    80001098:	0136093b          	addw	x18,x12,x19
    8000109c:	0095b733          	sltu	x14,x11,x9
    800010a0:	40db02b3          	sub	x5,x22,x13
    800010a4:	00d58e3b          	addw	x28,x11,x13
    800010a8:	000036b3          	sltu	x13,x0,x0
    800010ac:	01b50333          	add	x6,x10,x27
    800010b0:	0083ec33          	or	x24,x7,x8
    800010b4:	41b90fb3          	sub	x31,x18,x27
    800010b8:	00a2acb3          	slt	x25,x5,x10
    800010bc:	0022ff33          	and	x30,x5,x2
    800010c0:	01d64b33          	xor	x22,x12,x29
    800010c4:	004a83bb          	addw	x7,x21,x4
    800010c8:	0058beb3          	sltu	x29,x17,x5
    800010cc:	01747633          	and	x12,x8,x23
    800010d0:	41ac8bb3          	sub	x23,x25,x26
    800010d4:	00ff6733          	or	x14,x30,x15
    800010d8:	40fe04b3          	sub	x9,x28,x15
    800010dc:	019137b3          	sltu	x15,x2,x25
    800010e0:	0028043b          	addw	x8,x16,x2
    800010e4:	41d58b3b          	subw	x22,x11,x29
    800010e8:	01c145b3          	xor	x11,x2,x28
    800010ec:	00d1fe33          	and	x28,x3,x13
    800010f0:	419e803b          	subw	x0,x29,x25
    800010f4:	01fc74b3          	and	x9,x24,x31
    800010f8:	01f7c633          	xor	x12,x15,x31
    800010fc:	0072bc33          	sltu	x24,x5,x7
    80001100:	017b2433          	slt	x8,x22,x23
    80001104:	41f688b3          	sub	x17,x13,x31
    80001108:	00000533          	add	x10,x0,x0
    8000110c:	00f346b3          	xor	x13,x6,x15
    80001110:	01fb6bb3          	or	x23,x22,x31
    80001114:	015ce133          	or	x2,x25,x21
    80001118:	01aae933          	or	x18,x21,x26
    8000111c:	00cc2b33          	slt	x22,x24,x12
    80001120:	01d286bb          	addw	x13,x5,x29
    80001124:	00770833          	add	x16,x14,x7
    80001128:	01ae2433          	slt	x8,x28,x26
    8000112c:	400c0ebb          	subw	x29,x24,x0
    80001130:	013debb3          	or	x23,x27,x19
    80001134:	40670e3b          	subw	x28,x14,x6
    80001138:	00e7cc33          	xor	x24,x15,x14
    8000113c:	01ad2fb3          	slt	x31,x26,x26
    80001140:	0191e4b3          	or	x9,x3,x25
    80001144:	00b04a33          	xor	x20,x0,x11
    80001148:	00a2c233          	xor	x4,x5,x10
    8000114c:	0135c7b3          	xor	x15,x11,x19
    80001150:	41cb06bb          	subw	x13,x22,x28
    80001154:	405909bb          	subw	x19,x18,x5
    80001158:	00a67c33          	and	x24,x12,x10
    8000115c:	00e57e33          	and	x28,x10,x14
    80001160:	0178b033          	sltu	x0,x17,x23
    80001164:	00f43933          	sltu	x18,x8,x15
    80001168:	01dbfdb3          	and	x27,x23,x29
    8000116c:	40218d3b          	subw	x26,x3,x2
    80001170:	41e20a3b          	subw	x20,x4,x30
    80001174:	000f7cb3          	and	x25,x30,x0
    80001178:	01eb8833          	add	x16,x23,x30
    8000117c:	413609bb          	subw	x19,x12,x19
    80001180:	0157a933          	slt	x18,x15,x21
    80001184:	01e32b33          	slt	x22,x6,x30
    80001188:	00760c33          	add	x24,x12,x7
    8000118c:	0081f733          	and	x14,x3,x8
    80001190:	417f0333          	sub	x6,x30,x23
    80001194:	0122acb3          	slt	x25,x5,x18
    80001198:	005d88bb          	addw	x17,x27,x5
    8000119c:	01352f33          	slt	x30,x10,x19
    800011a0:	01b98d3b          	addw	x26,x19,x27
    800011a4:	00c16e33          	or	x28,x2,x12
    800011a8:	01f6b4b3          	sltu	x9,x13,x31
    800011ac:	004abb33          	sltu	x22,x21,x4
    800011b0:	005972b3          	and	x5,x18,x5
    800011b4:	0086c1b3          	xor	x3,x13,x8
    800011b8:	01398033          	add	x0,x19,x19
    800011bc:	404a0bb3          	sub	x23,x20,x4
    800011c0:	01694cb3          	xor	x25,x18,x22
    800011c4:	0055cab3          	xor	x21,x11,x5
    800011c8:	010376b3          	and	x13,x6,x16
    800011cc:	0045813b          	addw	x2,x11,x4
    800011d0:	405d0bb3          	sub	x23,x26,x5
    800011d4:	0165fd33          	and	x26,x11,x22
    800011d8:	000e83bb          	addw	x7,x29,x0
    800011dc:	0187a7b3          	slt	x15,x15,x24
    800011e0:	00a861b3          	or	x3,x16,x10
    800011e4:	013ca8b3          	slt	x17,x25,x19
    800011e8:	41e9033b          	subw	x6,x18,x30
    800011ec:	01996eb3          	or	x29,x18,x25
    800011f0:	01e265b3          	or	x11,x4,x30
    800011f4:	00e6c933          	xor	x18,x13,x14
    800011f8:	011f7f33          	and	x30,x30,x17
    800011fc:	0103043b          	addw	x8,x6,x16
    80001200:	01d6cd33          	xor	x26,x13,x29
    80001204:	0042e8b3          	or	x17,x5,x4
    80001208:	010b3ab3          	sltu	x21,x22,x16
    8000120c:	0191833b          	addw	x6,x3,x25
    80001210:	00d503bb          	addw	x7,x10,x13
    80001214:	40d78233          	sub	x4,x15,x13
    80001218:	01d706bb          	addw	x13,x14,x29
    8000121c:	019d0533          	add	x10,x26,x25
    80001220:	00847cb3          	and	x25,x8,x8
    80001224:	0099b3b3          	sltu	x7,x19,x9
    80001228:	40ba0db3          	sub	x27,x20,x11
    8000122c:	41c78133          	sub	x2,x15,x28
    80001230:	412887b3          	sub	x15,x17,x18
    80001234:	00334d33          	xor	x26,x6,x3
    80001238:	405b8333          	sub	x6,x23,x5
    8000123c:	40c28bbb          	subw	x23,x5,x12
    80001240:	404a8ab3          	sub	x21,x21,x4
    80001244:	01f5ee33          	or	x28,x11,x31
    80001248:	410903bb          	subw	x7,x18,x16
    8000124c:	01867eb3          	and	x29,x12,x24
    80001250:	00ef4bb3          	xor	x23,x30,x14
    80001254:	01f37333          	and	x6,x6,x31
    80001258:	413c04b3          	sub	x9,x24,x19
    8000125c:	011d8cbb          	addw	x25,x27,x17
    80001260:	410986b3          	sub	x13,x19,x16
    80001264:	002f7933          	and	x18,x30,x2
    80001268:	01334733          	xor	x14,x6,x19
    8000126c:	0051e433          	or	x8,x3,x5
    80001270:	00f228b3          	slt	x17,x4,x15
    80001274:	00566233          	or	x4,x12,x5
    80001278:	016c6533          	or	x10,x24,x22
    8000127c:	00ea0d3b          	addw	x26,x20,x14
    80001280:	00bcaa33          	slt	x20,x25,x11
    80001284:	019bf033          	and	x0,x23,x25
    80001288:	013445b3          	xor	x11,x8,x19
    8000128c:	005fbdb3          	sltu	x27,x31,x5
    80001290:	0053f8b3          	and	x17,x7,x5
    80001294:	014a0933          	add	x18,x20,x20
    80001298:	015b3bb3          	sltu	x23,x22,x21
    8000129c:	4165873b          	subw	x14,x11,x22
    800012a0:	0135843b          	addw	x8,x11,x19
    800012a4:	01ce4a33          	xor	x20,x28,x28
    800012a8:	01e90e33          	add	x28,x18,x30
    800012ac:	0151c033          	xor	x0,x3,x21
    800012b0:	005e8333          	add	x6,x29,x5
    800012b4:	019606b3          	add	x13,x12,x25
    800012b8:	01926eb3          	or	x29,x4,x25
    800012bc:	01b50e33          	add	x28,x10,x27
    800012c0:	00f74f33          	xor	x30,x14,x15
    800012c4:	00cbbab3          	sltu	x21,x23,x12
    800012c8:	419683bb          	subw	x7,x13,x25
    800012cc:	009d0b33          	add	x22,x26,x9
    800012d0:	000d8833          	add	x16,x27,x0
    800012d4:	408e82bb          	subw	x5,x29,x8
    800012d8:	406c8bb3          	sub	x23,x25,x6
    800012dc:	00b50ebb          	addw	x29,x10,x11
    800012e0:	00f9a633          	slt	x12,x19,x15
    800012e4:	00af26b3          	slt	x13,x30,x10
    800012e8:	01e8b533          	sltu	x10,x17,x30
    800012ec:	01983733          	sltu	x14,x16,x25
    800012f0:	009e88bb          	addw	x17,x29,x9
    800012f4:	01bf83b3          	add	x7,x31,x27
    800012f8:	01062eb3          	slt	x29,x12,x16
    800012fc:	41fd8dbb          	subw	x27,x27,x31
    80001300:	00894333          	xor	x6,x18,x8
    80001304:	0034cb33          	xor	x22,x9,x3
    80001308:	012ff933          	and	x18,x31,x18
    8000130c:	0193cab3          	xor	x21,x7,x25
    80001310:	0098a233          	slt	x4,x17,x9
    80001314:	41f283bb          	subw	x7,x5,x31
    80001318:	01b10a33          	add	x20,x2,x27
    8000131c:	41ce0f33          	sub	x30,x28,x28
    80001320:	40630b33          	sub	x22,x6,x6
    80001324:	00d6ec33          	or	x24,x13,x13
    80001328:	41068233          	sub	x4,x13,x16
    8000132c:	012a4633          	xor	x12,x20,x18
    80001330:	01d4ebb3          	or	x23,x9,x29
    80001334:	0055ab33          	slt	x22,x11,x5
    80001338:	005fc833          	xor	x16,x31,x5
    8000133c:	0062edb3          	or	x27,x5,x6
    80001340:	019f74b3          	and	x9,x30,x25
    80001344:	01a8833b          	addw	x6,x17,x26
    80001348:	01d20abb          	addw	x21,x4,x29
    8000134c:	402007b3          	sub	x15,x0,x2
    80001350:	00a8e6b3          	or	x13,x17,x10
    80001354:	004b88bb          	addw	x17,x23,x4
    80001358:	018981bb          	addw	x3,x19,x24
    8000135c:	0104a5b3          	slt	x11,x9,x16
    80001360:	007707b3          	add	x15,x14,x7
    80001364:	41350b33          	sub	x22,x10,x19
    80001368:	018f0f33          	add	x30,x30,x24
    8000136c:	014dc2b3          	xor	x5,x27,x20
    80001370:	011d8cbb          	addw	x25,x27,x17
    80001374:	41f70eb3          	sub	x29,x14,x31
    80001378:	0005f833          	and	x16,x11,x0
    8000137c:	411f003b          	subw	x0,x30,x17
    80001380:	41ff0333          	sub	x6,x30,x31
    80001384:	017676b3          	and	x13,x12,x23
    80001388:	013f4a33          	xor	x20,x30,x19
    8000138c:	00770c33          	add	x24,x14,x7
    80001390:	40b00f3b          	subw	x30,x0,x11
    80001394:	01decab3          	xor	x21,x29,x29
    80001398:	01c741b3          	xor	x3,x14,x28
    8000139c:	013fb833          	sltu	x16,x31,x19
    800013a0:	00cfc7b3          	xor	x15,x31,x12
    800013a4:	00db4db3          	xor	x27,x22,x13
    800013a8:	00424fb3          	xor	x31,x4,x4
    800013ac:	0123e233          	or	x4,x7,x18
    800013b0:	00eee033          	or	x0,x29,x14
    800013b4:	015705bb          	addw	x11,x14,x21
    800013b8:	01ba7933          	and	x18,x20,x27
    800013bc:	011986b3          	add	x13,x19,x17
    800013c0:	01ce6eb3          	or	x29,x28,x28
    800013c4:	01fa2033          	slt	x0,x20,x31
    800013c8:	41ef0d3b          	subw	x26,x30,x30
    800013cc:	00ea843b          	addw	x8,x21,x14
    800013d0:	0073ff33          	and	x30,x7,x7
    800013d4:	005ef4b3          	and	x9,x29,x5
    800013d8:	00578dbb          	addw	x27,x15,x5
    800013dc:	0195feb3          	and	x29,x11,x25
    800013e0:	01704733          	xor	x14,x0,x23
    800013e4:	40f30fb3          	sub	x31,x6,x15
    800013e8:	417181bb          	subw	x3,x3,x23
    800013ec:	00826a33          	or	x20,x4,x8
    800013f0:	01588dbb          	addw	x27,x17,x21
    800013f4:	41d38e33          	sub	x28,x7,x29
    800013f8:	015b4eb3          	xor	x29,x22,x21
    800013fc:	009d07b3          	add	x15,x26,x9
    80001400:	011169b3          	or	x19,x2,x17
    80001404:	402b8033          	sub	x0,x23,x2
    80001408:	01c963b3          	or	x7,x18,x28
    8000140c:	01766ab3          	or	x21,x12,x23
    80001410:	41670333          	sub	x6,x14,x22
    80001414:	01970c33          	add	x24,x14,x25
    80001418:	00af7a33          	and	x20,x30,x10
    8000141c:	00fb7033          	and	x0,x22,x15
    80001420:	00b6823b          	addw	x4,x13,x11
    80001424:	00c30fbb          	addw	x31,x6,x12
    80001428:	01b1c733          	xor	x14,x3,x27
    8000142c:	017c0f33          	add	x30,x24,x23
    80001430:	4098003b          	subw	x0,x16,x9
    80001434:	40b88abb          	subw	x21,x17,x11
    80001438:	016d03b3          	add	x7,x26,x22
    8000143c:	01822a33          	slt	x20,x4,x24
    80001440:	01e18d33          	add	x26,x3,x30
    80001444:	40e702b3          	sub	x5,x14,x14
    80001448:	01854e33          	xor	x28,x10,x24
    8000144c:	00203233          	sltu	x4,x0,x2
    80001450:	40cf87bb          	subw	x15,x31,x12
    80001454:	00084fb3          	xor	x31,x16,x0
    80001458:	01380bbb          	addw	x23,x16,x19
    8000145c:	00dee9b3          	or	x19,x29,x13
    80001460:	00e16cb3          	or	x25,x2,x14
    80001464:	002b28b3          	slt	x17,x22,x2
    80001468:	01c7e5b3          	or	x11,x15,x28
    8000146c:	0073cb33          	xor	x22,x7,x7
    80001470:	00a203b3          	add	x7,x4,x10
    80001474:	00ce06bb          	addw	x13,x28,x12
    80001478:	01cbc333          	xor	x6,x23,x28
    8000147c:	410105bb          	subw	x11,x2,x16
    80001480:	41eb8eb3          	sub	x29,x23,x30
    80001484:	010f23b3          	slt	x7,x30,x16
    80001488:	010e68b3          	or	x17,x28,x16
    8000148c:	012c4ab3          	xor	x21,x24,x18
    80001490:	017c013b          	addw	x2,x24,x23
    80001494:	0144b533          	sltu	x10,x9,x20
    80001498:	417489bb          	subw	x19,x9,x23
    8000149c:	40628b33          	sub	x22,x5,x6
    800014a0:	00d04633          	xor	x12,x0,x13
    800014a4:	419c02b3          	sub	x5,x24,x25
    800014a8:	007f3c33          	sltu	x24,x30,x7
    800014ac:	00053833          	sltu	x16,x10,x0
    800014b0:	0141033b          	addw	x6,x2,x20
    800014b4:	01a96db3          	or	x27,x18,x26
    800014b8:	01d7feb3          	and	x29,x15,x29
    800014bc:	01548e33          	add	x28,x9,x21
    800014c0:	01767433          	and	x8,x12,x23
    800014c4:	40af8c33          	sub	x24,x31,x10
    800014c8:	00bfa6b3          	slt	x13,x31,x11
    800014cc:	004d0533          	add	x10,x26,x4
    800014d0:	00e3863b          	addw	x12,x7,x14
    800014d4:	007fe433          	or	x8,x31,x7
    800014d8:	0048ed33          	or	x26,x17,x4
    800014dc:	006cb5b3          	sltu	x11,x25,x6
    800014e0:	0150083b          	addw	x16,x0,x21
    800014e4:	01988ab3          	add	x21,x17,x25
    800014e8:	41bf04b3          	sub	x9,x30,x27
    800014ec:	01c66a33          	or	x20,x12,x28
    800014f0:	40f98233          	sub	x4,x19,x15
    800014f4:	0063b733          	sltu	x14,x7,x6
    800014f8:	41ee0633          	sub	x12,x28,x30
    800014fc:	00b9f3b3          	and	x7,x19,x11
    80001500:	01bbeb33          	or	x22,x23,x27
    80001504:	01e9e1b3          	or	x3,x19,x30
    80001508:	00b8e7b3          	or	x15,x17,x11
    8000150c:	006f02bb          	addw	x5,x30,x6
    80001510:	00ecafb3          	slt	x31,x25,x14
    80001514:	01c233b3          	sltu	x7,x4,x28
    80001518:	013e2833          	slt	x16,x28,x19
    8000151c:	00cb8f3b          	addw	x30,x23,x12
    80001520:	0025a2b3          	slt	x5,x11,x2
    80001524:	403e8d3b          	subw	x26,x29,x3
    80001528:	0033aab3          	slt	x21,x7,x3
    8000152c:	40b48733          	sub	x14,x9,x11
    80001530:	416c0833          	sub	x16,x24,x22
    80001534:	01607a33          	and	x20,x0,x22
    80001538:	00fe06b3          	add	x13,x28,x15
    8000153c:	01d43633          	sltu	x12,x8,x29
    80001540:	019ce333          	or	x6,x25,x25
    80001544:	418b0233          	sub	x4,x22,x24
    80001548:	01484733          	xor	x14,x16,x20
    8000154c:	01d93533          	sltu	x10,x18,x29
    80001550:	008c4c33          	xor	x24,x24,x8
    80001554:	01ae83bb          	addw	x7,x29,x26
    80001558:	004286b3          	add	x13,x5,x4
    8000155c:	009bb733          	sltu	x14,x23,x9
    80001560:	415e0e33          	sub	x28,x28,x21
    80001564:	413c8db3          	sub	x27,x25,x19
    80001568:	012cbb33          	sltu	x22,x25,x18
    8000156c:	003af5b3          	and	x11,x21,x3
    80001570:	00ebe133          	or	x2,x23,x14
    80001574:	00dd79b3          	and	x19,x26,x13
    80001578:	00a6ebb3          	or	x23,x13,x10
    8000157c:	411f8f33          	sub	x30,x31,x17
    80001580:	005cc1b3          	xor	x3,x25,x5
    80001584:	01c52d33          	slt	x26,x10,x28
    80001588:	0008053b          	addw	x10,x16,x0
    8000158c:	01768dbb          	addw	x27,x13,x23
    80001590:	01c76fb3          	or	x31,x14,x28
    80001594:	00ec06bb          	addw	x13,x24,x14
    80001598:	0177e033          	or	x0,x15,x23
    8000159c:	01d7b5b3          	sltu	x11,x15,x29
    800015a0:	00e28ab3          	add	x21,x5,x14
    800015a4:	004308b3          	add	x17,x6,x4
    800015a8:	016d41b3          	xor	x3,x26,x22
    800015ac:	019ef433          	and	x8,x29,x25
    800015b0:	004b853b          	addw	x10,x23,x4
    800015b4:	00e96d33          	or	x26,x18,x14
    800015b8:	01227033          	and	x0,x4,x18
    800015bc:	00987c33          	and	x24,x16,x9
    800015c0:	0028ce33          	xor	x28,x17,x2
    800015c4:	0143c133          	xor	x2,x7,x20
    800015c8:	01d702b3          	add	x5,x14,x29
    800015cc:	00a50cb3          	add	x25,x10,x10
    800015d0:	015625b3          	slt	x11,x12,x21
    800015d4:	015c0e3b          	addw	x28,x24,x21
    800015d8:	01ae8bbb          	addw	x23,x29,x26
    800015dc:	01f92ab3          	slt	x21,x18,x31
    800015e0:	01b28433          	add	x8,x5,x27
    800015e4:	005264b3          	or	x9,x4,x5
    800015e8:	414c0133          	sub	x2,x24,x20
    800015ec:	41cf8bb3          	sub	x23,x31,x28
    800015f0:	412c893b          	subw	x18,x25,x18
    800015f4:	418e003b          	subw	x0,x28,x24
    800015f8:	01b6bcb3          	sltu	x25,x13,x27
    800015fc:	01633433          	sltu	x8,x6,x22
    80001600:	01a67ab3          	and	x21,x12,x26
    80001604:	41d98bbb          	subw	x23,x19,x29
    80001608:	014a0833          	add	x16,x20,x20
    8000160c:	01456733          	or	x14,x10,x20
    80001610:	01f27e33          	and	x28,x4,x31
    80001614:	009d0abb          	addw	x21,x26,x9
    80001618:	0118b4b3          	sltu	x9,x17,x17
    8000161c:	40bf8b33          	sub	x22,x31,x11
    80001620:	01a18d3b          	addw	x26,x3,x26
    80001624:	400e063b          	subw	x12,x28,x0
    80001628:	40dd8fb3          	sub	x31,x27,x13
    8000162c:	414389b3          	sub	x19,x7,x20
    80001630:	00a00033          	add	x0,x0,x10
    80001634:	019a22b3          	slt	x5,x20,x25
    80001638:	00ad8933          	add	x18,x27,x10
    8000163c:	01e67ab3          	and	x21,x12,x30
    80001640:	00fe74b3          	and	x9,x28,x15
    80001644:	00d629b3          	slt	x19,x12,x13
    80001648:	01db8eb3          	add	x29,x23,x29
    8000164c:	01a67233          	and	x4,x12,x26
    80001650:	41178333          	sub	x6,x15,x17
    80001654:	00b77fb3          	and	x31,x14,x11
    80001658:	01446cb3          	or	x25,x8,x20
    8000165c:	0125a8b3          	slt	x17,x11,x18
    80001660:	407c01b3          	sub	x3,x24,x7
    80001664:	00ae3133          	sltu	x2,x28,x10
    80001668:	004706bb          	addw	x13,x14,x4
    8000166c:	40870d3b          	subw	x26,x14,x8
    80001670:	015279b3          	and	x19,x4,x21
    80001674:	00a635b3          	sltu	x11,x12,x10
    80001678:	00ef81bb          	addw	x3,x31,x14
    8000167c:	01f88f33          	add	x30,x17,x31
    80001680:	00cbc733          	xor	x14,x23,x12
    80001684:	012079b3          	and	x19,x0,x18
    80001688:	0096c4b3          	xor	x9,x13,x9
    8000168c:	40f10c33          	sub	x24,x2,x15
    80001690:	0197af33          	slt	x30,x15,x25
    80001694:	01900633          	add	x12,x0,x25
    80001698:	007508b3          	add	x17,x10,x7
    8000169c:	01a24833          	xor	x16,x4,x26
    800016a0:	40910abb          	subw	x21,x2,x9
    800016a4:	400102b3          	sub	x5,x2,x0
    800016a8:	01aa77b3          	and	x15,x20,x26
    800016ac:	00c1ff33          	and	x30,x3,x12
    800016b0:	00a62b33          	slt	x22,x12,x10
    800016b4:	01b104bb          	addw	x9,x2,x27
    800016b8:	0138b433          	sltu	x8,x17,x19
    800016bc:	00ff8cb3          	add	x25,x31,x15
    800016c0:	0079813b          	addw	x2,x19,x7
    800016c4:	40058ab3          	sub	x21,x11,x0
    800016c8:	01e336b3          	sltu	x13,x6,x30
    800016cc:	01496b33          	or	x22,x18,x20
    800016d0:	0113a833          	slt	x16,x7,x17
    800016d4:	00c17333          	and	x6,x2,x12
    800016d8:	01967e33          	and	x28,x12,x25
    800016dc:	000774b3          	and	x9,x14,x0
    800016e0:	004c8eb3          	add	x29,x25,x4
    800016e4:	0156cb33          	xor	x22,x13,x21
    800016e8:	01e14033          	xor	x0,x2,x30
    800016ec:	006ab3b3          	sltu	x7,x21,x6
    800016f0:	41430333          	sub	x6,x6,x20
    800016f4:	002848b3          	xor	x17,x16,x2
    800016f8:	01d786bb          	addw	x13,x15,x29
    800016fc:	000b8533          	add	x10,x23,x0
    80001700:	00fe8ebb          	addw	x29,x29,x15
    80001704:	019b01bb          	addw	x3,x22,x25
    80001708:	011207bb          	addw	x15,x4,x17
    8000170c:	00bb6733          	or	x14,x22,x11
    80001710:	014fc433          	xor	x8,x31,x20
    80001714:	01f34c33          	xor	x24,x6,x31
    80001718:	00c23f33          	sltu	x30,x4,x12
    8000171c:	004b3bb3          	sltu	x23,x22,x4
    80001720:	010546b3          	xor	x13,x10,x16
    80001724:	00e37833          	and	x16,x6,x14
    80001728:	40b2063b          	subw	x12,x4,x11
    8000172c:	006f44b3          	xor	x9,x30,x6
    80001730:	003e89bb          	addw	x19,x29,x3
    80001734:	00a70f3b          	addw	x30,x14,x10
    80001738:	01028fbb          	addw	x31,x5,x16
    8000173c:	015363b3          	or	x7,x6,x21
    80001740:	0187ab33          	slt	x22,x15,x24
    80001744:	00d06db3          	or	x27,x0,x13
    80001748:	00f84033          	xor	x0,x16,x15
    8000174c:	40f18fb3          	sub	x31,x3,x15
    80001750:	008cfab3          	and	x21,x25,x8
    80001754:	416c813b          	subw	x2,x25,x22
    80001758:	012be7b3          	or	x15,x23,x18
    8000175c:	00e82bb3          	slt	x23,x16,x14
    80001760:	407581bb          	subw	x3,x11,x7
    80001764:	0066cfb3          	xor	x31,x13,x6
    80001768:	0078bb33          	sltu	x22,x17,x7
    8000176c:	406d04bb          	subw	x9,x26,x6
    80001770:	01d8f033          	and	x0,x17,x29
    80001774:	0137093b          	addw	x18,x14,x19
    80001778:	01fbe633          	or	x12,x23,x31
    8000177c:	006d8a33          	add	x20,x27,x6
    80001780:	00277433          	and	x8,x14,x2
    80001784:	01c87c33          	and	x24,x16,x28
    80001788:	01e4e033          	or	x0,x9,x30
    8000178c:	41c5833b          	subw	x6,x11,x28
    80001790:	007eb533          	sltu	x10,x29,x7
    80001794:	41af8b3b          	subw	x22,x31,x26
    80001798:	01afa7b3          	slt	x15,x31,x26
    8000179c:	01edac33          	slt	x24,x27,x30
    800017a0:	017e4033          	xor	x0,x28,x23
    800017a4:	410f8d3b          	subw	x26,x31,x16
    800017a8:	006f05bb          	addw	x11,x30,x6
    800017ac:	00f57933          	and	x18,x10,x15
    800017b0:	011fef33          	or	x30,x31,x17
    800017b4:	01136cb3          	or	x25,x6,x17
    800017b8:	01fda133          	slt	x2,x27,x31
    800017bc:	40b9843b          	subw	x8,x19,x11
    800017c0:	40b602bb          	subw	x5,x12,x11
    800017c4:	00aec3b3          	xor	x7,x29,x10
    800017c8:	010574b3          	and	x9,x10,x16
    800017cc:	01ebebb3          	or	x23,x23,x30
    800017d0:	00624133          	xor	x2,x4,x6
    800017d4:	00d6fb33          	and	x22,x13,x13
    800017d8:	0155c1b3          	xor	x3,x11,x21
    800017dc:	00b8033b          	addw	x6,x16,x11
    800017e0:	015c0dbb          	addw	x27,x24,x21
    800017e4:	0055bc33          	sltu	x24,x11,x5
    800017e8:	002f3a33          	sltu	x20,x30,x2
    800017ec:	00fe0633          	add	x12,x28,x15
    800017f0:	0195af33          	slt	x30,x11,x25
    800017f4:	00f7e233          	or	x4,x15,x15
    800017f8:	41c50b33          	sub	x22,x10,x28
    800017fc:	01ddb733          	sltu	x14,x27,x29
    80001800:	00604133          	xor	x2,x0,x6
    80001804:	41e78fbb          	subw	x31,x15,x30
    80001808:	00ce86b3          	add	x13,x29,x12
    8000180c:	01ef3b33          	sltu	x22,x30,x30
    80001810:	405d0a3b          	subw	x20,x26,x5
    80001814:	40798bb3          	sub	x23,x19,x7
    80001818:	013ce5b3          	or	x11,x25,x19
    8000181c:	403102bb          	subw	x5,x2,x3
    80001820:	00870cb3          	add	x25,x14,x8
    80001824:	418d8abb          	subw	x21,x27,x24
    80001828:	40d40833          	sub	x16,x8,x13
    8000182c:	41de0233          	sub	x4,x28,x29
    80001830:	01a4c533          	xor	x10,x9,x26
    80001834:	0117c433          	xor	x8,x15,x17
    80001838:	015064b3          	or	x9,x0,x21
    8000183c:	01edf933          	and	x18,x27,x30
    80001840:	01e26ab3          	or	x21,x4,x30
    80001844:	00b68cbb          	addw	x25,x13,x11
    80001848:	0168b433          	sltu	x8,x17,x22
    8000184c:	01616b33          	or	x22,x2,x22
    80001850:	41878533          	sub	x10,x15,x24
    80001854:	40410f33          	sub	x30,x2,x4
    80001858:	017206bb          	addw	x13,x4,x23
    8000185c:	01d47233          	and	x4,x8,x29
    80001860:	003b7eb3          	and	x29,x22,x3
    80001864:	406907b3          	sub	x15,x18,x6
    80001868:	009304bb          	addw	x9,x6,x9
    8000186c:	016d4133          	xor	x2,x26,x22
    80001870:	01598933          	add	x18,x19,x21
    80001874:	00a8b533          	sltu	x10,x17,x10
    80001878:	005fec33          	or	x24,x31,x5
    8000187c:	00cd83bb          	addw	x7,x27,x12
    80001880:	408888b3          	sub	x17,x17,x8
    80001884:	013f25b3          	slt	x11,x30,x19
    80001888:	01a96f33          	or	x30,x18,x26
    8000188c:	01f44bb3          	xor	x23,x8,x31
    80001890:	409786bb          	subw	x13,x15,x9
    80001894:	41b2833b          	subw	x6,x5,x27
    80001898:	01d23933          	sltu	x18,x4,x29
    8000189c:	01a76c33          	or	x24,x14,x26
    800018a0:	0115f033          	and	x0,x11,x17
    800018a4:	00c567b3          	or	x15,x10,x12
    800018a8:	01f6813b          	addw	x2,x13,x31
    800018ac:	01de08b3          	add	x17,x28,x29
    800018b0:	019f0bb3          	add	x23,x30,x25
    800018b4:	01c03f33          	sltu	x30,x0,x28
    800018b8:	016781b3          	add	x3,x15,x22
    800018bc:	01867833          	and	x16,x12,x24
    800018c0:	00570a33          	add	x20,x14,x5
    800018c4:	41be853b          	subw	x10,x29,x27
    800018c8:	00268f33          	add	x30,x13,x2
    800018cc:	01dc06b3          	add	x13,x24,x29
    800018d0:	41bd0bb3          	sub	x23,x26,x27
    800018d4:	01898c33          	add	x24,x19,x24
    800018d8:	41ca0fb3          	sub	x31,x20,x28
    800018dc:	0143b133          	sltu	x2,x7,x20
    800018e0:	40550f3b          	subw	x30,x10,x5
    800018e4:	406283b3          	sub	x7,x5,x6
    800018e8:	01253533          	sltu	x10,x10,x18
    800018ec:	0034f833          	and	x16,x9,x3
    800018f0:	0039ba33          	sltu	x20,x19,x3
    800018f4:	01b7e2b3          	or	x5,x15,x27
    800018f8:	0094a1b3          	slt	x3,x9,x9
    800018fc:	41a883b3          	sub	x7,x17,x26
    80001900:	018628b3          	slt	x17,x12,x24
    80001904:	01616b33          	or	x22,x2,x22
    80001908:	413d833b          	subw	x6,x27,x19
    8000190c:	00f64133          	xor	x2,x12,x15
    80001910:	01892d33          	slt	x26,x18,x24
    80001914:	418e86bb          	subw	x13,x29,x24
    80001918:	004fb533          	sltu	x10,x31,x4
    8000191c:	009a7ab3          	and	x21,x20,x9
    80001920:	00be0fbb          	addw	x31,x28,x11
    80001924:	009869b3          	or	x19,x16,x9
    80001928:	00c77eb3          	and	x29,x14,x12
    8000192c:	007f0f3b          	addw	x30,x30,x7
    80001930:	40750533          	sub	x10,x10,x7
    80001934:	41478433          	sub	x8,x15,x20
    80001938:	0103c6b3          	xor	x13,x7,x16
    8000193c:	0145a4b3          	slt	x9,x11,x20
    80001940:	017188bb          	addw	x17,x3,x23
    80001944:	004d29b3          	slt	x19,x26,x4
    80001948:	01e24cb3          	xor	x25,x4,x30
    8000194c:	00a53f33          	sltu	x30,x10,x10
    80001950:	007686b3          	add	x13,x13,x7
    80001954:	01d30b33          	add	x22,x6,x29
    80001958:	00b787b3          	add	x15,x15,x11
    8000195c:	40ed8ebb          	subw	x29,x27,x14
    80001960:	019904b3          	add	x9,x18,x25
    80001964:	005101b3          	add	x3,x2,x5
    80001968:	01b3b533          	sltu	x10,x7,x27
    8000196c:	014308bb          	addw	x17,x6,x20
    80001970:	00ba7eb3          	and	x29,x20,x11
    80001974:	417305b3          	sub	x11,x6,x23
    80001978:	0002e433          	or	x8,x5,x0
    8000197c:	00c50933          	add	x18,x10,x12
    80001980:	0117b033          	sltu	x0,x15,x17
    80001984:	0193c1b3          	xor	x3,x7,x25
    80001988:	00f80ab3          	add	x21,x16,x15
    8000198c:	41a106b3          	sub	x13,x2,x26
    80001990:	00aa2e33          	slt	x28,x20,x10
    80001994:	010177b3          	and	x15,x2,x16
    80001998:	01f32933          	slt	x18,x6,x31
    8000199c:	01526c33          	or	x24,x4,x21
    800019a0:	0079b233          	sltu	x4,x19,x7
    800019a4:	00a63733          	sltu	x14,x12,x10
    800019a8:	002bee33          	or	x28,x23,x2
    800019ac:	00350cbb          	addw	x25,x10,x3
    800019b0:	01d8c2b3          	xor	x5,x17,x29
    800019b4:	00a68933          	add	x18,x13,x10
    800019b8:	41a103bb          	subw	x7,x2,x26
    800019bc:	01043433          	sltu	x8,x8,x16
    800019c0:	016c66b3          	or	x13,x24,x22
    800019c4:	00050133          	add	x2,x10,x0
    800019c8:	01360f3b          	addw	x30,x12,x19
    800019cc:	00ea75b3          	and	x11,x20,x14
    800019d0:	0182033b          	addw	x6,x4,x24
    800019d4:	01f2aab3          	slt	x21,x5,x31
    800019d8:	40d382b3          	sub	x5,x7,x13
    800019dc:	40cb04bb          	subw	x9,x22,x12
    800019e0:	00c78cbb          	addw	x25,x15,x12
    800019e4:	01303e33          	sltu	x28,x0,x19
    800019e8:	41880c33          	sub	x24,x16,x24
    800019ec:	41af8a33          	sub	x20,x31,x26
    800019f0:	403f07bb          	subw	x15,x30,x3
    800019f4:	41f80db3          	sub	x27,x16,x31
    800019f8:	006e46b3          	xor	x13,x28,x6
    800019fc:	40c10abb          	subw	x21,x2,x12
    80001a00:	405504bb          	subw	x9,x10,x5
    80001a04:	411b0c33          	sub	x24,x22,x17
    80001a08:	017f3633          	sltu	x12,x30,x23
    80001a0c:	01ed6a33          	or	x20,x26,x30
    80001a10:	01140fb3          	add	x31,x8,x17
    80001a14:	0132b7b3          	sltu	x15,x5,x19
    80001a18:	007db133          	sltu	x2,x27,x7
    80001a1c:	00a47ab3          	and	x21,x8,x10
    80001a20:	01a689b3          	add	x19,x13,x26
    80001a24:	00337733          	and	x14,x6,x3
    80001a28:	01f5ec33          	or	x24,x11,x31
    80001a2c:	00056833          	or	x16,x10,x0
    80001a30:	015787b3          	add	x15,x15,x21
    80001a34:	01a30db3          	add	x27,x6,x26
    80001a38:	40870633          	sub	x12,x14,x8
    80001a3c:	01477eb3          	and	x29,x14,x20
    80001a40:	01a28abb          	addw	x21,x5,x26
    80001a44:	418385b3          	sub	x11,x7,x24
    80001a48:	00fe07b3          	add	x15,x28,x15
    80001a4c:	0133f633          	and	x12,x7,x19
    80001a50:	017bebb3          	or	x23,x23,x23
    80001a54:	01e98f33          	add	x30,x19,x30
    80001a58:	0064e3b3          	or	x7,x9,x6
    80001a5c:	0024c8b3          	xor	x17,x9,x2
    80001a60:	40e704b3          	sub	x9,x14,x14
    80001a64:	400e0c3b          	subw	x24,x28,x0
    80001a68:	01b64bb3          	xor	x23,x12,x27
    80001a6c:	01517cb3          	and	x25,x2,x21
    80001a70:	00e8e5b3          	or	x11,x17,x14
    80001a74:	41ed0ab3          	sub	x21,x26,x30
    80001a78:	010d01bb          	addw	x3,x26,x16
    80001a7c:	016b84bb          	addw	x9,x23,x22
    80001a80:	00f28f33          	add	x30,x5,x15
    80001a84:	00c62433          	slt	x8,x12,x12
    80001a88:	40400e33          	sub	x28,x0,x4
    80001a8c:	407903bb          	subw	x7,x18,x7
    80001a90:	018a2fb3          	slt	x31,x20,x24
    80001a94:	406909bb          	subw	x19,x18,x6
    80001a98:	01094033          	xor	x0,x18,x16
    80001a9c:	41ac0833          	sub	x16,x24,x26
    80001aa0:	00438dbb          	addw	x27,x7,x4
    80001aa4:	008b88bb          	addw	x17,x23,x8
    80001aa8:	00ff2cb3          	slt	x25,x30,x15
    80001aac:	00a48333          	add	x6,x9,x10
    80001ab0:	00fc35b3          	sltu	x11,x24,x15
    80001ab4:	00398c33          	add	x24,x19,x3
    80001ab8:	011e2633          	slt	x12,x28,x17
    80001abc:	0179b7b3          	sltu	x15,x19,x23
    80001ac0:	40750cb3          	sub	x25,x10,x7
    80001ac4:	411688bb          	subw	x17,x13,x17
    80001ac8:	013dceb3          	xor	x29,x27,x19
    80001acc:	017481bb          	addw	x3,x9,x23
    80001ad0:	01836ab3          	or	x21,x6,x24
    80001ad4:	004c35b3          	sltu	x11,x24,x4
    80001ad8:	01404db3          	xor	x27,x0,x20
    80001adc:	014f38b3          	sltu	x17,x30,x20
    80001ae0:	000324b3          	slt	x9,x6,x0
    80001ae4:	4106073b          	subw	x14,x12,x16
    80001ae8:	00210d33          	add	x26,x2,x2
    80001aec:	018ee833          	or	x16,x29,x24
    80001af0:	41378133          	sub	x2,x15,x19
    80001af4:	000562b3          	or	x5,x10,x0
    80001af8:	003bc9b3          	xor	x19,x23,x3
    80001afc:	40758033          	sub	x0,x11,x7
    80001b00:	01f4aeb3          	slt	x29,x9,x31
    80001b04:	00ac6533          	or	x10,x24,x10
    80001b08:	00313cb3          	sltu	x25,x2,x3
    80001b0c:	0066a933          	slt	x18,x13,x6
    80001b10:	416c0133          	sub	x2,x24,x22
    80001b14:	009c01b3          	add	x3,x24,x9
    80001b18:	40be8ebb          	subw	x29,x29,x11
    80001b1c:	01e589b3          	add	x19,x11,x30
    80001b20:	40538ab3          	sub	x21,x7,x5
    80001b24:	01860dbb          	addw	x27,x12,x24
    80001b28:	0123bbb3          	sltu	x23,x7,x18
    80001b2c:	00a8e933          	or	x18,x17,x10
    80001b30:	00633433          	sltu	x8,x6,x6
    80001b34:	00b201bb          	addw	x3,x4,x11
    80001b38:	40ba083b          	subw	x16,x20,x11
    80001b3c:	00e2b333          	sltu	x6,x5,x14
    80001b40:	409f82bb          	subw	x5,x31,x9
    80001b44:	000b0933          	add	x18,x22,x0
    80001b48:	017e7d33          	and	x26,x28,x23
    80001b4c:	000e853b          	addw	x10,x29,x0
    80001b50:	00900133          	add	x2,x0,x9
    80001b54:	01cc02bb          	addw	x5,x24,x28
    80001b58:	412606b3          	sub	x13,x12,x18
    80001b5c:	01230eb3          	add	x29,x6,x18
    80001b60:	01c5e5b3          	or	x11,x11,x28
    80001b64:	404a8333          	sub	x6,x21,x4
    80001b68:	00af07bb          	addw	x15,x30,x10
    80001b6c:	0111813b          	addw	x2,x3,x17
    80001b70:	00c87f33          	and	x30,x16,x12
    80001b74:	00d983b3          	add	x7,x19,x13
    80001b78:	011264b3          	or	x9,x4,x17
    80001b7c:	004c8abb          	addw	x21,x25,x4
    80001b80:	017c4333          	xor	x6,x24,x23
    80001b84:	003b6fb3          	or	x31,x22,x3
    80001b88:	01c9fd33          	and	x26,x19,x28
    80001b8c:	40db813b          	subw	x2,x23,x13
    80001b90:	015ae8b3          	or	x17,x21,x21
    80001b94:	0059e833          	or	x16,x19,x5
    80001b98:	0176a433          	slt	x8,x13,x23
    80001b9c:	01bd86bb          	addw	x13,x27,x27
    80001ba0:	01d90fb3          	add	x31,x18,x29
    80001ba4:	41178633          	sub	x12,x15,x17
    80001ba8:	00f284bb          	addw	x9,x5,x15
    80001bac:	415d083b          	subw	x16,x26,x21
    80001bb0:	01af7d33          	and	x26,x30,x26
    80001bb4:	0033ef33          	or	x30,x7,x3
    80001bb8:	40638fbb          	subw	x31,x7,x6
    80001bbc:	01c5e133          	or	x2,x11,x28
    80001bc0:	40520b3b          	subw	x22,x4,x5
    80001bc4:	00d1bab3          	sltu	x21,x3,x13
    80001bc8:	0106c3b3          	xor	x7,x13,x16
    80001bcc:	41d606bb          	subw	x13,x12,x29
    80001bd0:	01c87633          	and	x12,x16,x28
    80001bd4:	005d4933          	xor	x18,x26,x5
    80001bd8:	0168a2b3          	slt	x5,x17,x22
    80001bdc:	0002073b          	addw	x14,x4,x0
    80001be0:	00d7cdb3          	xor	x27,x15,x13
    80001be4:	00bd6233          	or	x4,x26,x11
    80001be8:	00610bbb          	addw	x23,x2,x6
    80001bec:	018a2c33          	slt	x24,x20,x24
    80001bf0:	01186033          	or	x0,x16,x17
    80001bf4:	40928533          	sub	x10,x5,x9
    80001bf8:	016f6cb3          	or	x25,x30,x22
    80001bfc:	00276733          	or	x14,x14,x2
    80001c00:	01a5fdb3          	and	x27,x11,x26
    80001c04:	002b0633          	add	x12,x22,x2
    80001c08:	0038033b          	addw	x6,x16,x3
    80001c0c:	405d0abb          	subw	x21,x26,x5
    80001c10:	019a2933          	slt	x18,x20,x25
    80001c14:	0007003b          	addw	x0,x14,x0
    80001c18:	41b988b3          	sub	x17,x19,x27
    80001c1c:	003a04b3          	add	x9,x20,x3
    80001c20:	410287b3          	sub	x15,x5,x16
    80001c24:	017bca33          	xor	x20,x23,x23
    80001c28:	00077bb3          	and	x23,x14,x0
    80001c2c:	007b3133          	sltu	x2,x22,x7
    80001c30:	0113cc33          	xor	x24,x7,x17
    80001c34:	00044833          	xor	x16,x8,x0
    80001c38:	0131beb3          	sltu	x29,x3,x19
    80001c3c:	00a72933          	slt	x18,x14,x10
    80001c40:	016b25b3          	slt	x11,x22,x22
    80001c44:	004c3c33          	sltu	x24,x24,x4
    80001c48:	017ccab3          	xor	x21,x25,x23
    80001c4c:	01188833          	add	x16,x17,x17
    80001c50:	01d477b3          	and	x15,x8,x29
    80001c54:	01ce0133          	add	x2,x28,x28
    80001c58:	0099873b          	addw	x14,x19,x9
    80001c5c:	008c8b33          	add	x22,x25,x8
    80001c60:	006d843b          	addw	x8,x27,x6
    80001c64:	01bafab3          	and	x21,x21,x27
    80001c68:	004c4833          	xor	x16,x24,x4
    80001c6c:	0033f733          	and	x14,x7,x3
    80001c70:	00578fbb          	addw	x31,x15,x5
    80001c74:	412a0ebb          	subw	x29,x20,x18
    80001c78:	40c784b3          	sub	x9,x15,x12
    80001c7c:	00fd8f3b          	addw	x30,x27,x15
    80001c80:	00fd0e3b          	addw	x28,x26,x15
    80001c84:	0103f033          	and	x0,x7,x16
    80001c88:	00d2043b          	addw	x8,x4,x13
    80001c8c:	009807b3          	add	x15,x16,x9
    80001c90:	418c053b          	subw	x10,x24,x24
    80001c94:	4022873b          	subw	x14,x5,x2
    80001c98:	00366cb3          	or	x25,x12,x3
    80001c9c:	0071e5b3          	or	x11,x3,x7
    80001ca0:	01bb4433          	xor	x8,x22,x27
    80001ca4:	40c68c3b          	subw	x24,x13,x12
    80001ca8:	013bc4b3          	xor	x9,x23,x19
    80001cac:	005ea033          	slt	x0,x29,x5
    80001cb0:	004bacb3          	slt	x25,x23,x4
    80001cb4:	011f8633          	add	x12,x31,x17
    80001cb8:	015a7433          	and	x8,x20,x21
    80001cbc:	01afcc33          	xor	x24,x31,x26
    80001cc0:	006285bb          	addw	x11,x5,x6
    80001cc4:	00dd883b          	addw	x16,x27,x13
    80001cc8:	0119893b          	addw	x18,x19,x17
    80001ccc:	0078cbb3          	xor	x23,x17,x7
    80001cd0:	0197feb3          	and	x29,x15,x25
    80001cd4:	40b108bb          	subw	x17,x2,x11
    80001cd8:	002c25b3          	slt	x11,x24,x2
    80001cdc:	0186893b          	addw	x18,x13,x24
    80001ce0:	01f1a1b3          	slt	x3,x3,x31
    80001ce4:	00ccb633          	sltu	x12,x25,x12
    80001ce8:	419c873b          	subw	x14,x25,x25
    80001cec:	01a7a2b3          	slt	x5,x15,x26
    80001cf0:	01692cb3          	slt	x25,x18,x22
    80001cf4:	00fa8833          	add	x16,x21,x15
    80001cf8:	000e86b3          	add	x13,x29,x0
    80001cfc:	011baa33          	slt	x20,x23,x17
    80001d00:	002ded33          	or	x26,x27,x2
    80001d04:	015f79b3          	and	x19,x30,x21
    80001d08:	007aebb3          	or	x23,x21,x7
    80001d0c:	404688b3          	sub	x17,x13,x4
    80001d10:	00b4b133          	sltu	x2,x9,x11
    80001d14:	01a801bb          	addw	x3,x16,x26
    80001d18:	000b4a33          	xor	x20,x22,x0
    80001d1c:	40b985bb          	subw	x11,x19,x11
    80001d20:	00d53d33          	sltu	x26,x10,x13
    80001d24:	012444b3          	xor	x9,x8,x18
    80001d28:	00aee433          	or	x8,x29,x10
    80001d2c:	01bb03bb          	addw	x7,x22,x27
    80001d30:	01e182bb          	addw	x5,x3,x30
    80001d34:	40be85bb          	subw	x11,x29,x11
    80001d38:	0098efb3          	or	x31,x17,x9
    80001d3c:	0176ad33          	slt	x26,x13,x23
    80001d40:	41c20db3          	sub	x27,x4,x28
    80001d44:	002073b3          	and	x7,x0,x2
    80001d48:	00b801bb          	addw	x3,x16,x11
    80001d4c:	00b7f933          	and	x18,x15,x11
    80001d50:	00eaecb3          	or	x25,x21,x14
    80001d54:	0182bbb3          	sltu	x23,x5,x24
    80001d58:	0056873b          	addw	x14,x13,x5
    80001d5c:	0162beb3          	sltu	x29,x5,x22
    80001d60:	00da2ab3          	slt	x21,x20,x13
    80001d64:	009f3633          	sltu	x12,x30,x9
    80001d68:	005cb2b3          	sltu	x5,x25,x5
    80001d6c:	40a18333          	sub	x6,x3,x10
    80001d70:	00ac8db3          	add	x27,x25,x10
    80001d74:	010e37b3          	sltu	x15,x28,x16
    80001d78:	004e3733          	sltu	x14,x28,x4
    80001d7c:	01cb3d33          	sltu	x26,x22,x28
    80001d80:	007ea033          	slt	x0,x29,x7
    80001d84:	0028bf33          	sltu	x30,x17,x2
    80001d88:	41580c3b          	subw	x24,x16,x21
    80001d8c:	0054b9b3          	sltu	x19,x9,x5
    80001d90:	41478633          	sub	x12,x15,x20
    80001d94:	0113fbb3          	and	x23,x7,x17
    80001d98:	019ca333          	slt	x6,x25,x25
    80001d9c:	012afa33          	and	x20,x21,x18
    80001da0:	01cf823b          	addw	x4,x31,x28
    80001da4:	00ee86b3          	add	x13,x29,x14
    80001da8:	00bb23b3          	slt	x7,x22,x11
    80001dac:	008901b3          	add	x3,x18,x8
    80001db0:	01972cb3          	slt	x25,x14,x25
    80001db4:	01643333          	sltu	x6,x8,x22
    80001db8:	41458d33          	sub	x26,x11,x20
    80001dbc:	005148b3          	xor	x17,x2,x5
    80001dc0:	00ceb6b3          	sltu	x13,x29,x12
    80001dc4:	4044873b          	subw	x14,x9,x4
    80001dc8:	413e0f3b          	subw	x30,x28,x19
    80001dcc:	017b31b3          	sltu	x3,x22,x23
    80001dd0:	00c025b3          	slt	x11,x0,x12
    80001dd4:	0192b9b3          	sltu	x19,x5,x25
    80001dd8:	00563db3          	sltu	x27,x12,x5
    80001ddc:	016e813b          	addw	x2,x29,x22
    80001de0:	01964f33          	xor	x30,x12,x25
    80001de4:	011fc633          	xor	x12,x31,x17
    80001de8:	00dfe7b3          	or	x15,x31,x13
    80001dec:	00e03fb3          	sltu	x31,x0,x14
    80001df0:	00788abb          	addw	x21,x17,x7
    80001df4:	01bb2833          	slt	x16,x22,x27
    80001df8:	0127073b          	addw	x14,x14,x18
    80001dfc:	00296333          	or	x6,x18,x2
    80001e00:	0009e133          	or	x2,x19,x0
    80001e04:	015442b3          	xor	x5,x8,x21
    80001e08:	007e6d33          	or	x26,x28,x7
    80001e0c:	414508b3          	sub	x17,x10,x20
    80001e10:	00878433          	add	x8,x15,x8
    80001e14:	41468833          	sub	x16,x13,x20
    80001e18:	00296cb3          	or	x25,x18,x2
    80001e1c:	41438233          	sub	x4,x7,x20
    80001e20:	41ba82b3          	sub	x5,x21,x27
    80001e24:	40018bb3          	sub	x23,x3,x0
    80001e28:	0158c5b3          	xor	x11,x17,x21
    80001e2c:	01a6b3b3          	sltu	x7,x13,x26
    80001e30:	016b7fb3          	and	x31,x22,x22
    80001e34:	01c566b3          	or	x13,x10,x28
    80001e38:	013c4db3          	xor	x27,x24,x19
    80001e3c:	008c4633          	xor	x12,x24,x8
    80001e40:	016d62b3          	or	x5,x26,x22
    80001e44:	402809bb          	subw	x19,x16,x2
    80001e48:	000f4bb3          	xor	x23,x30,x0
    80001e4c:	002ff233          	and	x4,x31,x2
    80001e50:	4093813b          	subw	x2,x7,x9
    80001e54:	009d72b3          	and	x5,x26,x9
    80001e58:	01090b33          	add	x22,x18,x16
    80001e5c:	40a98d3b          	subw	x26,x19,x10
    80001e60:	004cfdb3          	and	x27,x25,x4
    80001e64:	00c788bb          	addw	x17,x15,x12
    80001e68:	00410c33          	add	x24,x2,x4
    80001e6c:	0193a7b3          	slt	x15,x7,x25
    80001e70:	009029b3          	slt	x19,x0,x9
    80001e74:	01f46133          	or	x2,x8,x31
    80001e78:	014e0f3b          	addw	x30,x28,x20
    80001e7c:	00e1fe33          	and	x28,x3,x14
    80001e80:	00940cbb          	addw	x25,x8,x9
    80001e84:	01506633          	or	x12,x0,x21
    80001e88:	40818133          	sub	x2,x3,x8
    80001e8c:	005d8b3b          	addw	x22,x27,x5
    80001e90:	018537b3          	sltu	x15,x10,x24
    80001e94:	0123ef33          	or	x30,x7,x18
    80001e98:	0154a8b3          	slt	x17,x9,x21
    80001e9c:	41498e33          	sub	x28,x19,x20
    80001ea0:	01d24cb3          	xor	x25,x4,x29
    80001ea4:	006a0fbb          	addw	x31,x20,x6
    80001ea8:	41848c33          	sub	x24,x9,x24
    80001eac:	4053853b          	subw	x10,x7,x5
    80001eb0:	41640bb3          	sub	x23,x8,x22
    80001eb4:	01d4e5b3          	or	x11,x9,x29
    80001eb8:	005f8233          	add	x4,x31,x5
    80001ebc:	00cfb9b3          	sltu	x19,x31,x12
    80001ec0:	01d2c1b3          	xor	x3,x5,x29
    80001ec4:	015c6fb3          	or	x31,x24,x21
    80001ec8:	0113e533          	or	x10,x7,x17
    80001ecc:	017f6933          	or	x18,x30,x23
    80001ed0:	010722b3          	slt	x5,x14,x16
    80001ed4:	010033b3          	sltu	x7,x0,x16
    80001ed8:	006dcbb3          	xor	x23,x27,x6
    80001edc:	414e073b          	subw	x14,x28,x20
    80001ee0:	009db4b3          	sltu	x9,x27,x9
    80001ee4:	013c053b          	addw	x10,x24,x19
    80001ee8:	01888eb3          	add	x29,x17,x24
    80001eec:	00daa133          	slt	x2,x21,x13
    80001ef0:	007fe733          	or	x14,x31,x7
    80001ef4:	013f86b3          	add	x13,x31,x19
    80001ef8:	417f0ab3          	sub	x21,x30,x23
    80001efc:	41758fbb          	subw	x31,x11,x23
    80001f00:	01943333          	sltu	x6,x8,x25
    80001f04:	01a20933          	add	x18,x4,x26
    80001f08:	0165e833          	or	x16,x11,x22
    80001f0c:	01a075b3          	and	x11,x0,x26
    80001f10:	003d053b          	addw	x10,x26,x3
    80001f14:	01300c33          	add	x24,x0,x19
    80001f18:	002182b3          	add	x5,x3,x2
    80001f1c:	003e76b3          	and	x13,x28,x3
    80001f20:	40918fb3          	sub	x31,x3,x9
    80001f24:	017f0eb3          	add	x29,x30,x23
    80001f28:	01eb063b          	addw	x12,x22,x30
    80001f2c:	01ea2033          	slt	x0,x20,x30
    80001f30:	00ff2d33          	slt	x26,x30,x15
    80001f34:	00917b33          	and	x22,x2,x9
    80001f38:	00df873b          	addw	x14,x31,x13
    80001f3c:	00f44833          	xor	x16,x8,x15
    80001f40:	00900f33          	add	x30,x0,x9
    80001f44:	005533b3          	sltu	x7,x10,x5
    80001f48:	01f78db3          	add	x27,x15,x31
    80001f4c:	002074b3          	and	x9,x0,x2
    80001f50:	0168cd33          	xor	x26,x17,x22
    80001f54:	01f54fb3          	xor	x31,x10,x31
    80001f58:	00eb05bb          	addw	x11,x22,x14
    80001f5c:	003e3cb3          	sltu	x25,x28,x3
    80001f60:	009438b3          	sltu	x17,x8,x9
    80001f64:	0156f133          	and	x2,x13,x21
    80001f68:	00ab7f33          	and	x30,x22,x10
    80001f6c:	00c5ed33          	or	x26,x11,x12
    80001f70:	00a5bfb3          	sltu	x31,x11,x10
    80001f74:	418288bb          	subw	x17,x5,x24
    80001f78:	41638733          	sub	x14,x7,x22
    80001f7c:	018f4c33          	xor	x24,x30,x24
    80001f80:	017664b3          	or	x9,x12,x23
    80001f84:	012cb933          	sltu	x18,x25,x18
    80001f88:	415e83bb          	subw	x7,x29,x21
    80001f8c:	01c226b3          	slt	x13,x4,x28
    80001f90:	00ca6c33          	or	x24,x20,x12
    80001f94:	40200fb3          	sub	x31,x0,x2
    80001f98:	41ad0cb3          	sub	x25,x26,x26
    80001f9c:	0167e9b3          	or	x19,x15,x22
    80001fa0:	003208bb          	addw	x17,x4,x3
    80001fa4:	010da533          	slt	x10,x27,x16
    80001fa8:	0155a133          	slt	x2,x11,x21
    80001fac:	01873a33          	sltu	x20,x14,x24
    80001fb0:	016d2333          	slt	x6,x26,x22
    80001fb4:	0121ecb3          	or	x25,x3,x18
    80001fb8:	00ab6533          	or	x10,x22,x10
    80001fbc:	00f20633          	add	x12,x4,x15
    80001fc0:	005788bb          	addw	x17,x15,x5
    80001fc4:	4102893b          	subw	x18,x5,x16
    80001fc8:	00e14433          	xor	x8,x2,x14
    80001fcc:	013d2fb3          	slt	x31,x26,x19
    80001fd0:	40a60cb3          	sub	x25,x12,x10
    80001fd4:	00bd4db3          	xor	x27,x26,x11
    80001fd8:	00b903b3          	add	x7,x18,x11
    80001fdc:	0101f4b3          	and	x9,x3,x16
    80001fe0:	41c90a33          	sub	x20,x18,x28
    80001fe4:	0136033b          	addw	x6,x12,x19
    80001fe8:	40b50033          	sub	x0,x10,x11
    80001fec:	00f40b3b          	addw	x22,x8,x15
    80001ff0:	0096053b          	addw	x10,x12,x9
    80001ff4:	01a1beb3          	sltu	x29,x3,x26
    80001ff8:	40f605bb          	subw	x11,x12,x15
    80001ffc:	002c71b3          	and	x3,x24,x2
    80002000:	006f8b33          	add	x22,x31,x6
    80002004:	01406a33          	or	x20,x0,x20
    80002008:	018fcbb3          	xor	x23,x31,x24
    8000200c:	0073fd33          	and	x26,x7,x7
    80002010:	010c2133          	slt	x2,x24,x16
    80002014:	0194f9b3          	and	x19,x9,x25
    80002018:	008f02bb          	addw	x5,x30,x8
    8000201c:	00b3e3b3          	or	x7,x7,x11
    80002020:	0126ba33          	sltu	x20,x13,x18
    80002024:	0096f4b3          	and	x9,x13,x9
    80002028:	01e9c933          	xor	x18,x19,x30
    8000202c:	01d54ab3          	xor	x21,x10,x29
    80002030:	4075073b          	subw	x14,x10,x7
    80002034:	01158cbb          	addw	x25,x11,x17
    80002038:	00d7cdb3          	xor	x27,x15,x13
    8000203c:	007e27b3          	slt	x15,x28,x7
    80002040:	013a84b3          	add	x9,x21,x19
    80002044:	01590c33          	add	x24,x18,x21
    80002048:	016b0833          	add	x16,x22,x22
    8000204c:	01704033          	xor	x0,x0,x23
    80002050:	01f273b3          	and	x7,x4,x31
    80002054:	002685b3          	add	x11,x13,x2
    80002058:	0112f8b3          	and	x17,x5,x17
    8000205c:	41d70e3b          	subw	x28,x14,x29
    80002060:	01efed33          	or	x26,x31,x30
    80002064:	010b6333          	or	x6,x22,x16
    80002068:	410f863b          	subw	x12,x31,x16
    8000206c:	01f2bdb3          	sltu	x27,x5,x31
    80002070:	40be8e33          	sub	x28,x29,x11
    80002074:	00522b33          	slt	x22,x4,x5
    80002078:	017479b3          	and	x19,x8,x23
    8000207c:	018eb5b3          	sltu	x11,x29,x24
    80002080:	41d60abb          	subw	x21,x12,x29
    80002084:	400886b3          	sub	x13,x17,x0
    80002088:	41a282b3          	sub	x5,x5,x26
    8000208c:	01e37533          	and	x10,x6,x30
    80002090:	00e7e3b3          	or	x7,x15,x14
    80002094:	00beb5b3          	sltu	x11,x29,x11
    80002098:	009d0ab3          	add	x21,x26,x9
    8000209c:	00ffb9b3          	sltu	x19,x31,x15
    800020a0:	012947b3          	xor	x15,x18,x18
    800020a4:	0168efb3          	or	x31,x17,x22
    800020a8:	40850d3b          	subw	x26,x10,x8
    800020ac:	410d8933          	sub	x18,x27,x16
    800020b0:	409d8b3b          	subw	x22,x27,x9
    800020b4:	01c201bb          	addw	x3,x4,x28
    800020b8:	009fcc33          	xor	x24,x31,x9
    800020bc:	0023aa33          	slt	x20,x7,x2
    800020c0:	01c923b3          	slt	x7,x18,x28
    800020c4:	00a02333          	slt	x6,x0,x10
    800020c8:	002bc4b3          	xor	x9,x23,x2
    800020cc:	013e87bb          	addw	x15,x29,x19
    800020d0:	01777f33          	and	x30,x14,x23
    800020d4:	00c186bb          	addw	x13,x3,x12
    800020d8:	41cd01bb          	subw	x3,x26,x28
    800020dc:	00cc2bb3          	slt	x23,x24,x12
    800020e0:	00580ebb          	addw	x29,x16,x5
    800020e4:	40600cb3          	sub	x25,x0,x6
    800020e8:	01e6ba33          	sltu	x20,x13,x30
    800020ec:	0121e033          	or	x0,x3,x18
    800020f0:	40f58c33          	sub	x24,x11,x15
    800020f4:	40cf85bb          	subw	x11,x31,x12
    800020f8:	009ea1b3          	slt	x3,x29,x9
    800020fc:	01177db3          	and	x27,x14,x17
    80002100:	0042013b          	addw	x2,x4,x4
    80002104:	01fb0733          	add	x14,x22,x31
    80002108:	00c24e33          	xor	x28,x4,x12
    8000210c:	01eb7f33          	and	x30,x22,x30
    80002110:	01d9ebb3          	or	x23,x19,x29
    80002114:	01f389bb          	addw	x19,x7,x31
    80002118:	00fae2b3          	or	x5,x21,x15
    8000211c:	41af8fbb          	subw	x31,x31,x26
    80002120:	01b541b3          	xor	x3,x10,x27
    80002124:	40dc86bb          	subw	x13,x25,x13
    80002128:	00e8fc33          	and	x24,x17,x14
    8000212c:	01d06bb3          	or	x23,x0,x29
    80002130:	4046033b          	subw	x6,x12,x4
    80002134:	0059c4b3          	xor	x9,x19,x5
    80002138:	002aa633          	slt	x12,x21,x2
    8000213c:	01592db3          	slt	x27,x18,x21
    80002140:	010a4c33          	xor	x24,x20,x16
    80002144:	408b0b33          	sub	x22,x22,x8
    80002148:	0137abb3          	slt	x23,x15,x19
    8000214c:	0024093b          	addw	x18,x8,x2
    80002150:	00da84b3          	add	x9,x21,x13
    80002154:	01944433          	xor	x8,x8,x25
    80002158:	41da0c3b          	subw	x24,x20,x29
    8000215c:	002d42b3          	xor	x5,x26,x2
    80002160:	000b6233          	or	x4,x22,x0
    80002164:	00336b33          	or	x22,x6,x3
    80002168:	007504b3          	add	x9,x10,x7
    8000216c:	0148e733          	or	x14,x17,x20
    80002170:	417781bb          	subw	x3,x15,x23
    80002174:	41ec86b3          	sub	x13,x25,x30
    80002178:	40fa82bb          	subw	x5,x21,x15
    8000217c:	00c10233          	add	x4,x2,x12
    80002180:	01e17db3          	and	x27,x2,x30
    80002184:	00f7c333          	xor	x6,x15,x15
    80002188:	019974b3          	and	x9,x18,x25
    8000218c:	41850ebb          	subw	x29,x10,x24
    80002190:	010261b3          	or	x3,x4,x16
    80002194:	014b49b3          	xor	x19,x22,x20
    80002198:	014d2ab3          	slt	x21,x26,x20
    8000219c:	01a04e33          	xor	x28,x0,x26
    800021a0:	40688033          	sub	x0,x17,x6
    800021a4:	003b6633          	or	x12,x22,x3
    800021a8:	40a989b3          	sub	x19,x19,x10
    800021ac:	0106c533          	xor	x10,x13,x16
    800021b0:	41b80e33          	sub	x28,x16,x27
    800021b4:	01558db3          	add	x27,x11,x21
    800021b8:	00cb77b3          	and	x15,x22,x12
    800021bc:	0025acb3          	slt	x25,x11,x2
    800021c0:	005d08b3          	add	x17,x26,x5
    800021c4:	40710c33          	sub	x24,x2,x7
    800021c8:	01727433          	and	x8,x4,x23
    800021cc:	007db4b3          	sltu	x9,x27,x7
    800021d0:	00c83633          	sltu	x12,x16,x12
    800021d4:	0179ae33          	slt	x28,x19,x23
    800021d8:	419383bb          	subw	x7,x7,x25
    800021dc:	00f40d33          	add	x26,x8,x15
    800021e0:	008f45b3          	xor	x11,x30,x8
    800021e4:	01080a33          	add	x20,x16,x16
    800021e8:	005436b3          	sltu	x13,x8,x5
    800021ec:	0022f1b3          	and	x3,x5,x2
    800021f0:	0193013b          	addw	x2,x6,x25
    800021f4:	40630ab3          	sub	x21,x6,x6
    800021f8:	01038333          	add	x6,x7,x16
    800021fc:	00797033          	and	x0,x18,x7
    80002200:	018e6c33          	or	x24,x28,x24
    80002204:	01e13a33          	sltu	x20,x2,x30
    80002208:	01616433          	or	x8,x2,x22
    8000220c:	017625b3          	slt	x11,x12,x23
    80002210:	00fbc9b3          	xor	x19,x23,x15
    80002214:	0043023b          	addw	x4,x6,x4
    80002218:	006a3333          	sltu	x6,x20,x6
    8000221c:	00d10c33          	add	x24,x2,x13
    80002220:	00b5e2b3          	or	x5,x11,x11
    80002224:	00bf29b3          	slt	x19,x30,x11
    80002228:	015bfd33          	and	x26,x23,x21
    8000222c:	4105883b          	subw	x16,x11,x16
    80002230:	00faebb3          	or	x23,x21,x15
    80002234:	40768733          	sub	x14,x13,x7
    80002238:	41f60e33          	sub	x28,x12,x31
    8000223c:	000decb3          	or	x25,x27,x0
    80002240:	0001bc33          	sltu	x24,x3,x0
    80002244:	41a3863b          	subw	x12,x7,x26
    80002248:	0047e5b3          	or	x11,x15,x4
    8000224c:	01090e33          	add	x28,x18,x16
    80002250:	0167f4b3          	and	x9,x15,x22
    80002254:	005b7833          	and	x16,x22,x5
    80002258:	0061c033          	xor	x0,x3,x6
    8000225c:	00eb86b3          	add	x13,x23,x14
    80002260:	012fb9b3          	sltu	x19,x31,x18
    80002264:	00e1e7b3          	or	x15,x3,x14
    80002268:	01ad3833          	sltu	x16,x26,x26
    8000226c:	00ec2bb3          	slt	x23,x24,x14
    80002270:	016c7fb3          	and	x31,x24,x22
    80002274:	40a30c33          	sub	x24,x6,x10
    80002278:	013ccb33          	xor	x22,x25,x19
    8000227c:	0054b6b3          	sltu	x13,x9,x5
    80002280:	40a78533          	sub	x10,x15,x10
    80002284:	41200bbb          	subw	x23,x0,x18
    80002288:	01e5e9b3          	or	x19,x11,x30
    8000228c:	018ee033          	or	x0,x29,x24
    80002290:	0102b633          	sltu	x12,x5,x16
    80002294:	00e78e3b          	addw	x28,x15,x14
    80002298:	40d40fbb          	subw	x31,x8,x13
    8000229c:	016281b3          	add	x3,x5,x22
    800022a0:	017bbcb3          	sltu	x25,x23,x23
    800022a4:	40c782bb          	subw	x5,x15,x12
    800022a8:	01a6e6b3          	or	x13,x13,x26
    800022ac:	00e387bb          	addw	x15,x7,x14
    800022b0:	00c501bb          	addw	x3,x10,x12
    800022b4:	00767cb3          	and	x25,x12,x7
    800022b8:	40980b3b          	subw	x22,x16,x9
    800022bc:	411504b3          	sub	x9,x10,x17
    800022c0:	00664f33          	xor	x30,x12,x6
    800022c4:	00807133          	and	x2,x0,x8
    800022c8:	018c86bb          	addw	x13,x25,x24
    800022cc:	41890d33          	sub	x26,x18,x24
    800022d0:	01230533          	add	x10,x6,x18
    800022d4:	004764b3          	or	x9,x14,x4
    800022d8:	412985b3          	sub	x11,x19,x18
    800022dc:	01cf78b3          	and	x17,x30,x28
    800022e0:	006b0bbb          	addw	x23,x22,x6
    800022e4:	40520eb3          	sub	x29,x4,x5
    800022e8:	414184bb          	subw	x9,x3,x20
    800022ec:	01a379b3          	and	x19,x6,x26
    800022f0:	00d427b3          	slt	x15,x8,x13
    800022f4:	01fff533          	and	x10,x31,x31
    800022f8:	0075833b          	addw	x6,x11,x7
    800022fc:	410e8633          	sub	x12,x29,x16
    80002300:	41c9873b          	subw	x14,x19,x28
    80002304:	41f18d33          	sub	x26,x3,x31
    80002308:	0123b4b3          	sltu	x9,x7,x18
    8000230c:	01d7eb33          	or	x22,x15,x29
    80002310:	01e2f133          	and	x2,x5,x30
    80002314:	01170db3          	add	x27,x14,x17
    80002318:	015efcb3          	and	x25,x29,x21
    8000231c:	01fbfd33          	and	x26,x23,x31
    80002320:	000b83bb          	addw	x7,x23,x0
    80002324:	01007333          	and	x6,x0,x16
    80002328:	01882233          	slt	x4,x16,x24
    8000232c:	0021aeb3          	slt	x29,x3,x2
    80002330:	011d2cb3          	slt	x25,x26,x17
    80002334:	0153e5b3          	or	x11,x7,x21
    80002338:	0171a8b3          	slt	x17,x3,x23
    8000233c:	01f78d3b          	addw	x26,x15,x31
    80002340:	01293533          	sltu	x10,x18,x18
    80002344:	00cb26b3          	slt	x13,x22,x12
    80002348:	40320233          	sub	x4,x4,x3
    8000234c:	0128edb3          	or	x27,x17,x18
    80002350:	41f90b33          	sub	x22,x18,x31
    80002354:	00638a33          	add	x20,x7,x6
    80002358:	41998fbb          	subw	x31,x19,x25
    8000235c:	00bc833b          	addw	x6,x25,x11
    80002360:	00e8c4b3          	xor	x9,x17,x14
    80002364:	00774233          	xor	x4,x14,x7
    80002368:	007d22b3          	slt	x5,x26,x7
    8000236c:	01b10ebb          	addw	x29,x2,x27
    80002370:	41e686b3          	sub	x13,x13,x30
    80002374:	019b7433          	and	x8,x22,x25
    80002378:	01a9e833          	or	x16,x19,x26
    8000237c:	01853033          	sltu	x0,x10,x24
    80002380:	40c28bbb          	subw	x23,x5,x12
    80002384:	00fa8abb          	addw	x21,x21,x15
    80002388:	011275b3          	and	x11,x4,x17
    8000238c:	00296633          	or	x12,x18,x2
    80002390:	00406f33          	or	x30,x0,x4
    80002394:	005806b3          	add	x13,x16,x5
    80002398:	01f27133          	and	x2,x4,x31
    8000239c:	41f905b3          	sub	x11,x18,x31
    800023a0:	01137db3          	and	x27,x6,x17
    800023a4:	00a7feb3          	and	x29,x15,x10
    800023a8:	41ea883b          	subw	x16,x21,x30
    800023ac:	01eab533          	sltu	x10,x21,x30
    800023b0:	019427b3          	slt	x15,x8,x25
    800023b4:	00b94cb3          	xor	x25,x18,x11
    800023b8:	006b4233          	xor	x4,x22,x6
    800023bc:	00cec5b3          	xor	x11,x29,x12
    800023c0:	0056f2b3          	and	x5,x13,x5
    800023c4:	016184b3          	add	x9,x3,x22
    800023c8:	00d10abb          	addw	x21,x2,x13
    800023cc:	007228b3          	slt	x17,x4,x7
    800023d0:	008dfd33          	and	x26,x27,x8
    800023d4:	00666bb3          	or	x23,x12,x6
    800023d8:	00700133          	add	x2,x0,x7
    800023dc:	403c8e33          	sub	x28,x25,x3
    800023e0:	0085a233          	slt	x4,x11,x8
    800023e4:	018d3733          	sltu	x14,x26,x24
    800023e8:	40ae843b          	subw	x8,x29,x10
    800023ec:	016abd33          	sltu	x26,x21,x22
    800023f0:	00984933          	xor	x18,x16,x9
    800023f4:	017e8a33          	add	x20,x29,x23
    800023f8:	411d8b3b          	subw	x22,x27,x17
    800023fc:	01fbc733          	xor	x14,x23,x31
    80002400:	003d39b3          	sltu	x19,x26,x3
    80002404:	01ffcbb3          	xor	x23,x31,x31
    80002408:	006c45b3          	xor	x11,x24,x6
    8000240c:	40df8fbb          	subw	x31,x31,x13
    80002410:	40a78cbb          	subw	x25,x15,x10
    80002414:	0147e733          	or	x14,x15,x20
    80002418:	408d09bb          	subw	x19,x26,x8
    8000241c:	018021b3          	slt	x3,x0,x24
    80002420:	00c12a33          	slt	x20,x2,x12
    80002424:	00ce8ebb          	addw	x29,x29,x12
    80002428:	016d2c33          	slt	x24,x26,x22
    8000242c:	012afe33          	and	x28,x21,x18
    80002430:	403f8133          	sub	x2,x31,x3
    80002434:	00a3ffb3          	and	x31,x7,x10
    80002438:	00526bb3          	or	x23,x4,x5
    8000243c:	00f5e1b3          	or	x3,x11,x15
    80002440:	0169f2b3          	and	x5,x19,x22
    80002444:	007d8033          	add	x0,x27,x7
    80002448:	0088e333          	or	x6,x17,x8
    8000244c:	01e583bb          	addw	x7,x11,x30
    80002450:	017eea33          	or	x20,x29,x23
    80002454:	40ba8f33          	sub	x30,x21,x11
    80002458:	011438b3          	sltu	x17,x8,x17
    8000245c:	004284bb          	addw	x9,x5,x4
    80002460:	0199f933          	and	x18,x19,x25
    80002464:	00f38733          	add	x14,x7,x15
    80002468:	01e2abb3          	slt	x23,x5,x30
    8000246c:	41ea813b          	subw	x2,x21,x30
    80002470:	01548a33          	add	x20,x9,x21
    80002474:	006e803b          	addw	x0,x29,x6
    80002478:	40a309b3          	sub	x19,x6,x10
    8000247c:	009747b3          	xor	x15,x14,x9
    80002480:	41b40833          	sub	x16,x8,x27
    80002484:	0144cdb3          	xor	x27,x9,x20
    80002488:	4066053b          	subw	x10,x12,x6
    8000248c:	00ed75b3          	and	x11,x26,x14
    80002490:	01a4043b          	addw	x8,x8,x26
    80002494:	018ce8b3          	or	x17,x25,x24
    80002498:	01d6c833          	xor	x16,x13,x29
    8000249c:	002fe333          	or	x6,x31,x2
    800024a0:	01a68d3b          	addw	x26,x13,x26
    800024a4:	01f405b3          	add	x11,x8,x31
    800024a8:	002c22b3          	slt	x5,x24,x2
    800024ac:	009fcab3          	xor	x21,x31,x9
    800024b0:	009808bb          	addw	x17,x16,x9
    800024b4:	007eb333          	sltu	x6,x29,x7
    800024b8:	01fc2a33          	slt	x20,x24,x31
    800024bc:	01804db3          	xor	x27,x0,x24
    800024c0:	00228733          	add	x14,x5,x2
    800024c4:	00fb6cb3          	or	x25,x22,x15
    800024c8:	01d068b3          	or	x17,x0,x29
    800024cc:	404a09bb          	subw	x19,x20,x4
    800024d0:	01f17833          	and	x16,x2,x31
    800024d4:	0121093b          	addw	x18,x2,x18
    800024d8:	01b2cdb3          	xor	x27,x5,x27
    800024dc:	019587bb          	addw	x15,x11,x25
    800024e0:	016381b3          	add	x3,x7,x22
    800024e4:	01d80233          	add	x4,x16,x29
    800024e8:	00d374b3          	and	x9,x6,x13
    800024ec:	014f6733          	or	x14,x30,x20
    800024f0:	00ab38b3          	sltu	x17,x22,x10
    800024f4:	003fe833          	or	x16,x31,x3
    800024f8:	000faa33          	slt	x20,x31,x0
    800024fc:	007023b3          	slt	x7,x0,x7
    80002500:	015c65b3          	or	x11,x24,x21
    80002504:	01d9c1b3          	xor	x3,x19,x29
    80002508:	4004083b          	subw	x16,x8,x0
    8000250c:	005f0233          	add	x4,x30,x5
    80002510:	00532c33          	slt	x24,x6,x5
    80002514:	00b6e7b3          	or	x15,x13,x11
    80002518:	019b8eb3          	add	x29,x23,x25
    8000251c:	019e3ab3          	sltu	x21,x28,x25
    80002520:	01b9a933          	slt	x18,x19,x27
    80002524:	01920c3b          	addw	x24,x4,x25
    80002528:	00048e3b          	addw	x28,x9,x0
    8000252c:	002cf133          	and	x2,x25,x2
    80002530:	411006bb          	subw	x13,x0,x17
    80002534:	01d483bb          	addw	x7,x9,x29
    80002538:	017fca33          	xor	x20,x31,x23
    8000253c:	01a5cfb3          	xor	x31,x11,x26
    80002540:	0058af33          	slt	x30,x17,x5
    80002544:	006ee533          	or	x10,x29,x6
    80002548:	40540c33          	sub	x24,x8,x5
    8000254c:	411804b3          	sub	x9,x16,x17
    80002550:	00500bbb          	addw	x23,x0,x5
    80002554:	008de733          	or	x14,x27,x8
    80002558:	00650033          	add	x0,x10,x6
    8000255c:	00f58933          	add	x18,x11,x15
    80002560:	40fc8cb3          	sub	x25,x25,x15
    80002564:	00c7f633          	and	x12,x15,x12
    80002568:	40df873b          	subw	x14,x31,x13
    8000256c:	01a56a33          	or	x20,x10,x26
    80002570:	0023ae33          	slt	x28,x7,x2
    80002574:	006684b3          	add	x9,x13,x6
    80002578:	0087a5b3          	slt	x11,x15,x8
    8000257c:	01d28f33          	add	x30,x5,x29
    80002580:	00f33533          	sltu	x10,x6,x15
    80002584:	00ccfbb3          	and	x23,x25,x12
    80002588:	00470db3          	add	x27,x14,x4
    8000258c:	01f60c3b          	addw	x24,x12,x31
    80002590:	01a63d33          	sltu	x26,x12,x26
    80002594:	011e6e33          	or	x28,x28,x17
    80002598:	011064b3          	or	x9,x0,x17
    8000259c:	012cc633          	xor	x12,x25,x18
    800025a0:	00e56b33          	or	x22,x10,x14
    800025a4:	00e7ef33          	or	x30,x15,x14
    800025a8:	00d6b7b3          	sltu	x15,x13,x13
    800025ac:	41f5073b          	subw	x14,x10,x31
    800025b0:	01aa6c33          	or	x24,x20,x26
    800025b4:	40b184b3          	sub	x9,x3,x11
    800025b8:	013aa2b3          	slt	x5,x21,x19
    800025bc:	0085b1b3          	sltu	x3,x11,x8
    800025c0:	00e64333          	xor	x6,x12,x14
    800025c4:	0157b033          	sltu	x0,x15,x21
    800025c8:	014804b3          	add	x9,x16,x20
    800025cc:	41160c33          	sub	x24,x12,x17
    800025d0:	0021e633          	or	x12,x3,x2
    800025d4:	01ab0abb          	addw	x21,x22,x26
    800025d8:	013076b3          	and	x13,x0,x19
    800025dc:	00878b33          	add	x22,x15,x8
    800025e0:	01fd2d33          	slt	x26,x26,x31
    800025e4:	00e2a533          	slt	x10,x5,x14
    800025e8:	010403b3          	add	x7,x8,x16
    800025ec:	41918f33          	sub	x30,x3,x25
    800025f0:	01d6f1b3          	and	x3,x13,x29
    800025f4:	0052c8b3          	xor	x17,x5,x5
    800025f8:	01d462b3          	or	x5,x8,x29
    800025fc:	00eae4b3          	or	x9,x21,x14
    80002600:	41a58ab3          	sub	x21,x11,x26
    80002604:	008dfeb3          	and	x29,x27,x8
    80002608:	01e5b433          	sltu	x8,x11,x30
    8000260c:	417f83b3          	sub	x7,x31,x23
    80002610:	0161a533          	slt	x10,x3,x22
    80002614:	000e0fbb          	addw	x31,x28,x0
    80002618:	00937cb3          	and	x25,x6,x9
    8000261c:	01ab8a33          	add	x20,x23,x26
    80002620:	01adae33          	slt	x28,x27,x26
    80002624:	01eab633          	sltu	x12,x21,x30
    80002628:	005de733          	or	x14,x27,x5
    8000262c:	013f0ebb          	addw	x29,x30,x19
    80002630:	00393333          	sltu	x6,x18,x3
    80002634:	0137e9b3          	or	x19,x15,x19
    80002638:	41b3853b          	subw	x10,x7,x27
    8000263c:	00b90c33          	add	x24,x18,x11
    80002640:	019b81b3          	add	x3,x23,x25
    80002644:	01f70f33          	add	x30,x14,x31
    80002648:	01f83933          	sltu	x18,x16,x31
    8000264c:	0082ae33          	slt	x28,x5,x8
    80002650:	00a706b3          	add	x13,x14,x10
    80002654:	00bb09bb          	addw	x19,x22,x11
    80002658:	0042c5b3          	xor	x11,x5,x4
    8000265c:	00e481bb          	addw	x3,x9,x14
    80002660:	417702bb          	subw	x5,x14,x23
    80002664:	01584fb3          	xor	x31,x16,x21
    80002668:	0087f633          	and	x12,x15,x8
    8000266c:	01348333          	add	x6,x9,x19
    80002670:	40b50733          	sub	x14,x10,x11
    80002674:	0188a3b3          	slt	x7,x17,x24
    80002678:	016aeb33          	or	x22,x21,x22
    8000267c:	01b9a433          	slt	x8,x19,x27
    80002680:	0159c9b3          	xor	x19,x19,x21
    80002684:	01ac0d3b          	addw	x26,x24,x26
    80002688:	002dbeb3          	sltu	x29,x27,x2
    8000268c:	0191e333          	or	x6,x3,x25
    80002690:	00e8873b          	addw	x14,x17,x14
    80002694:	015137b3          	sltu	x15,x2,x21
    80002698:	00a382bb          	addw	x5,x7,x10
    8000269c:	01344bb3          	xor	x23,x8,x19
    800026a0:	40de0c33          	sub	x24,x28,x13
    800026a4:	016cea33          	or	x20,x25,x22
    800026a8:	4153063b          	subw	x12,x6,x21
    800026ac:	010b3f33          	sltu	x30,x22,x16
    800026b0:	01f73233          	sltu	x4,x14,x31
    800026b4:	411685bb          	subw	x11,x13,x17
    800026b8:	0059083b          	addw	x16,x18,x5
    800026bc:	0129c9b3          	xor	x19,x19,x18
    800026c0:	01c44eb3          	xor	x29,x8,x28
    800026c4:	01824d33          	xor	x26,x4,x24
    800026c8:	01ff02bb          	addw	x5,x30,x31
    800026cc:	017ab3b3          	sltu	x7,x21,x23
    800026d0:	00a538b3          	sltu	x17,x10,x10
    800026d4:	0189b833          	sltu	x16,x19,x24
    800026d8:	015c4133          	xor	x2,x24,x21
    800026dc:	005af633          	and	x12,x21,x5
    800026e0:	01250a33          	add	x20,x10,x18
    800026e4:	01350db3          	add	x27,x10,x19
    800026e8:	01fa8fb3          	add	x31,x21,x31
    800026ec:	0158ae33          	slt	x28,x17,x21
    800026f0:	017b35b3          	sltu	x11,x22,x23
    800026f4:	0099a7b3          	slt	x15,x19,x9
    800026f8:	008181b3          	add	x3,x3,x8
    800026fc:	01856433          	or	x8,x10,x24
    80002700:	007b0cbb          	addw	x25,x22,x7
    80002704:	00a53833          	sltu	x16,x10,x10
    80002708:	01d03233          	sltu	x4,x0,x29
    8000270c:	00c3803b          	addw	x0,x7,x12
    80002710:	407189bb          	subw	x19,x3,x7
    80002714:	018e8f3b          	addw	x30,x29,x24
    80002718:	40f38633          	sub	x12,x7,x15
    8000271c:	41290cbb          	subw	x25,x18,x18
    80002720:	006a8dbb          	addw	x27,x21,x6
    80002724:	0155e6b3          	or	x13,x11,x21
    80002728:	01c84ab3          	xor	x21,x16,x28
    8000272c:	40bf05bb          	subw	x11,x30,x11
    80002730:	00583fb3          	sltu	x31,x16,x5
    80002734:	01ac21b3          	slt	x3,x24,x26
    80002738:	000477b3          	and	x15,x8,x0
    8000273c:	00993e33          	sltu	x28,x18,x9
    80002740:	000c7033          	and	x0,x24,x0
    80002744:	002ffbb3          	and	x23,x31,x2
    80002748:	01348b33          	add	x22,x9,x19
    8000274c:	01e686bb          	addw	x13,x13,x30
    80002750:	415e89b3          	sub	x19,x29,x21
    80002754:	0022f033          	and	x0,x5,x2
    80002758:	40460ab3          	sub	x21,x12,x4
    8000275c:	01e77333          	and	x6,x14,x30
    80002760:	01016c33          	or	x24,x2,x16
    80002764:	01c836b3          	sltu	x13,x16,x28
    80002768:	41178d3b          	subw	x26,x15,x17
    8000276c:	411009b3          	sub	x19,x0,x17
    80002770:	00c27cb3          	and	x25,x4,x12
    80002774:	412588b3          	sub	x17,x11,x18
    80002778:	414206bb          	subw	x13,x4,x20
    8000277c:	01878333          	add	x6,x15,x24
    80002780:	4021073b          	subw	x14,x2,x2
    80002784:	01e3c7b3          	xor	x15,x7,x30
    80002788:	014c25b3          	slt	x11,x24,x20
    8000278c:	01960ebb          	addw	x29,x12,x25
    80002790:	413306b3          	sub	x13,x6,x19
    80002794:	01e90d33          	add	x26,x18,x30
    80002798:	407704bb          	subw	x9,x14,x7
    8000279c:	01640733          	add	x14,x8,x22
    800027a0:	01e3b233          	sltu	x4,x7,x30
    800027a4:	4003863b          	subw	x12,x7,x0
    800027a8:	418f0f3b          	subw	x30,x30,x24
    800027ac:	00790bbb          	addw	x23,x18,x7
    800027b0:	41f405bb          	subw	x11,x8,x31
    800027b4:	00e4bcb3          	sltu	x25,x9,x14
    800027b8:	015a873b          	addw	x14,x21,x21
    800027bc:	41ee8e3b          	subw	x28,x29,x30
    800027c0:	402387b3          	sub	x15,x7,x2
    800027c4:	01bc6933          	or	x18,x24,x27
    800027c8:	01540a3b          	addw	x20,x8,x21
    800027cc:	01aee8b3          	or	x17,x29,x26
    800027d0:	004ea433          	slt	x8,x29,x4
    800027d4:	00ae42b3          	xor	x5,x28,x10
    800027d8:	01fe833b          	addw	x6,x29,x31
    800027dc:	017d0bb3          	add	x23,x26,x23
    800027e0:	0104b833          	sltu	x16,x9,x16
    800027e4:	0125a133          	slt	x2,x11,x18
    800027e8:	00f60cbb          	addw	x25,x12,x15
    800027ec:	40f209bb          	subw	x19,x4,x15
    800027f0:	0095ae33          	slt	x28,x11,x9
    800027f4:	016587b3          	add	x15,x11,x22
    800027f8:	011aaab3          	slt	x21,x21,x17
    800027fc:	41b58cbb          	subw	x25,x11,x27
    80002800:	005f0b3b          	addw	x22,x30,x5
    80002804:	010a053b          	addw	x10,x20,x16
    80002808:	00b3c933          	xor	x18,x7,x11
    8000280c:	40928833          	sub	x16,x5,x9
    80002810:	41468333          	sub	x6,x13,x20
    80002814:	01612bb3          	slt	x23,x2,x22
    80002818:	00fdcd33          	xor	x26,x27,x15
    8000281c:	01806533          	or	x10,x0,x24
    80002820:	018c803b          	addw	x0,x25,x24
    80002824:	018286bb          	addw	x13,x5,x24
    80002828:	010ae233          	or	x4,x21,x16
    8000282c:	017d88b3          	add	x17,x27,x23
    80002830:	0163f533          	and	x10,x7,x22
    80002834:	416f07b3          	sub	x15,x30,x22
    80002838:	008fedb3          	or	x27,x31,x8
    8000283c:	018fb833          	sltu	x16,x31,x24
    80002840:	018ec8b3          	xor	x17,x29,x24
    80002844:	003484b3          	add	x9,x9,x3
    80002848:	00a58933          	add	x18,x11,x10
    8000284c:	01d7813b          	addw	x2,x15,x29
    80002850:	00818c33          	add	x24,x3,x8
    80002854:	00820333          	add	x6,x4,x8
    80002858:	0107bcb3          	sltu	x25,x15,x16
    8000285c:	017282bb          	addw	x5,x5,x23
    80002860:	0171e6b3          	or	x13,x3,x23
    80002864:	01eac433          	xor	x8,x21,x30
    80002868:	0149edb3          	or	x27,x19,x20
    8000286c:	414b08b3          	sub	x17,x22,x20
    80002870:	00cd6a33          	or	x20,x26,x12
    80002874:	010779b3          	and	x19,x14,x16
    80002878:	41800b33          	sub	x22,x0,x24
    8000287c:	41e601bb          	subw	x3,x12,x30
    80002880:	002e7ab3          	and	x21,x28,x2
    80002884:	005386b3          	add	x13,x7,x5
    80002888:	01f9e733          	or	x14,x19,x31
    8000288c:	01660eb3          	add	x29,x12,x22
    80002890:	00b46b33          	or	x22,x8,x11
    80002894:	403e0cb3          	sub	x25,x28,x3
    80002898:	01158233          	add	x4,x11,x17
    8000289c:	40ed0bbb          	subw	x23,x26,x14
    800028a0:	0186a633          	slt	x12,x13,x24
    800028a4:	01130eb3          	add	x29,x6,x17
    800028a8:	40668a33          	sub	x20,x13,x6
    800028ac:	410105bb          	subw	x11,x2,x16
    800028b0:	40e30bbb          	subw	x23,x6,x14
    800028b4:	00882f33          	slt	x30,x16,x8
    800028b8:	01cb0abb          	addw	x21,x22,x28
    800028bc:	008a0cb3          	add	x25,x20,x8
    800028c0:	003431b3          	sltu	x3,x8,x3
    800028c4:	009847b3          	xor	x15,x16,x9
    800028c8:	017d7bb3          	and	x23,x26,x23
    800028cc:	41e90033          	sub	x0,x18,x30
    800028d0:	01b38133          	add	x2,x7,x27
    800028d4:	013d8f33          	add	x30,x27,x19
    800028d8:	007844b3          	xor	x9,x16,x7
    800028dc:	01540533          	add	x10,x8,x21
    800028e0:	00620433          	add	x8,x4,x6
    800028e4:	00703e33          	sltu	x28,x0,x7
    800028e8:	41bc0ebb          	subw	x29,x24,x27
    800028ec:	01ec3f33          	sltu	x30,x24,x30
    800028f0:	000aac33          	slt	x24,x21,x0
    800028f4:	0096a8b3          	slt	x17,x13,x9
    800028f8:	01978db3          	add	x27,x15,x25
    800028fc:	0033c833          	xor	x16,x7,x3
    80002900:	00b067b3          	or	x15,x0,x11
    80002904:	419f823b          	subw	x4,x31,x25
    80002908:	417703bb          	subw	x7,x14,x23
    8000290c:	00c93e33          	sltu	x28,x18,x12
    80002910:	00bac8b3          	xor	x17,x21,x11
    80002914:	01e2bfb3          	sltu	x31,x5,x30
    80002918:	41ad0f3b          	subw	x30,x26,x26
    8000291c:	400b0633          	sub	x12,x22,x0
    80002920:	01a53933          	sltu	x18,x10,x26
    80002924:	41780abb          	subw	x21,x16,x23
    80002928:	011ea6b3          	slt	x13,x29,x17
    8000292c:	00043a33          	sltu	x20,x8,x0
    80002930:	008f843b          	addw	x8,x31,x8
    80002934:	01087533          	and	x10,x16,x16
    80002938:	0002f633          	and	x12,x5,x0
    8000293c:	013c62b3          	or	x5,x24,x19
    80002940:	01ab6b33          	or	x22,x22,x26
    80002944:	018129b3          	slt	x19,x2,x24
    80002948:	00013933          	sltu	x18,x2,x0
    8000294c:	41748d33          	sub	x26,x9,x23
    80002950:	40540a33          	sub	x20,x8,x5
    80002954:	418c8b3b          	subw	x22,x25,x24
    80002958:	005fff33          	and	x30,x31,x5
    8000295c:	01dae4b3          	or	x9,x21,x29
    80002960:	005525b3          	slt	x11,x10,x5
    80002964:	01aa7433          	and	x8,x20,x26
    80002968:	41f503bb          	subw	x7,x10,x31
    8000296c:	005e8ab3          	add	x21,x29,x5
    80002970:	00a7fbb3          	and	x23,x15,x10
    80002974:	01e57f33          	and	x30,x10,x30
    80002978:	01ab0933          	add	x18,x22,x26
    8000297c:	41348833          	sub	x16,x9,x19
    80002980:	00d66033          	or	x0,x12,x13
    80002984:	40da88bb          	subw	x17,x21,x13
    80002988:	41ee8dbb          	subw	x27,x29,x30
    8000298c:	00baf533          	and	x10,x21,x11
    80002990:	00260b3b          	addw	x22,x12,x2
    80002994:	004d06b3          	add	x13,x26,x4
    80002998:	40ef8fbb          	subw	x31,x31,x14
    8000299c:	01a92eb3          	slt	x29,x18,x26
    800029a0:	005e09bb          	addw	x19,x28,x5
    800029a4:	01574033          	xor	x0,x14,x21
    800029a8:	01b2ef33          	or	x30,x5,x27
    800029ac:	00b44e33          	xor	x28,x8,x11
    800029b0:	01ab7833          	and	x16,x22,x26
    800029b4:	0035f4b3          	and	x9,x11,x3
    800029b8:	008eb2b3          	sltu	x5,x29,x8
    800029bc:	01ef86bb          	addw	x13,x31,x30
    800029c0:	01926a33          	or	x20,x4,x25
    800029c4:	010425b3          	slt	x11,x8,x16
    800029c8:	4028813b          	subw	x2,x17,x2
    800029cc:	41f9023b          	subw	x4,x18,x31
    800029d0:	00ed6cb3          	or	x25,x26,x14
    800029d4:	01238fb3          	add	x31,x7,x18
    800029d8:	0188bdb3          	sltu	x27,x17,x24
    800029dc:	4061093b          	subw	x18,x2,x6
    800029e0:	01044eb3          	xor	x29,x8,x16
    800029e4:	41318133          	sub	x2,x3,x19
    800029e8:	00ca0033          	add	x0,x20,x12
    800029ec:	40920733          	sub	x14,x4,x9
    800029f0:	0162aab3          	slt	x21,x5,x22
    800029f4:	01de6f33          	or	x30,x28,x29
    800029f8:	009175b3          	and	x11,x2,x9
    800029fc:	01c32c33          	slt	x24,x6,x28
    80002a00:	002be6b3          	or	x13,x23,x2
    80002a04:	011b8fb3          	add	x31,x23,x17
    80002a08:	00278a3b          	addw	x20,x15,x2
    80002a0c:	00600933          	add	x18,x0,x6
    80002a10:	011431b3          	sltu	x3,x8,x17
    80002a14:	0099bab3          	sltu	x21,x19,x9
    80002a18:	000804b3          	add	x9,x16,x0
    80002a1c:	00714eb3          	xor	x29,x2,x7
    80002a20:	00592533          	slt	x10,x18,x5
    80002a24:	010a0cbb          	addw	x25,x20,x16
    80002a28:	008aae33          	slt	x28,x21,x8
    80002a2c:	01a4e1b3          	or	x3,x9,x26
    80002a30:	4187893b          	subw	x18,x15,x24
    80002a34:	00bd45b3          	xor	x11,x26,x11
    80002a38:	01f47033          	and	x0,x8,x31
    80002a3c:	0029e533          	or	x10,x19,x2
    80002a40:	40e80fb3          	sub	x31,x16,x14
    80002a44:	41a109b3          	sub	x19,x2,x26
    80002a48:	012c88bb          	addw	x17,x25,x18
    80002a4c:	019b04b3          	add	x9,x22,x25
    80002a50:	017373b3          	and	x7,x6,x23
    80002a54:	0155b5b3          	sltu	x11,x11,x21
    80002a58:	404f0f33          	sub	x30,x30,x4
    80002a5c:	403a083b          	subw	x16,x20,x3
    80002a60:	00ab8c3b          	addw	x24,x23,x10
    80002a64:	0118f7b3          	and	x15,x17,x17
    80002a68:	40ed073b          	subw	x14,x26,x14
    80002a6c:	00527f33          	and	x30,x4,x5
    80002a70:	016a39b3          	sltu	x19,x20,x22
    80002a74:	41fd0ebb          	subw	x29,x26,x31
    80002a78:	00d305b3          	add	x11,x6,x13
    80002a7c:	00253cb3          	sltu	x25,x10,x2
    80002a80:	000d8c3b          	addw	x24,x27,x0
    80002a84:	00d40033          	add	x0,x8,x13
    80002a88:	00346233          	or	x4,x8,x3
    80002a8c:	015b6bb3          	or	x23,x22,x21
    80002a90:	014a4733          	xor	x14,x20,x20
    80002a94:	006f78b3          	and	x17,x30,x6
    80002a98:	01032db3          	slt	x27,x6,x16
    80002a9c:	01530633          	add	x12,x6,x21
    80002aa0:	000025b3          	slt	x11,x0,x0
    80002aa4:	016a73b3          	and	x7,x20,x22
    80002aa8:	01a33eb3          	sltu	x29,x6,x26
    80002aac:	41698bbb          	subw	x23,x19,x22
    80002ab0:	00e4a433          	slt	x8,x9,x14
    80002ab4:	01472ab3          	slt	x21,x14,x20
    80002ab8:	40f5893b          	subw	x18,x11,x15
    80002abc:	0188f5b3          	and	x11,x17,x24
    80002ac0:	402d8e33          	sub	x28,x27,x2
    80002ac4:	00e48eb3          	add	x29,x9,x14
    80002ac8:	00ebbbb3          	sltu	x23,x23,x14
    80002acc:	002ceb33          	or	x22,x25,x2
    80002ad0:	418889bb          	subw	x19,x17,x24
    80002ad4:	00bc8cb3          	add	x25,x25,x11
    80002ad8:	00c42fb3          	slt	x31,x8,x12
    80002adc:	014bb5b3          	sltu	x11,x23,x20
    80002ae0:	00810d33          	add	x26,x2,x8
    80002ae4:	01b8a7b3          	slt	x15,x17,x27
    80002ae8:	01eb7533          	and	x10,x22,x30
    80002aec:	40348033          	sub	x0,x9,x3
    80002af0:	41ca84b3          	sub	x9,x21,x28
    80002af4:	014385bb          	addw	x11,x7,x20
    80002af8:	41028ebb          	subw	x29,x5,x16
    80002afc:	00530233          	add	x4,x6,x5
    80002b00:	41380f33          	sub	x30,x16,x19
    80002b04:	412683bb          	subw	x7,x13,x18
    80002b08:	019d8a33          	add	x20,x27,x25
    80002b0c:	0196e633          	or	x12,x13,x25
    80002b10:	0137e333          	or	x6,x15,x19
    80002b14:	010275b3          	and	x11,x4,x16
    80002b18:	00fcbeb3          	sltu	x29,x25,x15
    80002b1c:	40af8db3          	sub	x27,x31,x10
    80002b20:	018a843b          	addw	x8,x21,x24
    80002b24:	40ee0c3b          	subw	x24,x28,x14
    80002b28:	411b0033          	sub	x0,x22,x17
    80002b2c:	01f20533          	add	x10,x4,x31
    80002b30:	0162fd33          	and	x26,x5,x22
    80002b34:	00b1f833          	and	x16,x3,x11
    80002b38:	416d8db3          	sub	x27,x27,x22
    80002b3c:	40da03bb          	subw	x7,x20,x13
    80002b40:	0038e2b3          	or	x5,x17,x3
    80002b44:	01ee37b3          	sltu	x15,x28,x30
    80002b48:	41440a33          	sub	x20,x8,x20
    80002b4c:	40848933          	sub	x18,x9,x8
    80002b50:	01838e3b          	addw	x28,x7,x24
    80002b54:	00ad0d33          	add	x26,x26,x10
    80002b58:	402f873b          	subw	x14,x31,x2
    80002b5c:	01e1ea33          	or	x20,x3,x30
    80002b60:	01bfa333          	slt	x6,x31,x27
    80002b64:	01ef68b3          	or	x17,x30,x30
    80002b68:	0047a033          	slt	x0,x15,x4
    80002b6c:	00fbf4b3          	and	x9,x23,x15
    80002b70:	0052e233          	or	x4,x5,x5
    80002b74:	41ce0e3b          	subw	x28,x28,x28
    80002b78:	006166b3          	or	x13,x2,x6
    80002b7c:	00aa0f3b          	addw	x30,x20,x10
    80002b80:	006107b3          	add	x15,x2,x6
    80002b84:	403c82b3          	sub	x5,x25,x3
    80002b88:	01742733          	slt	x14,x8,x23
    80002b8c:	019d4d33          	xor	x26,x26,x25
    80002b90:	0181ffb3          	and	x31,x3,x24
    80002b94:	40bc863b          	subw	x12,x25,x11
    80002b98:	01ca0abb          	addw	x21,x20,x28
    80002b9c:	40740c33          	sub	x24,x8,x7
    80002ba0:	416287bb          	subw	x15,x5,x22
    80002ba4:	40840e33          	sub	x28,x8,x8
    80002ba8:	00edfd33          	and	x26,x27,x14
    80002bac:	01e17733          	and	x14,x2,x30
    80002bb0:	009686b3          	add	x13,x13,x9
    80002bb4:	00478f33          	add	x30,x15,x4
    80002bb8:	000a8233          	add	x4,x21,x0
    80002bbc:	01007133          	and	x2,x0,x16
    80002bc0:	01cabbb3          	sltu	x23,x21,x28
    80002bc4:	01d34933          	xor	x18,x6,x29
    80002bc8:	41018b33          	sub	x22,x3,x16
    80002bcc:	01f4e4b3          	or	x9,x9,x31
    80002bd0:	01a201b3          	add	x3,x4,x26
    80002bd4:	01eceeb3          	or	x29,x25,x30
    80002bd8:	014768b3          	or	x17,x14,x20
    80002bdc:	01b70d3b          	addw	x26,x14,x27
    80002be0:	00e707b3          	add	x15,x14,x14
    80002be4:	01f5a733          	slt	x14,x11,x31
    80002be8:	01e3c033          	xor	x0,x7,x30
    80002bec:	00686833          	or	x16,x16,x6
    80002bf0:	01a52eb3          	slt	x29,x10,x26
    80002bf4:	003f3ab3          	sltu	x21,x30,x3
    80002bf8:	40860f3b          	subw	x30,x12,x8
    80002bfc:	00658733          	add	x14,x11,x6
    80002c00:	41a40bb3          	sub	x23,x8,x26
    80002c04:	00bc86bb          	addw	x13,x25,x11
    80002c08:	01c3833b          	addw	x6,x7,x28
    80002c0c:	00486fb3          	or	x31,x16,x4
    80002c10:	415e8e3b          	subw	x28,x29,x21
    80002c14:	009b3bb3          	sltu	x23,x22,x9
    80002c18:	007ef033          	and	x0,x29,x7
    80002c1c:	012676b3          	and	x13,x12,x18
    80002c20:	01b80abb          	addw	x21,x16,x27
    80002c24:	004723b3          	slt	x7,x14,x4
    80002c28:	00fd67b3          	or	x15,x26,x15
    80002c2c:	00c16f33          	or	x30,x2,x12
    80002c30:	018d3fb3          	sltu	x31,x26,x24
    80002c34:	415506b3          	sub	x13,x10,x21
    80002c38:	005481b3          	add	x3,x9,x5
    80002c3c:	01d5a533          	slt	x10,x11,x29
    80002c40:	41720ab3          	sub	x21,x4,x23
    80002c44:	0042cbb3          	xor	x23,x5,x4
    80002c48:	002c34b3          	sltu	x9,x24,x2
    80002c4c:	01b6ca33          	xor	x20,x13,x27
    80002c50:	405f01b3          	sub	x3,x30,x5
    80002c54:	00eecfb3          	xor	x31,x29,x14
    80002c58:	0129c5b3          	xor	x11,x19,x18
    80002c5c:	015d74b3          	and	x9,x26,x21
    80002c60:	00f406b3          	add	x13,x8,x15
    80002c64:	00e9e833          	or	x16,x19,x14
    80002c68:	01ec7033          	and	x0,x24,x30
    80002c6c:	00c545b3          	xor	x11,x10,x12
    80002c70:	00e4f333          	and	x6,x9,x14
    80002c74:	00524b33          	xor	x22,x4,x5
    80002c78:	018fa733          	slt	x14,x31,x24
    80002c7c:	41a48f33          	sub	x30,x9,x26
    80002c80:	00a173b3          	and	x7,x2,x10
    80002c84:	003f8033          	add	x0,x31,x3
    80002c88:	00dcf5b3          	and	x11,x25,x13
    80002c8c:	418308bb          	subw	x17,x6,x24
    80002c90:	0182bcb3          	sltu	x25,x5,x24
    80002c94:	40c7093b          	subw	x18,x14,x12
    80002c98:	01b82233          	slt	x4,x16,x27
    80002c9c:	405782bb          	subw	x5,x15,x5
    80002ca0:	0085f8b3          	and	x17,x11,x8
    80002ca4:	41738c3b          	subw	x24,x7,x23
    80002ca8:	408384bb          	subw	x9,x7,x8
    80002cac:	008531b3          	sltu	x3,x10,x8
    80002cb0:	00cf063b          	addw	x12,x30,x12
    80002cb4:	017a29b3          	slt	x19,x20,x23
    80002cb8:	00d58733          	add	x14,x11,x13
    80002cbc:	414b0dbb          	subw	x27,x22,x20
    80002cc0:	00080533          	add	x10,x16,x0
    80002cc4:	003d6e33          	or	x28,x26,x3
    80002cc8:	013be5b3          	or	x11,x23,x19
    80002ccc:	00386033          	or	x0,x16,x3
    80002cd0:	00c234b3          	sltu	x9,x4,x12
    80002cd4:	41980b33          	sub	x22,x16,x25
    80002cd8:	404902bb          	subw	x5,x18,x4
    80002cdc:	01ef0633          	add	x12,x30,x30
    80002ce0:	00a9c7b3          	xor	x15,x19,x10
    80002ce4:	008765b3          	or	x11,x14,x8
    80002ce8:	014cc333          	xor	x6,x25,x20
    80002cec:	0053ea33          	or	x20,x7,x5
    80002cf0:	000d053b          	addw	x10,x26,x0
    80002cf4:	019fc633          	xor	x12,x31,x25
    80002cf8:	41590cb3          	sub	x25,x18,x21
    80002cfc:	01c83433          	sltu	x8,x16,x28
    80002d00:	015c6933          	or	x18,x24,x21
    80002d04:	00470d33          	add	x26,x14,x4
    80002d08:	415a853b          	subw	x10,x21,x21
    80002d0c:	40e98c33          	sub	x24,x19,x14
    80002d10:	003361b3          	or	x3,x6,x3
    80002d14:	00d28833          	add	x16,x5,x13
    80002d18:	007d02bb          	addw	x5,x26,x7
    80002d1c:	006a063b          	addw	x12,x20,x6
    80002d20:	012733b3          	sltu	x7,x14,x18
    80002d24:	00234db3          	xor	x27,x6,x2
    80002d28:	009e86bb          	addw	x13,x29,x9
    80002d2c:	000965b3          	or	x11,x18,x0
    80002d30:	01dab533          	sltu	x10,x21,x29
    80002d34:	400c0bb3          	sub	x23,x24,x0
    80002d38:	016de333          	or	x6,x27,x22
    80002d3c:	4122803b          	subw	x0,x5,x18
    80002d40:	412a093b          	subw	x18,x20,x18
    80002d44:	014e8e3b          	addw	x28,x29,x20
    80002d48:	00b229b3          	slt	x19,x4,x11
    80002d4c:	408c07b3          	sub	x15,x24,x8
    80002d50:	403601b3          	sub	x3,x12,x3
    80002d54:	41a70d3b          	subw	x26,x14,x26
    80002d58:	41e6043b          	subw	x8,x12,x30
    80002d5c:	0146a133          	slt	x2,x13,x20
    80002d60:	0166c6b3          	xor	x13,x13,x22
    80002d64:	00718333          	add	x6,x3,x7
    80002d68:	0117b633          	sltu	x12,x15,x17
    80002d6c:	00adf8b3          	and	x17,x27,x10
    80002d70:	01ea6733          	or	x14,x20,x30
    80002d74:	01d003bb          	addw	x7,x0,x29
    80002d78:	00aef2b3          	and	x5,x29,x10
    80002d7c:	01ee6f33          	or	x30,x28,x30
    80002d80:	019b3e33          	sltu	x28,x22,x25
    80002d84:	41020c3b          	subw	x24,x4,x16
    80002d88:	0177a833          	slt	x16,x15,x23
    80002d8c:	400f81bb          	subw	x3,x31,x0
    80002d90:	009065b3          	or	x11,x0,x9
    80002d94:	0077c3b3          	xor	x7,x15,x7
    80002d98:	018e6933          	or	x18,x28,x24
    80002d9c:	00043133          	sltu	x2,x8,x0
    80002da0:	006d8c33          	add	x24,x27,x6
    80002da4:	01d5f5b3          	and	x11,x11,x29
    80002da8:	4042043b          	subw	x8,x4,x4
    80002dac:	015486b3          	add	x13,x9,x21
    80002db0:	01a03d33          	sltu	x26,x0,x26
    80002db4:	003a0dbb          	addw	x27,x20,x3
    80002db8:	0164b633          	sltu	x12,x9,x22
    80002dbc:	0128b1b3          	sltu	x3,x17,x18
    80002dc0:	019aaa33          	slt	x20,x21,x25
    80002dc4:	011b2b33          	slt	x22,x22,x17
    80002dc8:	017eeeb3          	or	x29,x29,x23
    80002dcc:	402989b3          	sub	x19,x19,x2
    80002dd0:	01770133          	add	x2,x14,x23
    80002dd4:	400408bb          	subw	x17,x8,x0
    80002dd8:	0197803b          	addw	x0,x15,x25
    80002ddc:	017a6f33          	or	x30,x20,x23
    80002de0:	40b30b33          	sub	x22,x6,x11
    80002de4:	40bd033b          	subw	x6,x26,x11
    80002de8:	01b16d33          	or	x26,x2,x27
    80002dec:	0099c7b3          	xor	x15,x19,x9
    80002df0:	01910cbb          	addw	x25,x2,x25
    80002df4:	00e8c733          	xor	x14,x17,x14
    80002df8:	40af06b3          	sub	x13,x30,x10
    80002dfc:	005404b3          	add	x9,x8,x5
    80002e00:	406d0b3b          	subw	x22,x26,x6
    80002e04:	01440ebb          	addw	x29,x8,x20
    80002e08:	01078733          	add	x14,x15,x16
    80002e0c:	00d18433          	add	x8,x3,x13
    80002e10:	01bfc933          	xor	x18,x31,x27
    80002e14:	015d3233          	sltu	x4,x26,x21
    80002e18:	40fa8a33          	sub	x20,x21,x15
    80002e1c:	00702cb3          	slt	x25,x0,x7
    80002e20:	008833b3          	sltu	x7,x16,x8
    80002e24:	00c82333          	slt	x6,x16,x12
    80002e28:	011f3133          	sltu	x2,x30,x17
    80002e2c:	0049c533          	xor	x10,x19,x4
    80002e30:	005bc8b3          	xor	x17,x23,x5
    80002e34:	014ee933          	or	x18,x29,x20
    80002e38:	01567cb3          	and	x25,x12,x21
    80002e3c:	410e01b3          	sub	x3,x28,x16
    80002e40:	41fe0dbb          	subw	x27,x28,x31
    80002e44:	40d3043b          	subw	x8,x6,x13
    80002e48:	41a58033          	sub	x0,x11,x26
    80002e4c:	01e2e733          	or	x14,x5,x30
    80002e50:	01454cb3          	xor	x25,x10,x20
    80002e54:	402601bb          	subw	x3,x12,x2
    80002e58:	411b8eb3          	sub	x29,x23,x17
    80002e5c:	414987b3          	sub	x15,x19,x20
    80002e60:	01bfb133          	sltu	x2,x31,x27
    80002e64:	406e0f33          	sub	x30,x28,x6
    80002e68:	010ce233          	or	x4,x25,x16
    80002e6c:	01668833          	add	x16,x13,x22
    80002e70:	41300cbb          	subw	x25,x0,x19
    80002e74:	0126b5b3          	sltu	x11,x13,x18
    80002e78:	000f0533          	add	x10,x30,x0
    80002e7c:	00647633          	and	x12,x8,x6
    80002e80:	004af433          	and	x8,x21,x4
    80002e84:	0134ecb3          	or	x25,x9,x19
    80002e88:	40020fbb          	subw	x31,x4,x0
    80002e8c:	004332b3          	sltu	x5,x6,x4
    80002e90:	01ea47b3          	xor	x15,x20,x30
    80002e94:	01143c33          	sltu	x24,x8,x17
    80002e98:	0034a433          	slt	x8,x9,x3
    80002e9c:	01def333          	and	x6,x29,x29
    80002ea0:	00c588b3          	add	x17,x11,x12
    80002ea4:	00bfbab3          	sltu	x21,x31,x11
    80002ea8:	013d3c33          	sltu	x24,x26,x19
    80002eac:	41450dbb          	subw	x27,x10,x20
    80002eb0:	01cc86bb          	addw	x13,x25,x28
    80002eb4:	41fa0e33          	sub	x28,x20,x31
    80002eb8:	40388fb3          	sub	x31,x17,x3
    80002ebc:	003645b3          	xor	x11,x12,x3
    80002ec0:	41a48cbb          	subw	x25,x9,x26
    80002ec4:	4125033b          	subw	x6,x10,x18
    80002ec8:	002f7ab3          	and	x21,x30,x2
    80002ecc:	0059b633          	sltu	x12,x19,x5
    80002ed0:	010fa433          	slt	x8,x31,x16
    80002ed4:	009d8db3          	add	x27,x27,x9
    80002ed8:	00affb33          	and	x22,x31,x10
    80002edc:	41ec0e33          	sub	x28,x24,x30
    80002ee0:	01932d33          	slt	x26,x6,x25
    80002ee4:	0025f1b3          	and	x3,x11,x2
    80002ee8:	00c7c3b3          	xor	x7,x15,x12
    80002eec:	0062003b          	addw	x0,x4,x6
    80002ef0:	01178dbb          	addw	x27,x15,x17
    80002ef4:	005d07b3          	add	x15,x26,x5
    80002ef8:	00db8c3b          	addw	x24,x23,x13
    80002efc:	01d2c8b3          	xor	x17,x5,x29
    80002f00:	00583fb3          	sltu	x31,x16,x5
    80002f04:	014926b3          	slt	x13,x18,x20
    80002f08:	019dfdb3          	and	x27,x27,x25
    80002f0c:	00b7a3b3          	slt	x7,x15,x11
    80002f10:	010f0933          	add	x18,x30,x16
    80002f14:	01f5cbb3          	xor	x23,x11,x31
    80002f18:	0082043b          	addw	x8,x4,x8
    80002f1c:	010b4e33          	xor	x28,x22,x16
    80002f20:	01be8c33          	add	x24,x29,x27
    80002f24:	01b62cb3          	slt	x25,x12,x27
    80002f28:	016ff633          	and	x12,x31,x22
    80002f2c:	01d02233          	slt	x4,x0,x29
    80002f30:	00ab8733          	add	x14,x23,x10
    80002f34:	409b0d3b          	subw	x26,x22,x9
    80002f38:	41bb04bb          	subw	x9,x22,x27
    80002f3c:	41828b33          	sub	x22,x5,x24
    80002f40:	01f07ab3          	and	x21,x0,x31
    80002f44:	41b58fbb          	subw	x31,x11,x27
    80002f48:	00d3073b          	addw	x14,x6,x13
    80002f4c:	41aa0bbb          	subw	x23,x20,x26
    80002f50:	41be8eb3          	sub	x29,x29,x27
    80002f54:	00b7bdb3          	sltu	x27,x15,x11
    80002f58:	015275b3          	and	x11,x4,x21
    80002f5c:	00744833          	xor	x16,x8,x7
    80002f60:	406c88b3          	sub	x17,x25,x6
    80002f64:	006b8cb3          	add	x25,x23,x6
    80002f68:	002e0f3b          	addw	x30,x28,x2
    80002f6c:	00337433          	and	x8,x6,x3
    80002f70:	01263db3          	sltu	x27,x12,x18
    80002f74:	40ca0a33          	sub	x20,x20,x12
    80002f78:	00460133          	add	x2,x12,x4
    80002f7c:	41f90833          	sub	x16,x18,x31
    80002f80:	40a68b3b          	subw	x22,x13,x10
    80002f84:	00ac84b3          	add	x9,x25,x10
    80002f88:	01cd6d33          	or	x26,x26,x28
    80002f8c:	018e3033          	sltu	x0,x28,x24
    80002f90:	002cb933          	sltu	x18,x25,x2
    80002f94:	00413133          	sltu	x2,x2,x4
    80002f98:	01174c33          	xor	x24,x14,x17
    80002f9c:	006aaf33          	slt	x30,x21,x6
    80002fa0:	41da03bb          	subw	x7,x20,x29
    80002fa4:	01172433          	slt	x8,x14,x17
    80002fa8:	01f8c1b3          	xor	x3,x17,x31
    80002fac:	01f80933          	add	x18,x16,x31
    80002fb0:	413e8133          	sub	x2,x29,x19
    80002fb4:	407b8333          	sub	x6,x23,x7
    80002fb8:	017e24b3          	slt	x9,x28,x23
    80002fbc:	011182b3          	add	x5,x3,x17
    80002fc0:	010387bb          	addw	x15,x7,x16
    80002fc4:	404c0a3b          	subw	x20,x24,x4
    80002fc8:	00720433          	add	x8,x4,x7
    80002fcc:	0119a033          	slt	x0,x19,x17
    80002fd0:	019c3333          	sltu	x6,x24,x25
    80002fd4:	01b38e33          	add	x28,x7,x27
    80002fd8:	414282bb          	subw	x5,x5,x20
    80002fdc:	00bd35b3          	sltu	x11,x26,x11
    80002fe0:	01fc8233          	add	x4,x25,x31
    80002fe4:	418e8133          	sub	x2,x29,x24
    80002fe8:	0078053b          	addw	x10,x16,x7
    80002fec:	00c783bb          	addw	x7,x15,x12
    80002ff0:	016a8d33          	add	x26,x21,x22
    80002ff4:	006b22b3          	slt	x5,x22,x6
    80002ff8:	00698fbb          	addw	x31,x19,x6
    80002ffc:	01793433          	sltu	x8,x18,x23
    80003000:	0191033b          	addw	x6,x2,x25
    80003004:	00f64d33          	xor	x26,x12,x15
    80003008:	0155853b          	addw	x10,x11,x21
    8000300c:	40ec06bb          	subw	x13,x24,x14
    80003010:	013c8e33          	add	x28,x25,x19
    80003014:	0182ff33          	and	x30,x5,x24
    80003018:	012073b3          	and	x7,x0,x18
    8000301c:	012dfd33          	and	x26,x27,x18
    80003020:	01968233          	add	x4,x13,x25
    80003024:	014beb33          	or	x22,x23,x20
    80003028:	0184e7b3          	or	x15,x9,x24
    8000302c:	40a382bb          	subw	x5,x7,x10
    80003030:	41540633          	sub	x12,x8,x21
    80003034:	012e4bb3          	xor	x23,x28,x18
    80003038:	4098883b          	subw	x16,x17,x9
    8000303c:	01efbfb3          	sltu	x31,x31,x30
    80003040:	40f18db3          	sub	x27,x3,x15
    80003044:	00e8853b          	addw	x10,x17,x14
    80003048:	412706bb          	subw	x13,x14,x18
    8000304c:	4041043b          	subw	x8,x2,x4
    80003050:	002a7733          	and	x14,x20,x2
    80003054:	0147863b          	addw	x12,x15,x20
    80003058:	405b8c33          	sub	x24,x23,x5
    8000305c:	004d8bb3          	add	x23,x27,x4
    80003060:	40a0043b          	subw	x8,x0,x10
    80003064:	01c265b3          	or	x11,x4,x28
    80003068:	4035083b          	subw	x16,x10,x3
    8000306c:	015604b3          	add	x9,x12,x21
    80003070:	01bf81b3          	add	x3,x31,x27
    80003074:	01f63bb3          	sltu	x23,x12,x31
    80003078:	00a44533          	xor	x10,x8,x10
    8000307c:	00427eb3          	and	x29,x4,x4
    80003080:	000268b3          	or	x17,x4,x0
    80003084:	01c2ae33          	slt	x28,x5,x28
    80003088:	00e78f3b          	addw	x30,x15,x14
    8000308c:	00578d3b          	addw	x26,x15,x5
    80003090:	01f38db3          	add	x27,x7,x31
    80003094:	415c83bb          	subw	x7,x25,x21
    80003098:	41d90533          	sub	x10,x18,x29
    8000309c:	41160b33          	sub	x22,x12,x17
    800030a0:	40f40d3b          	subw	x26,x8,x15
    800030a4:	010f6233          	or	x4,x30,x16
    800030a8:	00df81b3          	add	x3,x31,x13
    800030ac:	008c863b          	addw	x12,x25,x8
    800030b0:	00a04bb3          	xor	x23,x0,x10
    800030b4:	40a106b3          	sub	x13,x2,x10
    800030b8:	016cc8b3          	xor	x17,x25,x22
    800030bc:	40bf0d3b          	subw	x26,x30,x11
    800030c0:	41fb0933          	sub	x18,x22,x31
    800030c4:	41870cb3          	sub	x25,x14,x24
    800030c8:	002b2e33          	slt	x28,x22,x2
    800030cc:	41880333          	sub	x6,x16,x24
    800030d0:	40ae8ebb          	subw	x29,x29,x10
    800030d4:	00b7ec33          	or	x24,x15,x11
    800030d8:	010241b3          	xor	x3,x4,x16
    800030dc:	008d0633          	add	x12,x26,x8
    800030e0:	009347b3          	xor	x15,x6,x9
    800030e4:	40830833          	sub	x16,x6,x8
    800030e8:	01774a33          	xor	x20,x14,x23
    800030ec:	41be8033          	sub	x0,x29,x27
    800030f0:	40a8813b          	subw	x2,x17,x10
    800030f4:	01bef6b3          	and	x13,x29,x27
    800030f8:	016b3f33          	sltu	x30,x22,x22
    800030fc:	41b784b3          	sub	x9,x15,x27
    80003100:	41d187b3          	sub	x15,x3,x29
    80003104:	019c6a33          	or	x20,x24,x25
    80003108:	41718e3b          	subw	x28,x3,x23
    8000310c:	417189b3          	sub	x19,x3,x23
    80003110:	0006f133          	and	x2,x13,x0
    80003114:	01f7b733          	sltu	x14,x15,x31
    80003118:	41ef86b3          	sub	x13,x31,x30
    8000311c:	01df6d33          	or	x26,x30,x29
    80003120:	01efaeb3          	slt	x29,x31,x30
    80003124:	0071c133          	xor	x2,x3,x7
    80003128:	00aa3333          	sltu	x6,x20,x10
    8000312c:	00f42533          	slt	x10,x8,x15
    80003130:	01f622b3          	slt	x5,x12,x31
    80003134:	012cfe33          	and	x28,x25,x18
    80003138:	415c0c33          	sub	x24,x24,x21
    8000313c:	016737b3          	sltu	x15,x14,x22
    80003140:	41730233          	sub	x4,x6,x23
    80003144:	0114ff33          	and	x30,x9,x17
    80003148:	00896433          	or	x8,x18,x8
    8000314c:	0115e4b3          	or	x9,x11,x17
    80003150:	01cafab3          	and	x21,x21,x28
    80003154:	012b65b3          	or	x11,x22,x18
    80003158:	01aecd33          	xor	x26,x29,x26
    8000315c:	01802433          	slt	x8,x0,x24
    80003160:	012c01bb          	addw	x3,x24,x18
    80003164:	402903bb          	subw	x7,x18,x2
    80003168:	00bd8933          	add	x18,x27,x11
    8000316c:	01fb6c33          	or	x24,x22,x31
    80003170:	0007edb3          	or	x27,x15,x0
    80003174:	01efe8b3          	or	x17,x31,x30
    80003178:	014ee9b3          	or	x19,x29,x20
    8000317c:	00dd3d33          	sltu	x26,x26,x13
    80003180:	01f8093b          	addw	x18,x16,x31
    80003184:	410f0133          	sub	x2,x30,x16
    80003188:	0082ef33          	or	x30,x5,x8
    8000318c:	00b33833          	sltu	x16,x6,x11
    80003190:	41ad8b33          	sub	x22,x27,x26
    80003194:	003dba33          	sltu	x20,x27,x3
    80003198:	0054813b          	addw	x2,x9,x5
    8000319c:	41d609b3          	sub	x19,x12,x29
    800031a0:	4178093b          	subw	x18,x16,x23
    800031a4:	0112f233          	and	x4,x5,x17
    800031a8:	01e48e3b          	addw	x28,x9,x30
    800031ac:	014f82b3          	add	x5,x31,x20
    800031b0:	409b0a3b          	subw	x20,x22,x9
    800031b4:	011f883b          	addw	x16,x31,x17
    800031b8:	01b7053b          	addw	x10,x14,x27
    800031bc:	003e2eb3          	slt	x29,x28,x3
    800031c0:	409d8abb          	subw	x21,x27,x9
    800031c4:	0052e3b3          	or	x7,x5,x5
    800031c8:	01990c3b          	addw	x24,x18,x25
    800031cc:	00a80e3b          	addw	x28,x16,x10
    800031d0:	01017eb3          	and	x29,x2,x16
    800031d4:	009a86bb          	addw	x13,x21,x9
    800031d8:	005b003b          	addw	x0,x22,x5
    800031dc:	01076233          	or	x4,x14,x16
    800031e0:	0054cdb3          	xor	x27,x9,x5
    800031e4:	40b70b3b          	subw	x22,x14,x11
    800031e8:	00f40f3b          	addw	x30,x8,x15
    800031ec:	01fc8a33          	add	x20,x25,x31
    800031f0:	00224eb3          	xor	x29,x4,x2
    800031f4:	01142033          	slt	x0,x8,x17
    800031f8:	01a86cb3          	or	x25,x16,x26
    800031fc:	00f68fbb          	addw	x31,x13,x15
    80003200:	01c636b3          	sltu	x13,x12,x28
    80003204:	00b56233          	or	x4,x10,x11
    80003208:	01e44033          	xor	x0,x8,x30
    8000320c:	012c863b          	addw	x12,x25,x18
    80003210:	01c34433          	xor	x8,x6,x28
    80003214:	01fd3db3          	sltu	x27,x26,x31
    80003218:	00623eb3          	sltu	x29,x4,x6
    8000321c:	4027883b          	subw	x16,x15,x2
    80003220:	015fac33          	slt	x24,x31,x21
    80003224:	006276b3          	and	x13,x4,x6
    80003228:	00e66a33          	or	x20,x12,x14
    8000322c:	01e9cdb3          	xor	x27,x19,x30
    80003230:	01fb7633          	and	x12,x22,x31
    80003234:	41fe89bb          	subw	x19,x29,x31
    80003238:	41ef04bb          	subw	x9,x30,x30
    8000323c:	000b0c3b          	addw	x24,x22,x0
    80003240:	4165813b          	subw	x2,x11,x22
    80003244:	01b82db3          	slt	x27,x16,x27
    80003248:	01c2e333          	or	x6,x5,x28
    8000324c:	00ff6eb3          	or	x29,x30,x15
    80003250:	013ac5b3          	xor	x11,x21,x19
    80003254:	00a42d33          	slt	x26,x8,x10
    80003258:	0134f433          	and	x8,x9,x19
    8000325c:	009e0bbb          	addw	x23,x28,x9
    80003260:	00cb0e33          	add	x28,x22,x12
    80003264:	0138fab3          	and	x21,x17,x19
    80003268:	00f779b3          	and	x19,x14,x15
    8000326c:	01b0023b          	addw	x4,x0,x27
    80003270:	005f46b3          	xor	x13,x30,x5
    80003274:	41c50433          	sub	x8,x10,x28
    80003278:	402a0c3b          	subw	x24,x20,x2
    8000327c:	40fe003b          	subw	x0,x28,x15
    80003280:	40cd8933          	sub	x18,x27,x12
    80003284:	00f8e6b3          	or	x13,x17,x15
    80003288:	00e52133          	slt	x2,x10,x14
    8000328c:	41870a33          	sub	x20,x14,x24
    80003290:	008c7eb3          	and	x29,x24,x8
    80003294:	00826bb3          	or	x23,x4,x8
    80003298:	000f053b          	addw	x10,x30,x0
    8000329c:	00f7e8b3          	or	x17,x15,x15
    800032a0:	005d89bb          	addw	x19,x27,x5
    800032a4:	0032aeb3          	slt	x29,x5,x3
    800032a8:	009b3d33          	sltu	x26,x22,x9
    800032ac:	00b66db3          	or	x27,x12,x11
    800032b0:	012771b3          	and	x3,x14,x18
    800032b4:	416f8933          	sub	x18,x31,x22
    800032b8:	407504bb          	subw	x9,x10,x7
    800032bc:	0053c533          	xor	x10,x7,x5
    800032c0:	002666b3          	or	x13,x12,x2
    800032c4:	011f3233          	sltu	x4,x30,x17
    800032c8:	01ec7c33          	and	x24,x24,x30
    800032cc:	00328ebb          	addw	x29,x5,x3
    800032d0:	41418dbb          	subw	x27,x3,x20
    800032d4:	01704bb3          	xor	x23,x0,x23
    800032d8:	00642a33          	slt	x20,x8,x6
    800032dc:	4155073b          	subw	x14,x10,x21
    800032e0:	403887bb          	subw	x15,x17,x3
    800032e4:	0041c533          	xor	x10,x3,x4
    800032e8:	00bda933          	slt	x18,x27,x11
    800032ec:	017caf33          	slt	x30,x25,x23
    800032f0:	01d40abb          	addw	x21,x8,x29
    800032f4:	01f8f333          	and	x6,x17,x31
    800032f8:	00478fb3          	add	x31,x15,x4
    800032fc:	000c44b3          	xor	x9,x24,x0
    80003300:	019a2933          	slt	x18,x20,x25
    80003304:	018a073b          	addw	x14,x20,x24
    80003308:	01862e33          	slt	x28,x12,x24
    8000330c:	002df433          	and	x8,x27,x2
    80003310:	00cbbfb3          	sltu	x31,x23,x12
    80003314:	40c88333          	sub	x6,x17,x12
    80003318:	010a4b33          	xor	x22,x20,x16
    8000331c:	019eadb3          	slt	x27,x29,x25
    80003320:	41128bb3          	sub	x23,x5,x17
    80003324:	00a7c1b3          	xor	x3,x15,x10
    80003328:	013fa133          	slt	x2,x31,x19
    8000332c:	004809bb          	addw	x19,x16,x4
    80003330:	01beb633          	sltu	x12,x29,x27
    80003334:	01cbffb3          	and	x31,x23,x28
    80003338:	00a30b33          	add	x22,x6,x10
    8000333c:	01054db3          	xor	x27,x10,x16
    80003340:	00a8aab3          	slt	x21,x17,x10
    80003344:	00520833          	add	x16,x4,x5
    80003348:	01e14233          	xor	x4,x2,x30
    8000334c:	008167b3          	or	x15,x2,x8
    80003350:	40340dbb          	subw	x27,x8,x3
    80003354:	0155b433          	sltu	x8,x11,x21
    80003358:	01eabbb3          	sltu	x23,x21,x30
    8000335c:	00ee6b33          	or	x22,x28,x14
    80003360:	0181ce33          	xor	x28,x3,x24
    80003364:	41478ab3          	sub	x21,x15,x20
    80003368:	01356f33          	or	x30,x10,x19
    8000336c:	00fe8233          	add	x4,x29,x15
    80003370:	00fb26b3          	slt	x13,x22,x15
    80003374:	01340133          	add	x2,x8,x19
    80003378:	41f18ab3          	sub	x21,x3,x31
    8000337c:	009747b3          	xor	x15,x14,x9
    80003380:	00a40db3          	add	x27,x8,x10
    80003384:	00d342b3          	xor	x5,x6,x13
    80003388:	400f0fb3          	sub	x31,x30,x0
    8000338c:	003b0bb3          	add	x23,x22,x3
    80003390:	00af7d33          	and	x26,x30,x10
    80003394:	40c88a3b          	subw	x20,x17,x12
    80003398:	01524633          	xor	x12,x4,x21
    8000339c:	0133b3b3          	sltu	x7,x7,x19
    800033a0:	016f42b3          	xor	x5,x30,x22
    800033a4:	00d37333          	and	x6,x6,x13
    800033a8:	00af8533          	add	x10,x31,x10
    800033ac:	019dc8b3          	xor	x17,x27,x25
    800033b0:	00bb76b3          	and	x13,x22,x11
    800033b4:	008282b3          	add	x5,x5,x8
    800033b8:	41fb803b          	subw	x0,x23,x31
    800033bc:	00692233          	slt	x4,x18,x6
    800033c0:	0101bcb3          	sltu	x25,x3,x16
    800033c4:	407385bb          	subw	x11,x7,x7
    800033c8:	0073b933          	sltu	x18,x7,x7
    800033cc:	01c8b833          	sltu	x16,x17,x28
    800033d0:	01fdfab3          	and	x21,x27,x31
    800033d4:	00cc0fb3          	add	x31,x24,x12
    800033d8:	40758bbb          	subw	x23,x11,x7
    800033dc:	00e9863b          	addw	x12,x19,x14
    800033e0:	01d823b3          	slt	x7,x16,x29
    800033e4:	00f78b3b          	addw	x22,x15,x15
    800033e8:	0097e2b3          	or	x5,x15,x9
    800033ec:	01e6e4b3          	or	x9,x13,x30
    800033f0:	01e88133          	add	x2,x17,x30
    800033f4:	01c33933          	sltu	x18,x6,x28
    800033f8:	01918fbb          	addw	x31,x3,x25
    800033fc:	00847bb3          	and	x23,x8,x8
    80003400:	00ac6233          	or	x4,x24,x10
    80003404:	003e3033          	sltu	x0,x28,x3
    80003408:	00f603b3          	add	x7,x12,x15
    8000340c:	412588b3          	sub	x17,x11,x18
    80003410:	01548f33          	add	x30,x9,x21
    80003414:	01cb7bb3          	and	x23,x22,x28
    80003418:	0004c533          	xor	x10,x9,x0
    8000341c:	000836b3          	sltu	x13,x16,x0
    80003420:	418a8133          	sub	x2,x21,x24
    80003424:	00fa02bb          	addw	x5,x20,x15
    80003428:	00c8a8b3          	slt	x17,x17,x12
    8000342c:	00987fb3          	and	x31,x16,x9
    80003430:	019389b3          	add	x19,x7,x25
    80003434:	40bc053b          	subw	x10,x24,x11
    80003438:	017d34b3          	sltu	x9,x26,x23
    8000343c:	01ba47b3          	xor	x15,x20,x27
    80003440:	41a10bb3          	sub	x23,x2,x26
    80003444:	008609bb          	addw	x19,x12,x8
    80003448:	406a88b3          	sub	x17,x21,x6
    8000344c:	01e332b3          	sltu	x5,x6,x30
    80003450:	00060e3b          	addw	x28,x12,x0
    80003454:	01d42933          	slt	x18,x8,x29
    80003458:	41638c33          	sub	x24,x7,x22
    8000345c:	0177ef33          	or	x30,x15,x23
    80003460:	01604833          	xor	x16,x0,x22
    80003464:	4163833b          	subw	x6,x7,x22
    80003468:	00eeb1b3          	sltu	x3,x29,x14
    8000346c:	000b0ab3          	add	x21,x22,x0
    80003470:	00c9ca33          	xor	x20,x19,x12
    80003474:	012b7b33          	and	x22,x22,x18
    80003478:	400b8cb3          	sub	x25,x23,x0
    8000347c:	00cb83b3          	add	x7,x23,x12
    80003480:	012e8333          	add	x6,x29,x18
    80003484:	01b1abb3          	slt	x23,x3,x27
    80003488:	0136b6b3          	sltu	x13,x13,x19
    8000348c:	01af873b          	addw	x14,x31,x26
    80003490:	0127fc33          	and	x24,x15,x18
    80003494:	010d33b3          	sltu	x7,x26,x16
    80003498:	01a78633          	add	x12,x15,x26
    8000349c:	419c823b          	subw	x4,x25,x25
    800034a0:	013ce333          	or	x6,x25,x19
    800034a4:	00e9be33          	sltu	x28,x19,x14
    800034a8:	008ab7b3          	sltu	x15,x21,x8
    800034ac:	01dd0533          	add	x10,x26,x29
    800034b0:	00df7d33          	and	x26,x30,x13
    800034b4:	410288b3          	sub	x17,x5,x16
    800034b8:	0033b1b3          	sltu	x3,x7,x3
    800034bc:	004fb3b3          	sltu	x7,x31,x4
    800034c0:	01cef7b3          	and	x15,x29,x28
    800034c4:	004aeab3          	or	x21,x21,x4
    800034c8:	01a28f3b          	addw	x30,x5,x26
    800034cc:	006e0b33          	add	x22,x28,x6
    800034d0:	01f2c033          	xor	x0,x5,x31
    800034d4:	0075c3b3          	xor	x7,x11,x7
    800034d8:	01cbeab3          	or	x21,x23,x28
    800034dc:	00d40c33          	add	x24,x8,x13
    800034e0:	0169883b          	addw	x16,x19,x22
    800034e4:	019eb333          	sltu	x6,x29,x25
    800034e8:	00bf89bb          	addw	x19,x31,x11
    800034ec:	011d4733          	xor	x14,x26,x17
    800034f0:	41d503b3          	sub	x7,x10,x29
    800034f4:	019fce33          	xor	x28,x31,x25
    800034f8:	009588bb          	addw	x17,x11,x9
    800034fc:	01b78933          	add	x18,x15,x27
    80003500:	014405b3          	add	x11,x8,x20
    80003504:	40d40bb3          	sub	x23,x8,x13
    80003508:	0034e333          	or	x6,x9,x3
    8000350c:	016f83bb          	addw	x7,x31,x22
    80003510:	41b18233          	sub	x4,x3,x27
    80003514:	00ab31b3          	sltu	x3,x22,x10
    80003518:	410b063b          	subw	x12,x22,x16
    8000351c:	41ec02b3          	sub	x5,x24,x30
    80003520:	0167be33          	sltu	x28,x15,x22
    80003524:	01688bbb          	addw	x23,x17,x22
    80003528:	402884bb          	subw	x9,x17,x2
    8000352c:	40018db3          	sub	x27,x3,x0
    80003530:	00dc2ab3          	slt	x21,x24,x13
    80003534:	40458cb3          	sub	x25,x11,x4
    80003538:	407c02b3          	sub	x5,x24,x7
    8000353c:	017169b3          	or	x19,x2,x23
    80003540:	01e22eb3          	slt	x29,x4,x30
    80003544:	00986433          	or	x8,x16,x9
    80003548:	01a4cdb3          	xor	x27,x9,x26
    8000354c:	01ec63b3          	or	x7,x24,x30
    80003550:	00a1c4b3          	xor	x9,x3,x10
    80003554:	01924933          	xor	x18,x4,x25
    80003558:	01163f33          	sltu	x30,x12,x17
    8000355c:	006e82bb          	addw	x5,x29,x6
    80003560:	0185c5b3          	xor	x11,x11,x24
    80003564:	00967ab3          	and	x21,x12,x9
    80003568:	002043b3          	xor	x7,x0,x2
    8000356c:	01a9a433          	slt	x8,x19,x26
    80003570:	00f74233          	xor	x4,x14,x15
    80003574:	40c1853b          	subw	x10,x3,x12
    80003578:	01eb64b3          	or	x9,x22,x30
    8000357c:	0179a1b3          	slt	x3,x19,x23
    80003580:	00272d33          	slt	x26,x14,x2
    80003584:	40c007bb          	subw	x15,x0,x12
    80003588:	019e6433          	or	x8,x28,x25
    8000358c:	41030533          	sub	x10,x6,x16
    80003590:	0171a233          	slt	x4,x3,x23
    80003594:	416b86bb          	subw	x13,x23,x22
    80003598:	01ff7cb3          	and	x25,x30,x31
    8000359c:	01c8b9b3          	sltu	x19,x17,x28
    800035a0:	01db2e33          	slt	x28,x22,x29
    800035a4:	01144d33          	xor	x26,x8,x17
    800035a8:	01ec0233          	add	x4,x24,x30
    800035ac:	00538dbb          	addw	x27,x7,x5
    800035b0:	411f81bb          	subw	x3,x31,x17
    800035b4:	0087cfb3          	xor	x31,x15,x8
    800035b8:	00a98d33          	add	x26,x19,x10
    800035bc:	015233b3          	sltu	x7,x4,x21
    800035c0:	418d8cbb          	subw	x25,x27,x24
    800035c4:	00a64333          	xor	x6,x12,x10
    800035c8:	00c5083b          	addw	x16,x10,x12
    800035cc:	01fa4eb3          	xor	x29,x20,x31
    800035d0:	409d01bb          	subw	x3,x26,x9
    800035d4:	014fc4b3          	xor	x9,x31,x20
    800035d8:	0190063b          	addw	x12,x0,x25
    800035dc:	40d40f3b          	subw	x30,x8,x13
    800035e0:	013b8dbb          	addw	x27,x23,x19
    800035e4:	01344b33          	xor	x22,x8,x19
    800035e8:	013b81b3          	add	x3,x23,x19
    800035ec:	0027bcb3          	sltu	x25,x15,x2
    800035f0:	00ce7d33          	and	x26,x28,x12
    800035f4:	01ff0033          	add	x0,x30,x31
    800035f8:	00fc2db3          	slt	x27,x24,x15
    800035fc:	418784bb          	subw	x9,x15,x24
    80003600:	01d8033b          	addw	x6,x16,x29
    80003604:	0047f7b3          	and	x15,x15,x4
    80003608:	01fe03bb          	addw	x7,x28,x31
    8000360c:	41880cb3          	sub	x25,x16,x24
    80003610:	010d3533          	sltu	x10,x26,x16
    80003614:	008d8233          	add	x4,x27,x8
    80003618:	00944833          	xor	x16,x8,x9
    8000361c:	41cd89b3          	sub	x19,x27,x28
    80003620:	0077e433          	or	x8,x15,x7
    80003624:	002a87b3          	add	x15,x21,x2
    80003628:	01420fb3          	add	x31,x4,x20
    8000362c:	01eb4b33          	xor	x22,x22,x30
    80003630:	00a32033          	slt	x0,x6,x10
    80003634:	00a9ae33          	slt	x28,x19,x10
    80003638:	00d43d33          	sltu	x26,x8,x13
    8000363c:	404f093b          	subw	x18,x30,x4
    80003640:	413a8db3          	sub	x27,x21,x19
    80003644:	40cb0733          	sub	x14,x22,x12
    80003648:	002439b3          	sltu	x19,x8,x2
    8000364c:	41d68833          	sub	x16,x13,x29
    80003650:	01fa2fb3          	slt	x31,x20,x31
    80003654:	01857bb3          	and	x23,x10,x24
    80003658:	0192ce33          	xor	x28,x5,x25
    8000365c:	01b28d33          	add	x26,x5,x27
    80003660:	00b14533          	xor	x10,x2,x11
    80003664:	40678f3b          	subw	x30,x15,x6
    80003668:	00378333          	add	x6,x15,x3
    8000366c:	01590a3b          	addw	x20,x18,x21
    80003670:	007d09bb          	addw	x19,x26,x7
    80003674:	011fc033          	xor	x0,x31,x17
    80003678:	002f4533          	xor	x10,x30,x2
    8000367c:	01e9043b          	addw	x8,x18,x30
    80003680:	00dabbb3          	sltu	x23,x21,x13
    80003684:	00c4e233          	or	x4,x9,x12
    80003688:	015f6333          	or	x6,x30,x21
    8000368c:	01328633          	add	x12,x5,x19
    80003690:	40eb0c3b          	subw	x24,x22,x14
    80003694:	009d3bb3          	sltu	x23,x26,x9
    80003698:	01de89b3          	add	x19,x29,x29
    8000369c:	00a274b3          	and	x9,x4,x10
    800036a0:	41d9003b          	subw	x0,x18,x29
    800036a4:	40a3823b          	subw	x4,x7,x10
    800036a8:	015763b3          	or	x7,x14,x21
    800036ac:	41d8863b          	subw	x12,x17,x29
    800036b0:	40b807bb          	subw	x15,x16,x11
    800036b4:	008876b3          	and	x13,x16,x8
    800036b8:	01118f33          	add	x30,x3,x17
    800036bc:	00b42433          	slt	x8,x8,x11
    800036c0:	406702b3          	sub	x5,x14,x6
    800036c4:	016c0ebb          	addw	x29,x24,x22
    800036c8:	00ac67b3          	or	x15,x24,x10
    800036cc:	011169b3          	or	x19,x2,x17
    800036d0:	014d0633          	add	x12,x26,x20
    800036d4:	01968e33          	add	x28,x13,x25
    800036d8:	418d84b3          	sub	x9,x27,x24
    800036dc:	01ab8eb3          	add	x29,x23,x26
    800036e0:	01b885b3          	add	x11,x17,x27
    800036e4:	00e123b3          	slt	x7,x2,x14
    800036e8:	41ea8fbb          	subw	x31,x21,x30
    800036ec:	4102023b          	subw	x4,x4,x16
    800036f0:	40650f33          	sub	x30,x10,x6
    800036f4:	0177be33          	sltu	x28,x15,x23
    800036f8:	01ace033          	or	x0,x25,x26
    800036fc:	007af2b3          	and	x5,x21,x7
    80003700:	008d75b3          	and	x11,x26,x8
    80003704:	00a80233          	add	x4,x16,x10
    80003708:	41e88533          	sub	x10,x17,x30
    8000370c:	01c02033          	slt	x0,x0,x28
    80003710:	405486bb          	subw	x13,x9,x5
    80003714:	40cb0bb3          	sub	x23,x22,x12
    80003718:	40e88933          	sub	x18,x17,x14
    8000371c:	00c7eab3          	or	x21,x15,x12
    80003720:	00f007b3          	add	x15,x0,x15
    80003724:	018c39b3          	sltu	x19,x24,x24
    80003728:	00800133          	add	x2,x0,x8
    8000372c:	008ffcb3          	and	x25,x31,x8
    80003730:	01a285b3          	add	x11,x5,x26
    80003734:	01dbe833          	or	x16,x23,x29
    80003738:	00eae633          	or	x12,x21,x14
    8000373c:	0167afb3          	slt	x31,x15,x22
    80003740:	01b00d3b          	addw	x26,x0,x27
    80003744:	01cb01b3          	add	x3,x22,x28
    80003748:	0105fab3          	and	x21,x11,x16
    8000374c:	0103bbb3          	sltu	x23,x7,x16
    80003750:	4165873b          	subw	x14,x11,x22
    80003754:	01e57033          	and	x0,x10,x30
    80003758:	00c38ebb          	addw	x29,x7,x12
    8000375c:	011688bb          	addw	x17,x13,x17
    80003760:	00783cb3          	sltu	x25,x16,x7
    80003764:	00b6ae33          	slt	x28,x13,x11
    80003768:	014a43b3          	xor	x7,x20,x20
    8000376c:	0007a333          	slt	x6,x15,x0
    80003770:	00a40933          	add	x18,x8,x10
    80003774:	0138b533          	sltu	x10,x17,x19
    80003778:	411d82bb          	subw	x5,x27,x17
    8000377c:	41600ab3          	sub	x21,x0,x22
    80003780:	014a05bb          	addw	x11,x20,x20
    80003784:	00e883bb          	addw	x7,x17,x14
    80003788:	0121ee33          	or	x28,x3,x18
    8000378c:	01820c33          	add	x24,x4,x24
    80003790:	00d10fbb          	addw	x31,x2,x13
    80003794:	41420d3b          	subw	x26,x4,x20
    80003798:	003bcab3          	xor	x21,x23,x3
    8000379c:	4047093b          	subw	x18,x14,x4
    800037a0:	40d306bb          	subw	x13,x6,x13
    800037a4:	416587b3          	sub	x15,x11,x22
    800037a8:	408582bb          	subw	x5,x11,x8
    800037ac:	40880abb          	subw	x21,x16,x8
    800037b0:	40c40fb3          	sub	x31,x8,x12
    800037b4:	00ed0933          	add	x18,x26,x14
    800037b8:	41370cbb          	subw	x25,x14,x19
    800037bc:	00f2a733          	slt	x14,x5,x15
    800037c0:	018304bb          	addw	x9,x6,x24
    800037c4:	01f43e33          	sltu	x28,x8,x31
    800037c8:	0067c1b3          	xor	x3,x15,x6
    800037cc:	00c423b3          	slt	x7,x8,x12
    800037d0:	40830fbb          	subw	x31,x6,x8
    800037d4:	00548433          	add	x8,x9,x5
    800037d8:	412786b3          	sub	x13,x15,x18
    800037dc:	0121ca33          	xor	x20,x3,x18
    800037e0:	00f7e833          	or	x16,x15,x15
    800037e4:	018acc33          	xor	x24,x21,x24
    800037e8:	4083023b          	subw	x4,x6,x8
    800037ec:	000727b3          	slt	x15,x14,x0
    800037f0:	01b8f3b3          	and	x7,x17,x27
    800037f4:	008fb9b3          	sltu	x19,x31,x8
    800037f8:	41ea8b33          	sub	x22,x21,x30
    800037fc:	010a78b3          	and	x17,x20,x16
    80003800:	00b2fdb3          	and	x27,x5,x11
    80003804:	0006b6b3          	sltu	x13,x13,x0
    80003808:	0029feb3          	and	x29,x19,x2
    8000380c:	002434b3          	sltu	x9,x8,x2
    80003810:	003a2e33          	slt	x28,x20,x3
    80003814:	013d813b          	addw	x2,x27,x19
    80003818:	01854533          	xor	x10,x10,x24
    8000381c:	4036073b          	subw	x14,x12,x3
    80003820:	014f6bb3          	or	x23,x30,x20
    80003824:	009ef233          	and	x4,x29,x9
    80003828:	00d803bb          	addw	x7,x16,x13
    8000382c:	40cc85b3          	sub	x11,x25,x12
    80003830:	003e0f3b          	addw	x30,x28,x3
    80003834:	01603733          	sltu	x14,x0,x22
    80003838:	012c3633          	sltu	x12,x24,x18
    8000383c:	01c92233          	slt	x4,x18,x28
    80003840:	00602133          	slt	x2,x0,x6
    80003844:	406f843b          	subw	x8,x31,x6
    80003848:	01d885b3          	add	x11,x17,x29
    8000384c:	41cf8cbb          	subw	x25,x31,x28
    80003850:	01d7b033          	sltu	x0,x15,x29
    80003854:	016abdb3          	sltu	x27,x21,x22
    80003858:	0067bf33          	sltu	x30,x15,x6
    8000385c:	015ea1b3          	slt	x3,x29,x21
    80003860:	0157ebb3          	or	x23,x15,x21
    80003864:	01a7f3b3          	and	x7,x15,x26
    80003868:	011c2133          	slt	x2,x24,x17
    8000386c:	000ca2b3          	slt	x5,x25,x0
    80003870:	01c7bb33          	sltu	x22,x15,x28
    80003874:	00e74f33          	xor	x30,x14,x14
    80003878:	01d3a733          	slt	x14,x7,x29
    8000387c:	4023083b          	subw	x16,x6,x2
    80003880:	41b105bb          	subw	x11,x2,x27
    80003884:	019cbc33          	sltu	x24,x25,x25
    80003888:	012aacb3          	slt	x25,x21,x18
    8000388c:	00524fb3          	xor	x31,x4,x5
    80003890:	40de823b          	subw	x4,x29,x13
    80003894:	0006e033          	or	x0,x13,x0
    80003898:	414d09b3          	sub	x19,x26,x20
    8000389c:	00ea0e3b          	addw	x28,x20,x14
    800038a0:	010a8f33          	add	x30,x21,x16
    800038a4:	00fb76b3          	and	x13,x22,x15
    800038a8:	40620d33          	sub	x26,x4,x6
    800038ac:	00f60abb          	addw	x21,x12,x15
    800038b0:	413207b3          	sub	x15,x4,x19
    800038b4:	41e50f33          	sub	x30,x10,x30
    800038b8:	01f94eb3          	xor	x29,x18,x31
    800038bc:	408702bb          	subw	x5,x14,x8
    800038c0:	013273b3          	and	x7,x4,x19
    800038c4:	0189fb33          	and	x22,x19,x24
    800038c8:	01078e33          	add	x28,x15,x16
    800038cc:	40af0f33          	sub	x30,x30,x10
    800038d0:	0051c6b3          	xor	x13,x3,x5
    800038d4:	01b5e8b3          	or	x17,x11,x27
    800038d8:	01053833          	sltu	x16,x10,x16
    800038dc:	00007933          	and	x18,x0,x0
    800038e0:	41a48a33          	sub	x20,x9,x26
    800038e4:	003c7733          	and	x14,x24,x3
    800038e8:	008c843b          	addw	x8,x25,x8
    800038ec:	40d805bb          	subw	x11,x16,x13
    800038f0:	0129013b          	addw	x2,x18,x18
    800038f4:	01c547b3          	xor	x15,x10,x28
    800038f8:	00ef7fb3          	and	x31,x30,x14
    800038fc:	40a70c3b          	subw	x24,x14,x10
    80003900:	0199f933          	and	x18,x19,x25
    80003904:	01cd2b33          	slt	x22,x26,x28
    80003908:	01b2073b          	addw	x14,x4,x27
    8000390c:	01f50033          	add	x0,x10,x31
    80003910:	015c6433          	or	x8,x24,x21
    80003914:	0132c3b3          	xor	x7,x5,x19
    80003918:	018937b3          	sltu	x15,x18,x24
    8000391c:	0148083b          	addw	x16,x16,x20
    80003920:	00ee2633          	slt	x12,x28,x14
    80003924:	00200933          	add	x18,x0,x2
    80003928:	0163b5b3          	sltu	x11,x7,x22
    8000392c:	0112bd33          	sltu	x26,x5,x17
    80003930:	40f28fbb          	subw	x31,x5,x15
    80003934:	0072f2b3          	and	x5,x5,x7
    80003938:	008f4b33          	xor	x22,x30,x8
    8000393c:	413d8abb          	subw	x21,x27,x19
    80003940:	01cf3033          	sltu	x0,x30,x28
    80003944:	410905b3          	sub	x11,x18,x16
    80003948:	0063f4b3          	and	x9,x7,x6
    8000394c:	00d787b3          	add	x15,x15,x13
    80003950:	004f7fb3          	and	x31,x30,x4
    80003954:	002206b3          	add	x13,x4,x2
    80003958:	008283b3          	add	x7,x5,x8
    8000395c:	417501bb          	subw	x3,x10,x23
    80003960:	01c8b333          	sltu	x6,x17,x28
    80003964:	00aa8f33          	add	x30,x21,x10
    80003968:	008049b3          	xor	x19,x0,x8
    8000396c:	010c86bb          	addw	x13,x25,x16
    80003970:	018d0cbb          	addw	x25,x26,x24
    80003974:	0175adb3          	slt	x27,x11,x23
    80003978:	012f8d3b          	addw	x26,x31,x18
    8000397c:	012a09b3          	add	x19,x20,x18
    80003980:	0066e433          	or	x8,x13,x6
    80003984:	00214733          	xor	x14,x2,x2
    80003988:	4098853b          	subw	x10,x17,x9
    8000398c:	012888b3          	add	x17,x17,x18
    80003990:	01238833          	add	x16,x7,x18
    80003994:	41400e3b          	subw	x28,x0,x20
    80003998:	018c62b3          	or	x5,x24,x24
    8000399c:	41b18eb3          	sub	x29,x3,x27
    800039a0:	41a186b3          	sub	x13,x3,x26
    800039a4:	007a01b3          	add	x3,x20,x7
    800039a8:	00a9f3b3          	and	x7,x19,x10
    800039ac:	00e56cb3          	or	x25,x10,x14
    800039b0:	00b20dbb          	addw	x27,x4,x11
    800039b4:	0052b933          	sltu	x18,x5,x5
    800039b8:	41f48733          	sub	x14,x9,x31
    800039bc:	009379b3          	and	x19,x6,x9
    800039c0:	01a3a7b3          	slt	x15,x7,x26
    800039c4:	01ed2bb3          	slt	x23,x26,x30
    800039c8:	01e026b3          	slt	x13,x0,x30
    800039cc:	018ac633          	xor	x12,x21,x24
    800039d0:	004effb3          	and	x31,x29,x4
    800039d4:	0064e033          	or	x0,x9,x6
    800039d8:	00f473b3          	and	x7,x8,x15
    800039dc:	01e271b3          	and	x3,x4,x30
    800039e0:	004daa33          	slt	x20,x27,x4
    800039e4:	016e82b3          	add	x5,x29,x22
    800039e8:	017405b3          	add	x11,x8,x23
    800039ec:	008d07b3          	add	x15,x26,x8
    800039f0:	00eb8233          	add	x4,x23,x14
    800039f4:	41eb0fb3          	sub	x31,x22,x30
    800039f8:	015a4c33          	xor	x24,x20,x21
    800039fc:	00248cbb          	addw	x25,x9,x2
    80003a00:	011885b3          	add	x11,x17,x17
    80003a04:	00f10e33          	add	x28,x2,x15
    80003a08:	00fdb6b3          	sltu	x13,x27,x15
    80003a0c:	0133c1b3          	xor	x3,x7,x19
    80003a10:	0153e9b3          	or	x19,x7,x21
    80003a14:	406882b3          	sub	x5,x17,x6
    80003a18:	00938bb3          	add	x23,x7,x9
    80003a1c:	00a67db3          	and	x27,x12,x10
    80003a20:	00ce2ab3          	slt	x21,x28,x12
    80003a24:	003ff333          	and	x6,x31,x3
    80003a28:	41200ebb          	subw	x29,x0,x18
    80003a2c:	002e24b3          	slt	x9,x28,x2
    80003a30:	00378cb3          	add	x25,x15,x3
    80003a34:	0186a9b3          	slt	x19,x13,x24
    80003a38:	007626b3          	slt	x13,x12,x7
    80003a3c:	000c0eb3          	add	x29,x24,x0
    80003a40:	00be65b3          	or	x11,x28,x11
    80003a44:	00c8eab3          	or	x21,x17,x12
    80003a48:	01c2833b          	addw	x6,x5,x28
    80003a4c:	0086cbb3          	xor	x23,x13,x8
    80003a50:	41070ebb          	subw	x29,x14,x16
    80003a54:	00dd0c3b          	addw	x24,x26,x13
    80003a58:	0020003b          	addw	x0,x0,x2
    80003a5c:	40e90a3b          	subw	x20,x18,x14
    80003a60:	01edbbb3          	sltu	x23,x27,x30
    80003a64:	0094b3b3          	sltu	x7,x9,x9
    80003a68:	005df4b3          	and	x9,x27,x5
    80003a6c:	01e88933          	add	x18,x17,x30
    80003a70:	0105f7b3          	and	x15,x11,x16
    80003a74:	403708bb          	subw	x17,x14,x3
    80003a78:	00a53133          	sltu	x2,x10,x10
    80003a7c:	41880c33          	sub	x24,x16,x24
    80003a80:	015e26b3          	slt	x13,x28,x21
    80003a84:	0155bab3          	sltu	x21,x11,x21
    80003a88:	40448b3b          	subw	x22,x9,x4
    80003a8c:	01e1ae33          	slt	x28,x3,x30
    80003a90:	006378b3          	and	x17,x6,x6
    80003a94:	00bc853b          	addw	x10,x25,x11
    80003a98:	007bfeb3          	and	x29,x23,x7
    80003a9c:	00576ab3          	or	x21,x14,x5
    80003aa0:	000de233          	or	x4,x27,x0
    80003aa4:	403b8cb3          	sub	x25,x23,x3
    80003aa8:	41a883b3          	sub	x7,x17,x26
    80003aac:	01f17db3          	and	x27,x2,x31
    80003ab0:	00334833          	xor	x16,x6,x3
    80003ab4:	015b7533          	and	x10,x22,x21
    80003ab8:	018cafb3          	slt	x31,x25,x24
    80003abc:	004ae1b3          	or	x3,x21,x4
    80003ac0:	406582bb          	subw	x5,x11,x6
    80003ac4:	00b8b4b3          	sltu	x9,x17,x11
    80003ac8:	006b6e33          	or	x28,x22,x6
    80003acc:	01752b33          	slt	x22,x10,x23
    80003ad0:	018c6a33          	or	x20,x24,x24
    80003ad4:	41570bb3          	sub	x23,x14,x21
    80003ad8:	40c18fbb          	subw	x31,x3,x12
    80003adc:	01d1bd33          	sltu	x26,x3,x29
    80003ae0:	4053003b          	subw	x0,x6,x5
    80003ae4:	402c8db3          	sub	x27,x25,x2
    80003ae8:	40fc88bb          	subw	x17,x25,x15
    80003aec:	006ab633          	sltu	x12,x21,x6
    80003af0:	019be233          	or	x4,x23,x25
    80003af4:	41698b3b          	subw	x22,x19,x22
    80003af8:	00578fbb          	addw	x31,x15,x5
    80003afc:	00707733          	and	x14,x0,x7
    80003b00:	41d00e33          	sub	x28,x0,x29
    80003b04:	00b9fa33          	and	x20,x19,x11
    80003b08:	413d8ab3          	sub	x21,x27,x19
    80003b0c:	010d6233          	or	x4,x26,x16
    80003b10:	0004a8b3          	slt	x17,x9,x0
    80003b14:	00c5b4b3          	sltu	x9,x11,x12
    80003b18:	0057e6b3          	or	x13,x15,x5
    80003b1c:	016ae3b3          	or	x7,x21,x22
    80003b20:	41218bbb          	subw	x23,x3,x18
    80003b24:	0002a033          	slt	x0,x5,x0
    80003b28:	01a2cab3          	xor	x21,x5,x26
    80003b2c:	0168bcb3          	sltu	x25,x17,x22
    80003b30:	01f5083b          	addw	x16,x10,x31
    80003b34:	00fb04b3          	add	x9,x22,x15
    80003b38:	00ab05bb          	addw	x11,x22,x10
    80003b3c:	014f3933          	sltu	x18,x30,x20
    80003b40:	01a8e8b3          	or	x17,x17,x26
    80003b44:	01bf7e33          	and	x28,x30,x27
    80003b48:	417f0c3b          	subw	x24,x30,x23
    80003b4c:	004d83bb          	addw	x7,x27,x4
    80003b50:	0022e833          	or	x16,x5,x2
    80003b54:	00fee4b3          	or	x9,x29,x15
    80003b58:	0038b433          	sltu	x8,x17,x3
    80003b5c:	01488933          	add	x18,x17,x20
    80003b60:	011bcbb3          	xor	x23,x23,x17
    80003b64:	00634c33          	xor	x24,x6,x6
    80003b68:	41310233          	sub	x4,x2,x19
    80003b6c:	00247a33          	and	x20,x8,x2
    80003b70:	01eaf133          	and	x2,x21,x30
    80003b74:	01adfe33          	and	x28,x27,x26
    80003b78:	01fc8633          	add	x12,x25,x31
    80003b7c:	01bd4eb3          	xor	x29,x26,x27
    80003b80:	01ebfd33          	and	x26,x23,x30
    80003b84:	40048a3b          	subw	x20,x9,x0
    80003b88:	00687433          	and	x8,x16,x6
    80003b8c:	00e12bb3          	slt	x23,x2,x14
    80003b90:	0048bcb3          	sltu	x25,x17,x4
    80003b94:	01117633          	and	x12,x2,x17
    80003b98:	01db7a33          	and	x20,x22,x29
    80003b9c:	00720333          	add	x6,x4,x7
    80003ba0:	008f2f33          	slt	x30,x30,x8
    80003ba4:	0179c5b3          	xor	x11,x19,x23
    80003ba8:	40a3813b          	subw	x2,x7,x10
    80003bac:	0131afb3          	slt	x31,x3,x19
    80003bb0:	400609bb          	subw	x19,x12,x0
    80003bb4:	016774b3          	and	x9,x14,x22
    80003bb8:	019aba33          	sltu	x20,x21,x25
    80003bbc:	00674933          	xor	x18,x14,x6
    80003bc0:	01c62e33          	slt	x28,x12,x28
    80003bc4:	015a8bbb          	addw	x23,x21,x21
    80003bc8:	00cd8dbb          	addw	x27,x27,x12
    80003bcc:	00558b3b          	addw	x22,x11,x5
    80003bd0:	41d00a33          	sub	x20,x0,x29
    80003bd4:	4137803b          	subw	x0,x15,x19
    80003bd8:	00f96d33          	or	x26,x18,x15
    80003bdc:	409705bb          	subw	x11,x14,x9
    80003be0:	00288cbb          	addw	x25,x17,x2
    80003be4:	0022a633          	slt	x12,x5,x2
    80003be8:	00fa2eb3          	slt	x29,x20,x15
    80003bec:	00048d3b          	addw	x26,x9,x0
    80003bf0:	412b023b          	subw	x4,x22,x18
    80003bf4:	4160073b          	subw	x14,x0,x22
    80003bf8:	003fa633          	slt	x12,x31,x3
    80003bfc:	00a03ab3          	sltu	x21,x0,x10
    80003c00:	413b0db3          	sub	x27,x22,x19
    80003c04:	014e8f33          	add	x30,x29,x20
    80003c08:	00d43433          	sltu	x8,x8,x13
    80003c0c:	000129b3          	slt	x19,x2,x0
    80003c10:	01d50fb3          	add	x31,x10,x29
    80003c14:	412707bb          	subw	x15,x14,x18
    80003c18:	009065b3          	or	x11,x0,x9
    80003c1c:	0126c8b3          	xor	x17,x13,x18
    80003c20:	00466733          	or	x14,x12,x4
    80003c24:	002dee33          	or	x28,x27,x2
    80003c28:	012f8db3          	add	x27,x31,x18
    80003c2c:	00b26f33          	or	x30,x4,x11
    80003c30:	0098c2b3          	xor	x5,x17,x9
    80003c34:	000d36b3          	sltu	x13,x26,x0
    80003c38:	410884b3          	sub	x9,x17,x16
    80003c3c:	019cabb3          	slt	x23,x25,x25
    80003c40:	00482133          	slt	x2,x16,x4
    80003c44:	01e22c33          	slt	x24,x4,x30
    80003c48:	01b80ebb          	addw	x29,x16,x27
    80003c4c:	0073ce33          	xor	x28,x7,x7
    80003c50:	01af07bb          	addw	x15,x30,x26
    80003c54:	00a76233          	or	x4,x14,x10
    80003c58:	41740f3b          	subw	x30,x8,x23
    80003c5c:	01df84b3          	add	x9,x31,x29
    80003c60:	40eb0033          	sub	x0,x22,x14
    80003c64:	00e52bb3          	slt	x23,x10,x14
    80003c68:	006305b3          	add	x11,x6,x6
    80003c6c:	0081fd33          	and	x26,x3,x8
    80003c70:	01f671b3          	and	x3,x12,x31
    80003c74:	01daf233          	and	x4,x21,x29
    80003c78:	41588833          	sub	x16,x17,x21
    80003c7c:	01cb2733          	slt	x14,x22,x28
    80003c80:	01737db3          	and	x27,x6,x23
    80003c84:	0165cb33          	xor	x22,x11,x22
    80003c88:	00da0333          	add	x6,x20,x13
    80003c8c:	007834b3          	sltu	x9,x16,x7
    80003c90:	41ab82bb          	subw	x5,x23,x26
    80003c94:	40f90bb3          	sub	x23,x18,x15
    80003c98:	015fbe33          	sltu	x28,x31,x21
    80003c9c:	000c73b3          	and	x7,x24,x0
    80003ca0:	016f8db3          	add	x27,x31,x22
    80003ca4:	40cf07bb          	subw	x15,x30,x12
    80003ca8:	018bfeb3          	and	x29,x23,x24
    80003cac:	004aa6b3          	slt	x13,x21,x4
    80003cb0:	0073873b          	addw	x14,x7,x7
    80003cb4:	000e0d3b          	addw	x26,x28,x0
    80003cb8:	0079863b          	addw	x12,x19,x7
    80003cbc:	01b2e7b3          	or	x15,x5,x27
    80003cc0:	0101b833          	sltu	x16,x3,x16
    80003cc4:	013723b3          	slt	x7,x14,x19
    80003cc8:	41dc0dbb          	subw	x27,x24,x29
    80003ccc:	006d7133          	and	x2,x26,x6
    80003cd0:	41628ebb          	subw	x29,x5,x22
    80003cd4:	40850abb          	subw	x21,x10,x8
    80003cd8:	419886bb          	subw	x13,x17,x25
    80003cdc:	014903b3          	add	x7,x18,x20
    80003ce0:	01c601bb          	addw	x3,x12,x28
    80003ce4:	01fc6133          	or	x2,x24,x31
    80003ce8:	01227db3          	and	x27,x4,x18
    80003cec:	0157fb33          	and	x22,x15,x21
    80003cf0:	40568eb3          	sub	x29,x13,x5
    80003cf4:	00393f33          	sltu	x30,x18,x3
    80003cf8:	00d1b6b3          	sltu	x13,x3,x13
    80003cfc:	007d2933          	slt	x18,x26,x7
    80003d00:	01300c3b          	addw	x24,x0,x19
    80003d04:	41ad89bb          	subw	x19,x27,x26
    80003d08:	017a2a33          	slt	x20,x20,x23
    80003d0c:	41b103bb          	subw	x7,x2,x27
    80003d10:	00b5e133          	or	x2,x11,x11
    80003d14:	00d8b7b3          	sltu	x15,x17,x13
    80003d18:	4112883b          	subw	x16,x5,x17
    80003d1c:	01fa2633          	slt	x12,x20,x31
    80003d20:	01ebe033          	or	x0,x23,x30
    80003d24:	008b78b3          	and	x17,x22,x8
    80003d28:	41e6823b          	subw	x4,x13,x30
    80003d2c:	402b0a3b          	subw	x20,x22,x2
    80003d30:	40af093b          	subw	x18,x30,x10
    80003d34:	01638d33          	add	x26,x7,x22
    80003d38:	015ebbb3          	sltu	x23,x29,x21
    80003d3c:	0103e8b3          	or	x17,x7,x16
    80003d40:	01ec79b3          	and	x19,x24,x30
    80003d44:	00722433          	slt	x8,x4,x7
    80003d48:	009abe33          	sltu	x28,x21,x9
    80003d4c:	010a03bb          	addw	x7,x20,x16
    80003d50:	01863733          	sltu	x14,x12,x24
    80003d54:	015641b3          	xor	x3,x12,x21
    80003d58:	00587633          	and	x12,x16,x5
    80003d5c:	013f2fb3          	slt	x31,x30,x19
    80003d60:	416b07bb          	subw	x15,x22,x22
    80003d64:	01cc3233          	sltu	x4,x24,x28
    80003d68:	40550bbb          	subw	x23,x10,x5
    80003d6c:	01adf133          	and	x2,x27,x26
    80003d70:	01af7e33          	and	x28,x30,x26
    80003d74:	005fb333          	sltu	x6,x31,x5
    80003d78:	01d3e8b3          	or	x17,x7,x29
    80003d7c:	412704bb          	subw	x9,x14,x18
    80003d80:	01def733          	and	x14,x29,x29
    80003d84:	00c3ca33          	xor	x20,x7,x12
    80003d88:	00ac4033          	xor	x0,x24,x10
    80003d8c:	406b0dbb          	subw	x27,x22,x6
    80003d90:	00f98fb3          	add	x31,x19,x15
    80003d94:	408109bb          	subw	x19,x2,x8
    80003d98:	00e706bb          	addw	x13,x14,x14
    80003d9c:	019404bb          	addw	x9,x8,x25
    80003da0:	00bea633          	slt	x12,x29,x11
    80003da4:	018f033b          	addw	x6,x30,x24
    80003da8:	01dd8033          	add	x0,x27,x29
    80003dac:	0051f433          	and	x8,x3,x5
    80003db0:	41d48bbb          	subw	x23,x9,x29
    80003db4:	013f4b33          	xor	x22,x30,x19
    80003db8:	40960cb3          	sub	x25,x12,x9
    80003dbc:	01c2ffb3          	and	x31,x5,x28
    80003dc0:	005903bb          	addw	x7,x18,x5
    80003dc4:	01816a33          	or	x20,x2,x24
    80003dc8:	00a16733          	or	x14,x2,x10
    80003dcc:	00d62933          	slt	x18,x12,x13
    80003dd0:	004b29b3          	slt	x19,x22,x4
    80003dd4:	004c7f33          	and	x30,x24,x4
    80003dd8:	019cf133          	and	x2,x25,x25
    80003ddc:	41dc8ab3          	sub	x21,x25,x29
    80003de0:	01bb01b3          	add	x3,x22,x27
    80003de4:	412688b3          	sub	x17,x13,x18
    80003de8:	00ddbeb3          	sltu	x29,x27,x13
    80003dec:	016825b3          	slt	x11,x16,x22
    80003df0:	00f8003b          	addw	x0,x16,x15
    80003df4:	01ed8333          	add	x6,x27,x30
    80003df8:	009b2bb3          	slt	x23,x22,x9
    80003dfc:	00cb7ab3          	and	x21,x22,x12
    80003e00:	00e76933          	or	x18,x14,x14
    80003e04:	0143a7b3          	slt	x15,x7,x20
    80003e08:	01bd3233          	sltu	x4,x26,x27
    80003e0c:	0039b833          	sltu	x16,x19,x3
    80003e10:	011c6533          	or	x10,x24,x17
    80003e14:	017962b3          	or	x5,x18,x23
    80003e18:	016c69b3          	or	x19,x24,x22
    80003e1c:	0005ebb3          	or	x23,x11,x0
    80003e20:	00e7f833          	and	x16,x15,x14
    80003e24:	00a4f033          	and	x0,x9,x10
    80003e28:	41dd843b          	subw	x8,x27,x29
    80003e2c:	40610733          	sub	x14,x2,x6
    80003e30:	015126b3          	slt	x13,x2,x21
    80003e34:	00323db3          	sltu	x27,x4,x3
    80003e38:	01287f33          	and	x30,x16,x18
    80003e3c:	411a0fbb          	subw	x31,x20,x17
    80003e40:	01504233          	xor	x4,x0,x21
    80003e44:	4134063b          	subw	x12,x8,x19
    80003e48:	01cef733          	and	x14,x29,x28
    80003e4c:	012b36b3          	sltu	x13,x22,x18
    80003e50:	0023be33          	sltu	x28,x7,x2
    80003e54:	00b42533          	slt	x10,x8,x11
    80003e58:	01b669b3          	or	x19,x12,x27
    80003e5c:	00cfa133          	slt	x2,x31,x12
    80003e60:	0175a733          	slt	x14,x11,x23
    80003e64:	019bf933          	and	x18,x23,x25
    80003e68:	01ca8b3b          	addw	x22,x21,x28
    80003e6c:	406a8233          	sub	x4,x21,x6
    80003e70:	013e7bb3          	and	x23,x28,x19
    80003e74:	0071f1b3          	and	x3,x3,x7
    80003e78:	00dcefb3          	or	x31,x25,x13
    80003e7c:	014f44b3          	xor	x9,x30,x20
    80003e80:	0087ff33          	and	x30,x15,x8
    80003e84:	01ad3233          	sltu	x4,x26,x26
    80003e88:	002d78b3          	and	x17,x26,x2
    80003e8c:	0076bcb3          	sltu	x25,x13,x7
    80003e90:	017a4c33          	xor	x24,x20,x23
    80003e94:	00942bb3          	slt	x23,x8,x9
    80003e98:	4063003b          	subw	x0,x6,x6
    80003e9c:	013172b3          	and	x5,x2,x19
    80003ea0:	01e177b3          	and	x15,x2,x30
    80003ea4:	00a401b3          	add	x3,x8,x10
    80003ea8:	00cce233          	or	x4,x25,x12
    80003eac:	00093a33          	sltu	x20,x18,x0
    80003eb0:	01b33cb3          	sltu	x25,x6,x27
    80003eb4:	00850b3b          	addw	x22,x10,x8
    80003eb8:	0181e1b3          	or	x3,x3,x24
    80003ebc:	00d126b3          	slt	x13,x2,x13
    80003ec0:	018e4833          	xor	x16,x28,x24
    80003ec4:	01c44433          	xor	x8,x8,x28
    80003ec8:	01a62ab3          	slt	x21,x12,x26
    80003ecc:	013039b3          	sltu	x19,x0,x19
    80003ed0:	00bb3733          	sltu	x14,x22,x11
    80003ed4:	40bc03bb          	subw	x7,x24,x11
    80003ed8:	400587b3          	sub	x15,x11,x0
    80003edc:	00400233          	add	x4,x0,x4
    80003ee0:	00c04cb3          	xor	x25,x0,x12
    80003ee4:	00abc133          	xor	x2,x23,x10
    80003ee8:	01e3be33          	sltu	x28,x7,x30
    80003eec:	01e1ad33          	slt	x26,x3,x30
    80003ef0:	00be8fbb          	addw	x31,x29,x11
    80003ef4:	012ca4b3          	slt	x9,x25,x18
    80003ef8:	00ca873b          	addw	x14,x21,x12
    80003efc:	008ba1b3          	slt	x3,x23,x8
    80003f00:	40810933          	sub	x18,x2,x8
    80003f04:	0102fdb3          	and	x27,x5,x16
    80003f08:	00b78a3b          	addw	x20,x15,x11
    80003f0c:	015b82bb          	addw	x5,x23,x21
    80003f10:	01813b33          	sltu	x22,x2,x24
    80003f14:	41ff8cb3          	sub	x25,x31,x31
    80003f18:	0008ec33          	or	x24,x17,x0
    80003f1c:	40940abb          	subw	x21,x8,x9
    80003f20:	00b17633          	and	x12,x2,x11
    80003f24:	41a68033          	sub	x0,x13,x26
    80003f28:	0089ccb3          	xor	x25,x19,x8
    80003f2c:	009185bb          	addw	x11,x3,x9
    80003f30:	01ae34b3          	sltu	x9,x28,x26
    80003f34:	012aa2b3          	slt	x5,x21,x18
    80003f38:	015c7e33          	and	x28,x24,x21
    80003f3c:	017b063b          	addw	x12,x22,x23
    80003f40:	01d96133          	or	x2,x18,x29
    80003f44:	008908bb          	addw	x17,x18,x8
    80003f48:	005aaf33          	slt	x30,x21,x5
    80003f4c:	014c66b3          	or	x13,x24,x20
    80003f50:	016d073b          	addw	x14,x26,x22
    80003f54:	41a58ebb          	subw	x29,x11,x26
    80003f58:	0131ba33          	sltu	x20,x3,x19
    80003f5c:	00c2b533          	sltu	x10,x5,x12
    80003f60:	01896e33          	or	x28,x18,x24
    80003f64:	0034cbb3          	xor	x23,x9,x3
    80003f68:	0091c633          	xor	x12,x3,x9
    80003f6c:	01103133          	sltu	x2,x0,x17
    80003f70:	40e18f33          	sub	x30,x3,x14
    80003f74:	01deb1b3          	sltu	x3,x29,x29
    80003f78:	414a8d3b          	subw	x26,x21,x20
    80003f7c:	00a97033          	and	x0,x18,x10
    80003f80:	418a0bb3          	sub	x23,x20,x24
    80003f84:	00e684b3          	add	x9,x13,x14
    80003f88:	0069cdb3          	xor	x27,x19,x6
    80003f8c:	41118fbb          	subw	x31,x3,x17
    80003f90:	41580a33          	sub	x20,x16,x21
    80003f94:	01a3013b          	addw	x2,x6,x26
    80003f98:	008973b3          	and	x7,x18,x8
    80003f9c:	0067ebb3          	or	x23,x15,x6
    80003fa0:	011c66b3          	or	x13,x24,x17
    80003fa4:	01178433          	add	x8,x15,x17
    80003fa8:	41620d33          	sub	x26,x4,x22
    80003fac:	4148873b          	subw	x14,x17,x20
    80003fb0:	0187823b          	addw	x4,x15,x24
    80003fb4:	01f90eb3          	add	x29,x18,x31
    80003fb8:	013b85bb          	addw	x11,x23,x19
    80003fbc:	01964fb3          	xor	x31,x12,x25
    80003fc0:	41a28833          	sub	x16,x5,x26
    80003fc4:	01eab1b3          	sltu	x3,x21,x30
    80003fc8:	01acc2b3          	xor	x5,x25,x26
    80003fcc:	00ac6433          	or	x8,x24,x10
    80003fd0:	41c686bb          	subw	x13,x13,x28
    80003fd4:	00a109b3          	add	x19,x2,x10
    80003fd8:	00302933          	slt	x18,x0,x3
    80003fdc:	01774ab3          	xor	x21,x14,x23
    80003fe0:	40648fbb          	subw	x31,x9,x6
    80003fe4:	00be3133          	sltu	x2,x28,x11
    80003fe8:	01c305bb          	addw	x11,x6,x28
    80003fec:	0193fe33          	and	x28,x7,x25
    80003ff0:	01a73cb3          	sltu	x25,x14,x26
    80003ff4:	012bc4b3          	xor	x9,x23,x18
    80003ff8:	01b308b3          	add	x17,x6,x27
    80003ffc:	00077eb3          	and	x29,x14,x0
    80004000:	0037bd33          	sltu	x26,x15,x3
    80004004:	00374c33          	xor	x24,x14,x3
    80004008:	40eb03b3          	sub	x7,x22,x14
    8000400c:	00abf2b3          	and	x5,x23,x10
    80004010:	01fe2e33          	slt	x28,x28,x31
    80004014:	01e4c7b3          	xor	x15,x9,x30
    80004018:	014c7833          	and	x16,x24,x20
    8000401c:	003fe033          	or	x0,x31,x3
    80004020:	00e426b3          	slt	x13,x8,x14
    80004024:	40e201bb          	subw	x3,x4,x14
    80004028:	009ab4b3          	sltu	x9,x21,x9
    8000402c:	014589bb          	addw	x19,x11,x20
    80004030:	41978433          	sub	x8,x15,x25
    80004034:	00b9083b          	addw	x16,x18,x11
    80004038:	0152beb3          	sltu	x29,x5,x21
    8000403c:	40f70cb3          	sub	x25,x14,x15
    80004040:	0116fb33          	and	x22,x13,x17
    80004044:	009439b3          	sltu	x19,x8,x9
    80004048:	01e3863b          	addw	x12,x7,x30
    8000404c:	405b86b3          	sub	x13,x23,x5
    80004050:	404384b3          	sub	x9,x7,x4
    80004054:	00fa88b3          	add	x17,x21,x15
    80004058:	406a833b          	subw	x6,x21,x6
    8000405c:	00a07eb3          	and	x29,x0,x10
    80004060:	00f039b3          	sltu	x19,x0,x15
    80004064:	40948ab3          	sub	x21,x9,x9
    80004068:	410d8dbb          	subw	x27,x27,x16
    8000406c:	00566333          	or	x6,x12,x5
    80004070:	00e3c633          	xor	x12,x7,x14
    80004074:	01e73733          	sltu	x14,x14,x30
    80004078:	0123883b          	addw	x16,x7,x18
    8000407c:	41cd82bb          	subw	x5,x27,x28
    80004080:	007ca6b3          	slt	x13,x25,x7
    80004084:	01310eb3          	add	x29,x2,x19
    80004088:	000274b3          	and	x9,x4,x0
    8000408c:	00a9afb3          	slt	x31,x19,x10
    80004090:	0192eb33          	or	x22,x5,x25
    80004094:	0195ec33          	or	x24,x11,x25
    80004098:	00273133          	sltu	x2,x14,x2
    8000409c:	01793bb3          	sltu	x23,x18,x23
    800040a0:	00fdaeb3          	slt	x29,x27,x15
    800040a4:	01e26d33          	or	x26,x4,x30
    800040a8:	00960abb          	addw	x21,x12,x9
    800040ac:	00ffe933          	or	x18,x31,x15
    800040b0:	40610233          	sub	x4,x2,x6
    800040b4:	01363a33          	sltu	x20,x12,x19
    800040b8:	010ea7b3          	slt	x15,x29,x16
    800040bc:	01f5c1b3          	xor	x3,x11,x31
    800040c0:	00797db3          	and	x27,x18,x7
    800040c4:	01733fb3          	sltu	x31,x6,x23
    800040c8:	01458c3b          	addw	x24,x11,x20
    800040cc:	40c8893b          	subw	x18,x17,x12
    800040d0:	0149ae33          	slt	x28,x19,x20
    800040d4:	00f32f33          	slt	x30,x6,x15
    800040d8:	404f8a3b          	subw	x20,x31,x4
    800040dc:	41f28b3b          	subw	x22,x5,x31
    800040e0:	007b83b3          	add	x7,x23,x7
    800040e4:	019fc4b3          	xor	x9,x31,x25
    800040e8:	0138beb3          	sltu	x29,x17,x19
    800040ec:	00ae033b          	addw	x6,x28,x10
    800040f0:	40e80cbb          	subw	x25,x16,x14
    800040f4:	016869b3          	or	x19,x16,x22
    800040f8:	40a68433          	sub	x8,x13,x10
    800040fc:	01b7beb3          	sltu	x29,x15,x27
    80004100:	011103b3          	add	x7,x2,x17
    80004104:	0187063b          	addw	x12,x14,x24
    80004108:	0115c8b3          	xor	x17,x11,x17
    8000410c:	01033333          	sltu	x6,x6,x16
    80004110:	00ad09b3          	add	x19,x26,x10
    80004114:	01ac7eb3          	and	x29,x24,x26
    80004118:	01f472b3          	and	x5,x8,x31
    8000411c:	403487b3          	sub	x15,x9,x3
    80004120:	41b50c3b          	subw	x24,x10,x27
    80004124:	01fa65b3          	or	x11,x20,x31
    80004128:	0003b833          	sltu	x16,x7,x0
    8000412c:	011b2a33          	slt	x20,x22,x17
    80004130:	41a308b3          	sub	x17,x6,x26
    80004134:	00f2bab3          	sltu	x21,x5,x15
    80004138:	41600f3b          	subw	x30,x0,x22
    8000413c:	00b50fb3          	add	x31,x10,x11
    80004140:	00bd0bbb          	addw	x23,x26,x11
    80004144:	40c48433          	sub	x8,x9,x12
    80004148:	01637333          	and	x6,x6,x22
    8000414c:	01cf62b3          	or	x5,x30,x28
    80004150:	013d7cb3          	and	x25,x26,x19
    80004154:	4023893b          	subw	x18,x7,x2
    80004158:	0046813b          	addw	x2,x13,x4
    8000415c:	01feebb3          	or	x23,x29,x31
    80004160:	01d58333          	add	x6,x11,x29
    80004164:	018a0533          	add	x10,x20,x24
    80004168:	01928d33          	add	x26,x5,x25
    8000416c:	000f03b3          	add	x7,x30,x0
    80004170:	00542bb3          	slt	x23,x8,x5
    80004174:	00e47633          	and	x12,x8,x14
    80004178:	00eb3233          	sltu	x4,x22,x14
    8000417c:	003c0733          	add	x14,x24,x3
    80004180:	00a586b3          	add	x13,x11,x10
    80004184:	0153a3b3          	slt	x7,x7,x21
    80004188:	01c9ffb3          	and	x31,x19,x28
    8000418c:	40f901b3          	sub	x3,x18,x15
    80004190:	00e67333          	and	x6,x12,x14
    80004194:	40ff06b3          	sub	x13,x30,x15
    80004198:	0081083b          	addw	x16,x2,x8
    8000419c:	0028cbb3          	xor	x23,x17,x2
    800041a0:	01117fb3          	and	x31,x2,x17
    800041a4:	009783bb          	addw	x7,x15,x9
    800041a8:	01c8e333          	or	x6,x17,x28
    800041ac:	002866b3          	or	x13,x16,x2
    800041b0:	01388533          	add	x10,x17,x19
    800041b4:	00bce7b3          	or	x15,x25,x11
    800041b8:	00be8dbb          	addw	x27,x29,x11
    800041bc:	0055f833          	and	x16,x11,x5
    800041c0:	41ae8ab3          	sub	x21,x29,x26
    800041c4:	40a6803b          	subw	x0,x13,x10
    800041c8:	004cb2b3          	sltu	x5,x25,x4
    800041cc:	00853bb3          	sltu	x23,x10,x8
    800041d0:	00ec0dbb          	addw	x27,x24,x14
    800041d4:	01c88833          	add	x16,x17,x28
    800041d8:	41138cb3          	sub	x25,x7,x17
    800041dc:	01640fb3          	add	x31,x8,x22
    800041e0:	00693433          	sltu	x8,x18,x6
    800041e4:	01a1a6b3          	slt	x13,x3,x26
    800041e8:	006c7b33          	and	x22,x24,x6
    800041ec:	01522cb3          	slt	x25,x4,x21
    800041f0:	414a0e33          	sub	x28,x20,x20
    800041f4:	01bdb833          	sltu	x16,x27,x27
    800041f8:	01afc933          	xor	x18,x31,x26
    800041fc:	01398ebb          	addw	x29,x19,x19
    80004200:	00da0abb          	addw	x21,x20,x13
    80004204:	40c28fb3          	sub	x31,x5,x12
    80004208:	00f72433          	slt	x8,x14,x15
    8000420c:	01acb133          	sltu	x2,x25,x26
    80004210:	010c03b3          	add	x7,x24,x16
    80004214:	016eca33          	xor	x20,x29,x22
    80004218:	410d84bb          	subw	x9,x27,x16
    8000421c:	40658633          	sub	x12,x11,x6
    80004220:	00696db3          	or	x27,x18,x6
    80004224:	00242cb3          	slt	x25,x8,x2
    80004228:	00a16bb3          	or	x23,x2,x10
    8000422c:	00d109b3          	add	x19,x2,x13
    80004230:	01fc33b3          	sltu	x7,x24,x31
    80004234:	01b42933          	slt	x18,x8,x27
    80004238:	40b68fb3          	sub	x31,x13,x11
    8000423c:	004364b3          	or	x9,x6,x4
    80004240:	416e873b          	subw	x14,x29,x22
    80004244:	00bf25b3          	slt	x11,x30,x11
    80004248:	01b14eb3          	xor	x29,x2,x27
    8000424c:	003b8ab3          	add	x21,x23,x3
    80004250:	419886bb          	subw	x13,x17,x25
    80004254:	00f50833          	add	x16,x10,x15
    80004258:	0028c3b3          	xor	x7,x17,x2
    8000425c:	41928db3          	sub	x27,x5,x25
    80004260:	0169b5b3          	sltu	x11,x19,x22
    80004264:	0036093b          	addw	x18,x12,x3
    80004268:	01aeeb33          	or	x22,x29,x26
    8000426c:	00efb733          	sltu	x14,x31,x14
    80004270:	00fd04bb          	addw	x9,x26,x15
    80004274:	00f8c833          	xor	x16,x17,x15
    80004278:	00bd7433          	and	x8,x26,x11
    8000427c:	00616db3          	or	x27,x2,x6
    80004280:	01578733          	add	x14,x15,x21
    80004284:	0153cc33          	xor	x24,x7,x21
    80004288:	404003bb          	subw	x7,x0,x4
    8000428c:	408d0d33          	sub	x26,x26,x8
    80004290:	40a80133          	sub	x2,x16,x10
    80004294:	006ec333          	xor	x6,x29,x6
    80004298:	0179e7b3          	or	x15,x19,x23
    8000429c:	01273933          	sltu	x18,x14,x18
    800042a0:	00cd03bb          	addw	x7,x26,x12
    800042a4:	01dae733          	or	x14,x21,x29
    800042a8:	008a0cb3          	add	x25,x20,x8
    800042ac:	0047cbb3          	xor	x23,x15,x4
    800042b0:	01eb3133          	sltu	x2,x22,x30
    800042b4:	40c582b3          	sub	x5,x11,x12
    800042b8:	004a3733          	sltu	x14,x20,x4
    800042bc:	408c033b          	subw	x6,x24,x8
    800042c0:	00a63a33          	sltu	x20,x12,x10
    800042c4:	004e0c3b          	addw	x24,x28,x4
    800042c8:	404f013b          	subw	x2,x30,x4
    800042cc:	017dadb3          	slt	x27,x27,x23
    800042d0:	01eeabb3          	slt	x23,x29,x30
    800042d4:	00a247b3          	xor	x15,x4,x10
    800042d8:	00c3f033          	and	x0,x7,x12
    800042dc:	00a63eb3          	sltu	x29,x12,x10
    800042e0:	011b2433          	slt	x8,x22,x17
    800042e4:	004269b3          	or	x19,x4,x4
    800042e8:	01ae7533          	and	x10,x28,x26
    800042ec:	00972f33          	slt	x30,x14,x9
    800042f0:	41268bb3          	sub	x23,x13,x18
    800042f4:	019a4633          	xor	x12,x20,x25
    800042f8:	00d2e933          	or	x18,x5,x13
    800042fc:	00726c33          	or	x24,x4,x7
    80004300:	4112883b          	subw	x16,x5,x17
    80004304:	00007db3          	and	x27,x0,x0
    80004308:	01d462b3          	or	x5,x8,x29
    8000430c:	01f48cbb          	addw	x25,x9,x31
    80004310:	00b8ebb3          	or	x23,x17,x11
    80004314:	00fea933          	slt	x18,x29,x15
    80004318:	00e4e5b3          	or	x11,x9,x14
    8000431c:	403e8333          	sub	x6,x29,x3
    80004320:	41e186bb          	subw	x13,x3,x30
    80004324:	00500db3          	add	x27,x0,x5
    80004328:	41e8863b          	subw	x12,x17,x30
    8000432c:	00496a33          	or	x20,x18,x4
    80004330:	415c0fb3          	sub	x31,x24,x21
    80004334:	0086c233          	xor	x4,x13,x8
    80004338:	01947733          	and	x14,x8,x25
    8000433c:	01c387b3          	add	x15,x7,x28
    80004340:	007d7933          	and	x18,x26,x7
    80004344:	40350cbb          	subw	x25,x10,x3
    80004348:	01f2f2b3          	and	x5,x5,x31
    8000434c:	00274f33          	xor	x30,x14,x2
    80004350:	41ca85bb          	subw	x11,x21,x28
    80004354:	414687b3          	sub	x15,x13,x20
    80004358:	00c03eb3          	sltu	x29,x0,x12
    8000435c:	013dc133          	xor	x2,x27,x19
    80004360:	00ee0ab3          	add	x21,x28,x14
    80004364:	01297b33          	and	x22,x18,x18
    80004368:	00b90233          	add	x4,x18,x11
    8000436c:	003bbc33          	sltu	x24,x23,x3
    80004370:	007878b3          	and	x17,x16,x7
    80004374:	01e96033          	or	x0,x18,x30
    80004378:	01a68f33          	add	x30,x13,x26
    8000437c:	0052a333          	slt	x6,x5,x5
    80004380:	010c4fb3          	xor	x31,x24,x16
    80004384:	010841b3          	xor	x3,x16,x16
    80004388:	00e46bb3          	or	x23,x8,x14
    8000438c:	002c4233          	xor	x4,x24,x2
    80004390:	0163cb33          	xor	x22,x7,x22
    80004394:	01da7533          	and	x10,x20,x29
    80004398:	0085ceb3          	xor	x29,x11,x8
    8000439c:	00580033          	add	x0,x16,x5
    800043a0:	008436b3          	sltu	x13,x8,x8
    800043a4:	00c10ab3          	add	x21,x2,x12
    800043a8:	40eb0633          	sub	x12,x22,x14
    800043ac:	40e40f33          	sub	x30,x8,x14
    800043b0:	0094b433          	sltu	x8,x9,x9
    800043b4:	00088d3b          	addw	x26,x17,x0
    800043b8:	00e735b3          	sltu	x11,x14,x14
    800043bc:	01c134b3          	sltu	x9,x2,x28
    800043c0:	41cd8fbb          	subw	x31,x27,x28
    800043c4:	01c602b3          	add	x5,x12,x28
    800043c8:	01d02db3          	slt	x27,x0,x29
    800043cc:	0041fa33          	and	x20,x3,x4
    800043d0:	002168b3          	or	x17,x2,x2
    800043d4:	40f6043b          	subw	x8,x12,x15
    800043d8:	01fc2733          	slt	x14,x24,x31
    800043dc:	41628933          	sub	x18,x5,x22
    800043e0:	00023b33          	sltu	x22,x4,x0
    800043e4:	000cb533          	sltu	x10,x25,x0
    800043e8:	00d22e33          	slt	x28,x4,x13
    800043ec:	40228cb3          	sub	x25,x5,x2
    800043f0:	00336133          	or	x2,x6,x3
    800043f4:	018ab933          	sltu	x18,x21,x24
    800043f8:	407f083b          	subw	x16,x30,x7
    800043fc:	008b0a3b          	addw	x20,x22,x8
    80004400:	01d8e8b3          	or	x17,x17,x29
    80004404:	000033b3          	sltu	x7,x0,x0
    80004408:	019f3f33          	sltu	x30,x30,x25
    8000440c:	000704b3          	add	x9,x14,x0
    80004410:	006d4133          	xor	x2,x26,x6
    80004414:	00b7fdb3          	and	x27,x15,x11
    80004418:	01c68933          	add	x18,x13,x28
    8000441c:	01fbab33          	slt	x22,x23,x31
    80004420:	00ce69b3          	or	x19,x28,x12
    80004424:	005604bb          	addw	x9,x12,x5
    80004428:	40280033          	sub	x0,x16,x2
    8000442c:	01a28e3b          	addw	x28,x5,x26
    80004430:	0173e333          	or	x6,x7,x23
    80004434:	41e28ab3          	sub	x21,x5,x30
    80004438:	0163863b          	addw	x12,x7,x22
    8000443c:	01f57d33          	and	x26,x10,x31
    80004440:	01e78733          	add	x14,x15,x30
    80004444:	0062a5b3          	slt	x11,x5,x6
    80004448:	0112ba33          	sltu	x20,x5,x17
    8000444c:	0151e433          	or	x8,x3,x21
    80004450:	01aac9b3          	xor	x19,x21,x26
    80004454:	018371b3          	and	x3,x6,x24
    80004458:	01260333          	add	x6,x12,x18
    8000445c:	01af64b3          	or	x9,x30,x26
    80004460:	002a8fbb          	addw	x31,x21,x2
    80004464:	0158eab3          	or	x21,x17,x21
    80004468:	01ad2033          	slt	x0,x26,x26
    8000446c:	018d0cb3          	add	x25,x26,x24
    80004470:	402184b3          	sub	x9,x3,x2
    80004474:	01ff843b          	addw	x8,x31,x31
    80004478:	00398db3          	add	x27,x19,x3
    8000447c:	00ae3d33          	sltu	x26,x28,x10
    80004480:	005ffe33          	and	x28,x31,x5
    80004484:	010485bb          	addw	x11,x9,x16
    80004488:	014a0033          	add	x0,x20,x20
    8000448c:	00f6f8b3          	and	x17,x13,x15
    80004490:	403506bb          	subw	x13,x10,x3
    80004494:	40ee8133          	sub	x2,x29,x14
    80004498:	0089acb3          	slt	x25,x19,x8
    8000449c:	006262b3          	or	x5,x4,x6
    800044a0:	000df8b3          	and	x17,x27,x0
    800044a4:	40b98a33          	sub	x20,x19,x11
    800044a8:	017b3f33          	sltu	x30,x22,x23
    800044ac:	004df4b3          	and	x9,x27,x4
    800044b0:	005c4cb3          	xor	x25,x24,x5
    800044b4:	01620333          	add	x6,x4,x22
    800044b8:	417b8eb3          	sub	x29,x23,x23
    800044bc:	00cfbf33          	sltu	x30,x31,x12
    800044c0:	00ee3833          	sltu	x16,x28,x14
    800044c4:	015482b3          	add	x5,x9,x21
    800044c8:	01f96e33          	or	x28,x18,x31
    800044cc:	41da8b3b          	subw	x22,x21,x29
    800044d0:	4154853b          	subw	x10,x9,x21
    800044d4:	01dc3033          	sltu	x0,x24,x29
    800044d8:	418307bb          	subw	x15,x6,x24
    800044dc:	004482bb          	addw	x5,x9,x4
    800044e0:	012ee833          	or	x16,x29,x18
    800044e4:	00644cb3          	xor	x25,x8,x6
    800044e8:	40c109b3          	sub	x19,x2,x12
    800044ec:	40e18933          	sub	x18,x3,x14
    800044f0:	008db233          	sltu	x4,x27,x8
    800044f4:	414a86b3          	sub	x13,x21,x20
    800044f8:	01a87cb3          	and	x25,x16,x26
    800044fc:	01edf533          	and	x10,x27,x30
    80004500:	00e8c133          	xor	x2,x17,x14
    80004504:	40eb0733          	sub	x14,x22,x14
    80004508:	4072043b          	subw	x8,x4,x7
    8000450c:	018b03bb          	addw	x7,x22,x24
    80004510:	00478f33          	add	x30,x15,x4
    80004514:	41ad0dbb          	subw	x27,x26,x26
    80004518:	000c3a33          	sltu	x20,x24,x0
    8000451c:	405b8bbb          	subw	x23,x23,x5
    80004520:	01c23e33          	sltu	x28,x4,x28
    80004524:	00cc23b3          	slt	x7,x24,x12
    80004528:	011df033          	and	x0,x27,x17
    8000452c:	40f101bb          	subw	x3,x2,x15
    80004530:	014605b3          	add	x11,x12,x20
    80004534:	00e9feb3          	and	x29,x19,x14
    80004538:	411c04b3          	sub	x9,x24,x17
    8000453c:	41ad8933          	sub	x18,x27,x26
    80004540:	00a8833b          	addw	x6,x17,x10
    80004544:	413e06b3          	sub	x13,x28,x19
    80004548:	01653eb3          	sltu	x29,x10,x22
    8000454c:	408d0533          	sub	x10,x26,x8
    80004550:	402009b3          	sub	x19,x0,x2
    80004554:	01b3ff33          	and	x30,x7,x27
    80004558:	41158733          	sub	x14,x11,x17
    8000455c:	41c58ab3          	sub	x21,x11,x28
    80004560:	004145b3          	xor	x11,x2,x4
    80004564:	01738933          	add	x18,x7,x23
    80004568:	0004083b          	addw	x16,x8,x0
    8000456c:	01c9e433          	or	x8,x19,x28
    80004570:	00deaeb3          	slt	x29,x29,x13
    80004574:	006b3e33          	sltu	x28,x22,x6
    80004578:	002904bb          	addw	x9,x18,x2
    8000457c:	01ff0cbb          	addw	x25,x30,x31
    80004580:	01bb0fb3          	add	x31,x22,x27
    80004584:	00cd8db3          	add	x27,x27,x12
    80004588:	01788d33          	add	x26,x17,x23
    8000458c:	00ebb933          	sltu	x18,x23,x14
    80004590:	01c538b3          	sltu	x17,x10,x28
    80004594:	003a01b3          	add	x3,x20,x3
    80004598:	40aa003b          	subw	x0,x20,x10
    8000459c:	00450133          	add	x2,x10,x4
    800045a0:	019c823b          	addw	x4,x25,x25
    800045a4:	01ac7a33          	and	x20,x24,x26
    800045a8:	403c063b          	subw	x12,x24,x3
    800045ac:	0115ae33          	slt	x28,x11,x17
    800045b0:	00f93933          	sltu	x18,x18,x15
    800045b4:	407a89bb          	subw	x19,x21,x7
    800045b8:	00d6f8b3          	and	x17,x13,x13
    800045bc:	00cb4cb3          	xor	x25,x22,x12
    800045c0:	01626133          	or	x2,x4,x22
    800045c4:	00d306b3          	add	x13,x6,x13
    800045c8:	01cabe33          	sltu	x28,x21,x28
    800045cc:	017d77b3          	and	x15,x26,x23
    800045d0:	0009a933          	slt	x18,x19,x0
    800045d4:	01f23d33          	sltu	x26,x4,x31
    800045d8:	41bf003b          	subw	x0,x30,x27
    800045dc:	00c5b6b3          	sltu	x13,x11,x12
    800045e0:	41b181bb          	subw	x3,x3,x27
    800045e4:	00b3ff33          	and	x30,x7,x11
    800045e8:	00972fb3          	slt	x31,x14,x9
    800045ec:	002aeab3          	or	x21,x21,x2
    800045f0:	012e09b3          	add	x19,x28,x18
    800045f4:	00593633          	sltu	x12,x18,x5
    800045f8:	00feb833          	sltu	x16,x29,x15
    800045fc:	01aa3b33          	sltu	x22,x20,x26
    80004600:	018762b3          	or	x5,x14,x24
    80004604:	40900dbb          	subw	x27,x0,x9
    80004608:	413e803b          	subw	x0,x29,x19
    8000460c:	01c56eb3          	or	x29,x10,x28
    80004610:	00690d3b          	addw	x26,x18,x6
    80004614:	00793ab3          	sltu	x21,x18,x7
    80004618:	011bb533          	sltu	x10,x23,x17
    8000461c:	00f5a633          	slt	x12,x11,x15
    80004620:	016d82bb          	addw	x5,x27,x22
    80004624:	00472733          	slt	x14,x14,x4
    80004628:	00632e33          	slt	x28,x6,x6
    8000462c:	00bd7bb3          	and	x23,x26,x11
    80004630:	41ed83bb          	subw	x7,x27,x30
    80004634:	01f86433          	or	x8,x16,x31
    80004638:	005e8dbb          	addw	x27,x29,x5
    8000463c:	016a0033          	add	x0,x20,x22
    80004640:	01010d33          	add	x26,x2,x16
    80004644:	01eeb833          	sltu	x16,x29,x30
    80004648:	013fe8b3          	or	x17,x31,x19
    8000464c:	40f10eb3          	sub	x29,x2,x15
    80004650:	01c647b3          	xor	x15,x12,x28
    80004654:	01253a33          	sltu	x20,x10,x18
    80004658:	000bf733          	and	x14,x23,x0
    8000465c:	405905b3          	sub	x11,x18,x5
    80004660:	413f8ebb          	subw	x29,x31,x19
    80004664:	41ac8233          	sub	x4,x25,x26
    80004668:	014062b3          	or	x5,x0,x20
    8000466c:	41f303b3          	sub	x7,x6,x31
    80004670:	006305b3          	add	x11,x6,x6
    80004674:	40a18433          	sub	x8,x3,x10
    80004678:	01ec3733          	sltu	x14,x24,x30
    8000467c:	01832bb3          	slt	x23,x6,x24
    80004680:	0003f333          	and	x6,x7,x0
    80004684:	01ab0dbb          	addw	x27,x22,x26
    80004688:	0036e8b3          	or	x17,x13,x3
    8000468c:	0026a833          	slt	x16,x13,x2
    80004690:	0081b433          	sltu	x8,x3,x8
    80004694:	006eae33          	slt	x28,x29,x6
    80004698:	41490d33          	sub	x26,x18,x20
    8000469c:	00400c33          	add	x24,x0,x4
    800046a0:	000761b3          	or	x3,x14,x0
    800046a4:	00bbc6b3          	xor	x13,x23,x11
    800046a8:	00c2e133          	or	x2,x5,x12
    800046ac:	0165e4b3          	or	x9,x11,x22
    800046b0:	410d8c3b          	subw	x24,x27,x16
    800046b4:	00553533          	sltu	x10,x10,x5
    800046b8:	00d33f33          	sltu	x30,x6,x13
    800046bc:	01b72733          	slt	x14,x14,x27
    800046c0:	0196a433          	slt	x8,x13,x25
    800046c4:	017e083b          	addw	x16,x28,x23
    800046c8:	01a28db3          	add	x27,x5,x26
    800046cc:	412d0c3b          	subw	x24,x26,x18
    800046d0:	0035893b          	addw	x18,x11,x3
    800046d4:	00cbb233          	sltu	x4,x23,x12
    800046d8:	016e4a33          	xor	x20,x28,x22
    800046dc:	00f68eb3          	add	x29,x13,x15
    800046e0:	009d033b          	addw	x6,x26,x9
    800046e4:	012a8b33          	add	x22,x21,x18
    800046e8:	00fbcd33          	xor	x26,x23,x15
    800046ec:	00aa6933          	or	x18,x20,x10
    800046f0:	017cc133          	xor	x2,x25,x23
    800046f4:	0038b8b3          	sltu	x17,x17,x3
    800046f8:	40fa833b          	subw	x6,x21,x15
    800046fc:	404001b3          	sub	x3,x0,x4
    80004700:	01746e33          	or	x28,x8,x23
    80004704:	00b6bd33          	sltu	x26,x13,x11
    80004708:	007c2db3          	slt	x27,x24,x7
    8000470c:	01ec7633          	and	x12,x24,x30
    80004710:	01f483bb          	addw	x7,x9,x31
    80004714:	00f101bb          	addw	x3,x2,x15
    80004718:	0129bab3          	sltu	x21,x19,x18
    8000471c:	01326c33          	or	x24,x4,x19
    80004720:	41158d33          	sub	x26,x11,x17
    80004724:	01db6f33          	or	x30,x22,x29
    80004728:	41f6093b          	subw	x18,x12,x31
    8000472c:	413b8a3b          	subw	x20,x23,x19
    80004730:	00b27133          	and	x2,x4,x11
    80004734:	007cc9b3          	xor	x19,x25,x7
    80004738:	00948233          	add	x4,x9,x9
    8000473c:	01cb3db3          	sltu	x27,x22,x28
    80004740:	01493933          	sltu	x18,x18,x20
    80004744:	40c286b3          	sub	x13,x5,x12
    80004748:	0031e8b3          	or	x17,x3,x3
    8000474c:	41998c33          	sub	x24,x19,x25
    80004750:	01d549b3          	xor	x19,x10,x29
    80004754:	40580f33          	sub	x30,x16,x5
    80004758:	005934b3          	sltu	x9,x18,x5
    8000475c:	003defb3          	or	x31,x27,x3
    80004760:	00b10bb3          	add	x23,x2,x11
    80004764:	0088fd33          	and	x26,x17,x8
    80004768:	007aa933          	slt	x18,x21,x7
    8000476c:	00768dbb          	addw	x27,x13,x7
    80004770:	41588fbb          	subw	x31,x17,x21
    80004774:	008a41b3          	xor	x3,x20,x8
    80004778:	40b405bb          	subw	x11,x8,x11
    8000477c:	00e543b3          	xor	x7,x10,x14
    80004780:	41978333          	sub	x6,x15,x25
    80004784:	01e2b933          	sltu	x18,x5,x30
    80004788:	008867b3          	or	x15,x16,x8
    8000478c:	0185c833          	xor	x16,x11,x24
    80004790:	01c6c133          	xor	x2,x13,x28
    80004794:	00ca0533          	add	x10,x20,x12
    80004798:	008c4db3          	xor	x27,x24,x8
    8000479c:	40818d33          	sub	x26,x3,x8
    800047a0:	00eb0933          	add	x18,x22,x14
    800047a4:	403188bb          	subw	x17,x3,x3
    800047a8:	41cf0cb3          	sub	x25,x30,x28
    800047ac:	00e46233          	or	x4,x8,x14
    800047b0:	01c46f33          	or	x30,x8,x28
    800047b4:	00902433          	slt	x8,x0,x9
    800047b8:	0077c033          	xor	x0,x15,x7
    800047bc:	01178ab3          	add	x21,x15,x17
    800047c0:	41980733          	sub	x14,x16,x25
    800047c4:	01f888b3          	add	x17,x17,x31
    800047c8:	00cf863b          	addw	x12,x31,x12
    800047cc:	410686bb          	subw	x13,x13,x16
    800047d0:	015d023b          	addw	x4,x26,x21
    800047d4:	0182bb33          	sltu	x22,x5,x24
    800047d8:	003cb8b3          	sltu	x17,x25,x3
    800047dc:	0035e2b3          	or	x5,x11,x3
    800047e0:	0124f5b3          	and	x11,x9,x18
    800047e4:	01704533          	xor	x10,x0,x23
    800047e8:	0196af33          	slt	x30,x13,x25
    800047ec:	004e3db3          	sltu	x27,x28,x4
    800047f0:	40360c33          	sub	x24,x12,x3
    800047f4:	01a464b3          	or	x9,x8,x26
    800047f8:	00bb0a3b          	addw	x20,x22,x11
    800047fc:	01ed6ab3          	or	x21,x26,x30
    80004800:	419f8933          	sub	x18,x31,x25
    80004804:	00d8b833          	sltu	x16,x17,x13
    80004808:	00efcfb3          	xor	x31,x31,x14
    8000480c:	419706b3          	sub	x13,x14,x25
    80004810:	408e0133          	sub	x2,x28,x8
    80004814:	015f2633          	slt	x12,x30,x21
    80004818:	01adf833          	and	x16,x27,x26
    8000481c:	01f02033          	slt	x0,x0,x31
    80004820:	00e78533          	add	x10,x15,x14
    80004824:	01336d33          	or	x26,x6,x19
    80004828:	01d12e33          	slt	x28,x2,x29
    8000482c:	01f5bf33          	sltu	x30,x11,x31
    80004830:	00bf8033          	add	x0,x31,x11
    80004834:	004fb333          	sltu	x6,x31,x4
    80004838:	41fa0bbb          	subw	x23,x20,x31
    8000483c:	409786bb          	subw	x13,x15,x9
    80004840:	019265b3          	or	x11,x4,x25
    80004844:	007ef8b3          	and	x17,x29,x7
    80004848:	01db4333          	xor	x6,x22,x29
    8000484c:	01afc533          	xor	x10,x31,x26
    80004850:	01d77e33          	and	x28,x14,x29
    80004854:	4043863b          	subw	x12,x7,x4
    80004858:	0054093b          	addw	x18,x8,x5
    8000485c:	015f29b3          	slt	x19,x30,x21
    80004860:	00356c33          	or	x24,x10,x3
    80004864:	00bd85b3          	add	x11,x27,x11
    80004868:	01b36033          	or	x0,x6,x27
    8000486c:	00dcae33          	slt	x28,x25,x13
    80004870:	00e4b8b3          	sltu	x17,x9,x14
    80004874:	41728633          	sub	x12,x5,x23
    80004878:	01f372b3          	and	x5,x6,x31
    8000487c:	016dbbb3          	sltu	x23,x27,x22
    80004880:	013389b3          	add	x19,x7,x19
    80004884:	0193a4b3          	slt	x9,x7,x25
    80004888:	007c6f33          	or	x30,x24,x7
    8000488c:	41ca803b          	subw	x0,x21,x28
    80004890:	01cd4cb3          	xor	x25,x26,x28
    80004894:	00e7e8b3          	or	x17,x15,x14
    80004898:	0159a233          	slt	x4,x19,x21
    8000489c:	009336b3          	sltu	x13,x6,x9
    800048a0:	01c022b3          	slt	x5,x0,x28
    800048a4:	0143a033          	slt	x0,x7,x20
    800048a8:	01246333          	or	x6,x8,x18
    800048ac:	0124b133          	sltu	x2,x9,x18
    800048b0:	01ac083b          	addw	x16,x24,x26
    800048b4:	01d20e3b          	addw	x28,x4,x29
    800048b8:	0075edb3          	or	x27,x11,x7
    800048bc:	00b5f3b3          	and	x7,x11,x11
    800048c0:	000029b3          	slt	x19,x0,x0
    800048c4:	015c07bb          	addw	x15,x24,x21
    800048c8:	00c40bb3          	add	x23,x8,x12
    800048cc:	014e6633          	or	x12,x28,x20
    800048d0:	0161b4b3          	sltu	x9,x3,x22
    800048d4:	414682b3          	sub	x5,x13,x20
    800048d8:	006b47b3          	xor	x15,x22,x6
    800048dc:	00ec05b3          	add	x11,x24,x14
    800048e0:	00330f3b          	addw	x30,x6,x3
    800048e4:	0026023b          	addw	x4,x12,x2
    800048e8:	413c0a33          	sub	x20,x24,x19
    800048ec:	016b0733          	add	x14,x22,x22
    800048f0:	40af8e33          	sub	x28,x31,x10
    800048f4:	416b06bb          	subw	x13,x22,x22
    800048f8:	005c4233          	xor	x4,x24,x5
    800048fc:	01eef533          	and	x10,x29,x30
    80004900:	00fe8c33          	add	x24,x29,x15
    80004904:	01aa89bb          	addw	x19,x21,x26
    80004908:	00938a3b          	addw	x20,x7,x9
    8000490c:	01d6a3b3          	slt	x7,x13,x29
    80004910:	003201b3          	add	x3,x4,x3
    80004914:	40af0b3b          	subw	x22,x30,x10
    80004918:	0127a233          	slt	x4,x15,x18
    8000491c:	018e6033          	or	x0,x28,x24
    80004920:	41fa04bb          	subw	x9,x20,x31
    80004924:	00ee8f3b          	addw	x30,x29,x14
    80004928:	0036ed33          	or	x26,x13,x3
    8000492c:	403906b3          	sub	x13,x18,x3
    80004930:	01d1c533          	xor	x10,x3,x29
    80004934:	40590e3b          	subw	x28,x18,x5
    80004938:	0142f7b3          	and	x15,x5,x20
    8000493c:	00930fb3          	add	x31,x6,x9
    80004940:	01dd4db3          	xor	x27,x26,x29
    80004944:	41a4003b          	subw	x0,x8,x26
    80004948:	00322ab3          	slt	x21,x4,x3
    8000494c:	01d3ea33          	or	x20,x7,x29
    80004950:	0076b9b3          	sltu	x19,x13,x7
    80004954:	011fe133          	or	x2,x31,x17
    80004958:	010c3f33          	sltu	x30,x24,x16
    8000495c:	00db36b3          	sltu	x13,x22,x13
    80004960:	01282233          	slt	x4,x16,x18
    80004964:	01fbaeb3          	slt	x29,x23,x31
    80004968:	006b27b3          	slt	x15,x22,x6
    8000496c:	40288cbb          	subw	x25,x17,x2
    80004970:	41c1053b          	subw	x10,x2,x28
    80004974:	016173b3          	and	x7,x2,x22
    80004978:	01777633          	and	x12,x14,x23
    8000497c:	00940fbb          	addw	x31,x8,x9
    80004980:	016b45b3          	xor	x11,x22,x22
    80004984:	410181bb          	subw	x3,x3,x16
    80004988:	00a94d33          	xor	x26,x18,x10
    8000498c:	00068a33          	add	x20,x13,x0
    80004990:	000f2133          	slt	x2,x30,x0
    80004994:	00b2073b          	addw	x14,x4,x11
    80004998:	00af4eb3          	xor	x29,x30,x10
    8000499c:	40c50533          	sub	x10,x10,x12
    800049a0:	40d3093b          	subw	x18,x6,x13
    800049a4:	016c62b3          	or	x5,x24,x22
    800049a8:	01ccb633          	sltu	x12,x25,x28
    800049ac:	00b40eb3          	add	x29,x8,x11
    800049b0:	41bf853b          	subw	x10,x31,x27
    800049b4:	01248733          	add	x14,x9,x18
    800049b8:	40490c33          	sub	x24,x18,x4
    800049bc:	007ab633          	sltu	x12,x21,x7
    800049c0:	0026c1b3          	xor	x3,x13,x2
    800049c4:	002efb33          	and	x22,x29,x2
    800049c8:	408c8033          	sub	x0,x25,x8
    800049cc:	00736f33          	or	x30,x6,x7
    800049d0:	41520bb3          	sub	x23,x4,x21
    800049d4:	0059a133          	slt	x2,x19,x5
    800049d8:	411e88bb          	subw	x17,x29,x17
    800049dc:	41048733          	sub	x14,x9,x16
    800049e0:	012a0cb3          	add	x25,x20,x18
    800049e4:	01258fbb          	addw	x31,x11,x18
    800049e8:	00cab133          	sltu	x2,x21,x12
    800049ec:	0164a933          	slt	x18,x9,x22
    800049f0:	00b26db3          	or	x27,x4,x11
    800049f4:	01d671b3          	and	x3,x12,x29
    800049f8:	414986b3          	sub	x13,x19,x20
    800049fc:	01ec43b3          	xor	x7,x24,x30
    80004a00:	002aeeb3          	or	x29,x21,x2
    80004a04:	40b40cbb          	subw	x25,x8,x11
    80004a08:	009409bb          	addw	x19,x8,x9
    80004a0c:	0081ba33          	sltu	x20,x3,x8
    80004a10:	016defb3          	or	x31,x27,x22
    80004a14:	0052c2b3          	xor	x5,x5,x5
    80004a18:	00e43eb3          	sltu	x29,x8,x14
    80004a1c:	00b937b3          	sltu	x15,x18,x11
    80004a20:	00696133          	or	x2,x18,x6
    80004a24:	01130cbb          	addw	x25,x6,x17
    80004a28:	404b0a33          	sub	x20,x22,x4
    80004a2c:	01348dbb          	addw	x27,x9,x19
    80004a30:	0032ec33          	or	x24,x5,x3
    80004a34:	01ed0bb3          	add	x23,x26,x30
    80004a38:	00467733          	and	x14,x12,x4
    80004a3c:	004f0033          	add	x0,x30,x4
    80004a40:	01368533          	add	x10,x13,x19
    80004a44:	004285bb          	addw	x11,x5,x4
    80004a48:	017666b3          	or	x13,x12,x23
    80004a4c:	0198b1b3          	sltu	x3,x17,x25
    80004a50:	00e2b333          	sltu	x6,x5,x14
    80004a54:	01928d33          	add	x26,x5,x25
    80004a58:	007b6c33          	or	x24,x22,x7
    80004a5c:	00d208b3          	add	x17,x4,x13
    80004a60:	40cd86b3          	sub	x13,x27,x12
    80004a64:	009187b3          	add	x15,x3,x9
    80004a68:	0104b733          	sltu	x14,x9,x16
    80004a6c:	40cb0ab3          	sub	x21,x22,x12
    80004a70:	010605bb          	addw	x11,x12,x16
    80004a74:	007f3d33          	sltu	x26,x30,x7
    80004a78:	01ffccb3          	xor	x25,x31,x31
    80004a7c:	4108883b          	subw	x16,x17,x16
    80004a80:	017f29b3          	slt	x19,x30,x23
    80004a84:	002f8b3b          	addw	x22,x31,x2
    80004a88:	0122c2b3          	xor	x5,x5,x18
    80004a8c:	011d8ab3          	add	x21,x27,x17
    80004a90:	00878bbb          	addw	x23,x15,x8
    80004a94:	00c5eeb3          	or	x29,x11,x12
    80004a98:	01137c33          	and	x24,x6,x17
    80004a9c:	0065b533          	sltu	x10,x11,x6
    80004aa0:	402204b3          	sub	x9,x4,x2
    80004aa4:	01bac5b3          	xor	x11,x21,x27
    80004aa8:	002d32b3          	sltu	x5,x26,x2
    80004aac:	007e0eb3          	add	x29,x28,x7
    80004ab0:	00220d33          	add	x26,x4,x2
    80004ab4:	00012733          	slt	x14,x2,x0
    80004ab8:	00fcf533          	and	x10,x25,x15
    80004abc:	01ba8333          	add	x6,x21,x27
    80004ac0:	40358f3b          	subw	x30,x11,x3
    80004ac4:	01f971b3          	and	x3,x18,x31
    80004ac8:	01f5ceb3          	xor	x29,x11,x31
    80004acc:	012e25b3          	slt	x11,x28,x18
    80004ad0:	00ffa2b3          	slt	x5,x31,x15
    80004ad4:	01ab4733          	xor	x14,x22,x26
    80004ad8:	40ff043b          	subw	x8,x30,x15
    80004adc:	009a013b          	addw	x2,x20,x9
    80004ae0:	0061b633          	sltu	x12,x3,x6
    80004ae4:	00bf0eb3          	add	x29,x30,x11
    80004ae8:	41468fb3          	sub	x31,x13,x20
    80004aec:	41b78dbb          	subw	x27,x15,x27
    80004af0:	41a909b3          	sub	x19,x18,x26
    80004af4:	019b0033          	add	x0,x22,x25
    80004af8:	00ee2133          	slt	x2,x28,x14
    80004afc:	01743f33          	sltu	x30,x8,x23
    80004b00:	00526e33          	or	x28,x4,x5
    80004b04:	00e7a533          	slt	x10,x15,x14
    80004b08:	01fcf633          	and	x12,x25,x31
    80004b0c:	0068b133          	sltu	x2,x17,x6
    80004b10:	008d823b          	addw	x4,x27,x8
    80004b14:	00683433          	sltu	x8,x16,x6
    80004b18:	006a2d33          	slt	x26,x20,x6
    80004b1c:	0192bc33          	sltu	x24,x5,x25
    80004b20:	007285bb          	addw	x11,x5,x7
    80004b24:	0134c633          	xor	x12,x9,x19
    80004b28:	01478e33          	add	x28,x15,x20
    80004b2c:	41770d33          	sub	x26,x14,x23
    80004b30:	01574333          	xor	x6,x14,x21
    80004b34:	00e83733          	sltu	x14,x16,x14
    80004b38:	007b8cb3          	add	x25,x23,x7
    80004b3c:	01712433          	slt	x8,x2,x23
    80004b40:	01affdb3          	and	x27,x31,x26
    80004b44:	005f4333          	xor	x6,x30,x5
    80004b48:	01448533          	add	x10,x9,x20
    80004b4c:	412d01b3          	sub	x3,x26,x18
    80004b50:	01dc2a33          	slt	x20,x24,x29
    80004b54:	404c8bb3          	sub	x23,x25,x4
    80004b58:	41cb083b          	subw	x16,x22,x28
    80004b5c:	00834cb3          	xor	x25,x6,x8
    80004b60:	407f09bb          	subw	x19,x30,x7
    80004b64:	00fa8b33          	add	x22,x21,x15
    80004b68:	00cfa6b3          	slt	x13,x31,x12
    80004b6c:	414381bb          	subw	x3,x7,x20
    80004b70:	00520633          	add	x12,x4,x5
    80004b74:	01f78cbb          	addw	x25,x15,x31
    80004b78:	01a273b3          	and	x7,x4,x26
    80004b7c:	01ab813b          	addw	x2,x23,x26
    80004b80:	40af0dbb          	subw	x27,x30,x10
    80004b84:	40ee043b          	subw	x8,x28,x14
    80004b88:	01aafeb3          	and	x29,x21,x26
    80004b8c:	00a3c9b3          	xor	x19,x7,x10
    80004b90:	01f484b3          	add	x9,x9,x31
    80004b94:	0058b3b3          	sltu	x7,x17,x5
    80004b98:	01e807bb          	addw	x15,x16,x30
    80004b9c:	01e20bb3          	add	x23,x4,x30
    80004ba0:	00ba31b3          	sltu	x3,x20,x11
    80004ba4:	01237033          	and	x0,x6,x18
    80004ba8:	00297e33          	and	x28,x18,x2
    80004bac:	415283b3          	sub	x7,x5,x21
    80004bb0:	004262b3          	or	x5,x4,x4
    80004bb4:	403581b3          	sub	x3,x11,x3
    80004bb8:	01222c33          	slt	x24,x4,x18
    80004bbc:	00c37e33          	and	x28,x6,x12
    80004bc0:	01a743b3          	xor	x7,x14,x26
    80004bc4:	40e0013b          	subw	x2,x0,x14
    80004bc8:	01d96a33          	or	x20,x18,x29
    80004bcc:	0195b8b3          	sltu	x17,x11,x25
    80004bd0:	019362b3          	or	x5,x6,x25
    80004bd4:	41560633          	sub	x12,x12,x21
    80004bd8:	413b893b          	subw	x18,x23,x19
    80004bdc:	0157e5b3          	or	x11,x15,x21
    80004be0:	016d0f3b          	addw	x30,x26,x22
    80004be4:	01143233          	sltu	x4,x8,x17
    80004be8:	417a083b          	subw	x16,x20,x23
    80004bec:	00aa7533          	and	x10,x20,x10
    80004bf0:	00c06fb3          	or	x31,x0,x12
    80004bf4:	00d6ed33          	or	x26,x13,x13
    80004bf8:	0074aeb3          	slt	x29,x9,x7
    80004bfc:	00f36bb3          	or	x23,x6,x15
    80004c00:	00313533          	sltu	x10,x2,x3
    80004c04:	00d43033          	sltu	x0,x8,x13
    80004c08:	40f2043b          	subw	x8,x4,x15
    80004c0c:	006ccb33          	xor	x22,x25,x6
    80004c10:	00c4bf33          	sltu	x30,x9,x12
    80004c14:	019e3833          	sltu	x16,x28,x25
    80004c18:	007d27b3          	slt	x15,x26,x7
    80004c1c:	41d10eb3          	sub	x29,x2,x29
    80004c20:	00bab5b3          	sltu	x11,x21,x11
    80004c24:	013d0fb3          	add	x31,x26,x19
    80004c28:	41650b3b          	subw	x22,x10,x22
    80004c2c:	0198ec33          	or	x24,x17,x25
    80004c30:	01eac433          	xor	x8,x21,x30
    80004c34:	003309bb          	addw	x19,x6,x3
    80004c38:	00ca0a3b          	addw	x20,x20,x12
    80004c3c:	410b07bb          	subw	x15,x22,x16
    80004c40:	0031803b          	addw	x0,x3,x3
    80004c44:	00af2cb3          	slt	x25,x30,x10
    80004c48:	0129ee33          	or	x28,x19,x18
    80004c4c:	0179b933          	sltu	x18,x19,x23
    80004c50:	008df9b3          	and	x19,x27,x8
    80004c54:	416b01bb          	subw	x3,x22,x22
    80004c58:	002d6833          	or	x16,x26,x2
    80004c5c:	00dde2b3          	or	x5,x27,x13
    80004c60:	019b85bb          	addw	x11,x23,x25
    80004c64:	4134873b          	subw	x14,x9,x19
    80004c68:	01c441b3          	xor	x3,x8,x28
    80004c6c:	01e9b4b3          	sltu	x9,x19,x30
    80004c70:	0163e533          	or	x10,x7,x22
    80004c74:	4075823b          	subw	x4,x11,x7
    80004c78:	019622b3          	slt	x5,x12,x25
    80004c7c:	01f68cbb          	addw	x25,x13,x31
    80004c80:	007d3033          	sltu	x0,x26,x7
    80004c84:	017304b3          	add	x9,x6,x23
    80004c88:	012785b3          	add	x11,x15,x18
    80004c8c:	40c98d3b          	subw	x26,x19,x12
    80004c90:	00dfce33          	xor	x28,x31,x13
    80004c94:	0128aeb3          	slt	x29,x17,x18
    80004c98:	0129e533          	or	x10,x19,x18
    80004c9c:	006b3b33          	sltu	x22,x22,x6
    80004ca0:	0044e333          	or	x6,x9,x4
    80004ca4:	412a873b          	subw	x14,x21,x18
    80004ca8:	41db8ebb          	subw	x29,x23,x29
    80004cac:	00a83233          	sltu	x4,x16,x10
    80004cb0:	01a14833          	xor	x16,x2,x26
    80004cb4:	00ca0533          	add	x10,x20,x12
    80004cb8:	01664cb3          	xor	x25,x12,x22
    80004cbc:	01fe2bb3          	slt	x23,x28,x31
    80004cc0:	014a063b          	addw	x12,x20,x20
    80004cc4:	40378b3b          	subw	x22,x15,x3
    80004cc8:	01b2cdb3          	xor	x27,x5,x27
    80004ccc:	013e6233          	or	x4,x28,x19
    80004cd0:	0095bcb3          	sltu	x25,x11,x9
    80004cd4:	400888b3          	sub	x17,x17,x0
    80004cd8:	012073b3          	and	x7,x0,x18
    80004cdc:	00f332b3          	sltu	x5,x6,x15
    80004ce0:	01b57bb3          	and	x23,x10,x27
    80004ce4:	00fb2733          	slt	x14,x22,x15
    80004ce8:	00217a33          	and	x20,x2,x2
    80004cec:	007206b3          	add	x13,x4,x7
    80004cf0:	01e07eb3          	and	x29,x0,x30
    80004cf4:	01087133          	and	x2,x16,x16
    80004cf8:	01380233          	add	x4,x16,x19
    80004cfc:	00acf4b3          	and	x9,x25,x10
    80004d00:	00f2f333          	and	x6,x5,x15
    80004d04:	41018abb          	subw	x21,x3,x16
    80004d08:	010d66b3          	or	x13,x26,x16
    80004d0c:	00eb8933          	add	x18,x23,x14
    80004d10:	000dc233          	xor	x4,x27,x0
    80004d14:	406d0a3b          	subw	x20,x26,x6
    80004d18:	00b77033          	and	x0,x14,x11
    80004d1c:	00b32433          	slt	x8,x6,x11
    80004d20:	01fb33b3          	sltu	x7,x22,x31
    80004d24:	002fa6b3          	slt	x13,x31,x2
    80004d28:	41258b33          	sub	x22,x11,x18
    80004d2c:	41010bbb          	subw	x23,x2,x16
    80004d30:	014701bb          	addw	x3,x14,x20
    80004d34:	01d9ea33          	or	x20,x19,x29
    80004d38:	0117033b          	addw	x6,x14,x17
    80004d3c:	01f06f33          	or	x30,x0,x31
    80004d40:	0125ac33          	slt	x24,x11,x18
    80004d44:	00be65b3          	or	x11,x28,x11
    80004d48:	0073c133          	xor	x2,x7,x7
    80004d4c:	0166ceb3          	xor	x29,x13,x22
    80004d50:	0111e633          	or	x12,x3,x17
    80004d54:	01674c33          	xor	x24,x14,x22
    80004d58:	013a0db3          	add	x27,x20,x19
    80004d5c:	0079c7b3          	xor	x15,x19,x7
    80004d60:	010b2d33          	slt	x26,x22,x16
    80004d64:	0155e633          	or	x12,x11,x21
    80004d68:	01477ab3          	and	x21,x14,x20
    80004d6c:	00b86eb3          	or	x29,x16,x11
    80004d70:	01c302b3          	add	x5,x6,x28
    80004d74:	409907b3          	sub	x15,x18,x9
    80004d78:	010b8d33          	add	x26,x23,x16
    80004d7c:	40b90b33          	sub	x22,x18,x11
    80004d80:	003c4db3          	xor	x27,x24,x3
    80004d84:	01872633          	slt	x12,x14,x24
    80004d88:	00458bbb          	addw	x23,x11,x4
    80004d8c:	01290933          	add	x18,x18,x18
    80004d90:	002fa833          	slt	x16,x31,x2
    80004d94:	41f28033          	sub	x0,x5,x31
    80004d98:	41e50733          	sub	x14,x10,x30
    80004d9c:	01457333          	and	x6,x10,x20
    80004da0:	01e8a9b3          	slt	x19,x17,x30
    80004da4:	00f68bbb          	addw	x23,x13,x15
    80004da8:	0037b3b3          	sltu	x7,x15,x3
    80004dac:	01deb933          	sltu	x18,x29,x29
    80004db0:	019188bb          	addw	x17,x3,x25
    80004db4:	403c84b3          	sub	x9,x25,x3
    80004db8:	00658ebb          	addw	x29,x11,x6
    80004dbc:	019d6c33          	or	x24,x26,x25
    80004dc0:	416b81bb          	subw	x3,x23,x22
    80004dc4:	40800a3b          	subw	x20,x0,x8
    80004dc8:	002d03bb          	addw	x7,x26,x2
    80004dcc:	41978db3          	sub	x27,x15,x25
    80004dd0:	00e13f33          	sltu	x30,x2,x14
    80004dd4:	406b0ab3          	sub	x21,x22,x6
    80004dd8:	41658fb3          	sub	x31,x11,x22
    80004ddc:	011037b3          	sltu	x15,x0,x17
    80004de0:	400b8333          	sub	x6,x23,x0
    80004de4:	019265b3          	or	x11,x4,x25
    80004de8:	009703bb          	addw	x7,x14,x9
    80004dec:	011e0bb3          	add	x23,x28,x17
    80004df0:	4102023b          	subw	x4,x4,x16
    80004df4:	005a3fb3          	sltu	x31,x20,x5
    80004df8:	013b09b3          	add	x19,x22,x19
    80004dfc:	003e2d33          	slt	x26,x28,x3
    80004e00:	01b784bb          	addw	x9,x15,x27
    80004e04:	002b7933          	and	x18,x22,x2
    80004e08:	017702b3          	add	x5,x14,x23
    80004e0c:	0068ecb3          	or	x25,x17,x6
    80004e10:	01b6063b          	addw	x12,x12,x27
    80004e14:	00918033          	add	x0,x3,x9
    80004e18:	0038b333          	sltu	x6,x17,x3
    80004e1c:	00b702bb          	addw	x5,x14,x11
    80004e20:	002d09bb          	addw	x19,x26,x2
    80004e24:	017e3633          	sltu	x12,x28,x23
    80004e28:	00e70abb          	addw	x21,x14,x14
    80004e2c:	40630c33          	sub	x24,x6,x6
    80004e30:	00f2f5b3          	and	x11,x5,x15
    80004e34:	011e023b          	addw	x4,x28,x17
    80004e38:	41fe833b          	subw	x6,x29,x31
    80004e3c:	009a37b3          	sltu	x15,x20,x9
    80004e40:	009fa8b3          	slt	x17,x31,x9
    80004e44:	01ef46b3          	xor	x13,x30,x30
    80004e48:	00bbba33          	sltu	x20,x23,x11
    80004e4c:	41a40333          	sub	x6,x8,x26
    80004e50:	009004bb          	addw	x9,x0,x9
    80004e54:	01cdb233          	sltu	x4,x27,x28
    80004e58:	01c032b3          	sltu	x5,x0,x28
    80004e5c:	000b8a3b          	addw	x20,x23,x0
    80004e60:	008f4db3          	xor	x27,x30,x8
    80004e64:	006c2e33          	slt	x28,x24,x6
    80004e68:	00a189bb          	addw	x19,x3,x10
    80004e6c:	019168b3          	or	x17,x2,x25
    80004e70:	00330d33          	add	x26,x6,x3
    80004e74:	00686fb3          	or	x31,x16,x6
    80004e78:	00524bb3          	xor	x23,x4,x5
    80004e7c:	00023ab3          	sltu	x21,x4,x0
    80004e80:	00aa7e33          	and	x28,x20,x10
    80004e84:	007a6eb3          	or	x29,x20,x7
    80004e88:	403582b3          	sub	x5,x11,x3
    80004e8c:	407187b3          	sub	x15,x3,x7
    80004e90:	01bac9b3          	xor	x19,x21,x27
    80004e94:	009d31b3          	sltu	x3,x26,x9
    80004e98:	01e64433          	xor	x8,x12,x30
    80004e9c:	018cb733          	sltu	x14,x25,x24
    80004ea0:	000dee33          	or	x28,x27,x0
    80004ea4:	00b88d3b          	addw	x26,x17,x11
    80004ea8:	0118f933          	and	x18,x17,x17
    80004eac:	405181bb          	subw	x3,x3,x5
    80004eb0:	005fbeb3          	sltu	x29,x31,x5
    80004eb4:	0199e133          	or	x2,x19,x25
    80004eb8:	40e802b3          	sub	x5,x16,x14
    80004ebc:	417987b3          	sub	x15,x19,x23
    80004ec0:	40998cbb          	subw	x25,x19,x9
    80004ec4:	01cdb1b3          	sltu	x3,x27,x28
    80004ec8:	409f893b          	subw	x18,x31,x9
    80004ecc:	01ec79b3          	and	x19,x24,x30
    80004ed0:	0026b833          	sltu	x16,x13,x2
    80004ed4:	41e004bb          	subw	x9,x0,x30
    80004ed8:	006afe33          	and	x28,x21,x6
    80004edc:	40b687bb          	subw	x15,x13,x11
    80004ee0:	408505b3          	sub	x11,x10,x8
    80004ee4:	41d7073b          	subw	x14,x14,x29
    80004ee8:	013429b3          	slt	x19,x8,x19
    80004eec:	003548b3          	xor	x17,x10,x3
    80004ef0:	01b2a633          	slt	x12,x5,x27
    80004ef4:	00923eb3          	sltu	x29,x4,x9
    80004ef8:	01eb4e33          	xor	x28,x22,x30
    80004efc:	0085f333          	and	x6,x11,x8
    80004f00:	01fd28b3          	slt	x17,x26,x31
    80004f04:	00c5f233          	and	x4,x11,x12
    80004f08:	000b0033          	add	x0,x22,x0
    80004f0c:	0191a733          	slt	x14,x3,x25
    80004f10:	4031813b          	subw	x2,x3,x3
    80004f14:	40de0333          	sub	x6,x28,x13
    80004f18:	00ff823b          	addw	x4,x31,x15
    80004f1c:	01be31b3          	sltu	x3,x28,x27
    80004f20:	011d863b          	addw	x12,x27,x17
    80004f24:	016ac833          	xor	x16,x21,x22
    80004f28:	01d13fb3          	sltu	x31,x2,x29
    80004f2c:	004cfd33          	and	x26,x25,x4
    80004f30:	003988bb          	addw	x17,x19,x3
    80004f34:	01b5a433          	slt	x8,x11,x27
    80004f38:	01dde7b3          	or	x15,x27,x29
    80004f3c:	40c2053b          	subw	x10,x4,x12
    80004f40:	013ca733          	slt	x14,x25,x19
    80004f44:	009cbc33          	sltu	x24,x25,x9
    80004f48:	012488b3          	add	x17,x9,x18
    80004f4c:	008487bb          	addw	x15,x9,x8
    80004f50:	00b4a033          	slt	x0,x9,x11
    80004f54:	00cce3b3          	or	x7,x25,x12
    80004f58:	00d94cb3          	xor	x25,x18,x13
    80004f5c:	01396233          	or	x4,x18,x19
    80004f60:	41b189bb          	subw	x19,x3,x27
    80004f64:	018afeb3          	and	x29,x21,x24
    80004f68:	00203433          	sltu	x8,x0,x2
    80004f6c:	00c3ffb3          	and	x31,x7,x12
    80004f70:	012c4cb3          	xor	x25,x24,x18
    80004f74:	0128c9b3          	xor	x19,x17,x18
    80004f78:	012a83bb          	addw	x7,x21,x18
    80004f7c:	01e882b3          	add	x5,x17,x30
    80004f80:	00a00ab3          	add	x21,x0,x10
    80004f84:	01ad0bb3          	add	x23,x26,x26
    80004f88:	403a0d3b          	subw	x26,x20,x3
    80004f8c:	00370c3b          	addw	x24,x14,x3
    80004f90:	016282bb          	addw	x5,x5,x22
    80004f94:	00fa07b3          	add	x15,x20,x15
    80004f98:	01d43bb3          	sltu	x23,x8,x29
    80004f9c:	01fa0333          	add	x6,x20,x31
    80004fa0:	00bfa533          	slt	x10,x31,x11
    80004fa4:	01ac0fb3          	add	x31,x24,x26
    80004fa8:	0136073b          	addw	x14,x12,x19
    80004fac:	0079e6b3          	or	x13,x19,x7
    80004fb0:	41910ab3          	sub	x21,x2,x25
    80004fb4:	01c9fd33          	and	x26,x19,x28
    80004fb8:	0148e8b3          	or	x17,x17,x20
    80004fbc:	013032b3          	sltu	x5,x0,x19
    80004fc0:	004f73b3          	and	x7,x30,x4
    80004fc4:	4038093b          	subw	x18,x16,x3
    80004fc8:	41d30633          	sub	x12,x6,x29
    80004fcc:	409c8e33          	sub	x28,x25,x9
    80004fd0:	01717333          	and	x6,x2,x23
    80004fd4:	0088f2b3          	and	x5,x17,x8
    80004fd8:	01aeec33          	or	x24,x29,x26
    80004fdc:	40098833          	sub	x16,x19,x0
    80004fe0:	00ba803b          	addw	x0,x21,x11
    80004fe4:	013d84bb          	addw	x9,x27,x19
    80004fe8:	00fffdb3          	and	x27,x31,x15
    80004fec:	40490c3b          	subw	x24,x18,x4
    80004ff0:	00bb0e33          	add	x28,x22,x11
    80004ff4:	00880a33          	add	x20,x16,x8
    80004ff8:	01742bb3          	slt	x23,x8,x23
    80004ffc:	01b8053b          	addw	x10,x16,x27
    80005000:	003b6db3          	or	x27,x22,x3
    80005004:	00760133          	add	x2,x12,x7
    80005008:	010e8433          	add	x8,x29,x16
    8000500c:	01a221b3          	slt	x3,x4,x26
    80005010:	007386b3          	add	x13,x7,x7
    80005014:	01ed0dbb          	addw	x27,x26,x30
    80005018:	40e28eb3          	sub	x29,x5,x14
    8000501c:	004d0c3b          	addw	x24,x26,x4
    80005020:	407b09b3          	sub	x19,x22,x7
    80005024:	00576f33          	or	x30,x14,x5
    80005028:	00f00533          	add	x10,x0,x15
    8000502c:	415d07b3          	sub	x15,x26,x21
    80005030:	01883033          	sltu	x0,x16,x24
    80005034:	0036c4b3          	xor	x9,x13,x3
    80005038:	005b02bb          	addw	x5,x22,x5
    8000503c:	00ea6733          	or	x14,x20,x14
    80005040:	00d503b3          	add	x7,x10,x13
    80005044:	01583b33          	sltu	x22,x16,x21
    80005048:	0007f233          	and	x4,x15,x0
    8000504c:	00beaab3          	slt	x21,x29,x11
    80005050:	41b60eb3          	sub	x29,x12,x27
    80005054:	400806b3          	sub	x13,x16,x0
    80005058:	407d8833          	sub	x16,x27,x7
    8000505c:	00bc8d33          	add	x26,x25,x11
    80005060:	018a2933          	slt	x18,x20,x24
    80005064:	016b7333          	and	x6,x22,x22
    80005068:	003682b3          	add	x5,x13,x3
    8000506c:	014e84bb          	addw	x9,x29,x20
    80005070:	01acf433          	and	x8,x25,x26
    80005074:	41fe0f33          	sub	x30,x28,x31
    80005078:	006b03bb          	addw	x7,x22,x6
    8000507c:	018b2bb3          	slt	x23,x22,x24
    80005080:	00c8c5b3          	xor	x11,x17,x12
    80005084:	01a82fb3          	slt	x31,x16,x26
    80005088:	016e4833          	xor	x16,x28,x22
    8000508c:	403183bb          	subw	x7,x3,x3
    80005090:	01e33bb3          	sltu	x23,x6,x30
    80005094:	00af0733          	add	x14,x30,x10
    80005098:	01c9e633          	or	x12,x19,x28
    8000509c:	00d6c033          	xor	x0,x13,x13
    800050a0:	015ee133          	or	x2,x29,x21
    800050a4:	403b0b3b          	subw	x22,x22,x3
    800050a8:	01fa0bb3          	add	x23,x20,x31
    800050ac:	004e64b3          	or	x9,x28,x4
    800050b0:	0127bf33          	sltu	x30,x15,x18
    800050b4:	01127133          	and	x2,x4,x17
    800050b8:	013283b3          	add	x7,x5,x19
    800050bc:	012dbfb3          	sltu	x31,x27,x18
