
./build/test:     file format elf64-littleriscv


Disassembly of section .text:

0000000080000000 <_start>:
    80000000:	14ba5d17          	auipc	x26,0x14ba5
    80000004:	7c686f93          	ori	x31,x16,1990
    80000008:	9b4bcf17          	auipc	x30,0x9b4bc
    8000000c:	01b95593          	srli	x11,x18,0x1b
    80000010:	478cc4b7          	lui	x9,0x478cc
    80000014:	410ad19b          	sraiw	x3,x21,0x10
    80000018:	32911637          	lui	x12,0x32911
    8000001c:	015fd11b          	srliw	x2,x31,0x15
    80000020:	338f1a97          	auipc	x21,0x338f1
    80000024:	3456f813          	andi	x16,x13,837
    80000028:	855f3897          	auipc	x17,0x855f3
    8000002c:	039a0e93          	addi	x29,x20,57
    80000030:	cc329d37          	lui	x26,0xcc329
    80000034:	000e5f1b          	srliw	x30,x28,0x0
    80000038:	aa90be17          	auipc	x28,0xaa90b
    8000003c:	10154b93          	xori	x23,x10,257
    80000040:	71832937          	lui	x18,0x71832
    80000044:	72a24d93          	xori	x27,x4,1834
    80000048:	a3de3137          	lui	x2,0xa3de3
    8000004c:	42625813          	srai	x16,x4,0x26
    80000050:	3fe73c97          	auipc	x25,0x3fe73
    80000054:	41af5593          	srai	x11,x30,0x1a
    80000058:	2eea6897          	auipc	x17,0x2eea6
    8000005c:	51268e9b          	addiw	x29,x13,1298
    80000060:	5e2404b7          	lui	x9,0x5e240
    80000064:	0872cf13          	xori	x30,x5,135
    80000068:	235f2817          	auipc	x16,0x235f2
    8000006c:	215d2b93          	slti	x23,x26,533
    80000070:	291640b7          	lui	x1,0x29164
    80000074:	0199de9b          	srliw	x29,x19,0x19
    80000078:	7893a917          	auipc	x18,0x7893a
    8000007c:	6b5a4c13          	xori	x24,x20,1717
    80000080:	fc3d5797          	auipc	x15,0xfc3d5
    80000084:	016c9b1b          	slliw	x22,x25,0x16
    80000088:	3b0f1537          	lui	x10,0x3b0f1
    8000008c:	02abda13          	srli	x20,x23,0x2a
    80000090:	084c83b7          	lui	x7,0x84c8
    80000094:	00e1d49b          	srliw	x9,x3,0xe
    80000098:	57496e97          	auipc	x29,0x57496
    8000009c:	0fef7793          	andi	x15,x30,254
    800000a0:	4aef7e37          	lui	x28,0x4aef7
    800000a4:	0040d39b          	srliw	x7,x1,0x4
    800000a8:	6085c1b7          	lui	x3,0x6085c
    800000ac:	1eaa8f1b          	addiw	x30,x21,490 # ffffffffb38f120a <_start+0xffffffff338f120a>
    800000b0:	bd82f117          	auipc	x2,0xbd82f
    800000b4:	058b2093          	slti	x1,x22,88
    800000b8:	3f6f2437          	lui	x8,0x3f6f2
    800000bc:	007d5493          	srli	x9,x26,0x7
    800000c0:	d9eabab7          	lui	x21,0xd9eab
    800000c4:	428f021b          	addiw	x4,x30,1064 # 1b4bc430 <_start-0x64b43bd0>
    800000c8:	24d97537          	lui	x10,0x24d97
    800000cc:	01b7161b          	slliw	x12,x14,0x1b
    800000d0:	ef2bd0b7          	lui	x1,0xef2bd
    800000d4:	64228b93          	addi	x23,x5,1602
    800000d8:	b79484b7          	lui	x9,0xb7948
    800000dc:	00af591b          	srliw	x18,x30,0xa
    800000e0:	1db8de37          	lui	x28,0x1db8d
    800000e4:	40a2dc1b          	sraiw	x24,x5,0xa
    800000e8:	805a1897          	auipc	x17,0x805a1
    800000ec:	2cc72a93          	slti	x21,x14,716
    800000f0:	d1df17b7          	lui	x15,0xd1df1
    800000f4:	4fb90f9b          	addiw	x31,x18,1275 # fffffffff893a573 <_start+0xffffffff7893a573>
    800000f8:	807a3617          	auipc	x12,0x807a3
    800000fc:	032cb993          	sltiu	x19,x25,50
    80000100:	287c5d17          	auipc	x26,0x287c5
    80000104:	47e0fc93          	andi	x25,x1,1150
    80000108:	f6b203b7          	lui	x7,0xf6b20
    8000010c:	5bf57a93          	andi	x21,x10,1471
    80000110:	9edf5c37          	lui	x24,0x9edf5
    80000114:	00a71d93          	slli	x27,x14,0xa
    80000118:	62766a37          	lui	x20,0x62766
    8000011c:	00f2d51b          	srliw	x10,x5,0xf
    80000120:	e571fb37          	lui	x22,0xe571f
    80000124:	035c1c93          	slli	x25,x24,0x35
    80000128:	d621c6b7          	lui	x13,0xd621c
    8000012c:	402d5c1b          	sraiw	x24,x26,0x2
    80000130:	20b5b7b7          	lui	x15,0x20b5b
    80000134:	7242ed13          	ori	x26,x5,1828
    80000138:	00091997          	auipc	x19,0x91
    8000013c:	4fe50813          	addi	x16,x10,1278 # 24d974fe <_start-0x5b268b02>
    80000140:	d48ce097          	auipc	x1,0xd48ce
    80000144:	155bca13          	xori	x20,x23,341
    80000148:	cdbae037          	lui	x0,0xcdbae
    8000014c:	0006179b          	slliw	x15,x12,0x0
    80000150:	01350137          	lui	x2,0x1350
    80000154:	006b999b          	slliw	x19,x23,0x6
    80000158:	65a3f2b7          	lui	x5,0x65a3f
    8000015c:	2ead6513          	ori	x10,x26,746
    80000160:	cb1bc937          	lui	x18,0xcb1bc
    80000164:	0110111b          	slliw	x2,x0,0x11
    80000168:	3b476e97          	auipc	x29,0x3b476
    8000016c:	58dbe293          	ori	x5,x23,1421
    80000170:	4f12cfb7          	lui	x31,0x4f12c
    80000174:	0ad06f13          	ori	x30,x0,173
    80000178:	84f363b7          	lui	x7,0x84f36
    8000017c:	4056d613          	srai	x12,x13,0x5
    80000180:	ead60c17          	auipc	x24,0xead60
    80000184:	00b6979b          	slliw	x15,x13,0xb
    80000188:	95029737          	lui	x14,0x95029
    8000018c:	45720213          	addi	x4,x4,1111 # 457 <_start-0x7ffffba9>
    80000190:	bc01d597          	auipc	x11,0xbc01d
    80000194:	0026511b          	srliw	x2,x12,0x2
    80000198:	53e58537          	lui	x10,0x53e58
    8000019c:	5c66bb13          	sltiu	x22,x13,1478
    800001a0:	42604a17          	auipc	x20,0x42604
    800001a4:	3d58e213          	ori	x4,x17,981
    800001a8:	5bf2c5b7          	lui	x11,0x5bf2c
    800001ac:	42615d93          	srai	x27,x2,0x26
    800001b0:	a833df17          	auipc	x30,0xa833d
    800001b4:	1971e793          	ori	x15,x3,407
    800001b8:	ac95d897          	auipc	x17,0xac95d
    800001bc:	40755e1b          	sraiw	x28,x10,0x7
    800001c0:	fed70197          	auipc	x3,0xfed70
    800001c4:	02a51093          	slli	x1,x10,0x2a
    800001c8:	c04ae3b7          	lui	x7,0xc04ae
    800001cc:	40425b9b          	sraiw	x23,x4,0x4
    800001d0:	712e94b7          	lui	x9,0x712e9
    800001d4:	19100793          	addi	x15,x0,401
    800001d8:	94636a17          	auipc	x20,0x94636
    800001dc:	01bed893          	srli	x17,x29,0x1b
    800001e0:	bc95f117          	auipc	x2,0xbc95f
    800001e4:	2aab4493          	xori	x9,x22,682
    800001e8:	b78ff397          	auipc	x7,0xb78ff
    800001ec:	071f2193          	slti	x3,x30,113
    800001f0:	6743ae17          	auipc	x28,0x6743a
    800001f4:	41a7a913          	slti	x18,x15,1050
    800001f8:	158e5bb7          	lui	x23,0x158e5
    800001fc:	409ad39b          	sraiw	x7,x21,0x9
    80000200:	eab47337          	lui	x6,0xeab47
    80000204:	013a1693          	slli	x13,x20,0x13
    80000208:	f9ce3b37          	lui	x22,0xf9ce3
    8000020c:	6c57ba93          	sltiu	x21,x15,1733
    80000210:	a5198c97          	auipc	x25,0xa5198
    80000214:	019bd813          	srli	x16,x23,0x19
    80000218:	ae315037          	lui	x0,0xae315
    8000021c:	0145dd9b          	srliw	x27,x11,0x14
    80000220:	4bf6b937          	lui	x18,0x4bf6b
    80000224:	27eeeb13          	ori	x22,x29,638
    80000228:	96b94a17          	auipc	x20,0x96b94
    8000022c:	01eedc9b          	srliw	x25,x29,0x1e
    80000230:	2b565eb7          	lui	x29,0x2b565
    80000234:	4080df93          	srai	x31,x1,0x8
    80000238:	14cdb237          	lui	x4,0x14cdb
    8000023c:	72dd6013          	ori	x0,x26,1837
    80000240:	5245ff17          	auipc	x30,0x5245f
    80000244:	41ded31b          	sraiw	x6,x29,0x1d
    80000248:	c3b3f997          	auipc	x19,0xc3b3f
    8000024c:	40b15913          	srai	x18,x2,0xb
    80000250:	da4cbd37          	lui	x26,0xda4cb
    80000254:	41a5539b          	sraiw	x7,x10,0x1a
    80000258:	c6f28f97          	auipc	x31,0xc6f28
    8000025c:	05340a1b          	addiw	x20,x8,83 # 3f6f2053 <_start-0x4090dfad>
    80000260:	5d2b0cb7          	lui	x25,0x5d2b0
    80000264:	4129e893          	ori	x17,x19,1042
    80000268:	fcad5117          	auipc	x2,0xfcad5
    8000026c:	68756f13          	ori	x30,x10,1671
    80000270:	c471ae17          	auipc	x28,0xc471a
    80000274:	209b0313          	addi	x6,x22,521 # fffffffff9ce3209 <_start+0xffffffff79ce3209>
    80000278:	ab0545b7          	lui	x11,0xab054
    8000027c:	6af88093          	addi	x1,x17,1711 # 2c95d867 <_start-0x536a2799>
    80000280:	29ca0937          	lui	x18,0x29ca0
    80000284:	01629d1b          	slliw	x26,x5,0x16
    80000288:	eebc1117          	auipc	x2,0xeebc1
    8000028c:	00c19813          	slli	x16,x3,0xc
    80000290:	4d801e17          	auipc	x28,0x4d801
    80000294:	21fa8093          	addi	x1,x21,543 # ffffffffd9eab21f <_start+0xffffffff59eab21f>
    80000298:	b17e7297          	auipc	x5,0xb17e7
    8000029c:	7d8ec713          	xori	x14,x29,2008
    800002a0:	ef335137          	lui	x2,0xef335
    800002a4:	1fd68c1b          	addiw	x24,x13,509 # ffffffffd621c1fd <_start+0xffffffff5621c1fd>
    800002a8:	41147e97          	auipc	x29,0x41147
    800002ac:	00f51e13          	slli	x28,x10,0xf
    800002b0:	c8b7a0b7          	lui	x1,0xc8b7a
    800002b4:	018d5613          	srli	x12,x26,0x18
    800002b8:	2692e697          	auipc	x13,0x2692e
    800002bc:	41690113          	addi	x2,x18,1046 # 29ca0416 <_start-0x5635fbea>
    800002c0:	6e94da37          	lui	x20,0x6e94d
    800002c4:	6b8e4193          	xori	x3,x28,1720
    800002c8:	4a97e297          	auipc	x5,0x4a97e
    800002cc:	00a81b13          	slli	x22,x16,0xa
    800002d0:	203767b7          	lui	x15,0x20376
    800002d4:	27fe2813          	slti	x16,x28,639
    800002d8:	e4b84eb7          	lui	x29,0xe4b84
    800002dc:	00369c13          	slli	x24,x13,0x3
    800002e0:	a624bf97          	auipc	x31,0xa624b
    800002e4:	0161541b          	srliw	x8,x2,0x16
    800002e8:	b7f001b7          	lui	x3,0xb7f00
    800002ec:	0166d01b          	srliw	x0,x13,0x16
    800002f0:	760330b7          	lui	x1,0x76033
    800002f4:	24abf293          	andi	x5,x23,586
    800002f8:	68da5137          	lui	x2,0x68da5
    800002fc:	007d9c9b          	slliw	x25,x27,0x7
    80000300:	bcfea637          	lui	x12,0xbcfea
    80000304:	00eb501b          	srliw	x0,x22,0xe
    80000308:	e878f3b7          	lui	x7,0xe878f
    8000030c:	42172913          	slti	x18,x14,1057
    80000310:	6a8eb0b7          	lui	x1,0x6a8eb
    80000314:	4ae9f693          	andi	x13,x19,1198
    80000318:	a76a7a97          	auipc	x21,0xa76a7
    8000031c:	1a41bb13          	sltiu	x22,x3,420
    80000320:	41455a13          	srai	x20,x10,0x14
    80000324:	401ee217          	auipc	x4,0x401ee
    80000328:	0115943b          	sllw	x8,x11,x17
    8000032c:	2f1e4493          	xori	x9,x28,753
    80000330:	d6ee1717          	auipc	x14,0xd6ee1
    80000334:	005fd0b3          	srl	x1,x31,x5
    80000338:	13f8001b          	addiw	x0,x16,319 # ffffffffa35f21a7 <_start+0xffffffff235f21a7>
    8000033c:	d7289337          	lui	x6,0xd7289
    80000340:	01b8fab3          	and	x21,x17,x27
    80000344:	4c483b13          	sltiu	x22,x16,1220
    80000348:	7f018197          	auipc	x3,0x7f018
    8000034c:	0186ac33          	slt	x24,x13,x24
    80000350:	4346d093          	srai	x1,x13,0x34
    80000354:	a42ef7b7          	lui	x15,0xa42ef
    80000358:	00b6a433          	slt	x8,x13,x11
    8000035c:	00d35193          	srli	x3,x6,0xd
    80000360:	4ec93297          	auipc	x5,0x4ec93
    80000364:	01091d3b          	sllw	x26,x18,x16
    80000368:	6e883e13          	sltiu	x28,x16,1768
    8000036c:	e82a34b7          	lui	x9,0xe82a3
    80000370:	00d2093b          	addw	x18,x4,x13
    80000374:	00bb5b13          	srli	x22,x22,0xb
    80000378:	68437d97          	auipc	x27,0x68437
    8000037c:	019f7033          	and	x0,x30,x25
    80000380:	0007da93          	srli	x21,x15,0x0
    80000384:	3a9a2537          	lui	x10,0x3a9a2
    80000388:	01359bbb          	sllw	x23,x11,x19
    8000038c:	78a7829b          	addiw	x5,x15,1930 # ffffffffa42ef78a <_start+0xffffffff242ef78a>
    80000390:	fecfdcb7          	lui	x25,0xfecfd
    80000394:	01c9943b          	sllw	x8,x19,x28
    80000398:	002b1513          	slli	x10,x22,0x2
    8000039c:	14c295b7          	lui	x11,0x14c29
    800003a0:	013784b3          	add	x9,x15,x19
    800003a4:	71d80d1b          	addiw	x26,x16,1821
    800003a8:	8155ddb7          	lui	x27,0x8155d
    800003ac:	01cf853b          	addw	x10,x31,x28
    800003b0:	005a931b          	slliw	x6,x21,0x5
    800003b4:	8664a137          	lui	x2,0x8664a
    800003b8:	0046fa33          	and	x20,x13,x4
    800003bc:	4144df93          	srai	x31,x9,0x14
    800003c0:	945287b7          	lui	x15,0x94528
    800003c4:	0152f933          	and	x18,x5,x21
    800003c8:	40d35b93          	srai	x23,x6,0xd
    800003cc:	ce8c2b17          	auipc	x22,0xce8c2
    800003d0:	408ede33          	sra	x28,x29,x8
    800003d4:	2345e713          	ori	x14,x11,564
    800003d8:	3db481b7          	lui	x3,0x3db48
    800003dc:	410a06bb          	subw	x13,x20,x16
    800003e0:	4c8c3a13          	sltiu	x20,x24,1224
    800003e4:	f2013c17          	auipc	x24,0xf2013
    800003e8:	4113d7b3          	sra	x15,x7,x17
    800003ec:	02895d13          	srli	x26,x18,0x28
    800003f0:	1ed56b17          	auipc	x22,0x1ed56
    800003f4:	01b224b3          	slt	x9,x4,x27
    800003f8:	01bad093          	srli	x1,x21,0x1b
    800003fc:	f16c36b7          	lui	x13,0xf16c3
    80000400:	413f803b          	subw	x0,x31,x19
    80000404:	14dfac93          	slti	x25,x31,333
    80000408:	b8f97117          	auipc	x2,0xb8f97
    8000040c:	001b02b3          	add	x5,x22,x1
    80000410:	4aebef93          	ori	x31,x23,1198
    80000414:	936ac337          	lui	x6,0x936ac
    80000418:	01186233          	or	x4,x16,x17
    8000041c:	00a7d69b          	srliw	x13,x15,0xa
    80000420:	dedbb817          	auipc	x16,0xdedbb
    80000424:	005d4933          	xor	x18,x26,x5
    80000428:	41a2d593          	srai	x11,x5,0x1a
    8000042c:	b2c608b7          	lui	x17,0xb2c60
    80000430:	01d716bb          	sllw	x13,x14,x29
    80000434:	01cdd713          	srli	x14,x27,0x1c
    80000438:	6895e937          	lui	x18,0x6895e
    8000043c:	00c09d33          	sll	x26,x1,x12
    80000440:	15ab8393          	addi	x7,x23,346 # 158e515a <_start-0x6a71aea6>
    80000444:	1d2dd637          	lui	x12,0x1d2dd
    80000448:	405c5bb3          	sra	x23,x24,x5
    8000044c:	16254a93          	xori	x21,x10,354
    80000450:	b4c5be17          	auipc	x28,0xb4c5b
    80000454:	416087bb          	subw	x15,x1,x22
    80000458:	01bc589b          	srliw	x17,x24,0x1b
    8000045c:	826ee817          	auipc	x16,0x826ee
    80000460:	40a35933          	sra	x18,x6,x10
    80000464:	0d70e093          	ori	x1,x1,215
    80000468:	01fbd637          	lui	x12,0x1fbd
    8000046c:	00507c33          	and	x24,x0,x5
    80000470:	38d7ae93          	slti	x29,x15,909
    80000474:	71235997          	auipc	x19,0x71235
    80000478:	01552333          	slt	x6,x10,x21
    8000047c:	51a12a93          	slti	x21,x2,1306
    80000480:	e9575917          	auipc	x18,0xe9575
    80000484:	4004d5bb          	sraw	x11,x9,x0
    80000488:	42f3d093          	srai	x1,x7,0x2f
    8000048c:	b105c3b7          	lui	x7,0xb105c
    80000490:	00a46f33          	or	x30,x8,x10
    80000494:	013d1d1b          	slliw	x26,x26,0x13
    80000498:	c4f3b917          	auipc	x18,0xc4f3b
    8000049c:	01f67833          	and	x16,x12,x31
    800004a0:	0130d39b          	srliw	x7,x1,0x13
    800004a4:	ebff2037          	lui	x0,0xebff2
    800004a8:	0028adb3          	slt	x27,x17,x2
    800004ac:	41d9579b          	sraiw	x15,x18,0x1d
    800004b0:	2bd5d217          	auipc	x4,0x2bd5d
    800004b4:	41e284b3          	sub	x9,x5,x30
    800004b8:	40d8529b          	sraiw	x5,x16,0xd
    800004bc:	277f5b97          	auipc	x23,0x277f5
    800004c0:	01ca583b          	srlw	x16,x20,x28
    800004c4:	01f31093          	slli	x1,x6,0x1f
    800004c8:	41946497          	auipc	x9,0x41946
    800004cc:	00d55fbb          	srlw	x31,x10,x13
    800004d0:	49127793          	andi	x15,x4,1169
    800004d4:	97e15cb7          	lui	x25,0x97e15
    800004d8:	0159183b          	sllw	x16,x18,x21
    800004dc:	021b5993          	srli	x19,x22,0x21
    800004e0:	087a5397          	auipc	x7,0x87a5
    800004e4:	41ae8b33          	sub	x22,x29,x26
    800004e8:	6a2da293          	slti	x5,x27,1698
    800004ec:	91b17437          	lui	x8,0x91b17
    800004f0:	400cddbb          	sraw	x27,x25,x0
    800004f4:	01b9599b          	srliw	x19,x18,0x1b
    800004f8:	c4f6b1b7          	lui	x3,0xc4f6b
    800004fc:	01a25533          	srl	x10,x4,x26
    80000500:	4834069b          	addiw	x13,x8,1155 # ffffffff91b17483 <_start+0xffffffff11b17483>
    80000504:	7af31db7          	lui	x27,0x7af31
    80000508:	418589b3          	sub	x19,x11,x24
    8000050c:	7af67393          	andi	x7,x12,1967
    80000510:	57bf6a97          	auipc	x21,0x57bf6
    80000514:	01204eb3          	xor	x29,x0,x18
    80000518:	40365593          	srai	x11,x12,0x3
    8000051c:	4f7c0737          	lui	x14,0x4f7c0
    80000520:	00414933          	xor	x18,x2,x4
    80000524:	41fe531b          	sraiw	x6,x28,0x1f
    80000528:	43a65437          	lui	x8,0x43a65
    8000052c:	00fe54bb          	srlw	x9,x28,x15
    80000530:	21eb7b93          	andi	x23,x22,542
    80000534:	0d51c197          	auipc	x3,0xd51c
    80000538:	01273b33          	sltu	x22,x14,x18
    8000053c:	01c05593          	srli	x11,x0,0x1c
    80000540:	fd492cb7          	lui	x25,0xfd492
    80000544:	01389dbb          	sllw	x27,x17,x19
    80000548:	142ffc13          	andi	x24,x31,322
    8000054c:	cdbfd217          	auipc	x4,0xcdbfd
    80000550:	40bf53b3          	sra	x7,x30,x11
    80000554:	4037559b          	sraiw	x11,x14,0x3
    80000558:	a15c40b7          	lui	x1,0xa15c4
    8000055c:	40e55db3          	sra	x27,x10,x14
    80000560:	01cd5c13          	srli	x24,x26,0x1c
    80000564:	531d3697          	auipc	x13,0x531d3
    80000568:	01467033          	and	x0,x12,x20
    8000056c:	413d5113          	srai	x2,x26,0x13
    80000570:	fb726097          	auipc	x1,0xfb726
    80000574:	00a1d233          	srl	x4,x3,x10
    80000578:	53a58193          	addi	x3,x11,1338 # 14c2953a <_start-0x6b3d6ac6>
    8000057c:	1ff3af37          	lui	x30,0x1ff3a
    80000580:	00780c3b          	addw	x24,x16,x7
    80000584:	2457c813          	xori	x16,x15,581
    80000588:	5a974517          	auipc	x10,0x5a974
    8000058c:	01cd55b3          	srl	x11,x26,x28
    80000590:	0007579b          	srliw	x15,x14,0x0
    80000594:	ece07417          	auipc	x8,0xece07
    80000598:	003b10bb          	sllw	x1,x22,x3
    8000059c:	00031813          	slli	x16,x6,0x0
    800005a0:	4bdcabb7          	lui	x23,0x4bdca
    800005a4:	41e48633          	sub	x12,x9,x30
    800005a8:	2b303413          	sltiu	x8,x0,691
    800005ac:	282fad37          	lui	x26,0x282fa
    800005b0:	403a8fbb          	subw	x31,x21,x3
    800005b4:	26680b1b          	addiw	x22,x16,614 # 26ee6c2 <_start-0x7d91193e>
    800005b8:	ae3544b7          	lui	x9,0xae354
    800005bc:	00dc9cbb          	sllw	x25,x25,x13
    800005c0:	7f108a93          	addi	x21,x1,2033 # 7b726d61 <_start-0x48d929f>
    800005c4:	95e14637          	lui	x12,0x95e14
    800005c8:	00785233          	srl	x4,x16,x7
    800005cc:	43335693          	srai	x13,x6,0x33
    800005d0:	fc107497          	auipc	x9,0xfc107
    800005d4:	4145803b          	subw	x0,x11,x20
    800005d8:	08f9ea93          	ori	x21,x19,143
    800005dc:	139c2c97          	auipc	x25,0x139c2
    800005e0:	004da733          	slt	x14,x27,x4
    800005e4:	00689613          	slli	x12,x17,0x6
    800005e8:	118c4437          	lui	x8,0x118c4
    800005ec:	015c7c33          	and	x24,x24,x21
    800005f0:	00d55e1b          	srliw	x28,x10,0xd
    800005f4:	80531717          	auipc	x14,0x80531
    800005f8:	00ba61b3          	or	x3,x20,x11
    800005fc:	416a541b          	sraiw	x8,x20,0x16
    80000600:	4e5d5fb7          	lui	x31,0x4e5d5
    80000604:	01dd0f3b          	addw	x30,x26,x29
    80000608:	0d1e0a13          	addi	x20,x28,209 # 34c5b521 <_start-0x4b3a4adf>
    8000060c:	b9f47637          	lui	x12,0xb9f47
    80000610:	00a4fb33          	and	x22,x9,x10
    80000614:	0376de13          	srli	x28,x13,0x37
    80000618:	48118037          	lui	x0,0x48118
    8000061c:	00581133          	sll	x2,x16,x5
    80000620:	7afd7093          	andi	x1,x26,1967
    80000624:	60144d17          	auipc	x26,0x60144
    80000628:	40b80a33          	sub	x20,x16,x11
    8000062c:	1033b913          	sltiu	x18,x7,259
    80000630:	3858fab7          	lui	x21,0x3858f
    80000634:	011ebbb3          	sltu	x23,x29,x17
    80000638:	6f4e061b          	addiw	x12,x28,1780
    8000063c:	91e6a497          	auipc	x9,0x91e6a
    80000640:	01ee07b3          	add	x15,x28,x30
    80000644:	0144541b          	srliw	x8,x8,0x14
    80000648:	dd074317          	auipc	x6,0xdd074
    8000064c:	000f923b          	sllw	x4,x31,x0
    80000650:	4182da1b          	sraiw	x20,x5,0x18
    80000654:	129ef897          	auipc	x17,0x129ef
    80000658:	017c37b3          	sltu	x15,x24,x23
    8000065c:	40ee5e9b          	sraiw	x29,x28,0xe
    80000660:	512915b7          	lui	x11,0x51291
    80000664:	00cbd333          	srl	x6,x23,x12
    80000668:	00191c9b          	slliw	x25,x18,0x1
    8000066c:	7bf1da37          	lui	x20,0x7bf1d
    80000670:	00fe72b3          	and	x5,x28,x15
    80000674:	3c982a93          	slti	x21,x16,969
    80000678:	336a7f97          	auipc	x31,0x336a7
    8000067c:	0027e333          	or	x6,x15,x2
    80000680:	02271b93          	slli	x23,x14,0x22
    80000684:	b65b0717          	auipc	x14,0xb65b0
    80000688:	00a115b3          	sll	x11,x2,x10
    8000068c:	40200913          	addi	x18,x0,1026
    80000690:	cbb95e37          	lui	x28,0xcbb95
    80000694:	417d87bb          	subw	x15,x27,x23
    80000698:	00269c1b          	slliw	x24,x13,0x2
    8000069c:	40edb597          	auipc	x11,0x40edb
    800006a0:	00a41cb3          	sll	x25,x8,x10
    800006a4:	22a88693          	addi	x13,x17,554 # 929ef87e <_start+0x129ef87e>
    800006a8:	b1e2d137          	lui	x2,0xb1e2d
    800006ac:	0071803b          	addw	x0,x3,x7
    800006b0:	01ec529b          	srliw	x5,x24,0x1e
    800006b4:	0cffd737          	lui	x14,0xcffd
    800006b8:	01c3883b          	addw	x16,x7,x28
    800006bc:	0098951b          	slliw	x10,x17,0x9
    800006c0:	9cb8d7b7          	lui	x15,0x9cb8d
    800006c4:	0042b0b3          	sltu	x1,x5,x4
    800006c8:	0bfd3993          	sltiu	x19,x26,191
    800006cc:	c6478f37          	lui	x30,0xc6478
    800006d0:	015e4633          	xor	x12,x28,x21
    800006d4:	2caa2193          	slti	x3,x20,714
    800006d8:	859d2397          	auipc	x7,0x859d2
    800006dc:	00ac8cbb          	addw	x25,x25,x10
    800006e0:	41d9d51b          	sraiw	x10,x19,0x1d
    800006e4:	e5cc6e37          	lui	x28,0xe5cc6
    800006e8:	0160b233          	sltu	x4,x1,x22
    800006ec:	08ab031b          	addiw	x6,x22,138 # ffffffff9ed5647a <_start+0xffffffff1ed5647a>
    800006f0:	24ae6f17          	auipc	x30,0x24ae6
    800006f4:	010deb33          	or	x22,x27,x16
    800006f8:	756e049b          	addiw	x9,x28,1878 # ffffffffe5cc6756 <_start+0xffffffff65cc6756>
    800006fc:	aad64cb7          	lui	x25,0xaad64
    80000700:	41025abb          	sraw	x21,x4,x16
    80000704:	4050d91b          	sraiw	x18,x1,0x5
    80000708:	28f41017          	auipc	x0,0x28f41
    8000070c:	40cb0733          	sub	x14,x22,x12
    80000710:	60c5881b          	addiw	x16,x11,1548 # ffffffffc0edbca8 <_start+0xffffffff40edbca8>
    80000714:	3cd97f17          	auipc	x30,0x3cd97
    80000718:	0060c5b3          	xor	x11,x1,x6
    8000071c:	0150521b          	srliw	x4,x0,0x15
    80000720:	d3e250b7          	lui	x1,0xd3e25
    80000724:	00ccd133          	srl	x2,x25,x12
    80000728:	40a1d81b          	sraiw	x16,x3,0xa
    8000072c:	27a3df17          	auipc	x30,0x27a3d
    80000730:	40d881bb          	subw	x3,x17,x13
    80000734:	417d8b1b          	addiw	x22,x27,1047 # 7af31417 <_start-0x50cebe9>
    80000738:	e8433a17          	auipc	x20,0xe8433
    8000073c:	40f0033b          	subw	x6,x0,x15
    80000740:	4184551b          	sraiw	x10,x8,0x18
    80000744:	314ee6b7          	lui	x13,0x314ee
    80000748:	40070033          	sub	x0,x14,x0
    8000074c:	037bb813          	sltiu	x16,x23,55
    80000750:	fdf7d917          	auipc	x18,0xfdf7d
    80000754:	002fa1b3          	slt	x3,x31,x2
    80000758:	42175f93          	srai	x31,x14,0x21
    8000075c:	3101fbb7          	lui	x23,0x3101f
    80000760:	00b15ebb          	srlw	x29,x2,x11
    80000764:	08787213          	andi	x4,x16,135
    80000768:	92fc58b7          	lui	x17,0x92fc5
    8000076c:	00b68033          	add	x0,x13,x11
    80000770:	259cba13          	sltiu	x20,x25,601
    80000774:	516533b7          	lui	x7,0x51653
    80000778:	0174dcb3          	srl	x25,x9,x23
    8000077c:	65e8f093          	andi	x1,x17,1630
    80000780:	7b0754b7          	lui	x9,0x7b075
    80000784:	0066d633          	srl	x12,x13,x6
    80000788:	29e44713          	xori	x14,x8,670
    8000078c:	ba00a917          	auipc	x18,0xba00a
    80000790:	40f25b3b          	sraw	x22,x4,x15
    80000794:	29800e1b          	addiw	x28,x0,664
    80000798:	c7a1fc37          	lui	x24,0xc7a1f
    8000079c:	4042deb3          	sra	x29,x5,x4
    800007a0:	52cf0013          	addi	x0,x30,1324 # a7a3dc58 <_start+0x27a3dc58>
    800007a4:	182b4137          	lui	x2,0x182b4
    800007a8:	015a12bb          	sllw	x5,x20,x21
    800007ac:	6133bd93          	sltiu	x27,x7,1555
    800007b0:	df5df837          	lui	x16,0xdf5df
    800007b4:	01961c33          	sll	x24,x12,x25
    800007b8:	37764213          	xori	x4,x12,887
    800007bc:	4274d117          	auipc	x2,0x4274d
    800007c0:	40dc8abb          	subw	x21,x25,x13
    800007c4:	3ee7a793          	slti	x15,x15,1006
    800007c8:	73379717          	auipc	x14,0x73379
    800007cc:	418456bb          	sraw	x13,x8,x24
    800007d0:	008b5613          	srli	x12,x22,0x8
    800007d4:	be5c2417          	auipc	x8,0xbe5c2
    800007d8:	017bb033          	sltu	x0,x23,x23
    800007dc:	4114d99b          	sraiw	x19,x9,0x11
    800007e0:	a4a4dbb7          	lui	x23,0xa4a4d
    800007e4:	01875ebb          	srlw	x29,x14,x24
    800007e8:	0c7fa913          	slti	x18,x31,199
    800007ec:	c8ec8cb7          	lui	x25,0xc8ec8
    800007f0:	01a68db3          	add	x27,x13,x26
    800007f4:	03a19693          	slli	x13,x3,0x3a
    800007f8:	56d6f297          	auipc	x5,0x56d6f
    800007fc:	006788bb          	addw	x17,x15,x6
    80000800:	1cc50f9b          	addiw	x31,x10,460 # ffffffffda974754 <_start+0xffffffff5a974754>
    80000804:	490f1617          	auipc	x12,0x490f1
    80000808:	012dd6b3          	srl	x13,x27,x18
    8000080c:	003d999b          	slliw	x19,x27,0x3
    80000810:	5a925437          	lui	x8,0x5a925
    80000814:	40a5db33          	sra	x22,x11,x10
    80000818:	02509c13          	slli	x24,x1,0x25
    8000081c:	d2333097          	auipc	x1,0xd2333
    80000820:	007df733          	and	x14,x27,x7
    80000824:	1c32f293          	andi	x5,x5,451
    80000828:	0ffcd397          	auipc	x7,0xffcd
    8000082c:	41280b3b          	subw	x22,x16,x18
    80000830:	13ed2c13          	slti	x24,x26,318
    80000834:	46cf5997          	auipc	x19,0x46cf5
    80000838:	00534233          	xor	x4,x6,x5
    8000083c:	22b8c013          	xori	x0,x17,555
    80000840:	9379e697          	auipc	x13,0x9379e
    80000844:	41965eb3          	sra	x29,x12,x25
    80000848:	68afae13          	slti	x28,x31,1674
    8000084c:	af58b317          	auipc	x6,0xaf58b
    80000850:	0135d933          	srl	x18,x11,x19
    80000854:	0136d21b          	srliw	x4,x13,0x13
    80000858:	b16be737          	lui	x14,0xb16be
    8000085c:	40ba09bb          	subw	x19,x20,x11
    80000860:	00cf1793          	slli	x15,x30,0xc
    80000864:	028482b7          	lui	x5,0x2848
    80000868:	01ac1bb3          	sll	x23,x24,x26
    8000086c:	41ad5193          	srai	x3,x26,0x1a
    80000870:	56579537          	lui	x10,0x56579
    80000874:	401e813b          	subw	x2,x29,x1
    80000878:	7b070293          	addi	x5,x14,1968 # ffffffffb16be7b0 <_start+0xffffffff316be7b0>
    8000087c:	e7bee317          	auipc	x6,0xe7bee
    80000880:	00cd0b3b          	addw	x22,x26,x12
    80000884:	00ee991b          	slliw	x18,x29,0xe
    80000888:	27e6da37          	lui	x20,0x27e6d
    8000088c:	00589fbb          	sllw	x31,x17,x5
    80000890:	2abb8e93          	addi	x29,x23,683 # ffffffffa4a4d2ab <_start+0xffffffff24a4d2ab>
    80000894:	6a89ea97          	auipc	x21,0x6a89e
    80000898:	00cbac33          	slt	x24,x23,x12
    8000089c:	22596013          	ori	x0,x18,549
    800008a0:	e1c5d317          	auipc	x6,0xe1c5d
    800008a4:	01d71133          	sll	x2,x14,x29
    800008a8:	67baab93          	slti	x23,x21,1659
    800008ac:	e93a8517          	auipc	x10,0xe93a8
    800008b0:	004b0933          	add	x18,x22,x4
    800008b4:	7d89ef13          	ori	x30,x19,2008
    800008b8:	87d65817          	auipc	x16,0x87d65
    800008bc:	00ca43b3          	xor	x7,x20,x12
    800008c0:	24cfb513          	sltiu	x10,x31,588
    800008c4:	23115117          	auipc	x2,0x23115
    800008c8:	011b27b3          	slt	x15,x22,x17
    800008cc:	43d5d193          	srai	x3,x11,0x3d
    800008d0:	38c45f37          	lui	x30,0x38c45
    800008d4:	01c6f333          	and	x6,x13,x28
    800008d8:	0e8c2293          	slti	x5,x24,232
    800008dc:	65a22ab7          	lui	x21,0x65a22
    800008e0:	00ef80b3          	add	x1,x31,x14
    800008e4:	43ee5d13          	srai	x26,x28,0x3e
    800008e8:	b1cec8b7          	lui	x17,0xb1cec
    800008ec:	01f5de3b          	srlw	x28,x11,x31
    800008f0:	3dd02b93          	slti	x23,x0,989
    800008f4:	9f7c57b7          	lui	x15,0x9f7c5
    800008f8:	010073b3          	and	x7,x0,x16
    800008fc:	1775f913          	andi	x18,x11,375
    80000900:	d836d537          	lui	x10,0xd836d
    80000904:	00e6edb3          	or	x27,x13,x14
    80000908:	4124521b          	sraiw	x4,x8,0x12
    8000090c:	f6554d37          	lui	x26,0xf6554
    80000910:	00b6deb3          	srl	x29,x13,x11
    80000914:	00f29a13          	slli	x20,x5,0xf
    80000918:	f122c617          	auipc	x12,0xf122c
    8000091c:	00bc6b33          	or	x22,x24,x11
    80000920:	0117159b          	slliw	x11,x14,0x11
    80000924:	90f33717          	auipc	x14,0x90f33
    80000928:	009951bb          	srlw	x3,x18,x9
    8000092c:	5812a893          	slti	x17,x5,1409
    80000930:	5fb6bdb7          	lui	x27,0x5fb6b
    80000934:	408955bb          	sraw	x11,x18,x8
    80000938:	63872c13          	slti	x24,x14,1592
    8000093c:	ec6dd917          	auipc	x18,0xec6dd
    80000940:	415f5a3b          	sraw	x20,x30,x21
    80000944:	4fa6cc93          	xori	x25,x13,1274
    80000948:	a1094397          	auipc	x7,0xa1094
    8000094c:	00203c33          	sltu	x24,x0,x2
    80000950:	01d6d593          	srli	x11,x13,0x1d
    80000954:	14b40097          	auipc	x1,0x14b40
    80000958:	408501bb          	subw	x3,x10,x8
    8000095c:	0073d69b          	srliw	x13,x7,0x7
    80000960:	ba727eb7          	lui	x29,0xba727
    80000964:	000104b3          	add	x9,x2,x0
    80000968:	01001a13          	slli	x20,x0,0x10
    8000096c:	66134f37          	lui	x30,0x66134
    80000970:	40678cb3          	sub	x25,x15,x6
    80000974:	6a4a8893          	addi	x17,x21,1700 # 65a226a4 <_start-0x1a5dd95c>
    80000978:	5ab17937          	lui	x18,0x5ab17
    8000097c:	40d3d3bb          	sraw	x7,x7,x13
    80000980:	000e9813          	slli	x16,x29,0x0
    80000984:	c3328317          	auipc	x6,0xc3328
    80000988:	00ab90bb          	sllw	x1,x23,x10
    8000098c:	5e170b13          	addi	x22,x14,1505 # 10f33f05 <_start-0x6f0cc0fb>
    80000990:	e8672c97          	auipc	x25,0xe8672
    80000994:	012ad2b3          	srl	x5,x21,x18
    80000998:	1a722513          	slti	x10,x4,423
    8000099c:	48a6c017          	auipc	x0,0x48a6c
    800009a0:	006c1e33          	sll	x28,x24,x6
    800009a4:	028a9413          	slli	x8,x21,0x28
    800009a8:	3d9d6837          	lui	x16,0x3d9d6
    800009ac:	012cb233          	sltu	x4,x25,x18
    800009b0:	7848a993          	slti	x19,x17,1924
    800009b4:	adfc48b7          	lui	x17,0xadfc4
    800009b8:	00d4c733          	xor	x14,x9,x13
    800009bc:	55ea2b13          	slti	x22,x20,1374
    800009c0:	7f3777b7          	lui	x15,0x7f377
    800009c4:	00de093b          	addw	x18,x28,x13
    800009c8:	018d8813          	addi	x16,x27,24 # 5fb6b018 <_start-0x20494fe8>
    800009cc:	e4647e17          	auipc	x28,0xe4647
    800009d0:	0083e6b3          	or	x13,x7,x8
    800009d4:	01d25893          	srli	x17,x4,0x1d
    800009d8:	b84ee497          	auipc	x9,0xb84ee
    800009dc:	004b5933          	srl	x18,x22,x4
    800009e0:	41815c93          	srai	x25,x2,0x18
    800009e4:	3ed9d997          	auipc	x19,0x3ed9d
    800009e8:	00158233          	add	x4,x11,x1
    800009ec:	290b7f93          	andi	x31,x22,656
    800009f0:	60114697          	auipc	x13,0x60114
    800009f4:	406388bb          	subw	x17,x7,x6
    800009f8:	02be1093          	slli	x1,x28,0x2b
    800009fc:	a7f65d37          	lui	x26,0xa7f65
    80000a00:	019a49b3          	xor	x19,x20,x25
    80000a04:	26f70a9b          	addiw	x21,x14,623
    80000a08:	6d3fcc17          	auipc	x24,0x6d3fc
    80000a0c:	00709733          	sll	x14,x1,x7
    80000a10:	028f5b13          	srli	x22,x30,0x28
    80000a14:	164b2037          	lui	x0,0x164b2
    80000a18:	010402b3          	add	x5,x8,x16
    80000a1c:	00649b9b          	slliw	x23,x9,0x6
    80000a20:	92a20c17          	auipc	x24,0x92a20
    80000a24:	41165cbb          	sraw	x25,x12,x17
    80000a28:	0173139b          	slliw	x7,x6,0x17
    80000a2c:	e054bd17          	auipc	x26,0xe054b
    80000a30:	40bb07bb          	subw	x15,x22,x11
    80000a34:	01c25113          	srli	x2,x4,0x1c
    80000a38:	4fc11e37          	lui	x28,0x4fc11
    80000a3c:	418856bb          	sraw	x13,x16,x24
    80000a40:	40565393          	srai	x7,x12,0x5
    80000a44:	6a2637b7          	lui	x15,0x6a263
    80000a48:	41580fb3          	sub	x31,x16,x21
    80000a4c:	695e0f1b          	addiw	x30,x28,1685 # 4fc11695 <_start-0x303ee96b>
    80000a50:	021ebb37          	lui	x22,0x21eb
    80000a54:	0158d233          	srl	x4,x17,x21
    80000a58:	0086d513          	srli	x10,x13,0x8
    80000a5c:	fc480ab7          	lui	x21,0xfc480
    80000a60:	00f3903b          	sllw	x0,x7,x15
    80000a64:	4fe70e1b          	addiw	x28,x14,1278
    80000a68:	0be57d37          	lui	x26,0xbe57
    80000a6c:	01441ebb          	sllw	x29,x8,x20
    80000a70:	5e1f8993          	addi	x19,x31,1505 # b36a7c59 <_start+0x336a7c59>
    80000a74:	844c1737          	lui	x14,0x844c1
    80000a78:	40878a33          	sub	x20,x15,x8
    80000a7c:	56f64613          	xori	x12,x12,1391
    80000a80:	871b9f37          	lui	x30,0x871b9
    80000a84:	4040d13b          	sraw	x2,x1,x4
    80000a88:	7c2afb93          	andi	x23,x21,1986
    80000a8c:	f5793937          	lui	x18,0xf5793
    80000a90:	41a685bb          	subw	x11,x13,x26
    80000a94:	22378213          	addi	x4,x15,547 # 6a263223 <_start-0x15d9cddd>
    80000a98:	3ce13037          	lui	x0,0x3ce13
    80000a9c:	4024d833          	sra	x16,x9,x2
    80000aa0:	0185151b          	slliw	x10,x10,0x18
    80000aa4:	95507737          	lui	x14,0x95507
    80000aa8:	018e8bbb          	addw	x23,x29,x24
    80000aac:	0f4f4d93          	xori	x27,x30,244
    80000ab0:	0724f917          	auipc	x18,0x724f
    80000ab4:	000f4833          	xor	x16,x30,x0
    80000ab8:	01541f9b          	slliw	x31,x8,0x15
    80000abc:	32da65b7          	lui	x11,0x32da6
    80000ac0:	01c71a33          	sll	x20,x14,x28
    80000ac4:	4064511b          	sraiw	x2,x8,0x6
    80000ac8:	41ab8f37          	lui	x30,0x41ab8
    80000acc:	01d920b3          	slt	x1,x18,x29
    80000ad0:	4066d49b          	sraiw	x9,x13,0x6
    80000ad4:	75d6b3b7          	lui	x7,0x75d6b
    80000ad8:	419b043b          	subw	x8,x22,x25
    80000adc:	00a7d91b          	srliw	x18,x15,0xa
    80000ae0:	b2730d97          	auipc	x27,0xb2730
    80000ae4:	00633fb3          	sltu	x31,x6,x6
    80000ae8:	0105de93          	srli	x29,x11,0x10
    80000aec:	003bd897          	auipc	x17,0x3bd
    80000af0:	40ae0b33          	sub	x22,x28,x10
    80000af4:	52cc6f13          	ori	x30,x24,1324
    80000af8:	073ac137          	lui	x2,0x73ac
    80000afc:	00627e33          	and	x28,x4,x6
    80000b00:	0163d49b          	srliw	x9,x7,0x16
    80000b04:	d448c197          	auipc	x3,0xd448c
    80000b08:	010f3a33          	sltu	x20,x30,x16
    80000b0c:	768aa113          	slti	x2,x21,1896
    80000b10:	97d79397          	auipc	x7,0x97d79
    80000b14:	01986c33          	or	x24,x16,x25
    80000b18:	0010d59b          	srliw	x11,x1,0x1
    80000b1c:	89e0dbb7          	lui	x23,0x89e0d
    80000b20:	40cc8fb3          	sub	x31,x25,x12
    80000b24:	499af913          	andi	x18,x21,1177
    80000b28:	7f646e37          	lui	x28,0x7f646
    80000b2c:	00485c3b          	srlw	x24,x16,x4
    80000b30:	6370ea13          	ori	x20,x1,1591
    80000b34:	736cd417          	auipc	x8,0x736cd
    80000b38:	012ef5b3          	and	x11,x29,x18
    80000b3c:	00fd5813          	srli	x16,x26,0xf
    80000b40:	56cd6697          	auipc	x13,0x56cd6
    80000b44:	01a3b0b3          	sltu	x1,x7,x26
    80000b48:	4017d99b          	sraiw	x19,x15,0x1
    80000b4c:	9dd921b7          	lui	x3,0x9dd92
    80000b50:	40638f33          	sub	x30,x7,x6
    80000b54:	02edd013          	srli	x0,x27,0x2e
    80000b58:	7e39a297          	auipc	x5,0x7e39a
    80000b5c:	00f5a633          	slt	x12,x11,x15
    80000b60:	007c9913          	slli	x18,x25,0x7
    80000b64:	b6f00d37          	lui	x26,0xb6f00
    80000b68:	00826433          	or	x8,x4,x8
    80000b6c:	409ed51b          	sraiw	x10,x29,0x9
    80000b70:	80345a37          	lui	x20,0x80345
    80000b74:	0072b033          	sltu	x0,x5,x7
    80000b78:	00ad581b          	srliw	x16,x26,0xa
    80000b7c:	41f4be37          	lui	x28,0x41f4b
    80000b80:	418adf3b          	sraw	x30,x21,x24
    80000b84:	4ca43c93          	sltiu	x25,x8,1226
    80000b88:	ebf83c37          	lui	x24,0xebf83
    80000b8c:	00131fbb          	sllw	x31,x6,x1
    80000b90:	03161293          	slli	x5,x12,0x31
    80000b94:	fc8266b7          	lui	x13,0xfc826
    80000b98:	402f0233          	sub	x4,x30,x2
    80000b9c:	40aed013          	srai	x0,x29,0xa
    80000ba0:	7c6e6db7          	lui	x27,0x7c6e6
    80000ba4:	4188d7b3          	sra	x15,x17,x24
    80000ba8:	6576e813          	ori	x16,x13,1623
    80000bac:	273cbd17          	auipc	x26,0x273cb
    80000bb0:	4142de3b          	sraw	x28,x5,x20
    80000bb4:	0b934c93          	xori	x25,x6,185
    80000bb8:	225268b7          	lui	x17,0x22526
    80000bbc:	40e3d733          	sra	x14,x7,x14
    80000bc0:	008ddd9b          	srliw	x27,x27,0x8
    80000bc4:	4ba40017          	auipc	x0,0x4ba40
    80000bc8:	00c60c3b          	addw	x24,x12,x12
    80000bcc:	40eb6913          	ori	x18,x22,1038
    80000bd0:	f57a40b7          	lui	x1,0xf57a4
    80000bd4:	01ff1dbb          	sllw	x27,x30,x31
    80000bd8:	56e6ca93          	xori	x21,x13,1390
    80000bdc:	e1787517          	auipc	x10,0xe1787
    80000be0:	00bf48b3          	xor	x17,x30,x11
    80000be4:	4165dc9b          	sraiw	x25,x11,0x16
    80000be8:	cd736697          	auipc	x13,0xcd736
    80000bec:	4184d9b3          	sra	x19,x9,x24
    80000bf0:	40ff5a9b          	sraiw	x21,x30,0xf
    80000bf4:	6eca0737          	lui	x14,0x6eca0
    80000bf8:	0122f933          	and	x18,x5,x18
    80000bfc:	79dbbe93          	sltiu	x29,x23,1949
    80000c00:	dde9a417          	auipc	x8,0xdde9a
    80000c04:	013bf833          	and	x16,x23,x19
    80000c08:	31bd0e13          	addi	x28,x26,795 # a73cbec7 <_start+0x273cbec7>
    80000c0c:	23361797          	auipc	x15,0x23361
    80000c10:	003b0333          	add	x6,x22,x3
    80000c14:	37706e93          	ori	x29,x0,887
    80000c18:	58e05ab7          	lui	x21,0x58e05
    80000c1c:	41665c3b          	sraw	x24,x12,x22
    80000c20:	4010549b          	sraiw	x9,x0,0x1
    80000c24:	55bfba37          	lui	x20,0x55bfb
    80000c28:	01e55fbb          	srlw	x31,x10,x30
    80000c2c:	7ffec693          	xori	x13,x29,2047
    80000c30:	b59d9f17          	auipc	x30,0xb59d9
    80000c34:	41b709b3          	sub	x19,x14,x27
    80000c38:	2c102c13          	slti	x24,x0,705
    80000c3c:	8b8abab7          	lui	x21,0x8b8ab
    80000c40:	01f30d3b          	addw	x26,x6,x31
    80000c44:	01751313          	slli	x6,x10,0x17
    80000c48:	4d631837          	lui	x16,0x4d631
    80000c4c:	00e91a33          	sll	x20,x18,x14
    80000c50:	3a0f8b9b          	addiw	x23,x31,928
    80000c54:	df4d00b7          	lui	x1,0xdf4d0
    80000c58:	41815b3b          	sraw	x22,x2,x24
    80000c5c:	00529c1b          	slliw	x24,x5,0x5
    80000c60:	a9da3517          	auipc	x10,0xa9da3
    80000c64:	015f5bb3          	srl	x23,x30,x21
    80000c68:	56d0cd13          	xori	x26,x1,1389
    80000c6c:	8c7c85b7          	lui	x11,0x8c7c8
    80000c70:	00caa8b3          	slt	x17,x21,x12
    80000c74:	75616b13          	ori	x22,x2,1878
    80000c78:	849451b7          	lui	x3,0x84945
    80000c7c:	01773d33          	sltu	x26,x14,x23
    80000c80:	014c5713          	srli	x14,x24,0x14
    80000c84:	40b7fe17          	auipc	x28,0x40b7f
    80000c88:	01bf5bb3          	srl	x23,x30,x27
    80000c8c:	4079d19b          	sraiw	x3,x19,0x7
    80000c90:	f6ed0d37          	lui	x26,0xf6ed0
    80000c94:	004cfb33          	and	x22,x25,x4
    80000c98:	01071e1b          	slliw	x28,x14,0x10
    80000c9c:	38a5ae97          	auipc	x29,0x38a5a
    80000ca0:	01e855b3          	srl	x11,x16,x30
    80000ca4:	40115d93          	srai	x27,x2,0x1
    80000ca8:	07971a37          	lui	x20,0x7971
    80000cac:	00e1923b          	sllw	x4,x3,x14
    80000cb0:	00389e93          	slli	x29,x17,0x3
    80000cb4:	47e7cb17          	auipc	x22,0x47e7c
    80000cb8:	41768cb3          	sub	x25,x13,x23
    80000cbc:	0c740d1b          	addiw	x26,x8,199 # 5de9acc7 <_start-0x22165339>
    80000cc0:	0e22f6b7          	lui	x13,0xe22f
    80000cc4:	00ce8a33          	add	x20,x29,x12
    80000cc8:	4c1db913          	sltiu	x18,x27,1217
    80000ccc:	1c0be617          	auipc	x12,0x1c0be
    80000cd0:	41585f33          	sra	x30,x16,x21
    80000cd4:	35123993          	sltiu	x19,x4,849
    80000cd8:	2db66eb7          	lui	x29,0x2db66
    80000cdc:	00849833          	sll	x16,x9,x8
    80000ce0:	02466313          	ori	x6,x12,36
    80000ce4:	23ec7937          	lui	x18,0x23ec7
    80000ce8:	40abd03b          	sraw	x0,x23,x10
    80000cec:	2272be13          	sltiu	x28,x5,551
    80000cf0:	034a1637          	lui	x12,0x34a1
    80000cf4:	41e5df33          	sra	x30,x11,x30
    80000cf8:	100a3593          	sltiu	x11,x20,256
    80000cfc:	6a09c6b7          	lui	x13,0x6a09c
    80000d00:	018578b3          	and	x17,x10,x24
    80000d04:	00aa5913          	srli	x18,x20,0xa
    80000d08:	e0a4b537          	lui	x10,0xe0a4b
    80000d0c:	41570e3b          	subw	x28,x14,x21
    80000d10:	00975a13          	srli	x20,x14,0x9
    80000d14:	cc99d237          	lui	x4,0xcc99d
    80000d18:	00c95fbb          	srlw	x31,x18,x12
    80000d1c:	27e2b113          	sltiu	x2,x5,638
    80000d20:	3b548737          	lui	x14,0x3b548
    80000d24:	00a9d1b3          	srl	x3,x19,x10
    80000d28:	7a16859b          	addiw	x11,x13,1953 # 6a09c7a1 <_start-0x15f6385f>
    80000d2c:	a36b5b17          	auipc	x22,0xa36b5
    80000d30:	411bdcb3          	sra	x25,x23,x17
    80000d34:	40445693          	srai	x13,x8,0x4
    80000d38:	bb627e97          	auipc	x29,0xbb627
    80000d3c:	00088e3b          	addw	x28,x17,x0
    80000d40:	79a14993          	xori	x19,x2,1946
    80000d44:	ded3d5b7          	lui	x11,0xded3d
    80000d48:	01239abb          	sllw	x21,x7,x18
    80000d4c:	1c988893          	addi	x17,x17,457 # 225261c9 <_start-0x5dad9e37>
    80000d50:	b7a70b37          	lui	x22,0xb7a70
    80000d54:	00a28633          	add	x12,x5,x10
    80000d58:	6b486813          	ori	x16,x16,1716
    80000d5c:	78e9beb7          	lui	x29,0x78e9b
    80000d60:	01a8dbb3          	srl	x23,x17,x26
    80000d64:	00ac559b          	srliw	x11,x24,0xa
    80000d68:	f5e19db7          	lui	x27,0xf5e19
    80000d6c:	01e2bb33          	sltu	x22,x5,x30
    80000d70:	03d49c93          	slli	x25,x9,0x3d
    80000d74:	e891e037          	lui	x0,0xe891e
    80000d78:	017f1a33          	sll	x20,x30,x23
    80000d7c:	50b7ba93          	sltiu	x21,x15,1291
    80000d80:	49c5c717          	auipc	x14,0x49c5c
    80000d84:	0086b7b3          	sltu	x15,x13,x8
    80000d88:	3d94f613          	andi	x12,x9,985
    80000d8c:	7bcce437          	lui	x8,0x7bcce
    80000d90:	00dfbb33          	sltu	x22,x31,x13
    80000d94:	02bbd393          	srli	x7,x23,0x2b
    80000d98:	7cb5d6b7          	lui	x13,0x7cb5d
    80000d9c:	00ae4fb3          	xor	x31,x28,x10
    80000da0:	40e9d293          	srai	x5,x19,0xe
    80000da4:	68dd7917          	auipc	x18,0x68dd7
    80000da8:	40cb5333          	sra	x6,x22,x12
    80000dac:	16bc849b          	addiw	x9,x25,363 # 68672afb <_start-0x1798d505>
    80000db0:	96657417          	auipc	x8,0x96657
    80000db4:	407a05bb          	subw	x11,x20,x7
    80000db8:	50b8ff93          	andi	x31,x17,1291
    80000dbc:	6259a0b7          	lui	x1,0x6259a
    80000dc0:	006eeb33          	or	x22,x29,x6
    80000dc4:	4201d813          	srai	x16,x3,0x20
    80000dc8:	f90ecc97          	auipc	x25,0xf90ec
    80000dcc:	41f58f3b          	subw	x30,x11,x31
    80000dd0:	018c1d1b          	slliw	x26,x24,0x18
    80000dd4:	3ae5cfb7          	lui	x31,0x3ae5c
    80000dd8:	405550bb          	sraw	x1,x10,x5
    80000ddc:	41ca549b          	sraiw	x9,x20,0x1c
    80000de0:	d4697997          	auipc	x19,0xd4697
    80000de4:	0086d8bb          	srlw	x17,x13,x8
    80000de8:	005d919b          	slliw	x3,x27,0x5
    80000dec:	08f9aa37          	lui	x20,0x8f9a
    80000df0:	012b5cbb          	srlw	x25,x22,x18
    80000df4:	188f7d93          	andi	x27,x30,392
    80000df8:	151ea037          	lui	x0,0x151ea
    80000dfc:	01af123b          	sllw	x4,x30,x26
    80000e00:	643f6193          	ori	x3,x30,1603
    80000e04:	654ace37          	lui	x28,0x654ac
    80000e08:	00847633          	and	x12,x8,x8
    80000e0c:	2143049b          	addiw	x9,x6,532 # 43328b98 <_start-0x3ccd7468>
    80000e10:	fdf49537          	lui	x10,0xfdf49
    80000e14:	01a215bb          	sllw	x11,x4,x26
    80000e18:	1413041b          	addiw	x8,x6,321
    80000e1c:	d05c8f37          	lui	x30,0xd05c8
    80000e20:	015fc333          	xor	x6,x31,x21
    80000e24:	7ada0713          	addi	x14,x20,1965 # 8f9a7ad <_start-0x77065853>
    80000e28:	8aad1db7          	lui	x27,0x8aad1
    80000e2c:	415c0cb3          	sub	x25,x24,x21
    80000e30:	00e4df9b          	srliw	x31,x9,0xe
    80000e34:	6a0d3237          	lui	x4,0x6a0d3
    80000e38:	400b59b3          	sra	x19,x22,x0
    80000e3c:	03e29293          	slli	x5,x5,0x3e
    80000e40:	a332b937          	lui	x18,0xa332b
    80000e44:	0103ecb3          	or	x25,x7,x16
    80000e48:	3b37fc13          	andi	x24,x15,947
    80000e4c:	60a33b97          	auipc	x23,0x60a33
    80000e50:	408785b3          	sub	x11,x15,x8
    80000e54:	4869f913          	andi	x18,x19,1158
    80000e58:	c8f144b7          	lui	x9,0xc8f14
    80000e5c:	403702b3          	sub	x5,x14,x3
    80000e60:	23718c1b          	addiw	x24,x3,567 # ffffffff84945237 <_start+0xffffffff04945237>
    80000e64:	d8592217          	auipc	x4,0xd8592
    80000e68:	008a7db3          	and	x27,x20,x8
    80000e6c:	4043de9b          	sraiw	x29,x7,0x4
    80000e70:	a7734797          	auipc	x15,0xa7734
    80000e74:	40c0893b          	subw	x18,x1,x12
    80000e78:	031c9c93          	slli	x25,x25,0x31
    80000e7c:	4dcbcdb7          	lui	x27,0x4dcbc
    80000e80:	0154d0b3          	srl	x1,x9,x21
    80000e84:	035e5893          	srli	x17,x28,0x35
    80000e88:	682a27b7          	lui	x15,0x682a2
    80000e8c:	414201bb          	subw	x3,x4,x20
    80000e90:	03ba1293          	slli	x5,x20,0x3b
    80000e94:	672c80b7          	lui	x1,0x672c8
    80000e98:	01736533          	or	x10,x6,x23
    80000e9c:	01b21893          	slli	x17,x4,0x1b
    80000ea0:	fbcb6437          	lui	x8,0xfbcb6
    80000ea4:	404f83b3          	sub	x7,x31,x4
    80000ea8:	418bd213          	srai	x4,x23,0x18
    80000eac:	ca300b97          	auipc	x23,0xca300
    80000eb0:	0195dc3b          	srlw	x24,x11,x25
    80000eb4:	401b589b          	sraiw	x17,x22,0x1
    80000eb8:	696cb617          	auipc	x12,0x696cb
    80000ebc:	4060db33          	sra	x22,x1,x6
    80000ec0:	01b95313          	srli	x6,x18,0x1b
    80000ec4:	7923c237          	lui	x4,0x7923c
    80000ec8:	01712933          	slt	x18,x2,x23
    80000ecc:	4a3c6f13          	ori	x30,x24,1187
    80000ed0:	984ca617          	auipc	x12,0x984ca
    80000ed4:	41615c3b          	sraw	x24,x2,x22
    80000ed8:	5ed82e93          	slti	x29,x16,1517
    80000edc:	45ae53b7          	lui	x7,0x45ae5
    80000ee0:	400f843b          	subw	x8,x31,x0
    80000ee4:	02f25593          	srli	x11,x4,0x2f
    80000ee8:	a49771b7          	lui	x3,0xa4977
    80000eec:	002d8cbb          	addw	x25,x27,x2
    80000ef0:	310f7e93          	andi	x29,x30,784
    80000ef4:	d9023537          	lui	x10,0xd9023
    80000ef8:	00ed5d33          	srl	x26,x26,x14
    80000efc:	03821093          	slli	x1,x4,0x38
    80000f00:	4f6455b7          	lui	x11,0x4f645
    80000f04:	016f33b3          	sltu	x7,x30,x22
    80000f08:	0132d713          	srli	x14,x5,0x13
    80000f0c:	6c56b517          	auipc	x10,0x6c56b
    80000f10:	412202b3          	sub	x5,x4,x18
    80000f14:	40435893          	srai	x17,x6,0x4
    80000f18:	f0bd9e17          	auipc	x28,0xf0bd9
    80000f1c:	00dc1133          	sll	x2,x24,x13
    80000f20:	01f2121b          	slliw	x4,x4,0x1f
    80000f24:	15e039b7          	lui	x19,0x15e03
    80000f28:	018c8fb3          	add	x31,x25,x24
    80000f2c:	41d1da9b          	sraiw	x21,x3,0x1d
    80000f30:	83829d17          	auipc	x26,0x83829
    80000f34:	40ce58b3          	sra	x17,x28,x12
    80000f38:	1f3b3393          	sltiu	x7,x22,499
    80000f3c:	7c839837          	lui	x16,0x7c839
    80000f40:	01920433          	add	x8,x4,x25
    80000f44:	24ee0c9b          	addiw	x25,x28,590 # 70bda166 <_start-0xf425e9a>
    80000f48:	5ac8bfb7          	lui	x31,0x5ac8b
    80000f4c:	403481b3          	sub	x3,x9,x3
    80000f50:	42086a93          	ori	x21,x16,1056
    80000f54:	26448097          	auipc	x1,0x26448
    80000f58:	00284eb3          	xor	x29,x16,x2
    80000f5c:	68657613          	andi	x12,x10,1670
    80000f60:	97ccd017          	auipc	x0,0x97ccd
    80000f64:	01b454b3          	srl	x9,x8,x27
    80000f68:	24dd2a93          	slti	x21,x26,589
    80000f6c:	6d0e2fb7          	lui	x31,0x6d0e2
    80000f70:	001f2633          	slt	x12,x30,x1
    80000f74:	4087d41b          	sraiw	x8,x15,0x8
    80000f78:	c6c74c97          	auipc	x25,0xc6c74
    80000f7c:	4035533b          	sraw	x6,x10,x3
    80000f80:	022bdb93          	srli	x23,x23,0x22
    80000f84:	860dbeb7          	lui	x29,0x860db
    80000f88:	40255dbb          	sraw	x27,x10,x2
    80000f8c:	06b7f213          	andi	x4,x15,107
    80000f90:	e5048a97          	auipc	x21,0xe5048
    80000f94:	01ad0b33          	add	x22,x26,x26
    80000f98:	6c8a6893          	ori	x17,x20,1736
    80000f9c:	63a9eb97          	auipc	x23,0x63a9e
    80000fa0:	00804f33          	xor	x30,x0,x8
    80000fa4:	41d62e93          	slti	x29,x12,1053
    80000fa8:	f110c7b7          	lui	x15,0xf110c
    80000fac:	004678b3          	and	x17,x12,x4
    80000fb0:	2c04081b          	addiw	x16,x8,704 # fffffffffbcb62c0 <_start+0xffffffff7bcb62c0>
    80000fb4:	ad82c337          	lui	x6,0xad82c
    80000fb8:	01fd7d33          	and	x26,x26,x31
    80000fbc:	6fa02c13          	slti	x24,x0,1786
    80000fc0:	62946597          	auipc	x11,0x62946
    80000fc4:	004e07bb          	addw	x15,x28,x4
    80000fc8:	0163919b          	slliw	x3,x7,0x16
    80000fcc:	58f7e897          	auipc	x17,0x58f7e
    80000fd0:	0106df33          	srl	x30,x13,x16
    80000fd4:	00d61713          	slli	x14,x12,0xd
    80000fd8:	e7d95a37          	lui	x20,0xe7d95
    80000fdc:	01c041b3          	xor	x3,x0,x28
    80000fe0:	431cdf93          	srai	x31,x25,0x31
    80000fe4:	c95f7417          	auipc	x8,0xc95f7
    80000fe8:	00f25d33          	srl	x26,x4,x15
    80000fec:	4bde8b93          	addi	x23,x29,1213 # ffffffff860db4bd <_start+0xffffffff060db4bd>
    80000ff0:	8e9f8537          	lui	x10,0x8e9f8
    80000ff4:	0189b1b3          	sltu	x3,x19,x24
    80000ff8:	0090161b          	slliw	x12,x0,0x9
    80000ffc:	adb92137          	lui	x2,0xadb92
    80001000:	01f9173b          	sllw	x14,x18,x31
    80001004:	7617c493          	xori	x9,x15,1889
    80001008:	57a87a97          	auipc	x21,0x57a87
    8000100c:	004027b3          	slt	x15,x0,x4
    80001010:	35258193          	addi	x3,x11,850 # e2947312 <_start+0x62947312>
    80001014:	3ae64a17          	auipc	x20,0x3ae64
    80001018:	00253e33          	sltu	x28,x10,x2
    8000101c:	49eb2993          	slti	x19,x22,1182
    80001020:	38f78437          	lui	x8,0x38f78
    80001024:	0057d2b3          	srl	x5,x15,x5
    80001028:	2af53813          	sltiu	x16,x10,687
    8000102c:	0df42d17          	auipc	x26,0xdf42
    80001030:	00303733          	sltu	x14,x0,x3
    80001034:	61a12513          	slti	x10,x2,1562
    80001038:	c486c437          	lui	x8,0xc486c
    8000103c:	016be8b3          	or	x17,x23,x22
    80001040:	42ff5a93          	srai	x21,x30,0x2f
    80001044:	0448d7b7          	lui	x15,0x448d
    80001048:	007b9733          	sll	x14,x23,x7
    8000104c:	5059e593          	ori	x11,x19,1285
    80001050:	ef639c17          	auipc	x24,0xef639
    80001054:	408d5dbb          	sraw	x27,x26,x8
    80001058:	29ee7413          	andi	x8,x28,670
    8000105c:	ecaf23b7          	lui	x7,0xecaf2
    80001060:	00d00b3b          	addw	x22,x0,x13
    80001064:	024eda93          	srli	x21,x29,0x24
    80001068:	342e4037          	lui	x0,0x342e4
    8000106c:	01e92db3          	slt	x27,x18,x30
    80001070:	638f3393          	sltiu	x7,x30,1592
    80001074:	440af997          	auipc	x19,0x440af
    80001078:	010788b3          	add	x17,x15,x16
    8000107c:	4006579b          	sraiw	x15,x12,0x0
    80001080:	68769b37          	lui	x22,0x68769
    80001084:	41920833          	sub	x16,x4,x25
    80001088:	67a9ad93          	slti	x27,x19,1658
    8000108c:	284d4317          	auipc	x6,0x284d4
    80001090:	4119803b          	subw	x0,x19,x17
    80001094:	00065d1b          	srliw	x26,x12,0x0
    80001098:	971feab7          	lui	x21,0x971fe
    8000109c:	01cfde3b          	srlw	x28,x31,x28
    800010a0:	4127d71b          	sraiw	x14,x15,0x12
    800010a4:	2c11e0b7          	lui	x1,0x2c11e
    800010a8:	00fb86bb          	addw	x13,x23,x15
    800010ac:	01db9e93          	slli	x29,x23,0x1d
    800010b0:	cd13d917          	auipc	x18,0xcd13d
    800010b4:	00fbb033          	sltu	x0,x23,x15
    800010b8:	01fc151b          	slliw	x10,x24,0x1f
    800010bc:	dcf27737          	lui	x14,0xdcf27
    800010c0:	41cd57bb          	sraw	x15,x26,x28
    800010c4:	4d4b8d9b          	addiw	x27,x23,1236 # ffffffffe3a9f470 <_start+0xffffffff63a9f470>
    800010c8:	bd45fa17          	auipc	x20,0xbd45f
    800010cc:	015f76b3          	and	x13,x30,x21
    800010d0:	01629e1b          	slliw	x28,x5,0x16
    800010d4:	e0d86737          	lui	x14,0xe0d86
    800010d8:	018124b3          	slt	x9,x2,x24
    800010dc:	6073c593          	xori	x11,x7,1543
    800010e0:	ad7ebb37          	lui	x22,0xad7eb
    800010e4:	012f42b3          	xor	x5,x30,x18
    800010e8:	2d51ae13          	slti	x28,x3,725
    800010ec:	5ba43437          	lui	x8,0x5ba43
    800010f0:	01890bb3          	add	x23,x18,x24
    800010f4:	01679c13          	slli	x24,x15,0x16
    800010f8:	e17df697          	auipc	x13,0xe17df
    800010fc:	0050f9b3          	and	x19,x1,x5
    80001100:	00e1d293          	srli	x5,x3,0xe
    80001104:	90ce9f17          	auipc	x30,0x90ce9
    80001108:	40a55e33          	sra	x28,x10,x10
    8000110c:	022a1093          	slli	x1,x20,0x22
    80001110:	ec303d17          	auipc	x26,0xec303
    80001114:	415c8133          	sub	x2,x25,x21
    80001118:	00e5df1b          	srliw	x30,x11,0xe
    8000111c:	9e644b17          	auipc	x22,0x9e644
    80001120:	0036b3b3          	sltu	x7,x13,x3
    80001124:	00b09093          	slli	x1,x1,0xb
    80001128:	96d47017          	auipc	x0,0x96d47
    8000112c:	003171b3          	and	x3,x2,x3
    80001130:	2b54021b          	addiw	x4,x8,693 # 5ba432b5 <_start-0x245bcd4b>
    80001134:	29994c17          	auipc	x24,0x29994
    80001138:	01b093b3          	sll	x7,x1,x27
    8000113c:	40ded313          	srai	x6,x29,0xd
    80001140:	21718d37          	lui	x26,0x21718
    80001144:	003b9e33          	sll	x28,x23,x3
    80001148:	7cb1cf13          	xori	x30,x3,1995
    8000114c:	3af26117          	auipc	x2,0x3af26
    80001150:	00ffabb3          	slt	x23,x31,x15
    80001154:	40d35c93          	srai	x25,x6,0xd
    80001158:	beb9cfb7          	lui	x31,0xbeb9c
    8000115c:	41175f33          	sra	x30,x14,x17
    80001160:	08fa3113          	sltiu	x2,x20,143
    80001164:	c19b9237          	lui	x4,0xc19b9
    80001168:	40c956bb          	sraw	x13,x18,x12
    8000116c:	432adc93          	srai	x25,x21,0x32
    80001170:	2edf2497          	auipc	x9,0x2edf2
    80001174:	01f7cb33          	xor	x22,x15,x31
    80001178:	412dd61b          	sraiw	x12,x27,0x12
    8000117c:	bf4f9917          	auipc	x18,0xbf4f9
    80001180:	00400033          	add	x0,x0,x4
    80001184:	35aced93          	ori	x27,x25,858
    80001188:	3b4e5337          	lui	x6,0x3b4e5
    8000118c:	011d58bb          	srlw	x17,x26,x17
    80001190:	0105129b          	slliw	x5,x10,0x10
    80001194:	14e75fb7          	lui	x31,0x14e75
    80001198:	01d6cc33          	xor	x24,x13,x29
    8000119c:	0063d59b          	srliw	x11,x7,0x6
    800011a0:	80ac2217          	auipc	x4,0x80ac2
    800011a4:	003b03bb          	addw	x7,x22,x3
    800011a8:	3e3d0c9b          	addiw	x25,x26,995 # 217183e3 <_start-0x5e8e7c1d>
    800011ac:	cc7d3e97          	auipc	x29,0xcc7d3
    800011b0:	01b511bb          	sllw	x3,x10,x27
    800011b4:	00469993          	slli	x19,x13,0x4
    800011b8:	c9c4d417          	auipc	x8,0xc9c4d
    800011bc:	01478db3          	add	x27,x15,x20
    800011c0:	28ceee13          	ori	x28,x29,652
    800011c4:	890f3097          	auipc	x1,0x890f3
    800011c8:	416651b3          	sra	x3,x12,x22
    800011cc:	022d1013          	slli	x0,x26,0x22
    800011d0:	5bc2abb7          	lui	x23,0x5bc2a
    800011d4:	013f7733          	and	x14,x30,x19
    800011d8:	01f3929b          	slliw	x5,x7,0x1f
    800011dc:	25dcdfb7          	lui	x31,0x25dcd
    800011e0:	419e853b          	subw	x10,x29,x25
    800011e4:	0004909b          	slliw	x1,x9,0x0
    800011e8:	513f1e37          	lui	x28,0x513f1
    800011ec:	0087033b          	addw	x6,x14,x8
    800011f0:	32af0a1b          	addiw	x20,x30,810 # 10cea42e <_start-0x6f315bd2>
    800011f4:	61029bb7          	lui	x23,0x61029
    800011f8:	00fc2933          	slt	x18,x24,x15
    800011fc:	58b58b1b          	addiw	x22,x11,1419
    80001200:	088cb197          	auipc	x3,0x88cb
    80001204:	4103063b          	subw	x12,x6,x16
    80001208:	629ccd93          	xori	x27,x25,1577
    8000120c:	605acc37          	lui	x24,0x605ac
    80001210:	00f89d33          	sll	x26,x17,x15
    80001214:	4092d69b          	sraiw	x13,x5,0x9
    80001218:	e3b40617          	auipc	x12,0xe3b40
    8000121c:	016dddbb          	srlw	x27,x27,x22
    80001220:	0044531b          	srliw	x6,x8,0x4
    80001224:	0122dab7          	lui	x21,0x122d
    80001228:	0032fd33          	and	x26,x5,x3
    8000122c:	65d2b493          	sltiu	x9,x5,1629
    80001230:	d7a4e917          	auipc	x18,0xd7a4e
    80001234:	00ed89bb          	addw	x19,x27,x14
    80001238:	0201d793          	srli	x15,x3,0x20
    8000123c:	81410417          	auipc	x8,0x81410
    80001240:	4176d533          	sra	x10,x13,x23
    80001244:	41995013          	srai	x0,x18,0x19
    80001248:	d037c597          	auipc	x11,0xd037c
    8000124c:	4110d133          	sra	x2,x1,x17
    80001250:	423ed213          	srai	x4,x29,0x23
    80001254:	fc52f0b7          	lui	x1,0xfc52f
    80001258:	01585eb3          	srl	x29,x16,x21
    8000125c:	71e97a13          	andi	x20,x18,1822
    80001260:	5ebaba97          	auipc	x21,0x5ebab
    80001264:	000d99bb          	sllw	x19,x27,x0
    80001268:	4ed3059b          	addiw	x11,x6,1261 # 3b4e54ed <_start-0x44b1ab13>
    8000126c:	703b9117          	auipc	x2,0x703b9
    80001270:	417e8333          	sub	x6,x29,x23
    80001274:	03f2dc13          	srli	x24,x5,0x3f
    80001278:	e1656f97          	auipc	x31,0xe1656
    8000127c:	0112dcbb          	srlw	x25,x5,x17
    80001280:	41f4df1b          	sraiw	x30,x9,0x1f
    80001284:	72b9db17          	auipc	x22,0x72b9d
    80001288:	010590bb          	sllw	x1,x11,x16
    8000128c:	18aee693          	ori	x13,x29,394
    80001290:	47816297          	auipc	x5,0x47816
    80001294:	008641b3          	xor	x3,x12,x8
    80001298:	78898013          	addi	x0,x19,1928 # c40b07fc <_start+0x440b07fc>
    8000129c:	19e08b37          	lui	x22,0x19e08
    800012a0:	0158cc33          	xor	x24,x17,x21
    800012a4:	14b53a13          	sltiu	x20,x10,331
    800012a8:	42db3617          	auipc	x12,0x42db3
    800012ac:	4015d7bb          	sraw	x15,x11,x1
    800012b0:	1c21f193          	andi	x3,x3,450
    800012b4:	9ddfec97          	auipc	x25,0x9ddfe
    800012b8:	01c316b3          	sll	x13,x6,x28
    800012bc:	799e0c13          	addi	x24,x28,1945 # 513f1799 <_start-0x2ec0e867>
    800012c0:	6d8ab717          	auipc	x14,0x6d8ab
    800012c4:	408f87b3          	sub	x15,x31,x8
    800012c8:	03fcd813          	srli	x16,x25,0x3f
    800012cc:	dbc1e217          	auipc	x4,0xdbc1e
    800012d0:	011e13bb          	sllw	x7,x28,x17
    800012d4:	01141e1b          	slliw	x28,x8,0x11
    800012d8:	46116eb7          	lui	x29,0x46116
    800012dc:	00b6a633          	slt	x12,x13,x11
    800012e0:	41585d9b          	sraiw	x27,x16,0x15
    800012e4:	ec1df2b7          	lui	x5,0xec1df
    800012e8:	01c5cc33          	xor	x24,x11,x28
    800012ec:	18c24893          	xori	x17,x4,396
    800012f0:	a2d76d17          	auipc	x26,0xa2d76
    800012f4:	00bbc133          	xor	x2,x23,x11
    800012f8:	1dd63493          	sltiu	x9,x12,477
    800012fc:	a4e51737          	lui	x14,0xa4e51
    80001300:	00c5963b          	sllw	x12,x11,x12
    80001304:	40c05f9b          	sraiw	x31,x0,0xc
    80001308:	5f83db97          	auipc	x23,0x5f83d
    8000130c:	0059cf33          	xor	x30,x19,x5
    80001310:	02115393          	srli	x7,x2,0x21
    80001314:	c1f8e0b7          	lui	x1,0xc1f8e
    80001318:	410751b3          	sra	x3,x14,x16
    8000131c:	01235c13          	srli	x24,x6,0x12
    80001320:	4d6942b7          	lui	x5,0x4d694
    80001324:	00ff5333          	srl	x6,x30,x15
    80001328:	14f6021b          	addiw	x4,x12,335 # ffffffffc2db43f7 <_start+0xffffffff42db43f7>
    8000132c:	9ab0c4b7          	lui	x9,0x9ab0c
    80001330:	00885f3b          	srlw	x30,x16,x8
    80001334:	422cd893          	srai	x17,x25,0x22
    80001338:	5962cb97          	auipc	x23,0x5962c
    8000133c:	0086de33          	srl	x28,x13,x8
    80001340:	15eeb293          	sltiu	x5,x29,350
    80001344:	b714eb37          	lui	x22,0xb714e
    80001348:	01f7dd33          	srl	x26,x15,x31
    8000134c:	01511f1b          	slliw	x30,x2,0x15
    80001350:	9ac50e17          	auipc	x28,0x9ac50
    80001354:	0040adb3          	slt	x27,x1,x4
    80001358:	39e7f293          	andi	x5,x15,926
    8000135c:	40555137          	lui	x2,0x40555
    80001360:	40f85d3b          	sraw	x26,x16,x15
    80001364:	398e2693          	slti	x13,x28,920
    80001368:	44990637          	lui	x12,0x44990
    8000136c:	014b6433          	or	x8,x22,x20
    80001370:	57e97c13          	andi	x24,x18,1406
    80001374:	8a363997          	auipc	x19,0x8a363
    80001378:	0160153b          	sllw	x10,x0,x22
    8000137c:	01129b1b          	slliw	x22,x5,0x11
    80001380:	386548b7          	lui	x17,0x38654
    80001384:	0032f7b3          	and	x15,x5,x3
    80001388:	60398813          	addi	x16,x19,1539 # a364977 <_start-0x75c9b689>
    8000138c:	acfff517          	auipc	x10,0xacfff
    80001390:	0049e5b3          	or	x11,x19,x4
    80001394:	403ddd93          	srai	x27,x27,0x3
    80001398:	47948e97          	auipc	x29,0x47948
    8000139c:	01f98133          	add	x2,x19,x31
    800013a0:	1c028f93          	addi	x31,x5,448 # 4d6941c0 <_start-0x3296be40>
    800013a4:	9fa865b7          	lui	x11,0x9fa86
    800013a8:	003d53b3          	srl	x7,x26,x3
    800013ac:	00ed909b          	slliw	x1,x27,0xe
    800013b0:	b83dae37          	lui	x28,0xb83da
    800013b4:	41698bbb          	subw	x23,x19,x22
    800013b8:	00d7969b          	slliw	x13,x15,0xd
    800013bc:	144b0d17          	auipc	x26,0x144b0
    800013c0:	01339cb3          	sll	x25,x7,x19
    800013c4:	02cd8793          	addi	x15,x27,44 # 4dcbc02c <_start-0x32343fd4>
    800013c8:	66ff5217          	auipc	x4,0x66ff5
    800013cc:	405b0a33          	sub	x20,x22,x5
    800013d0:	411e559b          	sraiw	x11,x28,0x11
    800013d4:	e7a19e17          	auipc	x28,0xe7a19
    800013d8:	0117893b          	addw	x18,x15,x17
    800013dc:	4de47e93          	andi	x29,x8,1246
    800013e0:	aa06ad97          	auipc	x27,0xaa06a
    800013e4:	40c50b3b          	subw	x22,x10,x12
    800013e8:	400c541b          	sraiw	x8,x24,0x0
    800013ec:	ef10ef37          	lui	x30,0xef10e
    800013f0:	00e6953b          	sllw	x10,x13,x14
    800013f4:	008edd1b          	srliw	x26,x29,0x8
    800013f8:	617708b7          	lui	x17,0x61770
    800013fc:	00234ab3          	xor	x21,x6,x2
    80001400:	29ef6913          	ori	x18,x30,670
    80001404:	f84c3c37          	lui	x24,0xf84c3
    80001408:	40d387b3          	sub	x15,x7,x13
    8000140c:	0def3193          	sltiu	x3,x30,222
    80001410:	2e039d37          	lui	x26,0x2e039
    80001414:	004d9dbb          	sllw	x27,x27,x4
    80001418:	35b2829b          	addiw	x5,x5,859
    8000141c:	33224697          	auipc	x13,0x33224
    80001420:	40488733          	sub	x14,x17,x4
    80001424:	3409fa93          	andi	x21,x19,832
    80001428:	e352ae37          	lui	x28,0xe352a
    8000142c:	004194b3          	sll	x9,x3,x4
    80001430:	01819f13          	slli	x30,x3,0x18
    80001434:	880b22b7          	lui	x5,0x880b2
    80001438:	00cbfdb3          	and	x27,x23,x12
    8000143c:	560c3813          	sltiu	x16,x24,1376
    80001440:	2e417d37          	lui	x26,0x2e417
    80001444:	4070803b          	subw	x0,x1,x7
    80001448:	54b47713          	andi	x14,x8,1355
    8000144c:	3f70ca97          	auipc	x21,0x3f70c
    80001450:	016881bb          	addw	x3,x17,x22
    80001454:	0314d593          	srli	x11,x9,0x31
    80001458:	a9c366b7          	lui	x13,0xa9c36
    8000145c:	009a4133          	xor	x2,x20,x9
    80001460:	014ed013          	srli	x0,x29,0x14
    80001464:	aced0db7          	lui	x27,0xaced0
    80001468:	01f8dd33          	srl	x26,x17,x31
    8000146c:	018ed21b          	srliw	x4,x29,0x18
    80001470:	9103e817          	auipc	x16,0x9103e
    80001474:	000f86b3          	add	x13,x31,x0
    80001478:	407ed89b          	sraiw	x17,x29,0x7
    8000147c:	99e5aeb7          	lui	x29,0x99e5a
    80001480:	004b04bb          	addw	x9,x22,x4
    80001484:	00085e13          	srli	x28,x16,0x0
    80001488:	d4057217          	auipc	x4,0xd4057
    8000148c:	01f5903b          	sllw	x0,x11,x31
    80001490:	281eba93          	sltiu	x21,x29,641
    80001494:	e7d837b7          	lui	x15,0xe7d83
    80001498:	018a5f3b          	srlw	x30,x20,x24
    8000149c:	4157529b          	sraiw	x5,x14,0x15
    800014a0:	b81a9cb7          	lui	x25,0xb81a9
    800014a4:	002e9333          	sll	x6,x29,x2
    800014a8:	33c1a493          	slti	x9,x3,828
    800014ac:	6209ed17          	auipc	x26,0x6209e
    800014b0:	00ef8eb3          	add	x29,x31,x14
    800014b4:	40a6f513          	andi	x10,x13,1034
    800014b8:	13a62917          	auipc	x18,0x13a62
    800014bc:	00e7ffb3          	and	x31,x15,x14
    800014c0:	794ccd13          	xori	x26,x25,1940
    800014c4:	ca80e8b7          	lui	x17,0xca80e
    800014c8:	41cf5e33          	sra	x28,x30,x28
    800014cc:	5959f313          	andi	x6,x19,1429
    800014d0:	53528e97          	auipc	x29,0x53528
    800014d4:	009c4cb3          	xor	x25,x24,x9
    800014d8:	5a31cd93          	xori	x27,x3,1443
    800014dc:	9a858217          	auipc	x4,0x9a858
    800014e0:	014b94bb          	sllw	x9,x23,x20
    800014e4:	07173f93          	sltiu	x31,x14,113
    800014e8:	5f229eb7          	lui	x29,0x5f229
    800014ec:	4027d73b          	sraw	x14,x15,x2
    800014f0:	3ffa2b93          	slti	x23,x20,1023
    800014f4:	a5e53337          	lui	x6,0xa5e53
    800014f8:	4199d833          	sra	x16,x19,x25
    800014fc:	2b618e9b          	addiw	x29,x3,694 # ffffffff888cc4b6 <_start+0xffffffff088cc4b6>
    80001500:	18c15db7          	lui	x27,0x18c15
    80001504:	009d57bb          	srlw	x15,x26,x9
    80001508:	7e50c993          	xori	x19,x1,2021
    8000150c:	18f92037          	lui	x0,0x18f92
    80001510:	011313b3          	sll	x7,x6,x17
    80001514:	41245c9b          	sraiw	x25,x8,0x12
    80001518:	bed2b2b7          	lui	x5,0xbed2b
    8000151c:	01deda3b          	srlw	x20,x29,x29
    80001520:	4f460b13          	addi	x22,x12,1268 # 449904f4 <_start-0x3b66fb0c>
    80001524:	9b8aa9b7          	lui	x19,0x9b8aa
    80001528:	00c70ab3          	add	x21,x14,x12
    8000152c:	58942513          	slti	x10,x8,1417
    80001530:	4c5594b7          	lui	x9,0x4c559
    80001534:	000d80bb          	addw	x1,x27,x0
    80001538:	019f1b9b          	slliw	x23,x30,0x19
    8000153c:	7787e837          	lui	x16,0x7787e
    80001540:	011ad7bb          	srlw	x15,x21,x17
    80001544:	2ce06f13          	ori	x30,x0,718
    80001548:	22959997          	auipc	x19,0x22959
    8000154c:	01805db3          	srl	x27,x0,x24
    80001550:	20910e13          	addi	x28,x2,521 # 40555209 <_start-0x3faaadf7>
    80001554:	59bb2617          	auipc	x12,0x59bb2
    80001558:	412b53b3          	sra	x7,x22,x18
    8000155c:	0a7fa013          	slti	x0,x31,167
    80001560:	90e33797          	auipc	x15,0x90e33
    80001564:	00184f33          	xor	x30,x16,x1
    80001568:	01ab961b          	slliw	x12,x23,0x1a
    8000156c:	b66949b7          	lui	x19,0xb6694
    80001570:	001c13b3          	sll	x7,x24,x1
    80001574:	00691893          	slli	x17,x18,0x6
    80001578:	ea5ac5b7          	lui	x11,0xea5ac
    8000157c:	406b52b3          	sra	x5,x22,x6
    80001580:	1e844093          	xori	x1,x8,488
    80001584:	a5a77e17          	auipc	x28,0xa5a77
    80001588:	01d60d3b          	addw	x26,x12,x29
    8000158c:	6a4a3393          	sltiu	x7,x20,1700
    80001590:	c3e26117          	auipc	x2,0xc3e26
    80001594:	01b21ebb          	sllw	x29,x4,x27
    80001598:	7f6f8e1b          	addiw	x28,x31,2038 # 61657a6e <_start-0x1e9a8592>
    8000159c:	c28e7db7          	lui	x27,0xc28e7
    800015a0:	0197143b          	sllw	x8,x14,x25
    800015a4:	03891213          	slli	x4,x18,0x38
    800015a8:	74979097          	auipc	x1,0x74979
    800015ac:	0127e9b3          	or	x19,x15,x18
    800015b0:	140dcb13          	xori	x22,x27,320
    800015b4:	5497c337          	lui	x6,0x5497c
    800015b8:	00467033          	and	x0,x12,x4
    800015bc:	2e0c3b93          	sltiu	x23,x24,736
    800015c0:	06c23517          	auipc	x10,0x6c23
    800015c4:	00571ebb          	sllw	x29,x14,x5
    800015c8:	71d38913          	addi	x18,x7,1821 # ffffffffecaf271d <_start+0xffffffff6caf271d>
    800015cc:	d5613d97          	auipc	x27,0xd5613
    800015d0:	01a0dd3b          	srlw	x26,x1,x26
    800015d4:	31744993          	xori	x19,x8,791
    800015d8:	35c64b97          	auipc	x23,0x35c64
    800015dc:	40f45f33          	sra	x30,x8,x15
    800015e0:	0ee4fe93          	andi	x29,x9,238
    800015e4:	372b9c17          	auipc	x24,0x372b9
    800015e8:	00a304bb          	addw	x9,x6,x10
    800015ec:	330e4393          	xori	x7,x28,816
    800015f0:	c1c49bb7          	lui	x23,0xc1c49
    800015f4:	419509b3          	sub	x19,x10,x25
    800015f8:	06e73693          	sltiu	x13,x14,110
    800015fc:	de10da37          	lui	x20,0xde10d
    80001600:	01d451b3          	srl	x3,x8,x29
    80001604:	0139539b          	srliw	x7,x18,0x13
    80001608:	d8297237          	lui	x4,0xd8297
    8000160c:	00875ab3          	srl	x21,x14,x8
    80001610:	4982be93          	sltiu	x29,x5,1176
    80001614:	f8da0317          	auipc	x6,0xf8da0
    80001618:	41f4d5bb          	sraw	x11,x9,x31
    8000161c:	41ecda13          	srai	x20,x25,0x1e
    80001620:	62ae88b7          	lui	x17,0x62ae8
    80001624:	00c487bb          	addw	x15,x9,x12
    80001628:	76a22e93          	slti	x29,x4,1898
    8000162c:	42647917          	auipc	x18,0x42647
    80001630:	40c70db3          	sub	x27,x14,x12
    80001634:	4135581b          	sraiw	x16,x10,0x13
    80001638:	911ad217          	auipc	x4,0x911ad
    8000163c:	01dc8733          	add	x14,x25,x29
    80001640:	2d7aa893          	slti	x17,x21,727
    80001644:	39cede37          	lui	x28,0x39ced
    80001648:	00a456bb          	srlw	x13,x8,x10
    8000164c:	0127919b          	slliw	x3,x15,0x12
    80001650:	191b8ab7          	lui	x21,0x191b8
    80001654:	41278d3b          	subw	x26,x15,x18
    80001658:	3ede7413          	andi	x8,x28,1005
    8000165c:	377f3bb7          	lui	x23,0x377f3
    80001660:	404a0933          	sub	x18,x20,x4
    80001664:	3f086613          	ori	x12,x16,1008
    80001668:	4c55ce17          	auipc	x28,0x4c55c
    8000166c:	405adabb          	sraw	x21,x21,x5
    80001670:	059df293          	andi	x5,x27,89
    80001674:	34a95217          	auipc	x4,0x34a95
    80001678:	009b3633          	sltu	x12,x22,x9
    8000167c:	1a9dad93          	slti	x27,x27,425
    80001680:	fca9d997          	auipc	x19,0xfca9d
    80001684:	002b75b3          	and	x11,x22,x2
    80001688:	676bc093          	xori	x1,x23,1654
    8000168c:	ae1c7917          	auipc	x18,0xae1c7
    80001690:	00966b33          	or	x22,x12,x9
    80001694:	004dde9b          	srliw	x29,x27,0x4
    80001698:	412f3e17          	auipc	x28,0x412f3
    8000169c:	00e18bb3          	add	x23,x3,x14
    800016a0:	015d541b          	srliw	x8,x26,0x15
    800016a4:	09286797          	auipc	x15,0x9286
    800016a8:	01658d3b          	addw	x26,x11,x22
    800016ac:	5ca64f13          	xori	x30,x12,1482
    800016b0:	c019dc17          	auipc	x24,0xc019d
    800016b4:	01566033          	or	x0,x12,x21
    800016b8:	6685091b          	addiw	x18,x10,1640 # ffffffff86c24c28 <_start+0xffffffff06c24c28>
    800016bc:	3cd5b9b7          	lui	x19,0x3cd5b
    800016c0:	005700bb          	addw	x1,x14,x5
    800016c4:	0cf32f13          	slti	x30,x6,207
    800016c8:	b9118397          	auipc	x7,0xb9118
    800016cc:	01b1eab3          	or	x21,x3,x27
    800016d0:	5147cc13          	xori	x24,x15,1300
    800016d4:	2142a017          	auipc	x0,0x2142a
    800016d8:	00eba533          	slt	x10,x23,x14
    800016dc:	73fdc313          	xori	x6,x27,1855
    800016e0:	015863b7          	lui	x7,0x1586
    800016e4:	002ccb33          	xor	x22,x25,x2
    800016e8:	0dee2713          	slti	x14,x28,222
    800016ec:	73ccbfb7          	lui	x31,0x73ccb
    800016f0:	014524b3          	slt	x9,x10,x20
    800016f4:	414d561b          	sraiw	x12,x26,0x14
    800016f8:	19936b17          	auipc	x22,0x19936
    800016fc:	006d6233          	or	x4,x26,x6
    80001700:	1b02c193          	xori	x3,x5,432
    80001704:	2ede3bb7          	lui	x23,0x2ede3
    80001708:	01dd9f33          	sll	x30,x27,x29
    8000170c:	7328079b          	addiw	x15,x16,1842 # 7787e732 <_start-0x87818ce>
    80001710:	a336e017          	auipc	x0,0xa336e
    80001714:	4053d933          	sra	x18,x7,x5
    80001718:	4b3a051b          	addiw	x10,x20,1203 # ffffffffde10d4b3 <_start+0xffffffff5e10d4b3>
    8000171c:	19bfeb97          	auipc	x23,0x19bfe
    80001720:	008aaab3          	slt	x21,x21,x8
    80001724:	02799413          	slli	x8,x19,0x27
    80001728:	a0c4bf37          	lui	x30,0xa0c4b
    8000172c:	01949cb3          	sll	x25,x9,x25
    80001730:	4397d493          	srai	x9,x15,0x39
    80001734:	9f413a37          	lui	x20,0x9f413
    80001738:	01810c3b          	addw	x24,x2,x24
    8000173c:	00059f93          	slli	x31,x11,0x0
    80001740:	a87d1eb7          	lui	x29,0xa87d1
    80001744:	0111d93b          	srlw	x18,x3,x17
    80001748:	014b4993          	xori	x19,x22,20
    8000174c:	9ec8d037          	lui	x0,0x9ec8d
    80001750:	411257b3          	sra	x15,x4,x17
    80001754:	00f8909b          	slliw	x1,x17,0xf
    80001758:	9a4ecf97          	auipc	x31,0x9a4ec
    8000175c:	01a4153b          	sllw	x10,x8,x26
    80001760:	03d89b13          	slli	x22,x17,0x3d
    80001764:	07a06617          	auipc	x12,0x7a06
    80001768:	01ba1f3b          	sllw	x30,x20,x27
    8000176c:	4b5d8a9b          	addiw	x21,x27,1205 # 55614a81 <_start-0x2a9eb57f>
    80001770:	2eadc537          	lui	x10,0x2eadc
    80001774:	00884733          	xor	x14,x16,x8
    80001778:	38bb7413          	andi	x8,x22,907
    8000177c:	e89f2a37          	lui	x20,0xe89f2
    80001780:	003924b3          	slt	x9,x18,x3
    80001784:	0d52ac93          	slti	x25,x5,213
    80001788:	aa353697          	auipc	x13,0xaa353
    8000178c:	018700bb          	addw	x1,x14,x24
    80001790:	79e5f313          	andi	x6,x11,1950
    80001794:	9b0dda37          	lui	x20,0x9b0dd
    80001798:	017e053b          	addw	x10,x28,x23
    8000179c:	0161969b          	slliw	x13,x3,0x16
    800017a0:	e5ce9eb7          	lui	x29,0xe5ce9
    800017a4:	00c2db3b          	srlw	x22,x5,x12
    800017a8:	43bc849b          	addiw	x9,x25,1083 # ffffffffb81a943b <_start+0xffffffff381a943b>
    800017ac:	e4181017          	auipc	x0,0xe4181
    800017b0:	0086c433          	xor	x8,x13,x8
    800017b4:	0c3c2f93          	slti	x31,x24,195
    800017b8:	c1f9e897          	auipc	x17,0xc1f9e
    800017bc:	01db5f33          	srl	x30,x22,x29
    800017c0:	03300593          	addi	x11,x0,51
    800017c4:	6ca5c417          	auipc	x8,0x6ca5c
    800017c8:	403852b3          	sra	x5,x16,x3
    800017cc:	019d5d9b          	srliw	x27,x26,0x19
    800017d0:	359a7537          	lui	x10,0x359a7
    800017d4:	00b040b3          	xor	x1,x0,x11
    800017d8:	024c1993          	slli	x19,x24,0x24
    800017dc:	f696a637          	lui	x12,0xf696a
    800017e0:	00d496b3          	sll	x13,x9,x13
    800017e4:	3cfdc113          	xori	x2,x27,975
    800017e8:	0922ca17          	auipc	x20,0x922c
    800017ec:	00b7df33          	srl	x30,x15,x11
    800017f0:	1d338913          	addi	x18,x7,467 # 15861d3 <_start-0x7ea79e2d>
    800017f4:	a03bd037          	lui	x0,0xa03bd
    800017f8:	008cce33          	xor	x28,x25,x8
    800017fc:	7e69881b          	addiw	x16,x19,2022 # 3cd5b7e6 <_start-0x432a481a>
    80001800:	e4b68317          	auipc	x6,0xe4b68
    80001804:	00d173b3          	and	x7,x2,x13
    80001808:	015f959b          	slliw	x11,x31,0x15
    8000180c:	c839a497          	auipc	x9,0xc839a
    80001810:	01cf80b3          	add	x1,x31,x28
    80001814:	0152921b          	slliw	x4,x5,0x15
    80001818:	1549c037          	lui	x0,0x1549c
    8000181c:	01641abb          	sllw	x21,x8,x22
    80001820:	26a3b293          	sltiu	x5,x7,618
    80001824:	c7234837          	lui	x16,0xc7234
    80001828:	00d586b3          	add	x13,x11,x13
    8000182c:	401e5b1b          	sraiw	x22,x28,0x1
    80001830:	051e2ab7          	lui	x21,0x51e2
    80001834:	00be0e3b          	addw	x28,x28,x11
    80001838:	5ef9f113          	andi	x2,x19,1519
    8000183c:	d1a16197          	auipc	x3,0xd1a16
    80001840:	00aa66b3          	or	x13,x20,x10
    80001844:	40b4531b          	sraiw	x6,x8,0xb
    80001848:	391d1f37          	lui	x30,0x391d1
    8000184c:	014a8abb          	addw	x21,x21,x20
    80001850:	00a19b1b          	slliw	x22,x3,0xa
    80001854:	ef98f497          	auipc	x9,0xef98f
    80001858:	00d2f7b3          	and	x15,x5,x13
    8000185c:	02819613          	slli	x12,x3,0x28
    80001860:	5bd0a437          	lui	x8,0x5bd0a
    80001864:	002e093b          	addw	x18,x28,x2
    80001868:	44a6fe93          	andi	x29,x13,1098
    8000186c:	4c013f17          	auipc	x30,0x4c013
    80001870:	4053033b          	subw	x6,x6,x5
    80001874:	6d4a879b          	addiw	x15,x21,1748 # 51e26d4 <_start-0x7ae1d92c>
    80001878:	00ce4d37          	lui	x26,0xce4
    8000187c:	0100023b          	addw	x4,x0,x16
    80001880:	00ce9a93          	slli	x21,x29,0xc
    80001884:	942bb6b7          	lui	x13,0x942bb
    80001888:	00f39cb3          	sll	x25,x7,x15
    8000188c:	3abd0f93          	addi	x31,x26,939 # ce43ab <_start-0x7f31bc55>
    80001890:	f852aa17          	auipc	x20,0xf852a
    80001894:	00ead83b          	srlw	x16,x21,x14
    80001898:	02709613          	slli	x12,x1,0x27
    8000189c:	a40d12b7          	lui	x5,0xa40d1
    800018a0:	411b89b3          	sub	x19,x23,x17
    800018a4:	63dfbb13          	sltiu	x22,x31,1597
    800018a8:	40613d37          	lui	x26,0x40613
    800018ac:	01d7f033          	and	x0,x15,x29
    800018b0:	4168559b          	sraiw	x11,x16,0x16
    800018b4:	0ea05537          	lui	x10,0xea05
    800018b8:	0092acb3          	slt	x25,x5,x9
    800018bc:	4970c713          	xori	x14,x1,1175
    800018c0:	74070d97          	auipc	x27,0x74070
    800018c4:	41f3d03b          	sraw	x0,x7,x31
    800018c8:	4086da9b          	sraiw	x21,x13,0x8
    800018cc:	662a4d17          	auipc	x26,0x662a4
    800018d0:	013692bb          	sllw	x5,x13,x19
    800018d4:	01ed9f9b          	slliw	x31,x27,0x1e
    800018d8:	f071ff17          	auipc	x30,0xf071f
    800018dc:	004d9bb3          	sll	x23,x27,x4
    800018e0:	656a0c93          	addi	x25,x20,1622 # 7852bee6 <_start-0x7ad411a>
    800018e4:	9e8c1597          	auipc	x11,0x9e8c1
    800018e8:	0104923b          	sllw	x4,x9,x16
    800018ec:	3dbd6713          	ori	x14,x26,987
    800018f0:	67728e97          	auipc	x29,0x67728
    800018f4:	41b95333          	sra	x6,x18,x27
    800018f8:	034d5093          	srli	x1,x26,0x34
    800018fc:	95be39b7          	lui	x19,0x95be3
    80001900:	4047dfb3          	sra	x31,x15,x4
    80001904:	2693e513          	ori	x10,x7,617
    80001908:	42c155b7          	lui	x11,0x42c15
    8000190c:	01e346b3          	xor	x13,x6,x30
    80001910:	28ce0a9b          	addiw	x21,x28,652 # ffffffffc12f4924 <_start+0xffffffff412f4924>
    80001914:	40c3e1b7          	lui	x3,0x40c3e
    80001918:	40ab54bb          	sraw	x9,x22,x10
    8000191c:	4760e313          	ori	x6,x1,1142
    80001920:	d3cb5217          	auipc	x4,0xd3cb5
    80001924:	017d7733          	and	x14,x26,x23
    80001928:	421c5a13          	srai	x20,x24,0x21
    8000192c:	1cf7bab7          	lui	x21,0x1cf7b
    80001930:	00fd85b3          	add	x11,x27,x15
    80001934:	514e889b          	addiw	x17,x29,1300 # ffffffffe7729e04 <_start+0xffffffff67729e04>
    80001938:	d9ba91b7          	lui	x3,0xd9ba9
    8000193c:	41610cbb          	subw	x25,x2,x22
    80001940:	580e6f93          	ori	x31,x28,1408
    80001944:	04bd00b7          	lui	x1,0x4bd0
    80001948:	00dec733          	xor	x14,x29,x13
    8000194c:	4156501b          	sraiw	x0,x12,0x15
    80001950:	38e47a17          	auipc	x20,0x38e47
    80001954:	408a8bb3          	sub	x23,x21,x8
    80001958:	670c4593          	xori	x11,x24,1648
    8000195c:	2a80c137          	lui	x2,0x2a80c
    80001960:	40dc50bb          	sraw	x1,x24,x13
    80001964:	1daac813          	xori	x16,x21,474
    80001968:	ad41b417          	auipc	x8,0xad41b
    8000196c:	41cd82b3          	sub	x5,x27,x28
    80001970:	40f5d31b          	sraiw	x6,x11,0xf
    80001974:	c4f5c4b7          	lui	x9,0xc4f5c
    80001978:	40af853b          	subw	x10,x31,x10
    8000197c:	6b260a13          	addi	x20,x12,1714 # fffffffff696a6b2 <_start+0xffffffff7696a6b2>
    80001980:	341799b7          	lui	x19,0x34179
    80001984:	00db9e3b          	sllw	x28,x23,x13
    80001988:	01059f9b          	slliw	x31,x11,0x10
    8000198c:	6c90f7b7          	lui	x15,0x6c90f
    80001990:	017a10b3          	sll	x1,x20,x23
    80001994:	19f72493          	slti	x9,x14,415
    80001998:	a7d8f237          	lui	x4,0xa7d8f
    8000199c:	00cb82bb          	addw	x5,x23,x12
    800019a0:	4d9fa593          	slti	x11,x31,1241
    800019a4:	c87b01b7          	lui	x3,0xc87b0
    800019a8:	00a723b3          	slt	x7,x14,x10
    800019ac:	0a233513          	sltiu	x10,x6,162
    800019b0:	f407d937          	lui	x18,0xf407d
    800019b4:	0104bab3          	sltu	x21,x9,x16
    800019b8:	18ebc313          	xori	x6,x23,398
    800019bc:	9739f297          	auipc	x5,0x9739f
    800019c0:	40880833          	sub	x16,x16,x8
    800019c4:	01e5191b          	slliw	x18,x10,0x1e
    800019c8:	e7c8ceb7          	lui	x29,0xe7c8c
    800019cc:	007b5333          	srl	x6,x22,x7
    800019d0:	6e16069b          	addiw	x13,x12,1761
    800019d4:	55951717          	auipc	x14,0x55951
    800019d8:	014b4d33          	xor	x26,x22,x20
    800019dc:	01eed193          	srli	x3,x29,0x1e
    800019e0:	8d945c17          	auipc	x24,0x8d945
    800019e4:	01f80533          	add	x10,x16,x31
    800019e8:	4a144713          	xori	x14,x8,1185
    800019ec:	b87cb017          	auipc	x0,0xb87cb
    800019f0:	01b8513b          	srlw	x2,x16,x27
    800019f4:	401b509b          	sraiw	x1,x22,0x1
    800019f8:	d063b237          	lui	x4,0xd063b
    800019fc:	00e916b3          	sll	x13,x18,x14
    80001a00:	018a901b          	slliw	x0,x21,0x18
    80001a04:	8c0138b7          	lui	x17,0x8c013
    80001a08:	01d11dbb          	sllw	x27,x2,x29
    80001a0c:	59517113          	andi	x2,x2,1429
    80001a10:	07204b37          	lui	x22,0x7204
    80001a14:	41795bbb          	sraw	x23,x18,x23
    80001a18:	08c9af13          	slti	x30,x19,140
    80001a1c:	d2e0e9b7          	lui	x19,0xd2e0e
    80001a20:	0031d43b          	srlw	x8,x3,x3
    80001a24:	27cfb193          	sltiu	x3,x31,636
    80001a28:	f75544b7          	lui	x9,0xf7554
    80001a2c:	40f5dbbb          	sraw	x23,x11,x15
    80001a30:	7ce9c093          	xori	x1,x19,1998
    80001a34:	74ff7fb7          	lui	x31,0x74ff7
    80001a38:	018cc733          	xor	x14,x25,x24
    80001a3c:	01d45193          	srli	x3,x8,0x1d
    80001a40:	de35a337          	lui	x6,0xde35a
    80001a44:	01095c3b          	srlw	x24,x18,x16
    80001a48:	312eeb13          	ori	x22,x29,786
    80001a4c:	c7ee59b7          	lui	x19,0xc7ee5
    80001a50:	01b84d33          	xor	x26,x16,x27
    80001a54:	0c520e9b          	addiw	x29,x4,197 # ffffffffd063b0c5 <_start+0xffffffff5063b0c5>
    80001a58:	f5a9e617          	auipc	x12,0xf5a9e
    80001a5c:	019ad7b3          	srl	x15,x21,x25
    80001a60:	40e5571b          	sraiw	x14,x10,0xe
    80001a64:	798624b7          	lui	x9,0x79862
    80001a68:	00ad8f3b          	addw	x30,x27,x10
    80001a6c:	6f39cf93          	xori	x31,x19,1779
    80001a70:	c2dd9517          	auipc	x10,0xc2dd9
    80001a74:	01c60cbb          	addw	x25,x12,x28
    80001a78:	4da1ce13          	xori	x28,x3,1242
    80001a7c:	34019317          	auipc	x6,0x34019
    80001a80:	0059e7b3          	or	x15,x19,x5
    80001a84:	76f77393          	andi	x7,x14,1903
    80001a88:	baa63537          	lui	x10,0xbaa63
    80001a8c:	41610fbb          	subw	x31,x2,x22
    80001a90:	00cc5893          	srli	x17,x24,0xc
    80001a94:	3db21bb7          	lui	x23,0x3db21
    80001a98:	008e193b          	sllw	x18,x28,x8
    80001a9c:	64966013          	ori	x0,x12,1609
    80001aa0:	535f30b7          	lui	x1,0x535f3
    80001aa4:	00f791bb          	sllw	x3,x15,x15
    80001aa8:	613ef813          	andi	x16,x29,1555
    80001aac:	f268f5b7          	lui	x11,0xf268f
    80001ab0:	000b5b33          	srl	x22,x22,x0
    80001ab4:	3c92a093          	slti	x1,x5,969
    80001ab8:	aa151fb7          	lui	x31,0xaa151
    80001abc:	40a902bb          	subw	x5,x18,x10
    80001ac0:	4044d89b          	sraiw	x17,x9,0x4
    80001ac4:	631ef317          	auipc	x6,0x631ef
    80001ac8:	01906233          	or	x4,x0,x25
    80001acc:	4d358913          	addi	x18,x11,1235 # fffffffff268f4d3 <_start+0xffffffff7268f4d3>
    80001ad0:	eefb4737          	lui	x14,0xeefb4
    80001ad4:	018e1bbb          	sllw	x23,x28,x24
    80001ad8:	02533093          	sltiu	x1,x6,37
    80001adc:	2ee90617          	auipc	x12,0x2ee90
    80001ae0:	019055bb          	srlw	x11,x0,x25
    80001ae4:	01d9dd93          	srli	x27,x19,0x1d
    80001ae8:	1e435797          	auipc	x15,0x1e435
    80001aec:	41288fbb          	subw	x31,x17,x18
    80001af0:	1c233e93          	sltiu	x29,x6,450
    80001af4:	6f6a78b7          	lui	x17,0x6f6a7
    80001af8:	01ec5d33          	srl	x26,x24,x30
    80001afc:	01995f1b          	srliw	x30,x18,0x19
    80001b00:	763d5417          	auipc	x8,0x763d5
    80001b04:	40b0dab3          	sra	x21,x1,x11
    80001b08:	00b1149b          	slliw	x9,x2,0xb
    80001b0c:	0bbbc837          	lui	x16,0xbbbc
    80001b10:	00f526b3          	slt	x13,x10,x15
    80001b14:	2d2d3093          	sltiu	x1,x26,722
    80001b18:	65c038b7          	lui	x17,0x65c03
    80001b1c:	016afbb3          	and	x23,x21,x22
    80001b20:	06140113          	addi	x2,x8,97 # f63d6b61 <_start+0x763d6b61>
    80001b24:	83f73e97          	auipc	x29,0x83f73
    80001b28:	015d2e33          	slt	x28,x26,x21
    80001b2c:	54b8e493          	ori	x9,x17,1355
    80001b30:	2228e297          	auipc	x5,0x2228e
    80001b34:	0039d833          	srl	x16,x19,x3
    80001b38:	00a2519b          	srliw	x3,x4,0xa
    80001b3c:	6f0f7897          	auipc	x17,0x6f0f7
    80001b40:	00ddb533          	sltu	x10,x27,x13
    80001b44:	0004969b          	slliw	x13,x9,0x0
    80001b48:	d74e2cb7          	lui	x25,0xd74e2
    80001b4c:	01ead1b3          	srl	x3,x21,x30
    80001b50:	0048d81b          	srliw	x16,x17,0x4
    80001b54:	e949ddb7          	lui	x27,0xe949d
    80001b58:	00d2db3b          	srlw	x22,x5,x13
    80001b5c:	0027531b          	srliw	x6,x14,0x2
    80001b60:	8e8d0717          	auipc	x14,0x8e8d0
    80001b64:	01717233          	and	x4,x2,x23
    80001b68:	504a089b          	addiw	x17,x20,1284 # ffffffffb8e48e54 <_start+0xffffffff38e48e54>
    80001b6c:	16913ab7          	lui	x21,0x16913
    80001b70:	01b8543b          	srlw	x8,x16,x27
    80001b74:	01a9dc1b          	srliw	x24,x19,0x1a
    80001b78:	117089b7          	lui	x19,0x11708
    80001b7c:	41255333          	sra	x6,x10,x18
    80001b80:	5dc0c513          	xori	x10,x1,1500
    80001b84:	43486717          	auipc	x14,0x43486
    80001b88:	00bb83b3          	add	x7,x23,x11
    80001b8c:	00d64913          	xori	x18,x12,13
    80001b90:	df67b837          	lui	x16,0xdf67b
    80001b94:	01a03d33          	sltu	x26,x0,x26
    80001b98:	5df1bc13          	sltiu	x24,x3,1503
    80001b9c:	899f8397          	auipc	x7,0x899f8
    80001ba0:	00c916bb          	sllw	x13,x18,x12
    80001ba4:	175d821b          	addiw	x4,x27,373 # ffffffffe949d175 <_start+0xffffffff6949d175>
    80001ba8:	157b3417          	auipc	x8,0x157b3
    80001bac:	410e0fbb          	subw	x31,x28,x16
    80001bb0:	3c83e613          	ori	x12,x7,968
    80001bb4:	fb802e37          	lui	x28,0xfb802
    80001bb8:	009313bb          	sllw	x7,x6,x9
    80001bbc:	7382bf13          	sltiu	x30,x5,1848
    80001bc0:	2821a0b7          	lui	x1,0x2821a
    80001bc4:	00f76733          	or	x14,x14,x15
    80001bc8:	00901d9b          	slliw	x27,x0,0x9
    80001bcc:	9df3cc17          	auipc	x24,0x9df3c
    80001bd0:	007a5133          	srl	x2,x20,x7
    80001bd4:	1ce6e893          	ori	x17,x13,462
    80001bd8:	ea656197          	auipc	x3,0xea656
    80001bdc:	015b04bb          	addw	x9,x22,x21
    80001be0:	5bb28e93          	addi	x29,x5,1467 # a22900eb <_start+0x222900eb>
    80001be4:	61b84f97          	auipc	x31,0x61b84
    80001be8:	004cf5b3          	and	x11,x25,x4
    80001bec:	41b1501b          	sraiw	x0,x2,0x1b
    80001bf0:	68a6d8b7          	lui	x17,0x68a6d
    80001bf4:	018a2eb3          	slt	x29,x20,x24
    80001bf8:	01e9d71b          	srliw	x14,x19,0x1e
    80001bfc:	023c62b7          	lui	x5,0x23c6
    80001c00:	01f13833          	sltu	x16,x2,x31
    80001c04:	028c9b93          	slli	x23,x25,0x28
    80001c08:	ae32a137          	lui	x2,0xae32a
    80001c0c:	01a42b33          	slt	x22,x8,x26
    80001c10:	035edc93          	srli	x25,x29,0x35
    80001c14:	8033b337          	lui	x6,0x8033b
    80001c18:	01f5f9b3          	and	x19,x11,x31
    80001c1c:	000e171b          	slliw	x14,x28,0x0
    80001c20:	f18ca117          	auipc	x2,0xf18ca
    80001c24:	0198fdb3          	and	x27,x17,x25
    80001c28:	4088d613          	srai	x12,x17,0x8
    80001c2c:	d6446397          	auipc	x7,0xd6446
    80001c30:	0178a733          	slt	x14,x17,x23
    80001c34:	7b5cbe13          	sltiu	x28,x25,1973
    80001c38:	83a39117          	auipc	x2,0x83a39
    80001c3c:	01545ab3          	srl	x21,x8,x21
    80001c40:	49393c13          	sltiu	x24,x18,1171
    80001c44:	022c6337          	lui	x6,0x22c6
    80001c48:	01ba59bb          	srlw	x19,x20,x27
    80001c4c:	41dd5c9b          	sraiw	x25,x26,0x1d
    80001c50:	5cd30497          	auipc	x9,0x5cd30
    80001c54:	00fb8f33          	add	x30,x23,x15
    80001c58:	0c377513          	andi	x10,x14,195
    80001c5c:	7f5020b7          	lui	x1,0x7f502
    80001c60:	403b8dbb          	subw	x27,x23,x3
    80001c64:	35b88713          	addi	x14,x17,859 # 68a6d35b <_start-0x17592ca5>
    80001c68:	095cb4b7          	lui	x9,0x95cb
    80001c6c:	002b4933          	xor	x18,x22,x2
    80001c70:	25442013          	slti	x0,x8,596
    80001c74:	5130ce17          	auipc	x28,0x5130c
    80001c78:	4083df3b          	sraw	x30,x7,x8
    80001c7c:	0019941b          	slliw	x8,x19,0x1
    80001c80:	e5ebddb7          	lui	x27,0xe5ebd
    80001c84:	015225b3          	slt	x11,x4,x21
    80001c88:	0c4fa093          	slti	x1,x31,196
    80001c8c:	74ec6bb7          	lui	x23,0x74ec6
    80001c90:	01ce573b          	srlw	x14,x28,x28
    80001c94:	7e806e93          	ori	x29,x0,2024
    80001c98:	336a0e17          	auipc	x28,0x336a0
    80001c9c:	00b13233          	sltu	x4,x2,x11
    80001ca0:	00cb559b          	srliw	x11,x22,0xc
    80001ca4:	990bd9b7          	lui	x19,0x990bd
    80001ca8:	00633433          	sltu	x8,x6,x6
    80001cac:	4901f113          	andi	x2,x3,1168
    80001cb0:	822eb817          	auipc	x16,0x822eb
    80001cb4:	00d232b3          	sltu	x5,x4,x13
    80001cb8:	017f1213          	slli	x4,x30,0x17
    80001cbc:	0fe348b7          	lui	x17,0xfe34
    80001cc0:	01bc9533          	sll	x10,x25,x27
    80001cc4:	3c668d9b          	addiw	x27,x13,966 # ffffffff942bb3c6 <_start+0xffffffff142bb3c6>
    80001cc8:	10f780b7          	lui	x1,0x10f78
    80001ccc:	01ee8433          	add	x8,x29,x30
    80001cd0:	176bf213          	andi	x4,x23,374
    80001cd4:	eeec1597          	auipc	x11,0xeeec1
    80001cd8:	01128e33          	add	x28,x5,x17
    80001cdc:	1c554513          	xori	x10,x10,453
    80001ce0:	3c675a37          	lui	x20,0x3c675
    80001ce4:	008e86bb          	addw	x13,x29,x8
    80001ce8:	68917093          	andi	x1,x2,1673
    80001cec:	b980be97          	auipc	x29,0xb980b
    80001cf0:	00507fb3          	and	x31,x0,x5
    80001cf4:	01a45593          	srli	x11,x8,0x1a
    80001cf8:	b1c7a7b7          	lui	x15,0xb1c7a
    80001cfc:	00513bb3          	sltu	x23,x2,x5
    80001d00:	3bbabb13          	sltiu	x22,x21,955
    80001d04:	c202a4b7          	lui	x9,0xc202a
    80001d08:	00660c33          	add	x24,x12,x6
    80001d0c:	0199d993          	srli	x19,x19,0x19
    80001d10:	34248897          	auipc	x17,0x34248
    80001d14:	40c357bb          	sraw	x15,x6,x12
    80001d18:	0645051b          	addiw	x10,x10,100 # ffffffffbaa63064 <_start+0xffffffff3aa63064>
    80001d1c:	36a7be17          	auipc	x28,0x36a7b
    80001d20:	00c706bb          	addw	x13,x14,x12
    80001d24:	5f9fc213          	xori	x4,x31,1529
    80001d28:	9076f797          	auipc	x15,0x9076f
    80001d2c:	418cdf33          	sra	x30,x25,x24
    80001d30:	1183ce13          	xori	x28,x7,280
    80001d34:	6a3cfe97          	auipc	x29,0x6a3cf
    80001d38:	00a0c333          	xor	x6,x1,x10
    80001d3c:	4046df9b          	sraiw	x31,x13,0x4
    80001d40:	17c7fd37          	lui	x26,0x17c7f
    80001d44:	00c2823b          	addw	x4,x5,x12
    80001d48:	02665793          	srli	x15,x12,0x26
    80001d4c:	daea8597          	auipc	x11,0xdaea8
    80001d50:	4188d333          	sra	x6,x17,x24
    80001d54:	23b93c93          	sltiu	x25,x18,571
    80001d58:	b4689a17          	auipc	x20,0xb4689
    80001d5c:	01a001bb          	addw	x3,x0,x26
    80001d60:	5356bd13          	sltiu	x26,x13,1333
    80001d64:	943c3237          	lui	x4,0x943c3
    80001d68:	00508b3b          	addw	x22,x1,x5
    80001d6c:	00efd81b          	srliw	x16,x31,0xe
    80001d70:	f3b4e7b7          	lui	x15,0xf3b4e
    80001d74:	40710433          	sub	x8,x2,x7
    80001d78:	32aecc13          	xori	x24,x29,810
    80001d7c:	03be7617          	auipc	x12,0x3be7
    80001d80:	01f4fd33          	and	x26,x9,x31
    80001d84:	0035901b          	slliw	x0,x11,0x3
    80001d88:	d24b3317          	auipc	x6,0xd24b3
    80001d8c:	410c0db3          	sub	x27,x24,x16
    80001d90:	43a2dc13          	srai	x24,x5,0x3a
    80001d94:	a0d9d997          	auipc	x19,0xa0d9d
    80001d98:	00200633          	add	x12,x0,x2
    80001d9c:	000cd813          	srli	x16,x25,0x0
    80001da0:	1dd78937          	lui	x18,0x1dd78
    80001da4:	0036d1b3          	srl	x3,x13,x3
    80001da8:	03df9293          	slli	x5,x31,0x3d
    80001dac:	c5c65b17          	auipc	x22,0xc5c65
    80001db0:	014f8fb3          	add	x31,x31,x20
    80001db4:	2a840a13          	addi	x20,x8,680 # 957b4e50 <_start+0x157b4e50>
    80001db8:	5b4197b7          	lui	x15,0x5b419
    80001dbc:	01102333          	slt	x6,x0,x17
    80001dc0:	41e9509b          	sraiw	x1,x18,0x1e
    80001dc4:	8938d717          	auipc	x14,0x8938d
    80001dc8:	01ee5c3b          	srlw	x24,x28,x30
    80001dcc:	00cb5613          	srli	x12,x22,0xc
    80001dd0:	14c91ab7          	lui	x21,0x14c91
    80001dd4:	0088a8b3          	slt	x17,x17,x8
    80001dd8:	005e1393          	slli	x7,x28,0x5
    80001ddc:	a79d5db7          	lui	x27,0xa79d5
    80001de0:	4164083b          	subw	x16,x8,x22
    80001de4:	331a001b          	addiw	x0,x20,817 # 3468b089 <_start-0x4b974f77>
    80001de8:	4ff6c417          	auipc	x8,0x4ff6c
    80001dec:	014a15bb          	sllw	x11,x20,x20
    80001df0:	0068d31b          	srliw	x6,x17,0x6
    80001df4:	6f1e7817          	auipc	x16,0x6f1e7
    80001df8:	41e70bb3          	sub	x23,x14,x30
    80001dfc:	034e1213          	slli	x4,x28,0x34
    80001e00:	87434197          	auipc	x3,0x87434
    80001e04:	41fe86bb          	subw	x13,x29,x31
    80001e08:	662e7f13          	andi	x30,x28,1634
    80001e0c:	d2ae1e97          	auipc	x29,0xd2ae1
    80001e10:	007054b3          	srl	x9,x0,x7
    80001e14:	00b35613          	srli	x12,x6,0xb
    80001e18:	c01b2017          	auipc	x0,0xc01b2
    80001e1c:	0153d83b          	srlw	x16,x7,x21
    80001e20:	035c1413          	slli	x8,x24,0x35
    80001e24:	08a05217          	auipc	x4,0x8a05
    80001e28:	00366c33          	or	x24,x12,x3
    80001e2c:	34714593          	xori	x11,x2,839
    80001e30:	de7a04b7          	lui	x9,0xde7a0
    80001e34:	01e656b3          	srl	x13,x12,x30
    80001e38:	7e7bb393          	sltiu	x7,x23,2023
    80001e3c:	4345be37          	lui	x28,0x4345b
    80001e40:	002b2bb3          	slt	x23,x22,x2
    80001e44:	717f0513          	addi	x10,x30,1815 # 70720fef <_start-0xf8df011>
    80001e48:	47de2317          	auipc	x6,0x47de2
    80001e4c:	018f5fb3          	srl	x31,x30,x24
    80001e50:	2f527593          	andi	x11,x4,757
    80001e54:	97794797          	auipc	x15,0x97794
    80001e58:	01e908bb          	addw	x17,x18,x30
    80001e5c:	03ab1293          	slli	x5,x22,0x3a
    80001e60:	d6c6c4b7          	lui	x9,0xd6c6c
    80001e64:	01385f33          	srl	x30,x16,x19
    80001e68:	7dce0613          	addi	x12,x28,2012 # 4345b7dc <_start-0x3cba4824>
    80001e6c:	19133b97          	auipc	x23,0x19133
    80001e70:	016688bb          	addw	x17,x13,x22
    80001e74:	0051179b          	slliw	x15,x2,0x5
    80001e78:	975e8c17          	auipc	x24,0x975e8
    80001e7c:	00af96b3          	sll	x13,x31,x10
    80001e80:	00781b9b          	slliw	x23,x16,0x7
    80001e84:	e4d02c97          	auipc	x25,0xe4d02
    80001e88:	00195733          	srl	x14,x18,x1
    80001e8c:	00059993          	slli	x19,x11,0x0
    80001e90:	0bc3be17          	auipc	x28,0xbc3b
    80001e94:	01589833          	sll	x16,x17,x21
    80001e98:	007c1393          	slli	x7,x24,0x7
    80001e9c:	63b14917          	auipc	x18,0x63b14
    80001ea0:	01831a33          	sll	x20,x6,x24
    80001ea4:	1e36a993          	slti	x19,x13,483
    80001ea8:	a33174b7          	lui	x9,0xa3317
    80001eac:	019780bb          	addw	x1,x15,x25
    80001eb0:	0012de1b          	srliw	x28,x5,0x1
    80001eb4:	f6df7517          	auipc	x10,0xf6df7
    80001eb8:	014d7b33          	and	x22,x26,x20
    80001ebc:	00a5941b          	slliw	x8,x11,0xa
    80001ec0:	fb3c7337          	lui	x6,0xfb3c7
    80001ec4:	41c4d4b3          	sra	x9,x9,x28
    80001ec8:	30376f13          	ori	x30,x14,771
    80001ecc:	202c0217          	auipc	x4,0x202c0
    80001ed0:	01b417bb          	sllw	x15,x8,x27
    80001ed4:	356b4e93          	xori	x29,x22,854
    80001ed8:	53937f97          	auipc	x31,0x53937
    80001edc:	01552c33          	slt	x24,x10,x21
    80001ee0:	4ec1ac93          	slti	x25,x3,1260
    80001ee4:	1bebb037          	lui	x0,0x1bebb
    80001ee8:	00a781bb          	addw	x3,x15,x10
    80001eec:	46876893          	ori	x17,x14,1128
    80001ef0:	be461c37          	lui	x24,0xbe461
    80001ef4:	0172bb33          	sltu	x22,x5,x23
    80001ef8:	1e467693          	andi	x13,x12,484
    80001efc:	f33e1ab7          	lui	x21,0xf33e1
    80001f00:	00c99fb3          	sll	x31,x19,x12
    80001f04:	422e5593          	srai	x11,x28,0x22
    80001f08:	45fd2c37          	lui	x24,0x45fd2
    80001f0c:	0022113b          	sllw	x2,x4,x2
    80001f10:	384ce093          	ori	x1,x25,900
    80001f14:	c77f1d97          	auipc	x27,0xc77f1
    80001f18:	01afb6b3          	sltu	x13,x31,x26
    80001f1c:	785d2c93          	slti	x25,x26,1925
    80001f20:	67b93e37          	lui	x28,0x67b93
    80001f24:	00073eb3          	sltu	x29,x14,x0
    80001f28:	01f71b13          	slli	x22,x14,0x1f
    80001f2c:	ac8a3137          	lui	x2,0xac8a3
    80001f30:	4155093b          	subw	x18,x10,x21
    80001f34:	2c27c813          	xori	x16,x15,706
    80001f38:	f019e997          	auipc	x19,0xf019e
    80001f3c:	01e2163b          	sllw	x12,x4,x30
    80001f40:	0165501b          	srliw	x0,x10,0x16
    80001f44:	8c355297          	auipc	x5,0x8c355
    80001f48:	007881b3          	add	x3,x17,x7
    80001f4c:	4139df1b          	sraiw	x30,x19,0x13
    80001f50:	240a7437          	lui	x8,0x240a7
    80001f54:	0189d533          	srl	x10,x19,x24
    80001f58:	0028d31b          	srliw	x6,x17,0x2
    80001f5c:	b466ee37          	lui	x28,0xb466e
    80001f60:	00e816bb          	sllw	x13,x16,x14
    80001f64:	693f4193          	xori	x3,x30,1683
    80001f68:	2d9fcd17          	auipc	x26,0x2d9fc
    80001f6c:	014c1ab3          	sll	x21,x24,x20
    80001f70:	02b05513          	srli	x10,x0,0x2b
    80001f74:	99151217          	auipc	x4,0x99151
    80001f78:	01db51bb          	srlw	x3,x22,x29
    80001f7c:	2e7e7093          	andi	x1,x28,743
    80001f80:	5d453c97          	auipc	x25,0x5d453
    80001f84:	00a90f3b          	addw	x30,x18,x10
    80001f88:	00161e93          	slli	x29,x12,0x1
    80001f8c:	e4872597          	auipc	x11,0xe4872
    80001f90:	013767b3          	or	x15,x14,x19
    80001f94:	014a5d9b          	srliw	x27,x20,0x14
    80001f98:	f4bb2717          	auipc	x14,0xf4bb2
    80001f9c:	001962b3          	or	x5,x18,x1
    80001fa0:	41f0d39b          	sraiw	x7,x1,0x1f
    80001fa4:	35761337          	lui	x6,0x35761
    80001fa8:	0194ca33          	xor	x20,x9,x25
    80001fac:	007cd19b          	srliw	x3,x25,0x7
    80001fb0:	0affe497          	auipc	x9,0xaffe
    80001fb4:	0043c7b3          	xor	x15,x7,x4
    80001fb8:	01c61f93          	slli	x31,x12,0x1c
    80001fbc:	38f27097          	auipc	x1,0x38f27
    80001fc0:	404983b3          	sub	x7,x19,x4
    80001fc4:	15dcaa13          	slti	x20,x25,349
    80001fc8:	5c216037          	lui	x0,0x5c216
    80001fcc:	013b78b3          	and	x17,x22,x19
    80001fd0:	4b2cb593          	sltiu	x11,x25,1202
    80001fd4:	8e62c637          	lui	x12,0x8e62c
    80001fd8:	018d92bb          	sllw	x5,x27,x24
    80001fdc:	0196d313          	srli	x6,x13,0x19
    80001fe0:	c9965237          	lui	x4,0xc9965
    80001fe4:	0160a833          	slt	x16,x1,x22
    80001fe8:	04eebb93          	sltiu	x23,x29,78
    80001fec:	185da197          	auipc	x3,0x185da
    80001ff0:	408300bb          	subw	x1,x6,x8
    80001ff4:	317ce213          	ori	x4,x25,791
    80001ff8:	e65beab7          	lui	x21,0xe65be
    80001ffc:	412c883b          	subw	x16,x25,x18
    80002000:	132d4513          	xori	x10,x26,306
    80002004:	dac54917          	auipc	x18,0xdac54
    80002008:	000f8bbb          	addw	x23,x31,x0
    8000200c:	007f909b          	slliw	x1,x31,0x7
    80002010:	64176817          	auipc	x16,0x64176
    80002014:	4137dfb3          	sra	x31,x15,x19
    80002018:	0a940493          	addi	x9,x8,169 # 240a70a9 <_start-0x5bf58f57>
    8000201c:	a1edbeb7          	lui	x29,0xa1edb
    80002020:	00891cbb          	sllw	x25,x18,x8
    80002024:	4176d09b          	sraiw	x1,x13,0x17
    80002028:	60aaa437          	lui	x8,0x60aaa
    8000202c:	018a803b          	addw	x0,x21,x24
    80002030:	38122193          	slti	x3,x4,897
    80002034:	365fbb97          	auipc	x23,0x365fb
    80002038:	0185b7b3          	sltu	x15,x11,x24
    8000203c:	7033ce93          	xori	x29,x7,1795
    80002040:	70153817          	auipc	x16,0x70153
    80002044:	41b15a3b          	sraw	x20,x2,x27
    80002048:	40f2d993          	srai	x19,x5,0xf
    8000204c:	5e4f5f17          	auipc	x30,0x5e4f5
    80002050:	41940cb3          	sub	x25,x8,x25
    80002054:	40d4d69b          	sraiw	x13,x9,0xd
    80002058:	7c9081b7          	lui	x3,0x7c908
    8000205c:	40a3db3b          	sraw	x22,x7,x10
    80002060:	1b60ee93          	ori	x29,x1,438
    80002064:	ff9b69b7          	lui	x19,0xff9b6
    80002068:	4194df3b          	sraw	x30,x9,x25
    8000206c:	3361b113          	sltiu	x2,x3,822
    80002070:	434a2437          	lui	x8,0x434a2
    80002074:	01f8a3b3          	slt	x7,x17,x31
    80002078:	5cc2091b          	addiw	x18,x4,1484 # ffffffffc99655cc <_start+0xffffffff499655cc>
    8000207c:	5aef8a97          	auipc	x21,0x5aef8
    80002080:	01dc07b3          	add	x15,x24,x29
    80002084:	21920b9b          	addiw	x23,x4,537 # 219 <_start-0x7ffffde7>
    80002088:	65a5e597          	auipc	x11,0x65a5e
    8000208c:	00c35d3b          	srlw	x26,x6,x12
    80002090:	0cc8ca93          	xori	x21,x17,204
    80002094:	ed918a17          	auipc	x20,0xed918
    80002098:	00650933          	add	x18,x10,x6
    8000209c:	0742ff13          	andi	x30,x5,116
    800020a0:	fb350e97          	auipc	x29,0xfb350
    800020a4:	01b8913b          	sllw	x2,x17,x27
    800020a8:	4ea68d1b          	addiw	x26,x13,1258
    800020ac:	08921437          	lui	x8,0x8921
    800020b0:	018c2233          	slt	x4,x24,x24
    800020b4:	4df64893          	xori	x17,x12,1247
    800020b8:	b3b61017          	auipc	x0,0xb3b61
    800020bc:	0011fcb3          	and	x25,x3,x1
    800020c0:	0c08009b          	addiw	x1,x16,192 # fffffffff0155100 <_start+0xffffffff70155100>
    800020c4:	1c022237          	lui	x4,0x1c022
    800020c8:	005df633          	and	x12,x27,x5
    800020cc:	3951af13          	slti	x30,x3,917
    800020d0:	a0336e37          	lui	x28,0xa0336
    800020d4:	01be8abb          	addw	x21,x29,x27
    800020d8:	7cc0079b          	addiw	x15,x0,1996
    800020dc:	0d474497          	auipc	x9,0xd474
    800020e0:	01e66633          	or	x12,x12,x30
    800020e4:	30b87293          	andi	x5,x16,779
    800020e8:	0ef38097          	auipc	x1,0xef38
    800020ec:	015bfe33          	and	x28,x23,x21
    800020f0:	26d5cf93          	xori	x31,x11,621
    800020f4:	cdcd7cb7          	lui	x25,0xcdcd7
    800020f8:	000454bb          	srlw	x9,x8,x0
    800020fc:	73d28a13          	addi	x20,x5,1853 # c357681 <_start-0x73ca897f>
    80002100:	72c35eb7          	lui	x29,0x72c35
    80002104:	01ed5abb          	srlw	x21,x26,x30
    80002108:	642bf513          	andi	x10,x23,1602
    8000210c:	f3ff58b7          	lui	x17,0xf3ff5
    80002110:	00146433          	or	x8,x8,x1
    80002114:	4155fb13          	andi	x22,x11,1045
    80002118:	9d36bd37          	lui	x26,0x9d36b
    8000211c:	00af093b          	addw	x18,x30,x10
    80002120:	1ca86693          	ori	x13,x16,458
    80002124:	64ee0737          	lui	x14,0x64ee0
    80002128:	01ec52b3          	srl	x5,x24,x30
    8000212c:	01139f1b          	slliw	x30,x7,0x11
    80002130:	e28e3b97          	auipc	x23,0xe28e3
    80002134:	015cd833          	srl	x16,x25,x21
    80002138:	41c3d71b          	sraiw	x14,x7,0x1c
    8000213c:	6f104197          	auipc	x3,0x6f104
    80002140:	01551933          	sll	x18,x10,x21
    80002144:	401f521b          	sraiw	x4,x30,0x1
    80002148:	77cd1137          	lui	x2,0x77cd1
    8000214c:	41885abb          	sraw	x21,x16,x24
    80002150:	1742f993          	andi	x19,x5,372
    80002154:	fdb19597          	auipc	x11,0xfdb19
    80002158:	014520b3          	slt	x1,x10,x20
    8000215c:	01ef9a1b          	slliw	x20,x31,0x1e
    80002160:	f2b17b97          	auipc	x23,0xf2b17
    80002164:	0089ccb3          	xor	x25,x19,x8
    80002168:	00f7911b          	slliw	x2,x15,0xf
    8000216c:	741449b7          	lui	x19,0x74144
    80002170:	004550b3          	srl	x1,x10,x4
    80002174:	02c79613          	slli	x12,x15,0x2c
    80002178:	c47f8b37          	lui	x22,0xc47f8
    8000217c:	0067a2b3          	slt	x5,x15,x6
    80002180:	76174113          	xori	x2,x14,1889
    80002184:	a89dc217          	auipc	x4,0xa89dc
    80002188:	01b3fbb3          	and	x23,x7,x27
    8000218c:	00c0d61b          	srliw	x12,x1,0xc
    80002190:	79c4b517          	auipc	x10,0x79c4b
    80002194:	414188b3          	sub	x17,x3,x20
    80002198:	0175dd93          	srli	x27,x11,0x17
    8000219c:	35524997          	auipc	x19,0x35524
    800021a0:	00c38333          	add	x6,x7,x12
    800021a4:	42f2df93          	srai	x31,x5,0x2f
    800021a8:	9eb57417          	auipc	x8,0x9eb57
    800021ac:	012bef33          	or	x30,x23,x18
    800021b0:	418bd09b          	sraiw	x1,x23,0x18
    800021b4:	c6562597          	auipc	x11,0xc6562
    800021b8:	002bf1b3          	and	x3,x23,x2
    800021bc:	21ee8a93          	addi	x21,x29,542 # 72c3521e <_start-0xd3cade2>
    800021c0:	00682a37          	lui	x20,0x682
    800021c4:	0162bdb3          	sltu	x27,x5,x22
    800021c8:	2c2c051b          	addiw	x10,x24,706 # 45fd22c2 <_start-0x3a02dd3e>
    800021cc:	f906e9b7          	lui	x19,0xf906e
    800021d0:	01680bb3          	add	x23,x16,x22
    800021d4:	3d196f93          	ori	x31,x18,977
    800021d8:	6b95b197          	auipc	x3,0x6b95b
    800021dc:	0052d43b          	srlw	x8,x5,x5
    800021e0:	4e58e913          	ori	x18,x17,1253
    800021e4:	62a38597          	auipc	x11,0x62a38
    800021e8:	011283bb          	addw	x7,x5,x17
    800021ec:	01c2de93          	srli	x29,x5,0x1c
    800021f0:	8de47717          	auipc	x14,0x8de47
    800021f4:	00abe6b3          	or	x13,x23,x10
    800021f8:	03725c13          	srli	x24,x4,0x37
    800021fc:	d15d6817          	auipc	x16,0xd15d6
    80002200:	401b5333          	sra	x6,x22,x1
    80002204:	0cd9ea93          	ori	x21,x19,205
    80002208:	18150a17          	auipc	x20,0x18150
    8000220c:	405b8bbb          	subw	x23,x23,x5
    80002210:	408b0013          	addi	x0,x22,1032 # ffffffffc47f8408 <_start+0xffffffff447f8408>
    80002214:	104d01b7          	lui	x3,0x104d0
    80002218:	01a0f633          	and	x12,x1,x26
    8000221c:	1a47ef93          	ori	x31,x15,420
    80002220:	a953b817          	auipc	x16,0xa953b
    80002224:	01dc93bb          	sllw	x7,x25,x29
    80002228:	41c2d41b          	sraiw	x8,x5,0x1c
    8000222c:	e75fc617          	auipc	x12,0xe75fc
    80002230:	01e23db3          	sltu	x27,x4,x30
    80002234:	484d019b          	addiw	x3,x26,1156 # ffffffff9d36b484 <_start+0xffffffff1d36b484>
    80002238:	3b5f8b17          	auipc	x22,0x3b5f8
    8000223c:	01354eb3          	xor	x29,x10,x19
    80002240:	5748ca93          	xori	x21,x17,1396
    80002244:	abb6f997          	auipc	x19,0xabb6f
    80002248:	00f5913b          	sllw	x2,x11,x15
    8000224c:	22e28213          	addi	x4,x5,558
    80002250:	4111b517          	auipc	x10,0x4111b
    80002254:	00e394bb          	sllw	x9,x7,x14
    80002258:	38ca7c93          	andi	x25,x20,908
    8000225c:	17409ab7          	lui	x21,0x17409
    80002260:	006c593b          	srlw	x18,x24,x6
    80002264:	42ff5813          	srai	x16,x30,0x2f
    80002268:	f0041637          	lui	x12,0xf0041
    8000226c:	00ff2333          	slt	x6,x30,x15
    80002270:	426d5713          	srai	x14,x26,0x26
    80002274:	ece7f1b7          	lui	x3,0xece7f
    80002278:	01fb98bb          	sllw	x17,x23,x31
    8000227c:	0056551b          	srliw	x10,x12,0x5
    80002280:	4d158e37          	lui	x28,0x4d158
    80002284:	01245f33          	srl	x30,x8,x18
    80002288:	43a0d293          	srai	x5,x1,0x3a
    8000228c:	f6200937          	lui	x18,0xf6200
    80002290:	00644033          	xor	x0,x8,x6
    80002294:	57214b13          	xori	x22,x2,1394
    80002298:	f6508e17          	auipc	x28,0xf6508
    8000229c:	0145feb3          	and	x29,x11,x20
    800022a0:	4d71f593          	andi	x11,x3,1239
    800022a4:	fae0a117          	auipc	x2,0xfae0a
    800022a8:	40cb5abb          	sraw	x21,x22,x12
    800022ac:	6e6e069b          	addiw	x13,x28,1766 # 7650a97e <_start-0x9af5682>
    800022b0:	3d9d9db7          	lui	x27,0x3d9d9
    800022b4:	0132d033          	srl	x0,x5,x19
    800022b8:	3dfe861b          	addiw	x12,x29,991
    800022bc:	34d281b7          	lui	x3,0x34d28
    800022c0:	00f855b3          	srl	x11,x16,x15
    800022c4:	7a276f13          	ori	x30,x14,1954
    800022c8:	78b4edb7          	lui	x27,0x78b4e
    800022cc:	00f67c33          	and	x24,x12,x15
    800022d0:	40355f9b          	sraiw	x31,x10,0x3
    800022d4:	14027137          	lui	x2,0x14027
    800022d8:	01d98f3b          	addw	x30,x19,x29
    800022dc:	4d50bc93          	sltiu	x25,x1,1237
    800022e0:	722bad97          	auipc	x27,0x722ba
    800022e4:	00be58b3          	srl	x17,x28,x11
    800022e8:	41aed313          	srai	x6,x29,0x1a
    800022ec:	e5337ab7          	lui	x21,0xe5337
    800022f0:	41ef56bb          	sraw	x13,x30,x30
    800022f4:	0101521b          	srliw	x4,x2,0x10
    800022f8:	a7e7ef97          	auipc	x31,0xa7e7e
    800022fc:	017555b3          	srl	x11,x10,x23
    80002300:	018e1613          	slli	x12,x28,0x18
    80002304:	d8e86e37          	lui	x28,0xd8e86
    80002308:	00414533          	xor	x10,x2,x4
    8000230c:	7bc24993          	xori	x19,x4,1980
    80002310:	17b13a97          	auipc	x21,0x17b13
    80002314:	0127acb3          	slt	x25,x15,x18
    80002318:	6348bb93          	sltiu	x23,x17,1588
    8000231c:	79bd0a37          	lui	x20,0x79bd0
    80002320:	00db573b          	srlw	x14,x22,x13
    80002324:	41c95513          	srai	x10,x18,0x1c
    80002328:	0ab8cf37          	lui	x30,0xab8c
    8000232c:	0196fb33          	and	x22,x13,x25
    80002330:	6a33b393          	sltiu	x7,x7,1699
    80002334:	19c33237          	lui	x4,0x19c33
    80002338:	4141d4b3          	sra	x9,x3,x20
    8000233c:	1d7a8513          	addi	x10,x21,471 # 97b154e7 <_start+0x17b154e7>
    80002340:	152c9c37          	lui	x24,0x152c9
    80002344:	0072e433          	or	x8,x5,x7
    80002348:	6889f813          	andi	x16,x19,1672
    8000234c:	2d1b16b7          	lui	x13,0x2d1b1
    80002350:	00ee8bbb          	addw	x23,x29,x14
    80002354:	0d55a993          	slti	x19,x11,213
    80002358:	968960b7          	lui	x1,0x96896
    8000235c:	01d17d33          	and	x26,x2,x29
    80002360:	5a463213          	sltiu	x4,x12,1444
    80002364:	e8701397          	auipc	x7,0xe8701
    80002368:	009e5833          	srl	x16,x28,x9
    8000236c:	00549d9b          	slliw	x27,x9,0x5
    80002370:	516cc7b7          	lui	x15,0x516cc
    80002374:	0119aab3          	slt	x21,x19,x17
    80002378:	41695c93          	srai	x25,x18,0x16
    8000237c:	30076c37          	lui	x24,0x30076
    80002380:	00620833          	add	x16,x4,x6
    80002384:	15e0f993          	andi	x19,x1,350
    80002388:	41c03e97          	auipc	x29,0x41c03
    8000238c:	0036f533          	and	x10,x13,x3
    80002390:	0006df9b          	srliw	x31,x13,0x0
    80002394:	9961f917          	auipc	x18,0x9961f
    80002398:	41058abb          	subw	x21,x11,x16
    8000239c:	0010d49b          	srliw	x9,x1,0x1
    800023a0:	41652d17          	auipc	x26,0x41652
    800023a4:	40608c33          	sub	x24,x1,x6
    800023a8:	3921e393          	ori	x7,x3,914
    800023ac:	97314937          	lui	x18,0x97314
    800023b0:	41ee853b          	subw	x10,x29,x30
    800023b4:	0358dd93          	srli	x27,x17,0x35
    800023b8:	02479337          	lui	x6,0x2479
    800023bc:	41a6d3b3          	sra	x7,x13,x26
    800023c0:	37aeb613          	sltiu	x12,x29,890
    800023c4:	dec9aa37          	lui	x20,0xdec9a
    800023c8:	40dad83b          	sraw	x16,x21,x13
    800023cc:	16654213          	xori	x4,x10,358
    800023d0:	a96c60b7          	lui	x1,0xa96c6
    800023d4:	4183513b          	sraw	x2,x6,x24
    800023d8:	1c732a13          	slti	x20,x6,455
    800023dc:	4b31d337          	lui	x6,0x4b31d
    800023e0:	40cb8fbb          	subw	x31,x23,x12
    800023e4:	30c20813          	addi	x16,x4,780 # 19c3330c <_start-0x663cccf4>
    800023e8:	77701e37          	lui	x28,0x77701
    800023ec:	00fa4033          	xor	x0,x20,x15
    800023f0:	2e656f13          	ori	x30,x10,742
    800023f4:	35e1d597          	auipc	x11,0x35e1d
    800023f8:	0059c233          	xor	x4,x19,x5
    800023fc:	0040d313          	srli	x6,x1,0x4
    80002400:	3cc7d417          	auipc	x8,0x3cc7d
    80002404:	01397633          	and	x12,x18,x19
    80002408:	41b5d51b          	sraiw	x10,x11,0x1b
    8000240c:	e3671697          	auipc	x13,0xe3671
    80002410:	011aebb3          	or	x23,x21,x17
    80002414:	3357a813          	slti	x16,x15,821
    80002418:	ba534db7          	lui	x27,0xba534
    8000241c:	016b5b3b          	srlw	x22,x22,x22
    80002420:	051c039b          	addiw	x7,x24,81 # 30076051 <_start-0x4ff89faf>
    80002424:	d06ee037          	lui	x0,0xd06ee
    80002428:	008c843b          	addw	x8,x25,x8
    8000242c:	0bb27813          	andi	x16,x4,187
    80002430:	9cc15897          	auipc	x17,0x9cc15
    80002434:	00abf733          	and	x14,x23,x10
    80002438:	01021b13          	slli	x22,x4,0x10
    8000243c:	588c9137          	lui	x2,0x588c9
    80002440:	017f85b3          	add	x11,x31,x23
    80002444:	6f98f993          	andi	x19,x17,1785
    80002448:	1f169737          	lui	x14,0x1f169
    8000244c:	014c8e3b          	addw	x28,x25,x20
    80002450:	03ac1c13          	slli	x24,x24,0x3a
    80002454:	81b5fa17          	auipc	x20,0x81b5f
    80002458:	0039dabb          	srlw	x21,x19,x3
    8000245c:	00a4929b          	slliw	x5,x9,0xa
    80002460:	47482497          	auipc	x9,0x47482
    80002464:	00b15b33          	srl	x22,x2,x11
    80002468:	037e1593          	slli	x11,x28,0x37
    8000246c:	68c94937          	lui	x18,0x68c94
    80002470:	01d53fb3          	sltu	x31,x10,x29
    80002474:	4ebdc013          	xori	x0,x27,1259
    80002478:	b976a7b7          	lui	x15,0xb976a
    8000247c:	41a656b3          	sra	x13,x12,x26
    80002480:	61fe8d1b          	addiw	x26,x29,1567 # ffffffffc1c059a7 <_start+0xffffffff41c059a7>
    80002484:	041b15b7          	lui	x11,0x41b1
    80002488:	013b01b3          	add	x3,x22,x19
    8000248c:	01abdb9b          	srliw	x23,x23,0x1a
    80002490:	ac1747b7          	lui	x15,0xac174
    80002494:	00c65433          	srl	x8,x12,x12
    80002498:	0096d69b          	srliw	x13,x13,0x9
    8000249c:	2b0c6597          	auipc	x11,0x2b0c6
    800024a0:	01eef633          	and	x12,x29,x30
    800024a4:	0124dc1b          	srliw	x24,x9,0x12
    800024a8:	cad26837          	lui	x16,0xcad26
    800024ac:	0071eb33          	or	x22,x3,x7
    800024b0:	211be793          	ori	x15,x23,529
    800024b4:	8d572217          	auipc	x4,0x8d572
    800024b8:	00c40033          	add	x0,x8,x12
    800024bc:	1ddc7c93          	andi	x25,x24,477
    800024c0:	1e7a2b97          	auipc	x23,0x1e7a2
    800024c4:	0088f333          	and	x6,x17,x8
    800024c8:	1b31c613          	xori	x12,x3,435
    800024cc:	efb9e897          	auipc	x17,0xefb9e
    800024d0:	01bef7b3          	and	x15,x29,x27
    800024d4:	2f7afb13          	andi	x22,x21,759
    800024d8:	3c1c5e37          	lui	x28,0x3c1c5
    800024dc:	00244633          	xor	x12,x8,x2
    800024e0:	425cda13          	srai	x20,x25,0x25
    800024e4:	f22b9cb7          	lui	x25,0xf22b9
    800024e8:	408583bb          	subw	x7,x11,x8
    800024ec:	544f6f13          	ori	x30,x30,1348
    800024f0:	6f3804b7          	lui	x9,0x6f380
    800024f4:	40ed85b3          	sub	x11,x27,x14
    800024f8:	00c89693          	slli	x13,x17,0xc
    800024fc:	7ca0feb7          	lui	x29,0x7ca0f
    80002500:	015348b3          	xor	x17,x6,x21
    80002504:	09347d93          	andi	x27,x8,147
    80002508:	03e40e37          	lui	x28,0x3e40
    8000250c:	409755b3          	sra	x11,x14,x9
    80002510:	013a1d1b          	slliw	x26,x20,0x13
    80002514:	079ac297          	auipc	x5,0x79ac
    80002518:	00031533          	sll	x10,x6,x0
    8000251c:	00ffd893          	srli	x17,x31,0xf
    80002520:	f2163c17          	auipc	x24,0xf2163
    80002524:	0100913b          	sllw	x2,x1,x16
    80002528:	00e79d1b          	slliw	x26,x15,0xe
    8000252c:	f4cf4297          	auipc	x5,0xf4cf4
    80002530:	01fb21b3          	slt	x3,x22,x31
    80002534:	4f487c93          	andi	x25,x16,1268
    80002538:	e6f56897          	auipc	x17,0xe6f56
    8000253c:	00258abb          	addw	x21,x11,x2
    80002540:	3f012213          	slti	x4,x2,1008
    80002544:	22fa1797          	auipc	x15,0x22fa1
    80002548:	41e85b3b          	sraw	x22,x16,x30
    8000254c:	00b9901b          	slliw	x0,x19,0xb
    80002550:	d2879e37          	lui	x28,0xd2879
    80002554:	00bc59bb          	srlw	x19,x24,x11
    80002558:	2845bc93          	sltiu	x25,x11,644
    8000255c:	c8ba6837          	lui	x16,0xc8ba6
    80002560:	0055c1b3          	xor	x3,x11,x5
    80002564:	013d5213          	srli	x4,x26,0x13
    80002568:	1321ee17          	auipc	x28,0x1321e
    8000256c:	00b2dcbb          	srlw	x25,x5,x11
    80002570:	2c856e93          	ori	x29,x10,712
    80002574:	f1c386b7          	lui	x13,0xf1c38
    80002578:	40805933          	sra	x18,x0,x8
    8000257c:	00761d9b          	slliw	x27,x12,0x7
    80002580:	c38cd597          	auipc	x11,0xc38cd
    80002584:	010174b3          	and	x9,x2,x16
    80002588:	01e5539b          	srliw	x7,x10,0x1e
    8000258c:	093c7437          	lui	x8,0x93c7
    80002590:	41170033          	sub	x0,x14,x17
    80002594:	1a513693          	sltiu	x13,x2,421
    80002598:	9dcbbfb7          	lui	x31,0x9dcbb
    8000259c:	01a5aeb3          	slt	x29,x11,x26
    800025a0:	5c94b793          	sltiu	x15,x9,1481
    800025a4:	d7fdc717          	auipc	x14,0xd7fdc
    800025a8:	00991db3          	sll	x27,x18,x9
    800025ac:	6fd88e1b          	addiw	x28,x17,1789 # 66f58c35 <_start-0x190a73cb>
    800025b0:	5bc90c37          	lui	x24,0x5bc90
    800025b4:	0044d7b3          	srl	x15,x9,x4
    800025b8:	2112a993          	slti	x19,x5,529
    800025bc:	9018ed97          	auipc	x27,0x9018e
    800025c0:	003571b3          	and	x3,x10,x3
    800025c4:	51610393          	addi	x7,x2,1302 # 588c9516 <_start-0x27736aea>
    800025c8:	f8ee3537          	lui	x10,0xf8ee3
    800025cc:	40b3023b          	subw	x4,x6,x11
    800025d0:	00e49d1b          	slliw	x26,x9,0xe
    800025d4:	13259317          	auipc	x6,0x13259
    800025d8:	408050bb          	sraw	x1,x0,x8
    800025dc:	0cbc2d93          	slti	x27,x24,203
    800025e0:	9cf5d197          	auipc	x3,0x9cf5d
    800025e4:	019769b3          	or	x19,x14,x25
    800025e8:	00f3979b          	slliw	x15,x7,0xf
    800025ec:	c4f1f837          	lui	x16,0xc4f1f
    800025f0:	0140ef33          	or	x30,x1,x20
    800025f4:	41bb5b1b          	sraiw	x22,x22,0x1b
    800025f8:	d062e217          	auipc	x4,0xd062e
    800025fc:	01291eb3          	sll	x29,x18,x18
    80002600:	00a3111b          	slliw	x2,x6,0xa
    80002604:	520e9a97          	auipc	x21,0x520e9
    80002608:	01ef17b3          	sll	x15,x30,x30
    8000260c:	6c2b7b93          	andi	x23,x22,1730
    80002610:	69d3d517          	auipc	x10,0x69d3d
    80002614:	40ea073b          	subw	x14,x20,x14
    80002618:	43a3dd13          	srai	x26,x7,0x3a
    8000261c:	f3bad037          	lui	x0,0xf3bad
    80002620:	00c63133          	sltu	x2,x12,x12
    80002624:	41e65e1b          	sraiw	x28,x12,0x1e
    80002628:	24818d97          	auipc	x27,0x24818
    8000262c:	01820f33          	add	x30,x4,x24
    80002630:	45e36e93          	ori	x29,x6,1118
    80002634:	2cdb4ab7          	lui	x21,0x2cdb4
    80002638:	40130933          	sub	x18,x6,x1
    8000263c:	15946693          	ori	x13,x8,345
    80002640:	42696037          	lui	x0,0x42696
    80002644:	00f1d433          	srl	x8,x3,x15
    80002648:	59ee3d13          	sltiu	x26,x28,1438
    8000264c:	753ee3b7          	lui	x7,0x753ee
    80002650:	003aae33          	slt	x28,x21,x3
    80002654:	41d4d91b          	sraiw	x18,x9,0x1d
    80002658:	bfca27b7          	lui	x15,0xbfca2
    8000265c:	00a1e233          	or	x4,x3,x10
    80002660:	007c5993          	srli	x19,x24,0x7
    80002664:	dd148397          	auipc	x7,0xdd148
    80002668:	005b58bb          	srlw	x17,x22,x5
    8000266c:	418f5e1b          	sraiw	x28,x30,0x18
    80002670:	01a5fa37          	lui	x20,0x1a5f
    80002674:	0159b433          	sltu	x8,x19,x21
    80002678:	21adf013          	andi	x0,x27,538
    8000267c:	36372937          	lui	x18,0x36372
    80002680:	006d6d33          	or	x26,x26,x6
    80002684:	00939693          	slli	x13,x7,0x9
    80002688:	49a79397          	auipc	x7,0x49a79
    8000268c:	4168d433          	sra	x8,x17,x22
    80002690:	01471593          	slli	x11,x14,0x14
    80002694:	cb441617          	auipc	x12,0xcb441
    80002698:	009f84bb          	addw	x9,x31,x9
    8000269c:	0088d31b          	srliw	x6,x17,0x8
    800026a0:	69968697          	auipc	x13,0x69968
    800026a4:	00e0cf33          	xor	x30,x1,x14
    800026a8:	002c161b          	slliw	x12,x24,0x2
    800026ac:	f9771397          	auipc	x7,0xf9771
    800026b0:	0190cbb3          	xor	x23,x1,x25
    800026b4:	358eb993          	sltiu	x19,x29,856
    800026b8:	d8f1e817          	auipc	x16,0xd8f1e
    800026bc:	01c26933          	or	x18,x4,x28
    800026c0:	7b7cbf13          	sltiu	x30,x25,1975
    800026c4:	0a9efcb7          	lui	x25,0xa9ef
    800026c8:	004610b3          	sll	x1,x12,x4
    800026cc:	33de8e93          	addi	x29,x29,829 # 7ca0f33d <_start-0x35f0cc3>
    800026d0:	f47c2397          	auipc	x7,0xf47c2
    800026d4:	01270db3          	add	x27,x14,x18
    800026d8:	43b55213          	srai	x4,x10,0x3b
    800026dc:	a12c5f37          	lui	x30,0xa12c5
    800026e0:	0110afb3          	slt	x31,x1,x17
    800026e4:	22cbbe93          	sltiu	x29,x23,556
    800026e8:	a7834797          	auipc	x15,0xa7834
    800026ec:	006150b3          	srl	x1,x2,x6
    800026f0:	003c8b9b          	addiw	x23,x25,3 # a9ef003 <_start-0x75610ffd>
    800026f4:	8b0ac737          	lui	x14,0x8b0ac
    800026f8:	0085e233          	or	x4,x11,x8
    800026fc:	64697e93          	andi	x29,x18,1606
    80002700:	c86ff437          	lui	x8,0xc86ff
    80002704:	0129513b          	srlw	x2,x18,x18
    80002708:	00748893          	addi	x17,x9,7 # 6f380007 <_start-0x10c7fff9>
    8000270c:	9e2314b7          	lui	x9,0x9e231
    80002710:	00331a33          	sll	x20,x6,x3
    80002714:	032bde13          	srli	x28,x23,0x32
    80002718:	0e9f7297          	auipc	x5,0xe9f7
    8000271c:	41d150bb          	sraw	x1,x2,x29
    80002720:	185b2893          	slti	x17,x22,389
    80002724:	c8ec2437          	lui	x8,0xc8ec2
    80002728:	01c105bb          	addw	x11,x2,x28
    8000272c:	79fa0c1b          	addiw	x24,x20,1951 # 1a5f79f <_start-0x7e5a0861>
    80002730:	32022b97          	auipc	x23,0x32022
    80002734:	009e5633          	srl	x12,x28,x9
    80002738:	08908413          	addi	x8,x1,137 # ffffffffa96c6089 <_start+0xffffffff296c6089>
    8000273c:	02c9c697          	auipc	x13,0x2c9c
    80002740:	00572ab3          	slt	x21,x14,x5
    80002744:	2f7dce13          	xori	x28,x27,759
    80002748:	8ce6cf37          	lui	x30,0x8ce6c
    8000274c:	00fed7b3          	srl	x15,x29,x15
    80002750:	2fd43313          	sltiu	x6,x8,765
    80002754:	71af0bb7          	lui	x23,0x71af0
    80002758:	0104c133          	xor	x2,x9,x16
    8000275c:	001c5693          	srli	x13,x24,0x1
    80002760:	b3842437          	lui	x8,0xb3842
    80002764:	4000d4b3          	sra	x9,x1,x0
    80002768:	09736f93          	ori	x31,x6,151
    8000276c:	b7818517          	auipc	x10,0xb7818
    80002770:	4171dabb          	sraw	x21,x3,x23
    80002774:	0144171b          	slliw	x14,x8,0x14
    80002778:	c09c4597          	auipc	x11,0xc09c4
    8000277c:	00660f3b          	addw	x30,x12,x6
    80002780:	43ec5493          	srai	x9,x24,0x3e
    80002784:	168e30b7          	lui	x1,0x168e3
    80002788:	01f77fb3          	and	x31,x14,x31
    8000278c:	795cba93          	sltiu	x21,x25,1941
    80002790:	7dea7717          	auipc	x14,0x7dea7
    80002794:	005e503b          	srlw	x0,x28,x5
    80002798:	40b4d99b          	sraiw	x19,x9,0xb
    8000279c:	871e6517          	auipc	x10,0x871e6
    800027a0:	00468db3          	add	x27,x13,x4
    800027a4:	57fc069b          	addiw	x13,x24,1407 # 5bc9057f <_start-0x2436fa81>
    800027a8:	7222bc97          	auipc	x25,0x7222b
    800027ac:	412fdd33          	sra	x26,x31,x18
    800027b0:	2a804413          	xori	x8,x0,680
    800027b4:	6ac7cc17          	auipc	x24,0x6ac7c
    800027b8:	007614b3          	sll	x9,x12,x7
    800027bc:	4186d71b          	sraiw	x14,x13,0x18
    800027c0:	df10b617          	auipc	x12,0xdf10b
    800027c4:	407f053b          	subw	x10,x30,x7
    800027c8:	006d1a9b          	slliw	x21,x26,0x6
    800027cc:	2bc00f97          	auipc	x31,0x2bc00
    800027d0:	01e80ebb          	addw	x29,x16,x30
    800027d4:	15583913          	sltiu	x18,x16,341
    800027d8:	539e1317          	auipc	x6,0x539e1
    800027dc:	413584b3          	sub	x9,x11,x19
    800027e0:	00298613          	addi	x12,x19,2 # 2bb71246 <_start-0x5448edba>
    800027e4:	f643f737          	lui	x14,0xf643f
    800027e8:	41040bb3          	sub	x23,x8,x16
    800027ec:	0034139b          	slliw	x7,x8,0x3
    800027f0:	b0da8b37          	lui	x22,0xb0da8
    800027f4:	009cba33          	sltu	x20,x25,x9
    800027f8:	0078f013          	andi	x0,x17,7
    800027fc:	ebd82497          	auipc	x9,0xebd82
    80002800:	011f5cb3          	srl	x25,x30,x17
    80002804:	06f76293          	ori	x5,x14,111
    80002808:	d86ad537          	lui	x10,0xd86ad
    8000280c:	01d11c3b          	sllw	x24,x2,x29
    80002810:	1265ab93          	slti	x23,x11,294
    80002814:	43d9ce97          	auipc	x29,0x43d9c
    80002818:	406181bb          	subw	x3,x3,x6
    8000281c:	317e2313          	slti	x6,x28,791
    80002820:	bc9389b7          	lui	x19,0xbc938
    80002824:	0099513b          	srlw	x2,x18,x9
    80002828:	011c9e9b          	slliw	x29,x25,0x11
    8000282c:	62b62937          	lui	x18,0x62b62
    80002830:	003f7e33          	and	x28,x30,x3
    80002834:	7acacf13          	xori	x30,x21,1964
    80002838:	b10f4137          	lui	x2,0xb10f4
    8000283c:	01405d3b          	srlw	x26,x0,x20
    80002840:	35e36b13          	ori	x22,x6,862
    80002844:	ef8d2937          	lui	x18,0xef8d2
    80002848:	015c9dbb          	sllw	x27,x25,x21
    8000284c:	00e5981b          	slliw	x16,x11,0xe
    80002850:	47585d17          	auipc	x26,0x47585
    80002854:	01de15b3          	sll	x11,x28,x29
    80002858:	43f2d913          	srai	x18,x5,0x3f
    8000285c:	ff6b4337          	lui	x6,0xff6b4
    80002860:	016d88bb          	addw	x17,x27,x22
    80002864:	00029493          	slli	x9,x5,0x0
    80002868:	14bdc517          	auipc	x10,0x14bdc
    8000286c:	41bc0bb3          	sub	x23,x24,x27
    80002870:	7ba68e93          	addi	x29,x13,1978 # 82c9eef6 <_start+0x2c9eef6>
    80002874:	f9213f17          	auipc	x30,0xf9213
    80002878:	01f311bb          	sllw	x3,x6,x31
    8000287c:	0186109b          	slliw	x1,x12,0x18
    80002880:	adb06697          	auipc	x13,0xadb06
    80002884:	0066533b          	srlw	x6,x12,x6
    80002888:	1767ad93          	slti	x27,x15,374
    8000288c:	cc762717          	auipc	x14,0xcc762
    80002890:	41558fb3          	sub	x31,x11,x21
    80002894:	4866be93          	sltiu	x29,x13,1158
    80002898:	53177597          	auipc	x11,0x53177
    8000289c:	006190b3          	sll	x1,x3,x6
    800028a0:	01c65193          	srli	x3,x12,0x1c
    800028a4:	e2cd4e17          	auipc	x28,0xe2cd4
    800028a8:	008bc833          	xor	x16,x23,x8
    800028ac:	43aa5993          	srai	x19,x20,0x3a
    800028b0:	42ea88b7          	lui	x17,0x42ea8
    800028b4:	01aa27b3          	slt	x15,x20,x26
    800028b8:	087bfc93          	andi	x25,x23,135
    800028bc:	218472b7          	lui	x5,0x21847
    800028c0:	40d5df33          	sra	x30,x11,x13
    800028c4:	033ad693          	srli	x13,x21,0x33
    800028c8:	a2b9aa37          	lui	x20,0xa2b9a
    800028cc:	0174c333          	xor	x6,x9,x23
    800028d0:	00aad29b          	srliw	x5,x21,0xa
    800028d4:	33235e17          	auipc	x28,0x33235
    800028d8:	01e69d33          	sll	x26,x13,x30
    800028dc:	395a8f1b          	addiw	x30,x21,917 # 2cdb4395 <_start-0x5324bc6b>
    800028e0:	46096597          	auipc	x11,0x46096
    800028e4:	014d98b3          	sll	x17,x27,x20
    800028e8:	0321d913          	srli	x18,x3,0x32
    800028ec:	aa07f497          	auipc	x9,0xaa07f
    800028f0:	01fcab33          	slt	x22,x25,x31
    800028f4:	4185dc1b          	sraiw	x24,x11,0x18
    800028f8:	40717197          	auipc	x3,0x40717
    800028fc:	006828b3          	slt	x17,x16,x6
    80002900:	40bdd39b          	sraiw	x7,x27,0xb
    80002904:	b244ebb7          	lui	x23,0xb244e
    80002908:	015f4eb3          	xor	x29,x30,x21
    8000290c:	438a5293          	srai	x5,x20,0x38
    80002910:	d0f904b7          	lui	x9,0xd0f90
    80002914:	00132b33          	slt	x22,x6,x1
    80002918:	4a95091b          	addiw	x18,x10,1193 # ffffffff94bded11 <_start+0xffffffff14bded11>
    8000291c:	0ae67eb7          	lui	x29,0xae67
    80002920:	00172433          	slt	x8,x14,x1
    80002924:	0028549b          	srliw	x9,x16,0x2
    80002928:	f6b25d97          	auipc	x27,0xf6b25
    8000292c:	01661933          	sll	x18,x12,x22
    80002930:	0117989b          	slliw	x17,x15,0x11
    80002934:	2ce0c137          	lui	x2,0x2ce0c
    80002938:	0093e3b3          	or	x7,x7,x9
    8000293c:	014c1f1b          	slliw	x30,x24,0x14
    80002940:	cf713a37          	lui	x20,0xcf713
    80002944:	003964b3          	or	x9,x18,x3
    80002948:	03568d93          	addi	x27,x13,53 # 2db088b5 <_start-0x524f774b>
    8000294c:	cde99537          	lui	x10,0xcde99
    80002950:	018220b3          	slt	x1,x4,x24
    80002954:	007ed71b          	srliw	x14,x29,0x7
    80002958:	c41fc297          	auipc	x5,0xc41fc
    8000295c:	0198dd33          	srl	x26,x17,x25
    80002960:	01565913          	srli	x18,x12,0x15
    80002964:	a2fec637          	lui	x12,0xa2fec
    80002968:	00fa9333          	sll	x6,x21,x15
    8000296c:	0145d71b          	srliw	x14,x11,0x14
    80002970:	e2ec1217          	auipc	x4,0xe2ec1
    80002974:	41ac513b          	sraw	x2,x24,x26
    80002978:	0664e813          	ori	x16,x9,102
    8000297c:	9c919497          	auipc	x9,0x9c919
    80002980:	01d00cb3          	add	x25,x0,x29
    80002984:	002f6b13          	ori	x22,x30,2
    80002988:	7b2bdab7          	lui	x21,0x7b2bd
    8000298c:	01f635b3          	sltu	x11,x12,x31
    80002990:	47b17e93          	andi	x29,x2,1147
    80002994:	1e5e6237          	lui	x4,0x1e5e6
    80002998:	013f913b          	sllw	x2,x31,x19
    8000299c:	44ce7193          	andi	x3,x28,1100
    800029a0:	7df15737          	lui	x14,0x7df15
    800029a4:	01589033          	sll	x0,x17,x21
    800029a8:	65cdf893          	andi	x17,x27,1628
    800029ac:	3bc8a917          	auipc	x18,0x3bc8a
    800029b0:	009830b3          	sltu	x1,x16,x9
    800029b4:	0046929b          	slliw	x5,x13,0x4
    800029b8:	ca2fe617          	auipc	x12,0xca2fe
    800029bc:	415257bb          	sraw	x15,x4,x21
    800029c0:	6933801b          	addiw	x0,x7,1683 # 747c4d63 <_start-0xb83b29d>
    800029c4:	1115f717          	auipc	x14,0x1115f
    800029c8:	006b8db3          	add	x27,x23,x6
    800029cc:	750ef313          	andi	x6,x29,1872
    800029d0:	f74d2b17          	auipc	x22,0xf74d2
    800029d4:	01c5dcb3          	srl	x25,x11,x28
    800029d8:	5d01ea93          	ori	x21,x3,1488
    800029dc:	12c02837          	lui	x16,0x12c02
    800029e0:	40ded733          	sra	x14,x29,x13
    800029e4:	01c36593          	ori	x11,x6,28
    800029e8:	3b22a397          	auipc	x7,0x3b22a
    800029ec:	01f7eeb3          	or	x29,x15,x31
    800029f0:	6b506293          	ori	x5,x0,1717
    800029f4:	ea956b17          	auipc	x22,0xea956
    800029f8:	00b7ca33          	xor	x20,x15,x11
    800029fc:	44894f13          	xori	x30,x18,1096
    80002a00:	a001eb97          	auipc	x23,0xa001e
    80002a04:	419989bb          	subw	x19,x19,x25
    80002a08:	41acdf9b          	sraiw	x31,x25,0x1a
    80002a0c:	690c6637          	lui	x12,0x690c6
    80002a10:	006e0cb3          	add	x25,x28,x6
    80002a14:	02bd5b93          	srli	x23,x26,0x2b
    80002a18:	7fdcc937          	lui	x18,0x7fdcc
    80002a1c:	01fd2e33          	slt	x28,x26,x31
    80002a20:	0073d79b          	srliw	x15,x7,0x7
    80002a24:	8aef9237          	lui	x4,0x8aef9
    80002a28:	00559ebb          	sllw	x29,x11,x5
    80002a2c:	4180df1b          	sraiw	x30,x1,0x18
    80002a30:	eddce6b7          	lui	x13,0xeddce
    80002a34:	0090dfbb          	srlw	x31,x1,x9
    80002a38:	027ad593          	srli	x11,x21,0x27
    80002a3c:	dd400a97          	auipc	x21,0xdd400
    80002a40:	0117b133          	sltu	x2,x15,x17
    80002a44:	0014551b          	srliw	x10,x8,0x1
    80002a48:	e52c5617          	auipc	x12,0xe52c5
    80002a4c:	412b5b3b          	sraw	x22,x22,x18
    80002a50:	02c69c93          	slli	x25,x13,0x2c
    80002a54:	9da196b7          	lui	x13,0x9da19
    80002a58:	01221833          	sll	x16,x4,x18
    80002a5c:	75114493          	xori	x9,x2,1873
    80002a60:	3bb38437          	lui	x8,0x3bb38
    80002a64:	01aa4733          	xor	x14,x20,x26
    80002a68:	0170db13          	srli	x22,x1,0x17
    80002a6c:	66eaac17          	auipc	x24,0x66eaa
    80002a70:	014bf033          	and	x0,x23,x20
    80002a74:	519cf093          	andi	x1,x25,1305
    80002a78:	62581297          	auipc	x5,0x62581
    80002a7c:	40378a33          	sub	x20,x15,x3
    80002a80:	024b1d13          	slli	x26,x22,0x24
    80002a84:	32c1b337          	lui	x6,0x32c1b
    80002a88:	00898ebb          	addw	x29,x19,x8
    80002a8c:	01a3df1b          	srliw	x30,x7,0x1a
    80002a90:	09f12737          	lui	x14,0x9f12
    80002a94:	002ff4b3          	and	x9,x31,x2
    80002a98:	46b50813          	addi	x16,x10,1131 # ffffffffcde9946b <_start+0xffffffff4de9946b>
    80002a9c:	d677d097          	auipc	x1,0xd677d
    80002aa0:	002b913b          	sllw	x2,x23,x2
    80002aa4:	25104b93          	xori	x23,x0,593
    80002aa8:	ca7a5437          	lui	x8,0xca7a5
    80002aac:	40dd583b          	sraw	x16,x26,x13
    80002ab0:	3dec2213          	slti	x4,x24,990
    80002ab4:	5bdaa117          	auipc	x2,0x5bdaa
    80002ab8:	00aecab3          	xor	x21,x29,x10
    80002abc:	0059d91b          	srliw	x18,x19,0x5
    80002ac0:	769c2b17          	auipc	x22,0x769c2
    80002ac4:	0095bd33          	sltu	x26,x11,x9
    80002ac8:	40d75613          	srai	x12,x14,0xd
    80002acc:	d155cbb7          	lui	x23,0xd155c
    80002ad0:	01d5d13b          	srlw	x2,x11,x29
    80002ad4:	0ecde993          	ori	x19,x27,236
    80002ad8:	5d7b46b7          	lui	x13,0x5d7b4
    80002adc:	41260433          	sub	x8,x12,x18
    80002ae0:	3c760e13          	addi	x28,x12,967 # 652c7e0f <_start-0x1ad381f1>
    80002ae4:	2dcef5b7          	lui	x11,0x2dcef
    80002ae8:	002ddc3b          	srlw	x24,x27,x2
    80002aec:	7ff60193          	addi	x3,x12,2047
    80002af0:	ceceeb17          	auipc	x22,0xcecee
    80002af4:	0176a633          	slt	x12,x13,x23
    80002af8:	72c28e13          	addi	x28,x5,1836 # e25841a4 <_start+0x625841a4>
    80002afc:	aec419b7          	lui	x19,0xaec41
    80002b00:	00154733          	xor	x14,x10,x1
    80002b04:	016b5793          	srli	x15,x22,0x16
    80002b08:	ee20d817          	auipc	x16,0xee20d
    80002b0c:	017b65b3          	or	x11,x22,x23
    80002b10:	40ecd01b          	sraiw	x0,x25,0xe
    80002b14:	2df6b437          	lui	x8,0x2df6b
    80002b18:	01289333          	sll	x6,x17,x18
    80002b1c:	4d1cce13          	xori	x28,x25,1233
    80002b20:	fc83c0b7          	lui	x1,0xfc83c
    80002b24:	00011bbb          	sllw	x23,x2,x0
    80002b28:	0d5b3c93          	sltiu	x25,x22,213
    80002b2c:	6362e297          	auipc	x5,0x6362e
    80002b30:	416e833b          	subw	x6,x29,x22
    80002b34:	05a38413          	addi	x8,x7,90 # bb22ca42 <_start+0x3b22ca42>
    80002b38:	4eea9137          	lui	x2,0x4eea9
    80002b3c:	00a03e33          	sltu	x28,x0,x10
    80002b40:	03db9d93          	slli	x27,x23,0x3d
    80002b44:	ec7efc37          	lui	x24,0xec7ef
    80002b48:	01d4b6b3          	sltu	x13,x9,x29
    80002b4c:	707f8d13          	addi	x26,x31,1799 # abc02ed3 <_start+0x2bc02ed3>
    80002b50:	6569a837          	lui	x16,0x6569a
    80002b54:	40078333          	sub	x6,x15,x0
    80002b58:	62ef7e93          	andi	x29,x30,1582
    80002b5c:	cbd15f37          	lui	x30,0xcbd15
    80002b60:	019ac6b3          	xor	x13,x21,x25
    80002b64:	4277dc93          	srai	x25,x15,0x27
    80002b68:	88c55737          	lui	x14,0x88c55
    80002b6c:	41d95b3b          	sraw	x22,x18,x29
    80002b70:	1677ae93          	slti	x29,x15,359
    80002b74:	04b6aa97          	auipc	x21,0x4b6a
    80002b78:	0098193b          	sllw	x18,x16,x9
    80002b7c:	01c9d61b          	srliw	x12,x19,0x1c
    80002b80:	f40d2597          	auipc	x11,0xf40d2
    80002b84:	0003b9b3          	sltu	x19,x7,x0
    80002b88:	3f6f7393          	andi	x7,x30,1014
    80002b8c:	dc9a1497          	auipc	x9,0xdc9a1
    80002b90:	4046053b          	subw	x10,x12,x4
    80002b94:	7f520413          	addi	x8,x4,2037 # ffffffff8aef97f5 <_start+0xffffffff0aef97f5>
    80002b98:	fd70eab7          	lui	x21,0xfd70e
    80002b9c:	4170d93b          	sraw	x18,x1,x23
    80002ba0:	00289a1b          	slliw	x20,x17,0x2
    80002ba4:	33846d37          	lui	x26,0x33846
    80002ba8:	0133dfb3          	srl	x31,x7,x19
    80002bac:	26c3a893          	slti	x17,x7,620
    80002bb0:	9bc5f997          	auipc	x19,0x9bc5f
    80002bb4:	01621ebb          	sllw	x29,x4,x22
    80002bb8:	01d4131b          	slliw	x6,x8,0x1d
    80002bbc:	4b6da497          	auipc	x9,0x4b6da
    80002bc0:	01445533          	srl	x10,x8,x20
    80002bc4:	00f3d81b          	srliw	x16,x7,0xf
    80002bc8:	4596ba37          	lui	x20,0x4596b
    80002bcc:	00db543b          	srlw	x8,x22,x13
    80002bd0:	380ec493          	xori	x9,x29,896
    80002bd4:	267be9b7          	lui	x19,0x267be
    80002bd8:	006aa533          	slt	x10,x21,x6
    80002bdc:	6b778713          	addi	x14,x15,1719 # 27836d9f <_start-0x587c9261>
    80002be0:	bfd5ea97          	auipc	x21,0xbfd5e
    80002be4:	41de0d3b          	subw	x26,x28,x29
    80002be8:	01145e1b          	srliw	x28,x8,0x11
    80002bec:	adaa2f97          	auipc	x31,0xadaa2
    80002bf0:	018014b3          	sll	x9,x0,x24
    80002bf4:	1fdb8613          	addi	x12,x23,509 # ffffffffd155c1fd <_start+0xffffffff5155c1fd>
    80002bf8:	b5527e97          	auipc	x29,0xb5527
    80002bfc:	41b8dabb          	sraw	x21,x17,x27
    80002c00:	0136dc93          	srli	x25,x13,0x13
    80002c04:	ca2eb037          	lui	x0,0xca2eb
    80002c08:	004f1433          	sll	x8,x30,x4
    80002c0c:	40ced29b          	sraiw	x5,x29,0xc
    80002c10:	ee174597          	auipc	x11,0xee174
    80002c14:	00a61db3          	sll	x27,x12,x10
    80002c18:	24f9e093          	ori	x1,x19,591
    80002c1c:	b46d0b37          	lui	x22,0xb46d0
    80002c20:	41df563b          	sraw	x12,x30,x29
    80002c24:	01e39a1b          	slliw	x20,x7,0x1e
    80002c28:	fee75c37          	lui	x24,0xfee75
    80002c2c:	00e6f333          	and	x6,x13,x14
    80002c30:	61508793          	addi	x15,x1,1557 # fffffffffc83c615 <_start+0xffffffff7c83c615>
    80002c34:	6a14c837          	lui	x16,0x6a14c
    80002c38:	0005dcb3          	srl	x25,x11,x0
    80002c3c:	7599b893          	sltiu	x17,x19,1881
    80002c40:	12544997          	auipc	x19,0x12544
    80002c44:	007ec233          	xor	x4,x29,x7
    80002c48:	00515e13          	srli	x28,x2,0x5
    80002c4c:	0e9bea37          	lui	x20,0xe9be
    80002c50:	40b9503b          	sraw	x0,x18,x11
    80002c54:	0026919b          	slliw	x3,x13,0x2
    80002c58:	243068b7          	lui	x17,0x24306
    80002c5c:	01be9433          	sll	x8,x29,x27
    80002c60:	4016561b          	sraiw	x12,x12,0x1
    80002c64:	5b6db9b7          	lui	x19,0x5b6db
    80002c68:	018693bb          	sllw	x7,x13,x24
    80002c6c:	73bf0093          	addi	x1,x30,1851 # ffffffffcbd1573b <_start+0xffffffff4bd1573b>
    80002c70:	c0d5ca97          	auipc	x21,0xc0d5c
    80002c74:	00090133          	add	x2,x18,x0
    80002c78:	3dc23a13          	sltiu	x20,x4,988
    80002c7c:	7a582c97          	auipc	x25,0x7a582
    80002c80:	00078433          	add	x8,x15,x0
    80002c84:	2b20be13          	sltiu	x28,x1,690
    80002c88:	f214c397          	auipc	x7,0xf214c
    80002c8c:	418f8bb3          	sub	x23,x31,x24
    80002c90:	01bc561b          	srliw	x12,x24,0x1b
    80002c94:	7ae10d97          	auipc	x27,0x7ae10
    80002c98:	01a4e133          	or	x2,x9,x26
    80002c9c:	01771893          	slli	x17,x14,0x17
    80002ca0:	95debc97          	auipc	x25,0x95deb
    80002ca4:	0004dabb          	srlw	x21,x9,x0
    80002ca8:	398fcf13          	xori	x30,x31,920
    80002cac:	03877737          	lui	x14,0x3877
    80002cb0:	40a60eb3          	sub	x29,x12,x10
    80002cb4:	5db02813          	slti	x16,x0,1499
    80002cb8:	fd929b97          	auipc	x23,0xfd929
    80002cbc:	018a0433          	add	x8,x20,x24
    80002cc0:	40d2e313          	ori	x6,x5,1037
    80002cc4:	2d462997          	auipc	x19,0x2d462
    80002cc8:	003e9fbb          	sllw	x31,x29,x3
    80002ccc:	00891713          	slli	x14,x18,0x8
    80002cd0:	87cd5b97          	auipc	x23,0x87cd5
    80002cd4:	00f6d43b          	srlw	x8,x13,x15
    80002cd8:	0357d793          	srli	x15,x15,0x35
    80002cdc:	34687e97          	auipc	x29,0x34687
    80002ce0:	413dd23b          	sraw	x4,x27,x19
    80002ce4:	435b5a13          	srai	x20,x22,0x35
    80002ce8:	5de4b5b7          	lui	x11,0x5de4b
    80002cec:	419d0fbb          	subw	x31,x26,x25
    80002cf0:	40455c93          	srai	x25,x10,0x4
    80002cf4:	0661bb97          	auipc	x23,0x661b
    80002cf8:	00c38033          	add	x0,x7,x12
    80002cfc:	0ac3c193          	xori	x3,x7,172
    80002d00:	5f181b37          	lui	x22,0x5f181
    80002d04:	00a989bb          	addw	x19,x19,x10
    80002d08:	03f29e93          	slli	x29,x5,0x3f
    80002d0c:	03bdc737          	lui	x14,0x3bdc
    80002d10:	010a02bb          	addw	x5,x20,x16
    80002d14:	44207013          	andi	x0,x0,1090
    80002d18:	5a6d79b7          	lui	x19,0x5a6d7
    80002d1c:	412bd7b3          	sra	x15,x23,x18
    80002d20:	33f90f9b          	addiw	x31,x18,831 # 7fdcc33f <_start-0x233cc1>
    80002d24:	f7747637          	lui	x12,0xf7747
    80002d28:	4145dabb          	sraw	x21,x11,x20
    80002d2c:	03749913          	slli	x18,x9,0x37
    80002d30:	fadb8497          	auipc	x9,0xfadb8
    80002d34:	01ad91b3          	sll	x3,x27,x26
    80002d38:	448e0013          	addi	x0,x28,1096 # b3237d1c <_start+0x33237d1c>
    80002d3c:	c979da17          	auipc	x20,0xc979d
    80002d40:	002d6c33          	or	x24,x26,x2
    80002d44:	002f9a93          	slli	x21,x31,0x2
    80002d48:	7e3f1817          	auipc	x16,0x7e3f1
    80002d4c:	0175093b          	addw	x18,x10,x23
    80002d50:	08b08b1b          	addiw	x22,x1,139
    80002d54:	d1847737          	lui	x14,0xd1847
    80002d58:	00942db3          	slt	x27,x8,x9
    80002d5c:	04810f1b          	addiw	x30,x2,72 # 4eea9048 <_start-0x31156fb8>
    80002d60:	361d6117          	auipc	x2,0x361d6
    80002d64:	019fe9b3          	or	x19,x31,x25
    80002d68:	2a14059b          	addiw	x11,x8,673 # 2df6b2a1 <_start-0x52094d5f>
    80002d6c:	d31a0e17          	auipc	x28,0xd31a0
    80002d70:	01e6923b          	sllw	x4,x13,x30
    80002d74:	4091509b          	sraiw	x1,x2,0x9
    80002d78:	37f22fb7          	lui	x31,0x37f22
    80002d7c:	00ef5dbb          	srlw	x27,x30,x14
    80002d80:	0283d713          	srli	x14,x7,0x28
    80002d84:	62dc6017          	auipc	x0,0x62dc6
    80002d88:	014bf5b3          	and	x11,x23,x20
    80002d8c:	0183141b          	slliw	x8,x6,0x18
    80002d90:	354f3517          	auipc	x10,0x354f3
    80002d94:	01ca583b          	srlw	x16,x20,x28
    80002d98:	00571f9b          	slliw	x31,x14,0x5
    80002d9c:	6a8a1697          	auipc	x13,0x6a8a1
    80002da0:	01879c33          	sll	x24,x15,x24
    80002da4:	4001559b          	sraiw	x11,x2,0x0
    80002da8:	0d194c97          	auipc	x25,0xd194
    80002dac:	016f6133          	or	x2,x30,x22
    80002db0:	40826b93          	ori	x23,x4,1032
    80002db4:	815c4097          	auipc	x1,0x815c4
    80002db8:	01a2de3b          	srlw	x28,x5,x26
    80002dbc:	00d75a1b          	srliw	x20,x14,0xd
    80002dc0:	4df8a397          	auipc	x7,0x4df8a
    80002dc4:	0131d83b          	srlw	x16,x3,x19
    80002dc8:	00fe9d13          	slli	x26,x29,0xf
    80002dcc:	39c0d937          	lui	x18,0x39c0d
    80002dd0:	01b2a333          	slt	x6,x5,x27
    80002dd4:	00afd59b          	srliw	x11,x31,0xa
    80002dd8:	9961fcb7          	lui	x25,0x9961f
    80002ddc:	41ff07bb          	subw	x15,x30,x31
    80002de0:	12da0393          	addi	x7,x20,301 # 4979fe69 <_start-0x36860197>
    80002de4:	5bc9cf97          	auipc	x31,0x5bc9c
    80002de8:	408d5ebb          	sraw	x29,x26,x8
    80002dec:	03bddd93          	srli	x27,x27,0x3b
    80002df0:	394f76b7          	lui	x13,0x394f7
    80002df4:	0133543b          	srlw	x8,x6,x19
    80002df8:	00c11313          	slli	x6,x2,0xc
    80002dfc:	6a5907b7          	lui	x15,0x6a590
    80002e00:	00e1f033          	and	x0,x3,x14
    80002e04:	40155a1b          	sraiw	x20,x10,0x1
    80002e08:	1367ef97          	auipc	x31,0x1367e
    80002e0c:	0192c233          	xor	x4,x5,x25
    80002e10:	3746a813          	slti	x16,x13,884
    80002e14:	89131cb7          	lui	x25,0x89131
    80002e18:	01e15f3b          	srlw	x30,x2,x30
    80002e1c:	01471b9b          	slliw	x23,x14,0x14
    80002e20:	a0c34a97          	auipc	x21,0xa0c34
    80002e24:	003d98b3          	sll	x17,x27,x3
    80002e28:	0193139b          	slliw	x7,x6,0x19
    80002e2c:	276f3217          	auipc	x4,0x276f3
    80002e30:	40b4d4b3          	sra	x9,x9,x11
    80002e34:	01285d9b          	srliw	x27,x16,0x12
    80002e38:	1ff73097          	auipc	x1,0x1ff73
    80002e3c:	41d587bb          	subw	x15,x11,x29
    80002e40:	1a170e93          	addi	x29,x14,417 # ffffffffd18471a1 <_start+0xffffffff518471a1>
    80002e44:	0a615237          	lui	x4,0xa615
    80002e48:	00e07133          	and	x2,x0,x14
    80002e4c:	412a5b13          	srai	x22,x20,0x12
    80002e50:	2e8b8297          	auipc	x5,0x2e8b8
    80002e54:	009810b3          	sll	x1,x16,x9
    80002e58:	000f4513          	xori	x10,x30,0
    80002e5c:	6f8d8237          	lui	x4,0x6f8d8
    80002e60:	01de9c3b          	sllw	x24,x29,x29
    80002e64:	5f2fc893          	xori	x17,x31,1522
    80002e68:	b26fad17          	auipc	x26,0xb26fa
    80002e6c:	415cdbb3          	sra	x23,x25,x21
    80002e70:	61060693          	addi	x13,x12,1552 # fffffffff7747610 <_start+0xffffffff77747610>
    80002e74:	a7796717          	auipc	x14,0xa7796
    80002e78:	0060523b          	srlw	x4,x0,x6
    80002e7c:	4197d39b          	sraiw	x7,x15,0x19
    80002e80:	faf35db7          	lui	x27,0xfaf35
    80002e84:	017c153b          	sllw	x10,x24,x23
    80002e88:	405eda13          	srai	x20,x29,0x5
    80002e8c:	a6281e97          	auipc	x29,0xa6281
    80002e90:	00b76033          	or	x0,x14,x11
    80002e94:	3dcbb213          	sltiu	x4,x23,988
    80002e98:	a301a717          	auipc	x14,0xa301a
    80002e9c:	01b403bb          	addw	x7,x8,x27
    80002ea0:	601f051b          	addiw	x10,x30,1537
    80002ea4:	7ed3f837          	lui	x16,0x7ed3f
    80002ea8:	4005de33          	sra	x28,x11,x0
    80002eac:	413ad29b          	sraiw	x5,x21,0x13
    80002eb0:	ac41e617          	auipc	x12,0xac41e
    80002eb4:	011d17b3          	sll	x15,x26,x17
    80002eb8:	3f413693          	sltiu	x13,x2,1012
    80002ebc:	b94b6c97          	auipc	x25,0xb94b6
    80002ec0:	00a0eeb3          	or	x29,x1,x10
    80002ec4:	40cc5f13          	srai	x30,x24,0xc
    80002ec8:	80b38f97          	auipc	x31,0x80b38
    80002ecc:	00201a33          	sll	x20,x0,x2
    80002ed0:	46a76213          	ori	x4,x14,1130
    80002ed4:	25822e17          	auipc	x28,0x25822
    80002ed8:	005ab133          	sltu	x2,x21,x5
    80002edc:	3e91829b          	addiw	x5,x3,1001 # ffffffffc0719ce1 <_start+0xffffffff40719ce1>
    80002ee0:	ac3ef3b7          	lui	x7,0xac3ef
    80002ee4:	40325fb3          	sra	x31,x4,x3
    80002ee8:	40bdd31b          	sraiw	x6,x27,0xb
    80002eec:	85650217          	auipc	x4,0x85650
    80002ef0:	019bb933          	sltu	x18,x23,x25
    80002ef4:	00dce493          	ori	x9,x25,13
    80002ef8:	b2c60417          	auipc	x8,0xb2c60
    80002efc:	00d9e7b3          	or	x15,x19,x13
    80002f00:	252be013          	ori	x0,x23,594
    80002f04:	9bb3b517          	auipc	x10,0x9bb3b
    80002f08:	4092d63b          	sraw	x12,x5,x9
    80002f0c:	162af293          	andi	x5,x21,354
    80002f10:	acc5b9b7          	lui	x19,0xacc5b
    80002f14:	01d15bbb          	srlw	x23,x2,x29
    80002f18:	4b4ccc93          	xori	x25,x25,1204
    80002f1c:	8d2db0b7          	lui	x1,0x8d2db
    80002f20:	003f0033          	add	x0,x30,x3
    80002f24:	516c6513          	ori	x10,x24,1302
    80002f28:	456bb817          	auipc	x16,0x456bb
    80002f2c:	01abdcb3          	srl	x25,x23,x26
    80002f30:	43525b93          	srai	x23,x4,0x35
    80002f34:	9a4db617          	auipc	x12,0x9a4db
    80002f38:	00f198b3          	sll	x17,x3,x15
    80002f3c:	01bfdf9b          	srliw	x31,x31,0x1b
    80002f40:	35be3737          	lui	x14,0x35be3
    80002f44:	00547833          	and	x16,x8,x5
    80002f48:	03421b13          	slli	x22,x4,0x34
    80002f4c:	52ac4237          	lui	x4,0x52ac4
    80002f50:	00743133          	sltu	x2,x8,x7
    80002f54:	4beef593          	andi	x11,x29,1214
    80002f58:	15332917          	auipc	x18,0x15332
    80002f5c:	0106053b          	addw	x10,x12,x16
    80002f60:	0019da9b          	srliw	x21,x19,0x1
    80002f64:	09a6b797          	auipc	x15,0x9a6b
    80002f68:	002d6db3          	or	x27,x26,x2
    80002f6c:	398bc493          	xori	x9,x23,920
    80002f70:	2b095737          	lui	x14,0x2b095
    80002f74:	002399b3          	sll	x19,x7,x2
    80002f78:	61a1ec13          	ori	x24,x3,1562
    80002f7c:	e4e40197          	auipc	x3,0xe4e40
    80002f80:	41d48033          	sub	x0,x9,x29
    80002f84:	41f6d39b          	sraiw	x7,x13,0x1f
    80002f88:	95e6e4b7          	lui	x9,0x95e6e
    80002f8c:	006e053b          	addw	x10,x28,x6
    80002f90:	3679bc13          	sltiu	x24,x19,871
    80002f94:	4e655297          	auipc	x5,0x4e655
    80002f98:	000c85bb          	addw	x11,x25,x0
    80002f9c:	138f3493          	sltiu	x9,x30,312
    80002fa0:	7be83997          	auipc	x19,0x7be83
    80002fa4:	41140dbb          	subw	x27,x8,x17
    80002fa8:	01709a1b          	slliw	x20,x1,0x17
    80002fac:	8e014737          	lui	x14,0x8e014
    80002fb0:	01711ab3          	sll	x21,x2,x23
    80002fb4:	00b35593          	srli	x11,x6,0xb
    80002fb8:	0ffcf137          	lui	x2,0xffcf
    80002fbc:	4166023b          	subw	x4,x12,x22
    80002fc0:	286cf293          	andi	x5,x25,646
    80002fc4:	39bb5697          	auipc	x13,0x39bb5
    80002fc8:	00e3dabb          	srlw	x21,x7,x14
    80002fcc:	01239c13          	slli	x24,x7,0x12
    80002fd0:	9c6c05b7          	lui	x11,0x9c6c0
    80002fd4:	0093933b          	sllw	x6,x7,x9
    80002fd8:	02095013          	srli	x0,x18,0x20
    80002fdc:	06badb37          	lui	x22,0x6bad
    80002fe0:	015d63b3          	or	x7,x26,x21
    80002fe4:	03929093          	slli	x1,x5,0x39
    80002fe8:	ebb47897          	auipc	x17,0xebb47
    80002fec:	01cd963b          	sllw	x12,x27,x28
    80002ff0:	438ddc93          	srai	x25,x27,0x38
    80002ff4:	8ac5b197          	auipc	x3,0x8ac5b
    80002ff8:	407b87b3          	sub	x15,x23,x7
    80002ffc:	405bdd9b          	sraiw	x27,x23,0x5
    80003000:	2b39d637          	lui	x12,0x2b39d
    80003004:	41f70cbb          	subw	x25,x14,x31
    80003008:	0153571b          	srliw	x14,x6,0x15
    8000300c:	a1781097          	auipc	x1,0xa1781
    80003010:	00a532b3          	sltu	x5,x10,x10
    80003014:	026d0d9b          	addiw	x27,x26,38 # 326fce8e <_start-0x4d903172>
    80003018:	55d9b137          	lui	x2,0x55d9b
    8000301c:	00f6b5b3          	sltu	x11,x13,x15
    80003020:	3a87851b          	addiw	x10,x15,936 # ffffffff89a6e30c <_start+0xffffffff09a6e30c>
    80003024:	f6ede6b7          	lui	x13,0xf6ede
    80003028:	00ef9c3b          	sllw	x24,x31,x14
    8000302c:	454fb013          	sltiu	x0,x31,1108
    80003030:	8bed7e37          	lui	x28,0x8bed7
    80003034:	01dd6eb3          	or	x29,x26,x29
    80003038:	4339dd13          	srai	x26,x19,0x33
    8000303c:	eb44a737          	lui	x14,0xeb44a
    80003040:	00db26b3          	slt	x13,x22,x13
    80003044:	36002f13          	slti	x30,x0,864
    80003048:	75c0b017          	auipc	x0,0x75c0b
    8000304c:	017c1eb3          	sll	x29,x24,x23
    80003050:	008d1e1b          	slliw	x28,x26,0x8
    80003054:	57e516b7          	lui	x13,0x57e51
    80003058:	015ce7b3          	or	x15,x25,x21
    8000305c:	4022d093          	srai	x1,x5,0x2
    80003060:	442dcb37          	lui	x22,0x442dc
    80003064:	01c4f4b3          	and	x9,x9,x28
    80003068:	13b3881b          	addiw	x16,x7,315 # ffffffffac3ef13b <_start+0xffffffff2c3ef13b>
    8000306c:	99d0a037          	lui	x0,0x99d0a
    80003070:	0199ea33          	or	x20,x19,x25
    80003074:	10160c93          	addi	x25,x12,257 # 2b39d101 <_start-0x54c62eff>
    80003078:	24c05417          	auipc	x8,0x24c05
    8000307c:	0138a8b3          	slt	x17,x17,x19
    80003080:	702b8d1b          	addiw	x26,x23,1794 # ffffffff8661e3f6 <_start+0xffffffff0661e3f6>
    80003084:	37327397          	auipc	x7,0x37327
    80003088:	0160ba33          	sltu	x20,x1,x22
    8000308c:	00309f1b          	slliw	x30,x1,0x3
    80003090:	d18a2a97          	auipc	x21,0xd18a2
    80003094:	4003583b          	sraw	x16,x6,x0
    80003098:	3506f013          	andi	x0,x13,848
    8000309c:	2e5c3a17          	auipc	x20,0x2e5c3
    800030a0:	01f49233          	sll	x4,x9,x31
    800030a4:	48d3079b          	addiw	x15,x6,1165 # 32c1b48d <_start-0x4d3e4b73>
    800030a8:	0fb3fd37          	lui	x26,0xfb3f
    800030ac:	40e35db3          	sra	x27,x6,x14
    800030b0:	42fc5413          	srai	x8,x24,0x2f
    800030b4:	49695bb7          	lui	x23,0x49695
    800030b8:	403687bb          	subw	x15,x13,x3
    800030bc:	00751e93          	slli	x29,x10,0x7
    800030c0:	48786397          	auipc	x7,0x48786
    800030c4:	405c0a3b          	subw	x20,x24,x5
    800030c8:	0fa47d93          	andi	x27,x8,250
    800030cc:	d388a697          	auipc	x13,0xd388a
    800030d0:	00c10433          	add	x8,x2,x12
    800030d4:	0068929b          	slliw	x5,x17,0x6
    800030d8:	b9d85937          	lui	x18,0xb9d85
    800030dc:	00602c33          	slt	x24,x0,x6
    800030e0:	41a85313          	srai	x6,x16,0x1a
    800030e4:	da9fb217          	auipc	x4,0xda9fb
    800030e8:	01d0f9b3          	and	x19,x1,x29
    800030ec:	03e45393          	srli	x7,x8,0x3e
    800030f0:	c55b42b7          	lui	x5,0xc55b4
    800030f4:	01f511b3          	sll	x3,x10,x31
    800030f8:	02691e13          	slli	x28,x18,0x26
    800030fc:	3e2b6997          	auipc	x19,0x3e2b6
    80003100:	40f80d33          	sub	x26,x16,x15
    80003104:	018f5c9b          	srliw	x25,x30,0x18
    80003108:	b380f237          	lui	x4,0xb380f
    8000310c:	4090513b          	sraw	x2,x0,x9
    80003110:	0144dc1b          	srliw	x24,x9,0x14
    80003114:	4a638eb7          	lui	x29,0x4a638
    80003118:	4124dbbb          	sraw	x23,x9,x18
    8000311c:	00051093          	slli	x1,x10,0x0
    80003120:	d9f13db7          	lui	x27,0xd9f13
    80003124:	00d1da3b          	srlw	x20,x3,x13
    80003128:	40595913          	srai	x18,x18,0x5
    8000312c:	3accbeb7          	lui	x29,0x3accb
    80003130:	00dc6133          	or	x2,x24,x13
    80003134:	002adb1b          	srliw	x22,x21,0x2
    80003138:	c7cab597          	auipc	x11,0xc7cab
    8000313c:	0138d033          	srl	x0,x17,x19
    80003140:	0e396713          	ori	x14,x18,227
    80003144:	01d85f97          	auipc	x31,0x1d85
    80003148:	00647533          	and	x10,x8,x6
    8000314c:	0064159b          	slliw	x11,x8,0x6
    80003150:	77dedbb7          	lui	x23,0x77ded
    80003154:	01d7af33          	slt	x30,x15,x29
    80003158:	21692013          	slti	x0,x18,534
    8000315c:	5e52b237          	lui	x4,0x5e52b
    80003160:	413e89bb          	subw	x19,x29,x19
    80003164:	01e8141b          	slliw	x8,x16,0x1e
    80003168:	21c5c537          	lui	x10,0x21c5c
    8000316c:	01ce72b3          	and	x5,x28,x28
    80003170:	6cb08e1b          	addiw	x28,x1,1739 # 217846d7 <_start-0x5e87b929>
    80003174:	95547f97          	auipc	x31,0x95547
    80003178:	009eb9b3          	sltu	x19,x29,x9
    8000317c:	43cbda93          	srai	x21,x23,0x3c
    80003180:	8236ec17          	auipc	x24,0x8236e
    80003184:	01763533          	sltu	x10,x12,x23
    80003188:	00615d1b          	srliw	x26,x2,0x6
    8000318c:	41cf6117          	auipc	x2,0x41cf6
    80003190:	00f186bb          	addw	x13,x3,x15
    80003194:	019dd49b          	srliw	x9,x27,0x19
    80003198:	9bcf55b7          	lui	x11,0x9bcf5
    8000319c:	01409f33          	sll	x30,x1,x20
    800031a0:	79e26993          	ori	x19,x4,1950
    800031a4:	de68aeb7          	lui	x29,0xde68a
    800031a8:	0180dbb3          	srl	x23,x1,x24
    800031ac:	0114d31b          	srliw	x6,x9,0x11
    800031b0:	e7f6fd37          	lui	x26,0xe7f6f
    800031b4:	414c52b3          	sra	x5,x24,x20
    800031b8:	0ec66113          	ori	x2,x12,236
    800031bc:	dafd1437          	lui	x8,0xdafd1
    800031c0:	003006bb          	addw	x13,x0,x3
    800031c4:	5dfcbc13          	sltiu	x24,x25,1503
    800031c8:	0cf8d817          	auipc	x16,0xcf8d
    800031cc:	01e10d3b          	addw	x26,x2,x30
    800031d0:	57958a1b          	addiw	x20,x11,1401 # ffffffff9bcf5579 <_start+0xffffffff1bcf5579>
    800031d4:	37218737          	lui	x14,0x37218
    800031d8:	019e9dbb          	sllw	x27,x29,x25
    800031dc:	01cadb9b          	srliw	x23,x21,0x1c
    800031e0:	e4842fb7          	lui	x31,0xe4842
    800031e4:	4099083b          	subw	x16,x18,x9
    800031e8:	01fb5c9b          	srliw	x25,x22,0x1f
    800031ec:	a1b406b7          	lui	x13,0xa1b40
    800031f0:	00ee88b3          	add	x17,x29,x14
    800031f4:	5064bb13          	sltiu	x22,x9,1286
    800031f8:	649c01b7          	lui	x3,0x649c0
    800031fc:	00facdb3          	xor	x27,x21,x15
    80003200:	7dee0b93          	addi	x23,x28,2014 # ffffffff8bed77de <_start+0xffffffff0bed77de>
    80003204:	89d05d17          	auipc	x26,0x89d05
    80003208:	010a8f3b          	addw	x30,x21,x16
    8000320c:	07bca013          	slti	x0,x25,123
    80003210:	8e67da97          	auipc	x21,0x8e67d
    80003214:	40898bbb          	subw	x23,x19,x8
    80003218:	00899413          	slli	x8,x19,0x8
    8000321c:	8b269c37          	lui	x24,0x8b269
    80003220:	41e059bb          	sraw	x19,x0,x30
    80003224:	02f51f13          	slli	x30,x10,0x2f
    80003228:	b8dee297          	auipc	x5,0xb8dee
    8000322c:	419a0abb          	subw	x21,x20,x25
    80003230:	6cee2e13          	slti	x28,x28,1742
    80003234:	ab41f497          	auipc	x9,0xab41f
    80003238:	41030b33          	sub	x22,x6,x16
    8000323c:	72a1c313          	xori	x6,x3,1834
    80003240:	5ef59037          	lui	x0,0x5ef59
    80003244:	002d8ebb          	addw	x29,x27,x2
    80003248:	00a4d59b          	srliw	x11,x9,0xa
    8000324c:	a7469a37          	lui	x20,0xa7469
    80003250:	0151ab33          	slt	x22,x3,x21
    80003254:	0a00051b          	addiw	x10,x0,160
    80003258:	3408f197          	auipc	x3,0x3408f
    8000325c:	41ff08bb          	subw	x17,x30,x31
    80003260:	02369a93          	slli	x21,x13,0x23
    80003264:	8ac38437          	lui	x8,0x8ac38
    80003268:	01bcecb3          	or	x25,x25,x27
    8000326c:	43fdd013          	srai	x0,x27,0x3f
    80003270:	0e23ee37          	lui	x28,0xe23e
    80003274:	4061d0bb          	sraw	x1,x3,x6
    80003278:	01f8169b          	slliw	x13,x16,0x1f
    8000327c:	cece4db7          	lui	x27,0xcece4
    80003280:	01eec9b3          	xor	x19,x29,x30
    80003284:	01df5d1b          	srliw	x26,x30,0x1d
    80003288:	bcf0bfb7          	lui	x31,0xbcf0b
    8000328c:	01e122b3          	slt	x5,x2,x30
    80003290:	003f5e93          	srli	x29,x30,0x3
    80003294:	280d7697          	auipc	x13,0x280d7
    80003298:	01e80d33          	add	x26,x16,x30
    8000329c:	1cd10f1b          	addiw	x30,x2,461 # ffffffffc1cf9359 <_start+0xffffffff41cf9359>
    800032a0:	e1035fb7          	lui	x31,0xe1035
    800032a4:	0019cc33          	xor	x24,x19,x1
    800032a8:	5f96a093          	slti	x1,x13,1529
    800032ac:	be39e217          	auipc	x4,0xbe39e
    800032b0:	405a88bb          	subw	x17,x21,x5
    800032b4:	2d528413          	addi	x8,x5,725 # 38df14fd <_start-0x4720eb03>
    800032b8:	fcecf017          	auipc	x0,0xfcecf
    800032bc:	41730abb          	subw	x21,x6,x23
    800032c0:	008d909b          	slliw	x1,x27,0x8
    800032c4:	3fa16297          	auipc	x5,0x3fa16
    800032c8:	01a53a33          	sltu	x20,x10,x26
    800032cc:	1d604b93          	xori	x23,x0,470
    800032d0:	a7756137          	lui	x2,0xa7756
    800032d4:	00c266b3          	or	x13,x4,x12
    800032d8:	0cb43593          	sltiu	x11,x8,203
    800032dc:	43025217          	auipc	x4,0x43025
    800032e0:	416cdcbb          	sraw	x25,x25,x22
    800032e4:	27397f13          	andi	x30,x18,627
    800032e8:	b1e6b8b7          	lui	x17,0xb1e6b
    800032ec:	006c40b3          	xor	x1,x24,x6
    800032f0:	0156549b          	srliw	x9,x12,0x15
    800032f4:	d398e537          	lui	x10,0xd398e
    800032f8:	0176fc33          	and	x24,x13,x23
    800032fc:	79fc8d93          	addi	x27,x25,1951 # 394b965b <_start-0x46b469a5>
    80003300:	4d88ee97          	auipc	x29,0x4d88e
    80003304:	01f35433          	srl	x8,x6,x31
    80003308:	4ed80f93          	addi	x31,x16,1261 # 8cf906b5 <_start+0xcf906b5>
    8000330c:	33619017          	auipc	x0,0x33619
    80003310:	009d8cbb          	addw	x25,x27,x9
    80003314:	3d698b1b          	addiw	x22,x19,982 # ffffffffbe2b94d2 <_start+0xffffffff3e2b94d2>
    80003318:	c5556397          	auipc	x7,0xc5556
    8000331c:	41f3523b          	sraw	x4,x6,x31
    80003320:	4861ef93          	ori	x31,x3,1158
    80003324:	44df99b7          	lui	x19,0x44df9
    80003328:	010f1d33          	sll	x26,x30,x16
    8000332c:	01d71693          	slli	x13,x14,0x1d
    80003330:	2fb69cb7          	lui	x25,0x2fb69
    80003334:	4095573b          	sraw	x14,x10,x9
    80003338:	034e5793          	srli	x15,x28,0x34
    8000333c:	f13b7617          	auipc	x12,0xf13b7
    80003340:	403083bb          	subw	x7,x1,x3
    80003344:	0dba6593          	ori	x11,x20,219
    80003348:	a76ad517          	auipc	x10,0xa76ad
    8000334c:	016ba133          	slt	x2,x23,x22
    80003350:	1ac0bf13          	sltiu	x30,x1,428
    80003354:	01326417          	auipc	x8,0x1326
    80003358:	004674b3          	and	x9,x12,x4
    8000335c:	0118579b          	srliw	x15,x16,0x11
    80003360:	07b84db7          	lui	x27,0x7b84
    80003364:	000a65b3          	or	x11,x20,x0
    80003368:	441caf13          	slti	x30,x25,1089
    8000336c:	684103b7          	lui	x7,0x68410
    80003370:	002d6533          	or	x10,x26,x2
    80003374:	76b42f93          	slti	x31,x8,1899
    80003378:	fbbed037          	lui	x0,0xfbbed
    8000337c:	00ed92bb          	sllw	x5,x27,x14
    80003380:	41885f1b          	sraiw	x30,x16,0x18
    80003384:	edd77d17          	auipc	x26,0xedd77
    80003388:	015b4ab3          	xor	x21,x22,x21
    8000338c:	6f638d93          	addi	x27,x7,1782 # 684106f6 <_start-0x17bef90a>
    80003390:	25d1ecb7          	lui	x25,0x25d1e
    80003394:	01fef833          	and	x16,x29,x31
    80003398:	413a519b          	sraiw	x3,x20,0x13
    8000339c:	c509cb97          	auipc	x23,0xc509c
    800033a0:	4086d3b3          	sra	x7,x13,x8
    800033a4:	0da7ae93          	slti	x29,x15,218
    800033a8:	a3819f37          	lui	x30,0xa3819
    800033ac:	005b053b          	addw	x10,x22,x5
    800033b0:	3de03a93          	sltiu	x21,x0,990
    800033b4:	124834b7          	lui	x9,0x12483
    800033b8:	01f7e2b3          	or	x5,x15,x31
    800033bc:	01581b1b          	slliw	x22,x16,0x15
    800033c0:	26d178b7          	lui	x17,0x26d17
    800033c4:	012c5733          	srl	x14,x24,x18
    800033c8:	0060db9b          	srliw	x23,x1,0x6
    800033cc:	d2011837          	lui	x16,0xd2011
    800033d0:	00641e3b          	sllw	x28,x8,x6
    800033d4:	00a4d69b          	srliw	x13,x9,0xa
    800033d8:	e91ae1b7          	lui	x3,0xe91ae
    800033dc:	00a01bbb          	sllw	x23,x0,x10
    800033e0:	008f531b          	srliw	x6,x30,0x8
    800033e4:	77e92297          	auipc	x5,0x77e92
    800033e8:	4077d233          	sra	x4,x15,x7
    800033ec:	5fa94413          	xori	x8,x18,1530
    800033f0:	c572b037          	lui	x0,0xc572b
    800033f4:	01f88fb3          	add	x31,x17,x31
    800033f8:	16b6e593          	ori	x11,x13,363
    800033fc:	223d3737          	lui	x14,0x223d3
    80003400:	008e013b          	addw	x2,x28,x8
    80003404:	433c5b93          	srai	x23,x24,0x33
    80003408:	21cd1b37          	lui	x22,0x21cd1
    8000340c:	00aab1b3          	sltu	x3,x21,x10
    80003410:	65000713          	addi	x14,x0,1616
    80003414:	3211df17          	auipc	x30,0x3211d
    80003418:	007e0ebb          	addw	x29,x28,x7
    8000341c:	01fd9f9b          	slliw	x31,x27,0x1f
    80003420:	233260b7          	lui	x1,0x23326
    80003424:	0122e933          	or	x18,x5,x18
    80003428:	3af7ea13          	ori	x20,x15,943
    8000342c:	f48206b7          	lui	x13,0xf4820
    80003430:	409f04b3          	sub	x9,x30,x9
    80003434:	0047dc1b          	srliw	x24,x15,0x4
    80003438:	30004617          	auipc	x12,0x30004
    8000343c:	40ab8233          	sub	x4,x23,x10
    80003440:	40c8d41b          	sraiw	x8,x17,0xc
    80003444:	60c9e937          	lui	x18,0x60c9e
    80003448:	00a393b3          	sll	x7,x7,x10
    8000344c:	01ea9593          	slli	x11,x21,0x1e
    80003450:	f503bb17          	auipc	x22,0xf503b
    80003454:	004e9bb3          	sll	x23,x29,x4
    80003458:	01fc9e1b          	slliw	x28,x25,0x1f
    8000345c:	a99f1037          	lui	x0,0xa99f1
    80003460:	40d80ab3          	sub	x21,x16,x13
    80003464:	08b13793          	sltiu	x15,x2,139
    80003468:	7191dc97          	auipc	x25,0x7191d
    8000346c:	013b6fb3          	or	x31,x22,x19
    80003470:	00eddb1b          	srliw	x22,x27,0xe
    80003474:	7be55017          	auipc	x0,0x7be55
    80003478:	007e2eb3          	slt	x29,x28,x7
    8000347c:	43195d13          	srai	x26,x18,0x31
    80003480:	fa63b897          	auipc	x17,0xfa63b
    80003484:	4021df3b          	sraw	x30,x3,x2
    80003488:	4073d79b          	sraiw	x15,x7,0x7
    8000348c:	efc73937          	lui	x18,0xefc73
    80003490:	003c44b3          	xor	x9,x24,x3
    80003494:	0f9c8d1b          	addiw	x26,x25,249 # fffffffff1920561 <_start+0xffffffff71920561>
    80003498:	8fd22097          	auipc	x1,0x8fd22
    8000349c:	01facbb3          	xor	x23,x21,x31
    800034a0:	61262913          	slti	x18,x12,1554
    800034a4:	93a3aa17          	auipc	x20,0x93a3a
    800034a8:	40c80233          	sub	x4,x16,x12
    800034ac:	001ed39b          	srliw	x7,x29,0x1
    800034b0:	c1abdf37          	lui	x30,0xc1abd
    800034b4:	01d43ab3          	sltu	x21,x8,x29
    800034b8:	74c7861b          	addiw	x12,x15,1868
    800034bc:	cb956497          	auipc	x9,0xcb956
    800034c0:	41add8b3          	sra	x17,x27,x26
    800034c4:	416a2793          	slti	x15,x20,1046
    800034c8:	41831337          	lui	x6,0x41831
    800034cc:	0186cc33          	xor	x24,x13,x24
    800034d0:	03a65c93          	srli	x25,x12,0x3a
    800034d4:	1896d517          	auipc	x10,0x1896d
    800034d8:	0156a633          	slt	x12,x13,x21
    800034dc:	22004693          	xori	x13,x0,544
    800034e0:	b3c19137          	lui	x2,0xb3c19
    800034e4:	407d833b          	subw	x6,x27,x7
    800034e8:	534b2813          	slti	x16,x22,1332
    800034ec:	b1595b17          	auipc	x22,0xb1595
    800034f0:	01f3debb          	srlw	x29,x7,x31
    800034f4:	000d1c13          	slli	x24,x26,0x0
    800034f8:	306d5e37          	lui	x28,0x306d5
    800034fc:	007007b3          	add	x15,x0,x7
    80003500:	43b3dd93          	srai	x27,x7,0x3b
    80003504:	b569ff97          	auipc	x31,0xb569f
    80003508:	40bf093b          	subw	x18,x30,x11
    8000350c:	3ada7e13          	andi	x28,x20,941
    80003510:	9e872437          	lui	x8,0x9e872
    80003514:	00021bbb          	sllw	x23,x4,x0
    80003518:	570dcf13          	xori	x30,x27,1392
    8000351c:	eb399b17          	auipc	x22,0xeb399
    80003520:	01a1c2b3          	xor	x5,x3,x26
    80003524:	40bc5c93          	srai	x25,x24,0xb
    80003528:	d02136b7          	lui	x13,0xd0213
    8000352c:	418800bb          	subw	x1,x16,x24
    80003530:	1bb7859b          	addiw	x11,x15,443
    80003534:	b56233b7          	lui	x7,0xb5623
    80003538:	405c0bbb          	subw	x23,x24,x5
    8000353c:	012ed99b          	srliw	x19,x29,0x12
    80003540:	d6f21b17          	auipc	x22,0xd6f21
    80003544:	00ef3e33          	sltu	x28,x30,x14
    80003548:	568eee93          	ori	x29,x29,1384
    8000354c:	11c1d6b7          	lui	x13,0x11c1d
    80003550:	0187f9b3          	and	x19,x15,x24
    80003554:	01039c13          	slli	x24,x7,0x10
    80003558:	7de3fd37          	lui	x26,0x7de3f
    8000355c:	00461ebb          	sllw	x29,x12,x4
    80003560:	79986913          	ori	x18,x16,1945
    80003564:	9e546437          	lui	x8,0x9e546
    80003568:	00c8e3b3          	or	x7,x17,x12
    8000356c:	00249d9b          	slliw	x27,x9,0x2
    80003570:	fbc19597          	auipc	x11,0xfbc19
    80003574:	00fa3633          	sltu	x12,x20,x15
    80003578:	00019713          	slli	x14,x3,0x0
    8000357c:	305066b7          	lui	x13,0x30506
    80003580:	00615f33          	srl	x30,x2,x6
    80003584:	7d586d13          	ori	x26,x16,2005
    80003588:	d1b56b37          	lui	x22,0xd1b56
    8000358c:	00258cb3          	add	x25,x11,x2
    80003590:	0184db93          	srli	x23,x9,0x18
    80003594:	cbfb6717          	auipc	x14,0xcbfb6
    80003598:	00b42033          	slt	x0,x8,x11
    8000359c:	4a35a893          	slti	x17,x11,1187
    800035a0:	71f8fab7          	lui	x21,0x71f8f
    800035a4:	00b391b3          	sll	x3,x7,x11
    800035a8:	3860ee93          	ori	x29,x1,902
    800035ac:	dfeff717          	auipc	x14,0xdfeff
    800035b0:	005d093b          	addw	x18,x26,x5
    800035b4:	0092dd93          	srli	x27,x5,0x9
    800035b8:	64d30c17          	auipc	x24,0x64d30
    800035bc:	409555b3          	sra	x11,x10,x9
    800035c0:	162fa713          	slti	x14,x31,354
    800035c4:	81af4397          	auipc	x7,0x81af4
    800035c8:	00544233          	xor	x4,x8,x5
    800035cc:	41e62493          	slti	x9,x12,1054
    800035d0:	33612ab7          	lui	x21,0x33612
    800035d4:	0176183b          	sllw	x16,x12,x23
    800035d8:	1ab60e9b          	addiw	x29,x12,427 # ffffffffb00075e3 <_start+0xffffffff300075e3>
    800035dc:	26c836b7          	lui	x13,0x26c83
    800035e0:	4182d9bb          	sraw	x19,x5,x24
    800035e4:	38788c13          	addi	x24,x17,903 # 7a63e807 <_start-0x59c17f9>
    800035e8:	d83e5737          	lui	x14,0xd83e5
    800035ec:	00cefb33          	and	x22,x29,x12
    800035f0:	01111813          	slli	x16,x2,0x11
    800035f4:	3b42f117          	auipc	x2,0x3b42f
    800035f8:	00ad28b3          	slt	x17,x26,x10
    800035fc:	029c5e93          	srli	x29,x24,0x29
    80003600:	81776e37          	lui	x28,0x81776
    80003604:	01ff4833          	xor	x16,x30,x31
    80003608:	1a168f13          	addi	x30,x13,417 # 26c831a1 <_start-0x5937ce5f>
    8000360c:	0a3a63b7          	lui	x7,0xa3a6
    80003610:	0179a8b3          	slt	x17,x19,x23
    80003614:	41665b9b          	sraiw	x23,x12,0x16
    80003618:	a3847d97          	auipc	x27,0xa3847
    8000361c:	01a454b3          	srl	x9,x8,x26
    80003620:	54d98e13          	addi	x28,x19,1357 # 44df954d <_start-0x3b206ab3>
    80003624:	534c0fb7          	lui	x31,0x534c0
    80003628:	014225b3          	slt	x11,x4,x20
    8000362c:	40a85793          	srai	x15,x16,0xa
    80003630:	4b0f88b7          	lui	x17,0x4b0f8
    80003634:	40870f33          	sub	x30,x14,x8
    80003638:	02aed093          	srli	x1,x29,0x2a
    8000363c:	9035f117          	auipc	x2,0x9035f
    80003640:	018a9cbb          	sllw	x25,x21,x24
    80003644:	00055e1b          	srliw	x28,x10,0x0
    80003648:	8176cfb7          	lui	x31,0x8176c
    8000364c:	00ac52b3          	srl	x5,x24,x10
    80003650:	03fa5793          	srli	x15,x20,0x3f
    80003654:	fcacd017          	auipc	x0,0xfcacd
    80003658:	40438333          	sub	x6,x7,x4
    8000365c:	69250e93          	addi	x29,x10,1682 # 98970b66 <_start+0x18970b66>
    80003660:	c2041437          	lui	x8,0xc2041
    80003664:	4131d4b3          	sra	x9,x3,x19
    80003668:	352a4613          	xori	x12,x20,850
    8000366c:	48202e17          	auipc	x28,0x48202
    80003670:	41715d3b          	sraw	x26,x2,x23
    80003674:	3cf7aa93          	slti	x21,x15,975
    80003678:	05978997          	auipc	x19,0x5978
    8000367c:	41770eb3          	sub	x29,x14,x23
    80003680:	6925879b          	addiw	x15,x11,1682 # 7bc1cc02 <_start-0x43e33fe>
    80003684:	610f10b7          	lui	x1,0x610f1
    80003688:	002a3233          	sltu	x4,x20,x2
    8000368c:	31963693          	sltiu	x13,x12,793
    80003690:	6bd51d37          	lui	x26,0x6bd51
    80003694:	0062f333          	and	x6,x5,x6
    80003698:	079f7193          	andi	x3,x30,121
    8000369c:	286d1bb7          	lui	x23,0x286d1
    800036a0:	00af7db3          	and	x27,x30,x10
    800036a4:	03df9a13          	slli	x20,x31,0x3d
    800036a8:	bf29b297          	auipc	x5,0xbf29b
    800036ac:	40788ab3          	sub	x21,x17,x7
    800036b0:	2f9bc913          	xori	x18,x23,761
    800036b4:	95e0beb7          	lui	x29,0x95e0b
    800036b8:	01a54233          	xor	x4,x10,x26
    800036bc:	36b3809b          	addiw	x1,x7,875 # a3a636b <_start-0x75c59c95>
    800036c0:	86527737          	lui	x14,0x86527
    800036c4:	0024fa33          	and	x20,x9,x2
    800036c8:	60b43313          	sltiu	x6,x8,1547
    800036cc:	ea522b37          	lui	x22,0xea522
    800036d0:	41a187b3          	sub	x15,x3,x26
    800036d4:	42f0dc13          	srai	x24,x1,0x2f
    800036d8:	3e2ad417          	auipc	x8,0x3e2ad
    800036dc:	404809b3          	sub	x19,x16,x4
    800036e0:	74c73a13          	sltiu	x20,x14,1868
    800036e4:	1f2bc917          	auipc	x18,0x1f2bc
    800036e8:	00d5dbbb          	srlw	x23,x11,x13
    800036ec:	5af3051b          	addiw	x10,x6,1455 # 418315af <_start-0x3e7cea51>
    800036f0:	d22c6997          	auipc	x19,0xd22c6
    800036f4:	01d7a333          	slt	x6,x15,x29
    800036f8:	019b169b          	slliw	x13,x22,0x19
    800036fc:	4aaea397          	auipc	x7,0x4aaea
    80003700:	408484bb          	subw	x9,x9,x8
    80003704:	0f606e93          	ori	x29,x0,246
    80003708:	ef073e17          	auipc	x28,0xef073
    8000370c:	41e60cb3          	sub	x25,x12,x30
    80003710:	35c50a93          	addi	x21,x10,860
    80003714:	730f9fb7          	lui	x31,0x730f9
    80003718:	41440a33          	sub	x20,x8,x20
    8000371c:	409dd013          	srai	x0,x27,0x9
    80003720:	9f35f2b7          	lui	x5,0x9f35f
    80003724:	40f20cbb          	subw	x25,x4,x15
    80003728:	0bdf4813          	xori	x16,x30,189
    8000372c:	9abaa9b7          	lui	x19,0x9abaa
    80003730:	017e1ab3          	sll	x21,x28,x23
    80003734:	0793b413          	sltiu	x8,x7,121
    80003738:	0ff05797          	auipc	x15,0xff05
    8000373c:	418b00b3          	sub	x1,x22,x24
    80003740:	5feff213          	andi	x4,x31,1534
    80003744:	c76cf817          	auipc	x16,0xc76cf
    80003748:	00ef7533          	and	x10,x30,x14
    8000374c:	7ed04b13          	xori	x22,x0,2029
    80003750:	c9466cb7          	lui	x25,0xc9466
    80003754:	01fbffb3          	and	x31,x23,x31
    80003758:	476f6893          	ori	x17,x30,1142
    8000375c:	23c94637          	lui	x12,0x23c94
    80003760:	4170da3b          	sraw	x20,x1,x23
    80003764:	3814f813          	andi	x16,x9,897
    80003768:	565767b7          	lui	x15,0x56576
    8000376c:	004adbb3          	srl	x23,x21,x4
    80003770:	5665be93          	sltiu	x29,x11,1382
    80003774:	f5cc48b7          	lui	x17,0xf5cc4
    80003778:	01616db3          	or	x27,x2,x22
    8000377c:	6b03b993          	sltiu	x19,x7,1712
    80003780:	fc81afb7          	lui	x31,0xfc81a
    80003784:	00560b33          	add	x22,x12,x5
    80003788:	12884a13          	xori	x20,x16,296
    8000378c:	0cb2c097          	auipc	x1,0xcb2c
    80003790:	00a848b3          	xor	x17,x16,x10
    80003794:	7b19e993          	ori	x19,x19,1969
    80003798:	08189c37          	lui	x24,0x8189
    8000379c:	00cb03b3          	add	x7,x22,x12
    800037a0:	731e0293          	addi	x5,x28,1841 # 6f076e39 <_start-0x10f891c7>
    800037a4:	a41b2d37          	lui	x26,0xa41b2
    800037a8:	017c893b          	addw	x18,x25,x23
    800037ac:	458f7613          	andi	x12,x30,1112
    800037b0:	68825817          	auipc	x16,0x68825
    800037b4:	40175c3b          	sraw	x24,x14,x1
    800037b8:	6aacf593          	andi	x11,x25,1706
    800037bc:	64b0dbb7          	lui	x23,0x64b0d
    800037c0:	0138cb33          	xor	x22,x17,x19
    800037c4:	0164d79b          	srliw	x15,x9,0x16
    800037c8:	12bc5eb7          	lui	x29,0x12bc5
    800037cc:	01cdecb3          	or	x25,x27,x28
    800037d0:	562e6c13          	ori	x24,x28,1378
    800037d4:	e93acfb7          	lui	x31,0xe93ac
    800037d8:	010d46b3          	xor	x13,x26,x16
    800037dc:	2c212313          	slti	x6,x2,706
    800037e0:	c890d4b7          	lui	x9,0xc890d
    800037e4:	01339d3b          	sllw	x26,x7,x19
    800037e8:	40f65113          	srai	x2,x12,0xf
    800037ec:	53e41ab7          	lui	x21,0x53e41
    800037f0:	01e2c033          	xor	x0,x5,x30
    800037f4:	2fe5b393          	sltiu	x7,x11,766
    800037f8:	14d59b37          	lui	x22,0x14d59
    800037fc:	00c61333          	sll	x6,x12,x12
    80003800:	016f9993          	slli	x19,x31,0x16
    80003804:	95d6d917          	auipc	x18,0x95d6d
    80003808:	4196d23b          	sraw	x4,x13,x25
    8000380c:	0213d193          	srli	x3,x7,0x21
    80003810:	bc5d3db7          	lui	x27,0xbc5d3
    80003814:	4095d83b          	sraw	x16,x11,x9
    80003818:	02370893          	addi	x17,x14,35 # ffffffff86527023 <_start+0xffffffff06527023>
    8000381c:	2e20e397          	auipc	x7,0x2e20e
    80003820:	00861433          	sll	x8,x12,x8
    80003824:	56313513          	sltiu	x10,x2,1379
    80003828:	2a974f37          	lui	x30,0x2a974
    8000382c:	417c8133          	sub	x2,x25,x23
    80003830:	40d1da1b          	sraiw	x20,x3,0xd
    80003834:	b8a58417          	auipc	x8,0xb8a58
    80003838:	0161d233          	srl	x4,x3,x22
    8000383c:	415dd99b          	sraiw	x19,x27,0x15
    80003840:	d96fdb97          	auipc	x23,0xd96fd
    80003844:	01049733          	sll	x14,x9,x16
    80003848:	13df8113          	addi	x2,x31,317 # ffffffffe93ac13d <_start+0xffffffff693ac13d>
    8000384c:	b0982837          	lui	x16,0xb0982
    80003850:	004edeb3          	srl	x29,x29,x4
    80003854:	0042151b          	slliw	x10,x4,0x4
    80003858:	60db6c37          	lui	x24,0x60db6
    8000385c:	0160e9b3          	or	x19,x1,x22
    80003860:	407dd81b          	sraiw	x16,x27,0x7
    80003864:	e8796337          	lui	x6,0xe8796
    80003868:	01f26ab3          	or	x21,x4,x31
    8000386c:	00fd539b          	srliw	x7,x26,0xf
    80003870:	58226cb7          	lui	x25,0x58226
    80003874:	0054e133          	or	x2,x9,x5
    80003878:	027c5213          	srli	x4,x24,0x27
    8000387c:	4b537717          	auipc	x14,0x4b537
    80003880:	00a393bb          	sllw	x7,x7,x10
    80003884:	4bdbec13          	ori	x24,x23,1213
    80003888:	74aaaf97          	auipc	x31,0x74aaa
    8000388c:	001042b3          	xor	x5,x0,x1
    80003890:	0108d313          	srli	x6,x17,0x10
    80003894:	bdc8a637          	lui	x12,0xbdc8a
    80003898:	40a1043b          	subw	x8,x2,x10
    8000389c:	7e2ac393          	xori	x7,x21,2018
    800038a0:	eeb84937          	lui	x18,0xeeb84
    800038a4:	00f0d5b3          	srl	x11,x1,x15
    800038a8:	38e57013          	andi	x0,x10,910
    800038ac:	2ab74db7          	lui	x27,0x2ab74
    800038b0:	40e2d43b          	sraw	x8,x5,x14
    800038b4:	41cbdf9b          	sraiw	x31,x23,0x1c
    800038b8:	c2b561b7          	lui	x3,0xc2b56
    800038bc:	00a9fa33          	and	x20,x19,x10
    800038c0:	01fe9e1b          	slliw	x28,x29,0x1f
    800038c4:	fbf66c97          	auipc	x25,0xfbf66
    800038c8:	41bdd9b3          	sra	x19,x27,x27
    800038cc:	00ec129b          	slliw	x5,x24,0xe
    800038d0:	31fed097          	auipc	x1,0x31fed
    800038d4:	40cb5eb3          	sra	x29,x22,x12
    800038d8:	01b2539b          	srliw	x7,x4,0x1b
    800038dc:	f4c0cf37          	lui	x30,0xf4c0c
    800038e0:	00674e33          	xor	x28,x14,x6
    800038e4:	00ec109b          	slliw	x1,x24,0xe
    800038e8:	d1cb21b7          	lui	x3,0xd1cb2
    800038ec:	407bdcb3          	sra	x25,x23,x7
    800038f0:	5ad53613          	sltiu	x12,x10,1453
    800038f4:	938f9497          	auipc	x9,0x938f9
    800038f8:	01e9ce33          	xor	x28,x19,x30
    800038fc:	17c78a9b          	addiw	x21,x15,380 # 5657617c <_start-0x29a89e84>
    80003900:	67e672b7          	lui	x5,0x67e67
    80003904:	00b6593b          	srlw	x18,x12,x11
    80003908:	697b0c13          	addi	x24,x22,1687 # 14d59697 <_start-0x6b2a6969>
    8000390c:	a6b79537          	lui	x10,0xa6b79
    80003910:	4068db33          	sra	x22,x17,x6
    80003914:	0508839b          	addiw	x7,x17,80 # fffffffff5cc4050 <_start+0xffffffff75cc4050>
    80003918:	dbd1cbb7          	lui	x23,0xdbd1c
    8000391c:	01bd04b3          	add	x9,x26,x27
    80003920:	7a207093          	andi	x1,x0,1954
    80003924:	cd340c17          	auipc	x24,0xcd340
    80003928:	015d67b3          	or	x15,x26,x21
    8000392c:	4d687293          	andi	x5,x16,1238
    80003930:	24d3f697          	auipc	x13,0x24d3f
    80003934:	01ed833b          	addw	x6,x27,x30
    80003938:	5cffac13          	slti	x24,x31,1487
    8000393c:	c213ccb7          	lui	x25,0xc213c
    80003940:	007d01b3          	add	x3,x26,x7
    80003944:	40a7529b          	sraiw	x5,x14,0xa
    80003948:	fb4d2237          	lui	x4,0xfb4d2
    8000394c:	40955db3          	sra	x27,x10,x9
    80003950:	03001413          	slli	x8,x0,0x30
    80003954:	0cdbdb37          	lui	x22,0xcdbd
    80003958:	01a8d1bb          	srlw	x3,x17,x26
    8000395c:	76ea3a13          	sltiu	x20,x20,1902
    80003960:	84200337          	lui	x6,0x84200
    80003964:	412e58bb          	sraw	x17,x28,x18
    80003968:	361de993          	ori	x19,x27,865
    8000396c:	d54dcb97          	auipc	x23,0xd54dc
    80003970:	00213eb3          	sltu	x29,x2,x2
    80003974:	00585a1b          	srliw	x20,x16,0x5
    80003978:	be0d3b17          	auipc	x22,0xbe0d3
    8000397c:	0013b833          	sltu	x16,x7,x1
    80003980:	78462713          	slti	x14,x12,1924
    80003984:	98889f97          	auipc	x31,0x98889
    80003988:	004dd2b3          	srl	x5,x27,x4
    8000398c:	00909d1b          	slliw	x26,x1,0x9
    80003990:	163e8537          	lui	x10,0x163e8
    80003994:	01c70a3b          	addw	x20,x14,x28
    80003998:	01409313          	slli	x6,x1,0x14
    8000399c:	a956d117          	auipc	x2,0xa956d
    800039a0:	41695abb          	sraw	x21,x18,x22
    800039a4:	00a61d9b          	slliw	x27,x12,0xa
    800039a8:	f9062037          	lui	x0,0xf9062
    800039ac:	001ec4b3          	xor	x9,x29,x1
    800039b0:	00c65d1b          	srliw	x26,x12,0xc
    800039b4:	913b0e97          	auipc	x29,0x913b0
    800039b8:	4033dab3          	sra	x21,x7,x3
    800039bc:	20734413          	xori	x8,x6,519
    800039c0:	3058a4b7          	lui	x9,0x3058a
    800039c4:	014b27b3          	slt	x15,x22,x20
    800039c8:	327bf993          	andi	x19,x23,807
    800039cc:	85d5ba37          	lui	x20,0x85d5b
    800039d0:	01a571b3          	and	x3,x10,x26
    800039d4:	03291013          	slli	x0,x18,0x32
    800039d8:	7e84a3b7          	lui	x7,0x7e84a
    800039dc:	0136e333          	or	x6,x13,x19
    800039e0:	03681593          	slli	x11,x16,0x36
    800039e4:	7e4cc797          	auipc	x15,0x7e4cc
    800039e8:	00e65633          	srl	x12,x12,x14
    800039ec:	107fb013          	sltiu	x0,x31,263
    800039f0:	71768917          	auipc	x18,0x71768
    800039f4:	004b65b3          	or	x11,x22,x4
    800039f8:	5ca33713          	sltiu	x14,x6,1482
    800039fc:	7d7a67b7          	lui	x15,0x7d7a6
    80003a00:	001fe9b3          	or	x19,x31,x1
    80003a04:	02b09c93          	slli	x25,x1,0x2b
    80003a08:	be724e37          	lui	x28,0xbe724
    80003a0c:	01a451b3          	srl	x3,x8,x26
    80003a10:	00001f1b          	slliw	x30,x0,0x0
    80003a14:	e93de797          	auipc	x15,0xe93de
    80003a18:	00d660b3          	or	x1,x12,x13
    80003a1c:	40c75e13          	srai	x28,x14,0xc
    80003a20:	2fc07737          	lui	x14,0x2fc07
    80003a24:	0142d43b          	srlw	x8,x5,x20
    80003a28:	40dbd79b          	sraiw	x15,x23,0xd
    80003a2c:	885c1d37          	lui	x26,0x885c1
    80003a30:	40a20ab3          	sub	x21,x4,x10
    80003a34:	0972ed93          	ori	x27,x5,151
    80003a38:	7d1e9637          	lui	x12,0x7d1e9
    80003a3c:	41d68333          	sub	x6,x13,x29
    80003a40:	4010581b          	sraiw	x16,x0,0x1
    80003a44:	6d89c497          	auipc	x9,0x6d89c
    80003a48:	003b513b          	srlw	x2,x22,x3
    80003a4c:	19a58a9b          	addiw	x21,x11,410
    80003a50:	a7015797          	auipc	x15,0xa7015
    80003a54:	00c76a33          	or	x20,x14,x12
    80003a58:	015f8713          	addi	x14,x31,21 # 1888c999 <_start-0x67773667>
    80003a5c:	050d4d97          	auipc	x27,0x50d4
    80003a60:	00938033          	add	x0,x7,x9
    80003a64:	00139f1b          	slliw	x30,x7,0x1
    80003a68:	7223f217          	auipc	x4,0x7223f
    80003a6c:	409d0abb          	subw	x21,x26,x9
    80003a70:	7ef6e993          	ori	x19,x13,2031
    80003a74:	b801fa17          	auipc	x20,0xb801f
    80003a78:	400dd033          	sra	x0,x27,x0
    80003a7c:	44be2b93          	slti	x23,x28,1099
    80003a80:	5262a717          	auipc	x14,0x5262a
    80003a84:	00a6a7b3          	slt	x15,x13,x10
    80003a88:	4380849b          	addiw	x9,x1,1080 # ffffffffb1ff0d08 <_start+0xffffffff31ff0d08>
    80003a8c:	5c878e17          	auipc	x28,0x5c878
    80003a90:	00c885bb          	addw	x11,x17,x12
    80003a94:	037c5a13          	srli	x20,x24,0x37
    80003a98:	fa7dddb7          	lui	x27,0xfa7dd
    80003a9c:	40965d3b          	sraw	x26,x12,x9
    80003aa0:	7ba9b313          	sltiu	x6,x19,1978
    80003aa4:	08b2f737          	lui	x14,0x8b2f
    80003aa8:	01101b3b          	sllw	x22,x0,x17
    80003aac:	3d19b413          	sltiu	x8,x19,977
    80003ab0:	cb422917          	auipc	x18,0xcb422
    80003ab4:	01c7cd33          	xor	x26,x15,x28
    80003ab8:	5c402893          	slti	x17,x0,1476
    80003abc:	a91fc997          	auipc	x19,0xa91fc
    80003ac0:	007546b3          	xor	x13,x10,x7
    80003ac4:	0017d11b          	srliw	x2,x15,0x1
    80003ac8:	bcd10c37          	lui	x24,0xbcd10
    80003acc:	00e5d0bb          	srlw	x1,x11,x14
    80003ad0:	00aad29b          	srliw	x5,x21,0xa
    80003ad4:	daa33837          	lui	x16,0xdaa33
    80003ad8:	407707b3          	sub	x15,x14,x7
    80003adc:	02989193          	slli	x3,x17,0x29
    80003ae0:	a236d317          	auipc	x6,0xa236d
    80003ae4:	00ea6733          	or	x14,x20,x14
    80003ae8:	302f4213          	xori	x4,x30,770
    80003aec:	faf6d017          	auipc	x0,0xfaf6d
    80003af0:	4198d833          	sra	x16,x17,x25
    80003af4:	03799a13          	slli	x20,x19,0x37
    80003af8:	a6e328b7          	lui	x17,0xa6e32
    80003afc:	016cf333          	and	x6,x25,x22
    80003b00:	41645d93          	srai	x27,x8,0x16
    80003b04:	5caec6b7          	lui	x13,0x5caec
    80003b08:	00a3a2b3          	slt	x5,x7,x10
    80003b0c:	0097dc1b          	srliw	x24,x15,0x9
    80003b10:	18e07b37          	lui	x22,0x18e07
    80003b14:	0021c3b3          	xor	x7,x3,x2
    80003b18:	2c586693          	ori	x13,x16,709
    80003b1c:	68e8f837          	lui	x16,0x68e8f
    80003b20:	4047073b          	subw	x14,x14,x4
    80003b24:	612b8a1b          	addiw	x20,x23,1554 # 554dff7e <_start-0x2ab20082>
    80003b28:	7471b2b7          	lui	x5,0x7471b
    80003b2c:	0006a7b3          	slt	x15,x13,x0
    80003b30:	7b286313          	ori	x6,x16,1970
    80003b34:	81f5d1b7          	lui	x3,0x81f5d
    80003b38:	0178aa33          	slt	x20,x17,x23
    80003b3c:	4b62ed13          	ori	x26,x5,1206
    80003b40:	0fd08717          	auipc	x14,0xfd08
    80003b44:	012ffe33          	and	x28,x31,x18
    80003b48:	408f8993          	addi	x19,x31,1032
    80003b4c:	ef6400b7          	lui	x1,0xef640
    80003b50:	01519a3b          	sllw	x20,x3,x21
    80003b54:	0b260a9b          	addiw	x21,x12,178 # 7d1e90b2 <_start-0x2e16f4e>
    80003b58:	78d4f437          	lui	x8,0x78d4f
    80003b5c:	00a657b3          	srl	x15,x12,x10
    80003b60:	4f2b8393          	addi	x7,x23,1266
    80003b64:	7d6e8e37          	lui	x28,0x7d6e8
    80003b68:	00e29633          	sll	x12,x5,x14
    80003b6c:	4cd4f113          	andi	x2,x9,1229
    80003b70:	2de78e97          	auipc	x29,0x2de78
    80003b74:	014035b3          	sltu	x11,x0,x20
    80003b78:	43bbd513          	srai	x10,x23,0x3b
    80003b7c:	e6715217          	auipc	x4,0xe6715
    80003b80:	0000993b          	sllw	x18,x1,x0
    80003b84:	1cf33813          	sltiu	x16,x6,463
    80003b88:	caa33437          	lui	x8,0xcaa33
    80003b8c:	01ec17bb          	sllw	x15,x24,x30
    80003b90:	01605a9b          	srliw	x21,x0,0x16
    80003b94:	f432c217          	auipc	x4,0xf432c
    80003b98:	007b8eb3          	add	x29,x23,x7
    80003b9c:	011a169b          	slliw	x13,x20,0x11
    80003ba0:	f5b447b7          	lui	x15,0xf5b44
    80003ba4:	01288bb3          	add	x23,x17,x18
    80003ba8:	59c02b13          	slti	x22,x0,1436
    80003bac:	aa006eb7          	lui	x29,0xaa006
    80003bb0:	00ef8dbb          	addw	x27,x31,x14
    80003bb4:	662e7213          	andi	x4,x28,1634
    80003bb8:	1c4f1297          	auipc	x5,0x1c4f1
    80003bbc:	001617bb          	sllw	x15,x12,x1
    80003bc0:	01ec5c9b          	srliw	x25,x24,0x1e
    80003bc4:	348f6317          	auipc	x6,0x348f6
    80003bc8:	00374eb3          	xor	x29,x14,x3
    80003bcc:	40ea561b          	sraiw	x12,x20,0xe
    80003bd0:	0cdb76b7          	lui	x13,0xcdb7
    80003bd4:	414c89b3          	sub	x19,x25,x20
    80003bd8:	5a297d93          	andi	x27,x18,1442
    80003bdc:	d8a94eb7          	lui	x29,0xd8a94
    80003be0:	01faf5b3          	and	x11,x21,x31
    80003be4:	00cc9193          	slli	x3,x25,0xc
    80003be8:	b1a876b7          	lui	x13,0xb1a87
    80003bec:	4048023b          	subw	x4,x16,x4
    80003bf0:	409cdc13          	srai	x24,x25,0x9
    80003bf4:	574f1e97          	auipc	x29,0x574f1
    80003bf8:	00ef193b          	sllw	x18,x30,x14
    80003bfc:	49b43713          	sltiu	x14,x8,1179
    80003c00:	9b71e1b7          	lui	x3,0x9b71e
    80003c04:	001c19b3          	sll	x19,x24,x1
    80003c08:	4077d69b          	sraiw	x13,x15,0x7
    80003c0c:	b2850337          	lui	x6,0xb2850
    80003c10:	412482b3          	sub	x5,x9,x18
    80003c14:	71bafe13          	andi	x28,x21,1819
    80003c18:	93e44897          	auipc	x17,0x93e44
    80003c1c:	00202033          	slt	x0,x0,x2
    80003c20:	024c5513          	srli	x10,x24,0x24
    80003c24:	2f12db17          	auipc	x22,0x2f12d
    80003c28:	018456b3          	srl	x13,x8,x24
    80003c2c:	6ec5c793          	xori	x15,x11,1772
    80003c30:	ac3fbb97          	auipc	x23,0xac3fb
    80003c34:	01880833          	add	x16,x16,x24
    80003c38:	4343b513          	sltiu	x10,x7,1076
    80003c3c:	cb4b0c97          	auipc	x25,0xcb4b0
    80003c40:	01e45633          	srl	x12,x8,x30
    80003c44:	7a99e913          	ori	x18,x19,1961
    80003c48:	36070797          	auipc	x15,0x36070
    80003c4c:	01aeddbb          	srlw	x27,x29,x26
    80003c50:	3ac48013          	addi	x0,x9,940 # ed89fdf0 <_start+0x6d89fdf0>
    80003c54:	4ad56b37          	lui	x22,0x4ad56
    80003c58:	0112533b          	srlw	x6,x4,x17
    80003c5c:	42f7d613          	srai	x12,x15,0x2f
    80003c60:	f2e74717          	auipc	x14,0xf2e74
    80003c64:	00dda533          	slt	x10,x27,x13
    80003c68:	0a300893          	addi	x17,x0,163
    80003c6c:	43489317          	auipc	x6,0x43489
    80003c70:	404f07bb          	subw	x15,x30,x4
    80003c74:	026c9c93          	slli	x25,x25,0x26
    80003c78:	60eaa237          	lui	x4,0x60eaa
    80003c7c:	008f4b33          	xor	x22,x30,x8
    80003c80:	001f9a93          	slli	x21,x31,0x1
    80003c84:	f2a764b7          	lui	x9,0xf2a76
    80003c88:	40858c3b          	subw	x24,x11,x8
    80003c8c:	0aebb213          	sltiu	x4,x23,174
    80003c90:	9e6a3697          	auipc	x13,0x9e6a3
    80003c94:	41df5533          	sra	x10,x30,x29
    80003c98:	1c962013          	slti	x0,x12,457
    80003c9c:	1db66cb7          	lui	x25,0x1db66
    80003ca0:	00f462b3          	or	x5,x8,x15
    80003ca4:	256b2593          	slti	x11,x22,598
    80003ca8:	135a9e17          	auipc	x28,0x135a9
    80003cac:	0063993b          	sllw	x18,x7,x6
    80003cb0:	02b25013          	srli	x0,x4,0x2b
    80003cb4:	df8dac17          	auipc	x24,0xdf8da
    80003cb8:	016c8bbb          	addw	x23,x25,x22
    80003cbc:	414dd79b          	sraiw	x15,x27,0x14
    80003cc0:	06a87d17          	auipc	x26,0x6a87
    80003cc4:	4119d93b          	sraw	x18,x19,x17
    80003cc8:	2bf64393          	xori	x7,x12,703
    80003ccc:	12f0b6b7          	lui	x13,0x12f0b
    80003cd0:	00ea8e33          	add	x28,x21,x14
    80003cd4:	0cd46813          	ori	x16,x8,205
    80003cd8:	e31f3797          	auipc	x15,0xe31f3
    80003cdc:	00e30633          	add	x12,x6,x14
    80003ce0:	03e01d13          	slli	x26,x0,0x3e
    80003ce4:	28750237          	lui	x4,0x28750
    80003ce8:	01b15e3b          	srlw	x28,x2,x27
    80003cec:	0ad12693          	slti	x13,x2,173
    80003cf0:	5e6799b7          	lui	x19,0x5e679
    80003cf4:	0088f2b3          	and	x5,x17,x8
    80003cf8:	52f44c13          	xori	x24,x8,1327
    80003cfc:	26335d17          	auipc	x26,0x26335
    80003d00:	416e54bb          	sraw	x9,x28,x22
    80003d04:	1cb8891b          	addiw	x18,x17,459 # 13e47de3 <_start-0x6c1b821d>
    80003d08:	c8b4b1b7          	lui	x3,0xc8b4b
    80003d0c:	0135ef33          	or	x30,x11,x19
    80003d10:	6da8b513          	sltiu	x10,x17,1754
    80003d14:	fddcfcb7          	lui	x25,0xfddcf
    80003d18:	010e1bb3          	sll	x23,x28,x16
    80003d1c:	012e1013          	slli	x0,x28,0x12
    80003d20:	8f93b997          	auipc	x19,0x8f93b
    80003d24:	004e5f3b          	srlw	x30,x28,x4
    80003d28:	2e94c093          	xori	x1,x9,745
    80003d2c:	644fd397          	auipc	x7,0x644fd
    80003d30:	003105bb          	addw	x11,x2,x3
    80003d34:	01dedd1b          	srliw	x26,x29,0x1d
    80003d38:	2c2d6037          	lui	x0,0x2c2d6
    80003d3c:	00909a3b          	sllw	x20,x1,x9
    80003d40:	5b50ba93          	sltiu	x21,x1,1461
    80003d44:	3c3480b7          	lui	x1,0x3c348
    80003d48:	01e296b3          	sll	x13,x5,x30
    80003d4c:	42a2de93          	srai	x29,x5,0x2a
    80003d50:	0eea0137          	lui	x2,0xeea0
    80003d54:	00397933          	and	x18,x18,x3
    80003d58:	4177d09b          	sraiw	x1,x15,0x17
    80003d5c:	59dbfd97          	auipc	x27,0x59dbf
    80003d60:	40898433          	sub	x8,x19,x8
    80003d64:	00efd313          	srli	x6,x31,0xe
    80003d68:	4974c8b7          	lui	x17,0x4974c
    80003d6c:	00720ab3          	add	x21,x4,x7
    80003d70:	3885ed13          	ori	x26,x11,904
    80003d74:	a54d8a17          	auipc	x20,0xa54d8
    80003d78:	002f7233          	and	x4,x30,x2
    80003d7c:	03e01e13          	slli	x28,x0,0x3e
    80003d80:	1e61edb7          	lui	x27,0x1e61e
    80003d84:	00268bb3          	add	x23,x13,x2
    80003d88:	56080a1b          	addiw	x20,x16,1376 # 68e8f560 <_start-0x17170aa0>
    80003d8c:	a22ed597          	auipc	x11,0xa22ed
    80003d90:	01c0ee33          	or	x28,x1,x28
    80003d94:	0153101b          	slliw	x0,x6,0x15
    80003d98:	74712c17          	auipc	x24,0x74712
    80003d9c:	40c859bb          	sraw	x19,x16,x12
    80003da0:	26d2f313          	andi	x6,x5,621
    80003da4:	c10bb417          	auipc	x8,0xc10bb
    80003da8:	01c796bb          	sllw	x13,x15,x28
    80003dac:	5efd7c13          	andi	x24,x26,1519
    80003db0:	05a1e017          	auipc	x0,0x5a1e
    80003db4:	015f87b3          	add	x15,x31,x21
    80003db8:	414d5713          	srai	x14,x26,0x14
    80003dbc:	975ab437          	lui	x8,0x975ab
    80003dc0:	01726d33          	or	x26,x4,x23
    80003dc4:	41d9501b          	sraiw	x0,x18,0x1d
    80003dc8:	868a5797          	auipc	x15,0x868a5
    80003dcc:	40d8083b          	subw	x16,x16,x13
    80003dd0:	0bd9af93          	slti	x31,x19,189
    80003dd4:	2fba9497          	auipc	x9,0x2fba9
    80003dd8:	01671f33          	sll	x30,x14,x22
    80003ddc:	025cd613          	srli	x12,x25,0x25
    80003de0:	7f679a17          	auipc	x20,0x7f679
    80003de4:	402d08b3          	sub	x17,x26,x2
    80003de8:	40a8549b          	sraiw	x9,x16,0xa
    80003dec:	965615b7          	lui	x11,0x96561
    80003df0:	017f5633          	srl	x12,x30,x23
    80003df4:	30dbee13          	ori	x28,x23,781
    80003df8:	cd081ab7          	lui	x21,0xcd081
    80003dfc:	01a1c3b3          	xor	x7,x3,x26
    80003e00:	14dc0113          	addi	x2,x24,333 # f4715ee5 <_start+0x74715ee5>
    80003e04:	fc114337          	lui	x6,0xfc114
    80003e08:	41a5de33          	sra	x28,x11,x26
    80003e0c:	202b0f13          	addi	x30,x22,514 # 4ad56202 <_start-0x352a9dfe>
    80003e10:	2abf0297          	auipc	x5,0x2abf0
    80003e14:	419adebb          	sraw	x29,x21,x25
    80003e18:	01e4d51b          	srliw	x10,x9,0x1e
    80003e1c:	3a8b1137          	lui	x2,0x3a8b1
    80003e20:	40b257b3          	sra	x15,x4,x11
    80003e24:	68c3ba13          	sltiu	x20,x7,1676
    80003e28:	366473b7          	lui	x7,0x36647
    80003e2c:	008b58b3          	srl	x17,x22,x8
    80003e30:	12230b9b          	addiw	x23,x6,290 # fffffffffc114122 <_start+0xffffffff7c114122>
    80003e34:	d66eba97          	auipc	x21,0xd66eb
    80003e38:	0126513b          	srlw	x2,x12,x18
    80003e3c:	019ed19b          	srliw	x3,x29,0x19
    80003e40:	534c9fb7          	lui	x31,0x534c9
    80003e44:	018f4bb3          	xor	x23,x30,x24
    80003e48:	05ecad13          	slti	x26,x25,94
    80003e4c:	d5ae3817          	auipc	x16,0xd5ae3
    80003e50:	40a95dbb          	sraw	x27,x18,x10
    80003e54:	334e021b          	addiw	x4,x28,820 # ffffffff935acfdc <_start+0xffffffff135acfdc>
    80003e58:	c7907ab7          	lui	x21,0xc7907
    80003e5c:	01ca18b3          	sll	x17,x20,x28
    80003e60:	1ee6ff13          	andi	x30,x13,494
    80003e64:	09357617          	auipc	x12,0x9357
    80003e68:	000dc1b3          	xor	x3,x27,x0
    80003e6c:	414ad49b          	sraiw	x9,x21,0x14
    80003e70:	7aea4ab7          	lui	x21,0x7aea4
    80003e74:	41888d33          	sub	x26,x17,x24
    80003e78:	01d8df93          	srli	x31,x17,0x1d
    80003e7c:	7d926eb7          	lui	x29,0x7d926
    80003e80:	007df533          	and	x10,x27,x7
    80003e84:	3351f693          	andi	x13,x3,821
    80003e88:	d0d9b937          	lui	x18,0xd0d9b
    80003e8c:	01079133          	sll	x2,x15,x16
    80003e90:	2f100293          	addi	x5,x0,753
    80003e94:	e9187cb7          	lui	x25,0xe9187
    80003e98:	00a81633          	sll	x12,x16,x10
    80003e9c:	401e5f9b          	sraiw	x31,x28,0x1
    80003ea0:	d344fa37          	lui	x20,0xd344f
    80003ea4:	0134953b          	sllw	x10,x9,x19
    80003ea8:	77c9ee93          	ori	x29,x19,1916
    80003eac:	def93737          	lui	x14,0xdef93
    80003eb0:	408f5c3b          	sraw	x24,x30,x8
    80003eb4:	018cde1b          	srliw	x28,x25,0x18
    80003eb8:	343d4317          	auipc	x6,0x343d4
    80003ebc:	40485433          	sra	x8,x16,x4
    80003ec0:	3d948d93          	addi	x27,x9,985 # afbad1ad <_start+0x2fbad1ad>
    80003ec4:	6d1f0997          	auipc	x19,0x6d1f0
    80003ec8:	40f0013b          	subw	x2,x0,x15
    80003ecc:	03731893          	slli	x17,x6,0x37
    80003ed0:	5fb81b37          	lui	x22,0x5fb81
    80003ed4:	0041cdb3          	xor	x27,x3,x4
    80003ed8:	30c48913          	addi	x18,x9,780
    80003edc:	1783f4b7          	lui	x9,0x1783f
    80003ee0:	008c9eb3          	sll	x29,x25,x8
    80003ee4:	001bdc1b          	srliw	x24,x23,0x1
    80003ee8:	5d401b97          	auipc	x23,0x5d401
    80003eec:	00ad1cbb          	sllw	x25,x26,x10
    80003ef0:	01be5a1b          	srliw	x20,x28,0x1b
    80003ef4:	93b07017          	auipc	x0,0x93b07
    80003ef8:	016367b3          	or	x15,x6,x22
    80003efc:	03015b93          	srli	x23,x2,0x30
    80003f00:	8f17f217          	auipc	x4,0x8f17f
    80003f04:	00b9013b          	addw	x2,x18,x11
    80003f08:	403e5b13          	srai	x22,x28,0x3
    80003f0c:	6935f2b7          	lui	x5,0x6935f
    80003f10:	009eaeb3          	slt	x29,x29,x9
    80003f14:	408cdc9b          	sraiw	x25,x25,0x8
    80003f18:	d0a0d897          	auipc	x17,0xd0a0d
    80003f1c:	01048333          	add	x6,x9,x16
    80003f20:	6c180f93          	addi	x31,x16,1729 # 55ae750d <_start-0x2a518af3>
    80003f24:	83681017          	auipc	x0,0x83681
    80003f28:	013ae6b3          	or	x13,x21,x19
    80003f2c:	416c5a13          	srai	x20,x24,0x16
    80003f30:	e1fba317          	auipc	x6,0xe1fba
    80003f34:	40edd633          	sra	x12,x27,x14
    80003f38:	5c9a8a9b          	addiw	x21,x21,1481 # 7aea45c9 <_start-0x515ba37>
    80003f3c:	ba923b17          	auipc	x22,0xba923
    80003f40:	017255b3          	srl	x11,x4,x23
    80003f44:	404a5d9b          	sraiw	x27,x20,0x4
    80003f48:	c9444e37          	lui	x28,0xc9444
    80003f4c:	0137d03b          	srlw	x0,x15,x19
    80003f50:	6fb94c13          	xori	x24,x18,1787
    80003f54:	cabff517          	auipc	x10,0xcabff
    80003f58:	01766a33          	or	x20,x12,x23
    80003f5c:	03bad093          	srli	x1,x21,0x3b
    80003f60:	0645a217          	auipc	x4,0x645a
    80003f64:	00faae33          	slt	x28,x21,x15
    80003f68:	01165a9b          	srliw	x21,x12,0x11
    80003f6c:	3d7f0737          	lui	x14,0x3d7f0
    80003f70:	00c6d933          	srl	x18,x13,x12
    80003f74:	716f0b13          	addi	x22,x30,1814 # fffffffff4c0c716 <_start+0xffffffff74c0c716>
    80003f78:	29020f17          	auipc	x30,0x29020
    80003f7c:	008039b3          	sltu	x19,x0,x8
    80003f80:	7c5c811b          	addiw	x2,x25,1989 # ffffffffe91877c5 <_start+0xffffffff691877c5>
    80003f84:	7007fe37          	lui	x28,0x7007f
    80003f88:	0127e633          	or	x12,x15,x18
    80003f8c:	43308013          	addi	x0,x1,1075 # 3c348433 <_start-0x43cb7bcd>
    80003f90:	cf60b817          	auipc	x16,0xcf60b
    80003f94:	01dd3bb3          	sltu	x23,x26,x29
    80003f98:	3860c513          	xori	x10,x1,902
    80003f9c:	b5e518b7          	lui	x17,0xb5e51
    80003fa0:	00d32cb3          	slt	x25,x6,x13
    80003fa4:	0ff37193          	andi	x3,x6,255
    80003fa8:	e6499db7          	lui	x27,0xe6499
    80003fac:	00b26eb3          	or	x29,x4,x11
    80003fb0:	41f2d31b          	sraiw	x6,x5,0x1f
    80003fb4:	b85add17          	auipc	x26,0xb85ad
    80003fb8:	0081903b          	sllw	x0,x3,x8
    80003fbc:	03bcd793          	srli	x15,x25,0x3b
    80003fc0:	c498e117          	auipc	x2,0xc498e
    80003fc4:	0168d2bb          	srlw	x5,x17,x22
    80003fc8:	53dfae93          	slti	x29,x31,1341
    80003fcc:	45d78c97          	auipc	x25,0x45d78
    80003fd0:	018393bb          	sllw	x7,x7,x24
    80003fd4:	34ee7793          	andi	x15,x28,846
    80003fd8:	9a5f8737          	lui	x14,0x9a5f8
    80003fdc:	006ed833          	srl	x16,x29,x6
    80003fe0:	001e9f9b          	slliw	x31,x29,0x1
    80003fe4:	300b3eb7          	lui	x29,0x300b3
    80003fe8:	01e58a33          	add	x20,x11,x30
    80003fec:	02935a93          	srli	x21,x6,0x29
    80003ff0:	423ae437          	lui	x8,0x423ae
    80003ff4:	00a9cc33          	xor	x24,x19,x10
    80003ff8:	0113109b          	slliw	x1,x6,0x11
    80003ffc:	84f175b7          	lui	x11,0x84f17
    80004000:	41cad1bb          	sraw	x3,x21,x28
    80004004:	7fc82793          	slti	x15,x16,2044
    80004008:	8e69fb17          	auipc	x22,0x8e69f
    8000400c:	406ad233          	sra	x4,x21,x6
    80004010:	021a859b          	addiw	x11,x21,33
    80004014:	cb23ca37          	lui	x20,0xcb23c
    80004018:	00891cbb          	sllw	x25,x18,x8
    8000401c:	01379313          	slli	x6,x15,0x13
    80004020:	e2cd8ab7          	lui	x21,0xe2cd8
    80004024:	01ed893b          	addw	x18,x27,x30
    80004028:	426fda13          	srai	x20,x31,0x26
    8000402c:	07db1c37          	lui	x24,0x7db1
    80004030:	41edd0b3          	sra	x1,x27,x30
    80004034:	68768b1b          	addiw	x22,x13,1671 # 12f0b687 <_start-0x6d0f4979>
    80004038:	84570d97          	auipc	x27,0x84570
    8000403c:	017b9abb          	sllw	x21,x23,x23
    80004040:	00e9d613          	srli	x12,x19,0xe
    80004044:	67e46697          	auipc	x13,0x67e46
    80004048:	00be6eb3          	or	x29,x28,x11
    8000404c:	01705d9b          	srliw	x27,x0,0x17
    80004050:	653a6917          	auipc	x18,0x653a6
    80004054:	40b3dabb          	sraw	x21,x7,x11
    80004058:	613c3c13          	sltiu	x24,x24,1555
    8000405c:	f81c5637          	lui	x12,0xf81c5
    80004060:	41f6d33b          	sraw	x6,x13,x31
    80004064:	034fdf93          	srli	x31,x31,0x34
    80004068:	5aac6097          	auipc	x1,0x5aac6
    8000406c:	410edabb          	sraw	x21,x29,x16
    80004070:	41aa521b          	sraiw	x4,x20,0x1a
    80004074:	ca5e53b7          	lui	x7,0xca5e5
    80004078:	017d093b          	addw	x18,x26,x23
    8000407c:	5a288313          	addi	x6,x17,1442 # ffffffffb5e515a2 <_start+0xffffffff35e515a2>
    80004080:	716fb6b7          	lui	x13,0x716fb
    80004084:	019f0bb3          	add	x23,x30,x25
    80004088:	6e20ed13          	ori	x26,x1,1762
    8000408c:	b8202a17          	auipc	x20,0xb8202
    80004090:	00ae3133          	sltu	x2,x28,x10
    80004094:	09eea913          	slti	x18,x29,158
    80004098:	ce6d5197          	auipc	x3,0xce6d5
    8000409c:	41385db3          	sra	x27,x16,x19
    800040a0:	017f541b          	srliw	x8,x30,0x17
    800040a4:	c9c069b7          	lui	x19,0xc9c06
    800040a8:	010cbd33          	sltu	x26,x25,x16
    800040ac:	431ad893          	srai	x17,x21,0x31
    800040b0:	782ca0b7          	lui	x1,0x782ca
    800040b4:	01250533          	add	x10,x10,x18
    800040b8:	03461813          	slli	x16,x12,0x34
    800040bc:	d23f9217          	auipc	x4,0xd23f9
    800040c0:	01e9a633          	slt	x12,x19,x30
    800040c4:	0003de9b          	srliw	x29,x7,0x0
    800040c8:	6be48717          	auipc	x14,0x6be48
    800040cc:	00b15833          	srl	x16,x2,x11
    800040d0:	4009569b          	sraiw	x13,x18,0x0
    800040d4:	77da0897          	auipc	x17,0x77da0
    800040d8:	01901ebb          	sllw	x29,x0,x25
    800040dc:	3df9ba13          	sltiu	x20,x19,991
    800040e0:	96520837          	lui	x16,0x96520
    800040e4:	00fe3bb3          	sltu	x23,x28,x15
    800040e8:	3a834193          	xori	x3,x6,936
    800040ec:	ea68a397          	auipc	x7,0xea68a
    800040f0:	0185b6b3          	sltu	x13,x11,x24
    800040f4:	0131129b          	slliw	x5,x2,0x13
    800040f8:	ccd65617          	auipc	x12,0xccd65
    800040fc:	41df09b3          	sub	x19,x30,x29
    80004100:	036d5b93          	srli	x23,x26,0x36
    80004104:	24b45a97          	auipc	x21,0x24b45
    80004108:	01dede33          	srl	x28,x29,x29
    8000410c:	00f41a13          	slli	x20,x8,0xf
    80004110:	8cc6f097          	auipc	x1,0x8cc6f
    80004114:	41fc5eb3          	sra	x29,x24,x31
    80004118:	408f5213          	srai	x4,x30,0x8
    8000411c:	43f1b837          	lui	x16,0x43f1b
    80004120:	00d4173b          	sllw	x14,x8,x13
    80004124:	01165493          	srli	x9,x12,0x11
    80004128:	93839317          	auipc	x6,0x93839
    8000412c:	0170123b          	sllw	x4,x0,x23
    80004130:	216d6813          	ori	x16,x26,534
    80004134:	c6a86f37          	lui	x30,0xc6a86
    80004138:	40800a3b          	subw	x20,x0,x8
    8000413c:	63967f93          	andi	x31,x12,1593
    80004140:	a44b8d97          	auipc	x27,0xa44b8
    80004144:	018bf3b3          	and	x7,x23,x24
    80004148:	026e5593          	srli	x11,x28,0x26
    8000414c:	07554297          	auipc	x5,0x7554
    80004150:	00ae0cb3          	add	x25,x28,x10
    80004154:	6141b093          	sltiu	x1,x3,1556
    80004158:	55c7ee37          	lui	x28,0x55c7e
    8000415c:	00489eb3          	sll	x29,x17,x4
    80004160:	0113951b          	slliw	x10,x7,0x11
    80004164:	b719bcb7          	lui	x25,0xb719b
    80004168:	00726933          	or	x18,x4,x7
    8000416c:	384b809b          	addiw	x1,x23,900 # ffffffffdd40526c <_start+0xffffffff5d40526c>
    80004170:	86e21117          	auipc	x2,0x86e21
    80004174:	010a9f3b          	sllw	x30,x21,x16
    80004178:	03d6d613          	srli	x12,x13,0x3d
    8000417c:	36c08a17          	auipc	x20,0x36c08
    80004180:	004b7e33          	and	x28,x22,x4
    80004184:	1dcbe093          	ori	x1,x23,476
    80004188:	2113e137          	lui	x2,0x2113e
    8000418c:	0128a633          	slt	x12,x17,x18
    80004190:	41e6dc9b          	sraiw	x25,x13,0x1e
    80004194:	a731e897          	auipc	x17,0xa731e
    80004198:	001707b3          	add	x15,x14,x1
    8000419c:	7abebd93          	sltiu	x27,x29,1963
    800041a0:	9420afb7          	lui	x31,0x9420a
    800041a4:	00643a33          	sltu	x20,x8,x6
    800041a8:	03e5d593          	srli	x11,x11,0x3e
    800041ac:	32fbf297          	auipc	x5,0x32fbf
    800041b0:	013d5cb3          	srl	x25,x26,x19
    800041b4:	01911893          	slli	x17,x2,0x19
    800041b8:	d162ab17          	auipc	x22,0xd162a
    800041bc:	014761b3          	or	x3,x14,x20
    800041c0:	00e7941b          	slliw	x8,x15,0xe
    800041c4:	9b6f7017          	auipc	x0,0x9b6f7
    800041c8:	41f707bb          	subw	x15,x14,x31
    800041cc:	42856093          	ori	x1,x10,1064
    800041d0:	2325d497          	auipc	x9,0x2325d
    800041d4:	0123013b          	addw	x2,x6,x18
    800041d8:	14da7013          	andi	x0,x20,333
    800041dc:	8bc95db7          	lui	x27,0x8bc95
    800041e0:	01d897bb          	sllw	x15,x17,x29
    800041e4:	038a1f13          	slli	x30,x20,0x38
    800041e8:	0762c237          	lui	x4,0x762c
    800041ec:	00b71ab3          	sll	x21,x14,x11
    800041f0:	440e4993          	xori	x19,x28,1088
    800041f4:	a4a56e97          	auipc	x29,0xa4a56
    800041f8:	01a897b3          	sll	x15,x17,x26
    800041fc:	4c773093          	sltiu	x1,x14,1223
    80004200:	6b9695b7          	lui	x11,0x6b969
    80004204:	015d2633          	slt	x12,x26,x21
    80004208:	02bf5113          	srli	x2,x30,0x2b
    8000420c:	802d7797          	auipc	x15,0x802d7
    80004210:	01251cb3          	sll	x25,x10,x18
    80004214:	52fd0b9b          	addiw	x23,x26,1327 # 385b14e3 <_start-0x47a4eb1d>
    80004218:	45ae01b7          	lui	x3,0x45ae0
    8000421c:	01ba14b3          	sll	x9,x20,x27
    80004220:	00915513          	srli	x10,x2,0x9
    80004224:	a96e33b7          	lui	x7,0xa96e3
    80004228:	015f4433          	xor	x8,x30,x21
    8000422c:	31786f13          	ori	x30,x16,791
    80004230:	84f69d37          	lui	x26,0x84f69
    80004234:	0120acb3          	slt	x25,x1,x18
    80004238:	0092959b          	slliw	x11,x5,0x9
    8000423c:	675eda97          	auipc	x21,0x675ed
    80004240:	00076c33          	or	x24,x14,x0
    80004244:	1cf43293          	sltiu	x5,x8,463
    80004248:	8ee689b7          	lui	x19,0x8ee68
    8000424c:	400e803b          	subw	x0,x29,x0
    80004250:	32048393          	addi	x7,x9,800 # a32614f0 <_start+0x232614f0>
    80004254:	83e5dc37          	lui	x24,0x83e5d
    80004258:	0017b8b3          	sltu	x17,x15,x1
    8000425c:	007b999b          	slliw	x19,x23,0x7
    80004260:	7fcc1a97          	auipc	x21,0x7fcc1
    80004264:	0023cb33          	xor	x22,x7,x2
    80004268:	5ee72c13          	slti	x24,x14,1518
    8000426c:	511b95b7          	lui	x11,0x511b9
    80004270:	404b8dbb          	subw	x27,x23,x4
    80004274:	7b2fc313          	xori	x6,x31,1970
    80004278:	ff81ab97          	auipc	x23,0xff81a
    8000427c:	41e8d03b          	sraw	x0,x17,x30
    80004280:	4259d713          	srai	x14,x19,0x25
    80004284:	945f4417          	auipc	x8,0x945f4
    80004288:	01f19b3b          	sllw	x22,x3,x31
    8000428c:	00609593          	slli	x11,x1,0x6
    80004290:	31515037          	lui	x0,0x31515
    80004294:	001c52bb          	srlw	x5,x24,x1
    80004298:	39016393          	ori	x7,x2,912
    8000429c:	e9c08eb7          	lui	x29,0xe9c08
    800042a0:	41ce5133          	sra	x2,x28,x28
    800042a4:	4e0dff13          	andi	x30,x27,1248
    800042a8:	b5270497          	auipc	x9,0xb5270
    800042ac:	40cad73b          	sraw	x14,x21,x12
    800042b0:	01ebd193          	srli	x3,x23,0x1e
    800042b4:	150518b7          	lui	x17,0x15051
    800042b8:	41a553bb          	sraw	x7,x10,x26
    800042bc:	59fc2793          	slti	x15,x24,1439
    800042c0:	bff1d597          	auipc	x11,0xbff1d
    800042c4:	419a8bb3          	sub	x23,x21,x25
    800042c8:	40b0da93          	srai	x21,x1,0xb
    800042cc:	fed39c37          	lui	x24,0xfed39
    800042d0:	006a0733          	add	x14,x20,x6
    800042d4:	5b944b13          	xori	x22,x8,1465
    800042d8:	3da61537          	lui	x10,0x3da61
    800042dc:	005c8633          	add	x12,x25,x5
    800042e0:	0143199b          	slliw	x19,x6,0x14
    800042e4:	7e6c0097          	auipc	x1,0x7e6c0
    800042e8:	019db433          	sltu	x8,x27,x25
    800042ec:	7712091b          	addiw	x18,x4,1905 # 762c771 <_start-0x789d388f>
    800042f0:	a75dcd97          	auipc	x27,0xa75dc
    800042f4:	016affb3          	and	x31,x21,x22
    800042f8:	54c7c093          	xori	x1,x15,1356
    800042fc:	54d9e797          	auipc	x15,0x54d9e
    80004300:	413e58bb          	sraw	x17,x28,x19
    80004304:	5555a413          	slti	x8,x11,1365
    80004308:	d7e0ad17          	auipc	x26,0xd7e0a
    8000430c:	014c95bb          	sllw	x11,x25,x20
    80004310:	4269d113          	srai	x2,x19,0x26
    80004314:	bb884fb7          	lui	x31,0xbb884
    80004318:	411dd433          	sra	x8,x27,x17
    8000431c:	011b929b          	slliw	x5,x23,0x11
    80004320:	a6ca3337          	lui	x6,0xa6ca3
    80004324:	414e05b3          	sub	x11,x28,x20
    80004328:	13390013          	addi	x0,x18,307 # e53aa183 <_start+0x653aa183>
    8000432c:	12b717b7          	lui	x15,0x12b71
    80004330:	01de9ebb          	sllw	x29,x29,x29
    80004334:	022a1c93          	slli	x25,x20,0x22
    80004338:	757cb8b7          	lui	x17,0x757cb
    8000433c:	016fd133          	srl	x2,x31,x22
    80004340:	41805b93          	srai	x23,x0,0x18
    80004344:	527ef617          	auipc	x12,0x527ef
    80004348:	41b2d9b3          	sra	x19,x5,x27
    8000434c:	002f171b          	slliw	x14,x30,0x2
    80004350:	ea55c197          	auipc	x3,0xea55c
    80004354:	006095b3          	sll	x11,x1,x6
    80004358:	00c3551b          	srliw	x10,x6,0xc
    8000435c:	cf802bb7          	lui	x23,0xcf802
    80004360:	0166c3b3          	xor	x7,x13,x22
    80004364:	0150df13          	srli	x30,x1,0x15
    80004368:	38b31797          	auipc	x15,0x38b31
    8000436c:	00ea51b3          	srl	x3,x20,x14
    80004370:	53aa7893          	andi	x17,x20,1338
    80004374:	10222637          	lui	x12,0x10222
    80004378:	00df193b          	sllw	x18,x30,x13
    8000437c:	22da6c13          	ori	x24,x20,557
    80004380:	3caa2c97          	auipc	x25,0x3caa2
    80004384:	411d81bb          	subw	x3,x27,x17
    80004388:	2cef2a13          	slti	x20,x30,718
    8000438c:	653a1bb7          	lui	x23,0x653a1
    80004390:	01344b33          	xor	x22,x8,x19
    80004394:	00051513          	slli	x10,x10,0x0
    80004398:	65592097          	auipc	x1,0x65592
    8000439c:	00302833          	slt	x16,x0,x3
    800043a0:	5e69bf93          	sltiu	x31,x19,1510
    800043a4:	8ff3ce97          	auipc	x29,0x8ff3c
    800043a8:	00294ab3          	xor	x21,x18,x2
    800043ac:	4135551b          	sraiw	x10,x10,0x13
    800043b0:	95962d37          	lui	x26,0x95962
    800043b4:	012b92bb          	sllw	x5,x23,x18
    800043b8:	00add69b          	srliw	x13,x27,0xa
    800043bc:	fae8ebb7          	lui	x23,0xfae8e
    800043c0:	01b30833          	add	x16,x6,x27
    800043c4:	07a76e13          	ori	x28,x14,122
    800043c8:	56d7a117          	auipc	x2,0x56d7a
    800043cc:	0041d6b3          	srl	x13,x3,x4
    800043d0:	4327cb93          	xori	x23,x15,1074
    800043d4:	8e3b6c37          	lui	x24,0x8e3b6
    800043d8:	41fdddb3          	sra	x27,x27,x31
    800043dc:	00bfd81b          	srliw	x16,x31,0xb
    800043e0:	969c5317          	auipc	x6,0x969c5
    800043e4:	41d90b3b          	subw	x22,x18,x29
    800043e8:	107f4013          	xori	x0,x30,263
    800043ec:	6bb43697          	auipc	x13,0x6bb43
    800043f0:	402f883b          	subw	x16,x31,x2
    800043f4:	33ca2613          	slti	x12,x20,828
    800043f8:	ef3ea737          	lui	x14,0xef3ea
    800043fc:	002fe9b3          	or	x19,x31,x2
    80004400:	5dac4593          	xori	x11,x24,1498
    80004404:	7ba79897          	auipc	x17,0x7ba79
    80004408:	01423e33          	sltu	x28,x4,x20
    8000440c:	62dc2f93          	slti	x31,x24,1581
    80004410:	b5d66497          	auipc	x9,0xb5d66
    80004414:	0079a933          	slt	x18,x19,x7
    80004418:	5dc66b93          	ori	x23,x12,1500
    8000441c:	285d5e37          	lui	x28,0x285d5
    80004420:	00220abb          	addw	x21,x4,x2
    80004424:	0d81e313          	ori	x6,x3,216
    80004428:	b37a4897          	auipc	x17,0xb37a4
    8000442c:	00eb5d3b          	srlw	x26,x22,x14
    80004430:	4502b913          	sltiu	x18,x5,1104
    80004434:	f3ebe437          	lui	x8,0xf3ebe
    80004438:	014106b3          	add	x13,x2,x20
    8000443c:	636fc393          	xori	x7,x31,1590
    80004440:	568d4497          	auipc	x9,0x568d4
    80004444:	004257bb          	srlw	x15,x4,x4
    80004448:	58287293          	andi	x5,x16,1410
    8000444c:	a05a9e97          	auipc	x29,0xa05a9
    80004450:	40e8833b          	subw	x6,x17,x14
    80004454:	750d3c93          	sltiu	x25,x26,1872
    80004458:	5f25eb17          	auipc	x22,0x5f25e
    8000445c:	01b09fb3          	sll	x31,x1,x27
    80004460:	3c348793          	addi	x15,x9,963 # d68d8803 <_start+0x568d8803>
    80004464:	f3170037          	lui	x0,0xf3170
    80004468:	008458bb          	srlw	x17,x8,x8
    8000446c:	30fc829b          	addiw	x5,x25,783 # ffffffffbcaa668f <_start+0xffffffff3caa668f>
    80004470:	196c2d17          	auipc	x26,0x196c2
    80004474:	414d813b          	subw	x2,x27,x20
    80004478:	01db999b          	slliw	x19,x23,0x1d
    8000447c:	2ca75497          	auipc	x9,0x2ca75
    80004480:	00dd9f3b          	sllw	x30,x27,x13
    80004484:	3124061b          	addiw	x12,x8,786 # fffffffff3ebe312 <_start+0xffffffff73ebe312>
    80004488:	35fac117          	auipc	x2,0x35fac
    8000448c:	014a0333          	add	x6,x20,x20
    80004490:	6e097993          	andi	x19,x18,1760
    80004494:	48c85d17          	auipc	x26,0x48c85
    80004498:	41bf05b3          	sub	x11,x30,x27
    8000449c:	70ac849b          	addiw	x9,x25,1802
    800044a0:	45a43a37          	lui	x20,0x45a43
    800044a4:	01861b33          	sll	x22,x12,x24
    800044a8:	7a376993          	ori	x19,x14,1955
    800044ac:	e55a0e17          	auipc	x28,0xe55a0
    800044b0:	01b918bb          	sllw	x17,x18,x27
    800044b4:	0392df13          	srli	x30,x5,0x39
    800044b8:	3773fa17          	auipc	x20,0x3773f
    800044bc:	41d20abb          	subw	x21,x4,x29
    800044c0:	05ab8d9b          	addiw	x27,x23,90 # fffffffffae8e05a <_start+0xffffffff7ae8e05a>
    800044c4:	68f22b37          	lui	x22,0x68f22
    800044c8:	018f43b3          	xor	x7,x30,x24
    800044cc:	01d91b9b          	slliw	x23,x18,0x1d
    800044d0:	74a97297          	auipc	x5,0x74a97
    800044d4:	01979e33          	sll	x28,x15,x25
    800044d8:	03441613          	slli	x12,x8,0x34
    800044dc:	bc61c3b7          	lui	x7,0xbc61c
    800044e0:	014bfab3          	and	x21,x23,x20
    800044e4:	400cd71b          	sraiw	x14,x25,0x0
    800044e8:	f3a630b7          	lui	x1,0xf3a63
    800044ec:	018685bb          	addw	x11,x13,x24
    800044f0:	6914b813          	sltiu	x16,x9,1681
    800044f4:	d176e337          	lui	x6,0xd176e
    800044f8:	402cdbbb          	sraw	x23,x25,x2
    800044fc:	02745c93          	srli	x25,x8,0x27
    80004500:	690f0217          	auipc	x4,0x690f0
    80004504:	008751bb          	srlw	x3,x14,x8
    80004508:	47c7ae13          	slti	x28,x15,1148
    8000450c:	c398d5b7          	lui	x11,0xc398d
    80004510:	01394033          	xor	x0,x18,x19
    80004514:	7352081b          	addiw	x16,x4,1845 # ffffffffe90f4c35 <_start+0xffffffff690f4c35>
    80004518:	48545c37          	lui	x24,0x48545
    8000451c:	401e87bb          	subw	x15,x29,x1
    80004520:	401cdc93          	srai	x25,x25,0x1
    80004524:	a18e5517          	auipc	x10,0xa18e5
    80004528:	01c5ddb3          	srl	x27,x11,x28
    8000452c:	59642393          	slti	x7,x8,1430
    80004530:	567ab297          	auipc	x5,0x567ab
    80004534:	009adbbb          	srlw	x23,x21,x9
    80004538:	4a6fbf13          	sltiu	x30,x31,1190
    8000453c:	e4f07797          	auipc	x15,0xe4f07
    80004540:	00ccc0b3          	xor	x1,x25,x12
    80004544:	34520593          	addi	x11,x4,837 # 345 <_start-0x7ffffcbb>
    80004548:	9932f2b7          	lui	x5,0x9932f
    8000454c:	00911d3b          	sllw	x26,x2,x9
    80004550:	40f05b13          	srai	x22,x0,0xf
    80004554:	051a9337          	lui	x6,0x51a9
    80004558:	0043aab3          	slt	x21,x7,x4
    8000455c:	58e3e513          	ori	x10,x7,1422
    80004560:	b1f11bb7          	lui	x23,0xb1f11
    80004564:	002b0633          	add	x12,x22,x2
    80004568:	41848593          	addi	x11,x9,1048 # aca79894 <_start+0x2ca79894>
    8000456c:	5cda4297          	auipc	x5,0x5cda4
    80004570:	01e4bd33          	sltu	x26,x9,x30
    80004574:	0091dd93          	srli	x27,x3,0x9
    80004578:	94586697          	auipc	x13,0x94586
    8000457c:	40b5523b          	sraw	x4,x10,x11
    80004580:	5bff2513          	slti	x10,x30,1471
    80004584:	1ad9d797          	auipc	x15,0x1ad9d
    80004588:	010b4333          	xor	x6,x22,x16
    8000458c:	0e2f0613          	addi	x12,x30,226 # ffffffffc6a860e2 <_start+0xffffffff46a860e2>
    80004590:	6ba5c697          	auipc	x13,0x6ba5c
    80004594:	41ec04bb          	subw	x9,x24,x30
    80004598:	3e294293          	xori	x5,x18,994
    8000459c:	18694897          	auipc	x17,0x18694
    800045a0:	01380433          	add	x8,x16,x19
    800045a4:	40f6d51b          	sraiw	x10,x13,0xf
    800045a8:	853ffd17          	auipc	x26,0x853ff
    800045ac:	00e59f33          	sll	x30,x11,x14
    800045b0:	6cd1e213          	ori	x4,x3,1741
    800045b4:	9d491737          	lui	x14,0x9d491
    800045b8:	002bb1b3          	sltu	x3,x23,x2
    800045bc:	4144da93          	srai	x21,x9,0x14
    800045c0:	bd718d17          	auipc	x26,0xbd718
    800045c4:	019b1a33          	sll	x20,x22,x25
    800045c8:	1cd78713          	addi	x14,x15,461 # 9ada1751 <_start+0x1ada1751>
    800045cc:	144d07b7          	lui	x15,0x144d0
    800045d0:	013bd3bb          	srlw	x7,x23,x19
    800045d4:	7cc2c993          	xori	x19,x5,1996
    800045d8:	8e32b117          	auipc	x2,0x8e32b
    800045dc:	01231cb3          	sll	x25,x6,x18
    800045e0:	007a921b          	slliw	x4,x21,0x7
    800045e4:	48685d97          	auipc	x27,0x48685
    800045e8:	00dc3f33          	sltu	x30,x24,x13
    800045ec:	4148d89b          	sraiw	x17,x17,0x14
    800045f0:	409dd197          	auipc	x3,0x409dd
    800045f4:	00e4083b          	addw	x16,x8,x14
    800045f8:	0059dc13          	srli	x24,x19,0x5
    800045fc:	d66ab337          	lui	x6,0xd66ab
    80004600:	015ec9b3          	xor	x19,x29,x21
    80004604:	033d1293          	slli	x5,x26,0x33
    80004608:	74610537          	lui	x10,0x74610
    8000460c:	01a44cb3          	xor	x25,x8,x26
    80004610:	01c8d313          	srli	x6,x17,0x1c
    80004614:	6aa8ddb7          	lui	x27,0x6aa8d
    80004618:	0014d0b3          	srl	x1,x9,x1
    8000461c:	4186d113          	srai	x2,x13,0x18
    80004620:	6b1a7997          	auipc	x19,0x6b1a7
    80004624:	40df52b3          	sra	x5,x30,x13
    80004628:	2b556493          	ori	x9,x10,693
    8000462c:	d3362e37          	lui	x28,0xd3362
    80004630:	01fa8ebb          	addw	x29,x21,x31
    80004634:	025f5593          	srli	x11,x30,0x25
    80004638:	1e05ddb7          	lui	x27,0x1e05d
    8000463c:	018adc3b          	srlw	x24,x21,x24
    80004640:	025b8a9b          	addiw	x21,x23,37 # ffffffffb1f11025 <_start+0xffffffff31f11025>
    80004644:	be715737          	lui	x14,0xbe715
    80004648:	01f0abb3          	slt	x23,x1,x31
    8000464c:	01561493          	slli	x9,x12,0x15
    80004650:	11415837          	lui	x16,0x11415
    80004654:	41820d33          	sub	x26,x4,x24
    80004658:	42c8d513          	srai	x10,x17,0x2c
    8000465c:	240ed597          	auipc	x11,0x240ed
    80004660:	01cad3b3          	srl	x7,x21,x28
    80004664:	018a5a9b          	srliw	x21,x20,0x18
    80004668:	a9d30d97          	auipc	x27,0xa9d30
    8000466c:	00477c33          	and	x24,x14,x4
    80004670:	02469793          	slli	x15,x13,0x24
    80004674:	9fa28bb7          	lui	x23,0x9fa28
    80004678:	41935eb3          	sra	x29,x6,x25
    8000467c:	048f8293          	addi	x5,x31,72 # ffffffffbb884048 <_start+0xffffffff3b884048>
    80004680:	4da89697          	auipc	x13,0x4da89
    80004684:	0169d3b3          	srl	x7,x19,x22
    80004688:	00d01413          	slli	x8,x0,0xd
    8000468c:	64f43d37          	lui	x26,0x64f43
    80004690:	40a800b3          	sub	x1,x16,x10
    80004694:	23db0e1b          	addiw	x28,x22,573 # 68f2223d <_start-0x170dddc3>
    80004698:	420c0db7          	lui	x27,0x420c0
    8000469c:	01061433          	sll	x8,x12,x16
    800046a0:	5a28099b          	addiw	x19,x16,1442 # 114155a2 <_start-0x6ebeaa5e>
    800046a4:	479a2617          	auipc	x12,0x479a2
    800046a8:	00d3d533          	srl	x10,x7,x13
    800046ac:	43c05e13          	srai	x28,x0,0x3c
    800046b0:	cec3a2b7          	lui	x5,0xcec3a
    800046b4:	401a0cb3          	sub	x25,x20,x1
    800046b8:	137f0e9b          	addiw	x29,x30,311
    800046bc:	aeb89537          	lui	x10,0xaeb89
    800046c0:	0029b6b3          	sltu	x13,x19,x2
    800046c4:	015a9193          	slli	x3,x21,0x15
    800046c8:	6a6ac497          	auipc	x9,0x6a6ac
    800046cc:	01bbd7b3          	srl	x15,x23,x27
    800046d0:	6fcb2f93          	slti	x31,x22,1788
    800046d4:	3923ee37          	lui	x28,0x3923e
    800046d8:	015c2c33          	slt	x24,x24,x21
    800046dc:	015d5a93          	srli	x21,x26,0x15
    800046e0:	89f1b117          	auipc	x2,0x89f1b
    800046e4:	00601533          	sll	x10,x0,x6
    800046e8:	5599fd13          	andi	x26,x19,1369
    800046ec:	fae9ea17          	auipc	x20,0xfae9e
    800046f0:	01586b33          	or	x22,x16,x21
    800046f4:	12d14813          	xori	x16,x2,301
    800046f8:	f6661397          	auipc	x7,0xf6661
    800046fc:	0024163b          	sllw	x12,x8,x2
    80004700:	2329059b          	addiw	x11,x18,562
    80004704:	61c73a97          	auipc	x21,0x61c73
    80004708:	0066a233          	slt	x4,x13,x6
    8000470c:	0183919b          	slliw	x3,x7,0x18
    80004710:	f1dd8317          	auipc	x6,0xf1dd8
    80004714:	00007d33          	and	x26,x0,x0
    80004718:	53554393          	xori	x7,x10,1333
    8000471c:	619e1f37          	lui	x30,0x619e1
    80004720:	0115d833          	srl	x16,x11,x17
    80004724:	41e75d93          	srai	x27,x14,0x1e
    80004728:	c03df417          	auipc	x8,0xc03df
    8000472c:	402d02b3          	sub	x5,x26,x2
    80004730:	00111613          	slli	x12,x2,0x1
    80004734:	47b68fb7          	lui	x31,0x47b68
    80004738:	00b79f3b          	sllw	x30,x15,x11
    8000473c:	03939d93          	slli	x27,x7,0x39
    80004740:	532f9137          	lui	x2,0x532f9
    80004744:	41340633          	sub	x12,x8,x19
    80004748:	00c6951b          	slliw	x10,x13,0xc
    8000474c:	56fc97b7          	lui	x15,0x56fc9
    80004750:	01a915bb          	sllw	x11,x18,x26
    80004754:	435c3893          	sltiu	x17,x24,1077
    80004758:	96081bb7          	lui	x23,0x96081
    8000475c:	005f4233          	xor	x4,x30,x5
    80004760:	41a0d71b          	sraiw	x14,x1,0x1a
    80004764:	30a82a97          	auipc	x21,0x30a82
    80004768:	412985bb          	subw	x11,x19,x18
    8000476c:	40b5501b          	sraiw	x0,x10,0xb
    80004770:	07922e37          	lui	x28,0x7922
    80004774:	00a6bdb3          	sltu	x27,x13,x10
    80004778:	05a8889b          	addiw	x17,x17,90 # ffffffff986985f6 <_start+0xffffffff186985f6>
    8000477c:	95429937          	lui	x18,0x95429
    80004780:	014a99bb          	sllw	x19,x21,x20
    80004784:	70d78413          	addi	x8,x15,1805 # 56fc970d <_start-0x290368f3>
    80004788:	7e8e0fb7          	lui	x31,0x7e8e0
    8000478c:	01cf0833          	add	x16,x30,x28
    80004790:	71e58e13          	addi	x28,x11,1822 # a40f1d7a <_start+0x240f1d7a>
    80004794:	3453a1b7          	lui	x3,0x3453a
    80004798:	016ed33b          	srlw	x6,x29,x22
    8000479c:	03409293          	slli	x5,x1,0x34
    800047a0:	55294517          	auipc	x10,0x55294
    800047a4:	0181043b          	addw	x8,x2,x24
    800047a8:	24fb8213          	addi	x4,x23,591 # ffffffff9608124f <_start+0xffffffff1608124f>
    800047ac:	5f8e1597          	auipc	x11,0x5f8e1
    800047b0:	0003963b          	sllw	x12,x7,x0
    800047b4:	56f18893          	addi	x17,x3,1391 # 3453a56f <_start-0x4bac5a91>
    800047b8:	1eab33b7          	lui	x7,0x1eab3
    800047bc:	01853033          	sltu	x0,x10,x24
    800047c0:	0166d21b          	srliw	x4,x13,0x16
    800047c4:	66633eb7          	lui	x29,0x66633
    800047c8:	015e0f3b          	addw	x30,x28,x21
    800047cc:	42355493          	srai	x9,x10,0x23
    800047d0:	ee295c17          	auipc	x24,0xee295
    800047d4:	4129d03b          	sraw	x0,x19,x18
    800047d8:	3e46e693          	ori	x13,x13,996
    800047dc:	d475ae37          	lui	x28,0xd475a
    800047e0:	017d5cbb          	srlw	x25,x26,x23
    800047e4:	4b02811b          	addiw	x2,x5,1200 # ffffffffcec3a4b0 <_start+0xffffffff4ec3a4b0>
    800047e8:	05b22d17          	auipc	x26,0x5b22
    800047ec:	0039153b          	sllw	x10,x18,x3
    800047f0:	0cf8a413          	slti	x8,x17,207
    800047f4:	c0a75b37          	lui	x22,0xc0a75
    800047f8:	0117e633          	or	x12,x15,x17
    800047fc:	00ff1c13          	slli	x24,x30,0xf
    80004800:	35cee217          	auipc	x4,0x35cee
    80004804:	017489b3          	add	x19,x9,x23
    80004808:	188d8893          	addi	x17,x27,392 # 420c0188 <_start-0x3df3fe78>
    8000480c:	40d4c197          	auipc	x3,0x40d4c
    80004810:	00708433          	add	x8,x1,x7
    80004814:	67392a93          	slti	x21,x18,1651
    80004818:	5e9dde97          	auipc	x29,0x5e9dd
    8000481c:	007a093b          	addw	x18,x20,x7
    80004820:	00da1a1b          	slliw	x20,x20,0xd
    80004824:	68603717          	auipc	x14,0x68603
    80004828:	41f0503b          	sraw	x0,x0,x31
    8000482c:	001e9a9b          	slliw	x21,x29,0x1
    80004830:	0a2c06b7          	lui	x13,0xa2c0
    80004834:	005d9d3b          	sllw	x26,x27,x5
    80004838:	4a530c93          	addi	x25,x6,1189 # 71ddcbb5 <_start-0xe22344b>
    8000483c:	77a27f97          	auipc	x31,0x77a27
    80004840:	01b50833          	add	x16,x10,x27
    80004844:	01ea5993          	srli	x19,x20,0x1e
    80004848:	8ae88517          	auipc	x10,0x8ae88
    8000484c:	003a823b          	addw	x4,x21,x3
    80004850:	54308893          	addi	x17,x1,1347 # fffffffff3a63543 <_start+0xffffffff73a63543>
    80004854:	69bd4cb7          	lui	x25,0x69bd4
    80004858:	015b4333          	xor	x6,x22,x21
    8000485c:	407a519b          	sraiw	x3,x20,0x7
    80004860:	469da597          	auipc	x11,0x469da
    80004864:	00ad1533          	sll	x10,x26,x10
    80004868:	016f909b          	slliw	x1,x31,0x16
    8000486c:	edcffe97          	auipc	x29,0xedcff
    80004870:	01a302bb          	addw	x5,x6,x26
    80004874:	43635993          	srai	x19,x6,0x36
    80004878:	2d60e4b7          	lui	x9,0x2d60e
    8000487c:	004abab3          	sltu	x21,x21,x4
    80004880:	022cd913          	srli	x18,x25,0x22
    80004884:	0cd432b7          	lui	x5,0xcd43
    80004888:	0088c5b3          	xor	x11,x17,x8
    8000488c:	5fbebf93          	sltiu	x31,x29,1531
    80004890:	df47f437          	lui	x8,0xdf47f
    80004894:	01903933          	sltu	x18,x0,x25
    80004898:	00605a9b          	srliw	x21,x0,0x6
    8000489c:	092350b7          	lui	x1,0x9235
    800048a0:	01ef03bb          	addw	x7,x30,x30
    800048a4:	78bd0f93          	addi	x31,x26,1931 # 85b26f73 <_start+0x5b26f73>
    800048a8:	7d637e37          	lui	x28,0x7d637
    800048ac:	005efcb3          	and	x25,x29,x5
    800048b0:	70947513          	andi	x10,x8,1801
    800048b4:	83a71037          	lui	x0,0x83a71
    800048b8:	00e62fb3          	slt	x31,x12,x14
    800048bc:	00449613          	slli	x12,x9,0x4
    800048c0:	ae5fe0b7          	lui	x1,0xae5fe
    800048c4:	0078abb3          	slt	x23,x17,x7
    800048c8:	0042141b          	slliw	x8,x4,0x4
    800048cc:	daedf537          	lui	x10,0xdaedf
    800048d0:	41325033          	sra	x0,x4,x19
    800048d4:	027a5593          	srli	x11,x20,0x27
    800048d8:	3c7f5fb7          	lui	x31,0x3c7f5
    800048dc:	01835db3          	srl	x27,x6,x24
    800048e0:	000a929b          	slliw	x5,x21,0x0
    800048e4:	2e6b21b7          	lui	x3,0x2e6b2
    800048e8:	014b1b3b          	sllw	x22,x22,x20
    800048ec:	425f5e93          	srai	x29,x30,0x25
    800048f0:	cfb1de17          	auipc	x28,0xcfb1d
    800048f4:	00828fb3          	add	x31,x5,x8
    800048f8:	7b830d1b          	addiw	x26,x6,1976
    800048fc:	dae3a997          	auipc	x19,0xdae3a
    80004900:	018973b3          	and	x7,x18,x24
    80004904:	433b5013          	srai	x0,x22,0x33
    80004908:	acfdd297          	auipc	x5,0xacfdd
    8000490c:	40918533          	sub	x10,x3,x9
    80004910:	22e8fe13          	andi	x28,x17,558
    80004914:	291c6237          	lui	x4,0x291c6
    80004918:	0026a0b3          	slt	x1,x13,x2
    8000491c:	00d7d193          	srli	x3,x15,0xd
    80004920:	b40b5337          	lui	x6,0xb40b5
    80004924:	0186ba33          	sltu	x20,x13,x24
    80004928:	02161c93          	slli	x25,x12,0x21
    8000492c:	d11a60b7          	lui	x1,0xd11a6
    80004930:	0156023b          	addw	x4,x12,x21
    80004934:	14c47713          	andi	x14,x8,332
    80004938:	53e226b7          	lui	x13,0x53e22
    8000493c:	019cbbb3          	sltu	x23,x25,x25
    80004940:	10058e93          	addi	x29,x11,256 # c69de960 <_start+0x469de960>
    80004944:	04660d17          	auipc	x26,0x4660
    80004948:	404a8abb          	subw	x21,x21,x4
    8000494c:	43e1dd93          	srai	x27,x3,0x3e
    80004950:	bb471b37          	lui	x22,0xbb471
    80004954:	00fcf033          	and	x0,x25,x15
    80004958:	03009113          	slli	x2,x1,0x30
    8000495c:	8c41f4b7          	lui	x9,0x8c41f
    80004960:	40bf59bb          	sraw	x19,x30,x11
    80004964:	4128df9b          	sraiw	x31,x17,0x12
    80004968:	d16383b7          	lui	x7,0xd1638
    8000496c:	419d0833          	sub	x16,x26,x25
    80004970:	01c2d59b          	srliw	x11,x5,0x1c
    80004974:	a2009117          	auipc	x2,0xa2009
    80004978:	01ca19bb          	sllw	x19,x20,x28
    8000497c:	47e1ca93          	xori	x21,x3,1150
    80004980:	f46f41b7          	lui	x3,0xf46f4
    80004984:	01d580b3          	add	x1,x11,x29
    80004988:	1c2d4d93          	xori	x27,x26,450
    8000498c:	fb7dd597          	auipc	x11,0xfb7dd
    80004990:	41c60a33          	sub	x20,x12,x28
    80004994:	18413613          	sltiu	x12,x2,388
    80004998:	6dade8b7          	lui	x17,0x6dade
    8000499c:	00f51fb3          	sll	x31,x10,x15
    800049a0:	3e2ec013          	xori	x0,x29,994
    800049a4:	f688c937          	lui	x18,0xf688c
    800049a8:	01359dbb          	sllw	x27,x11,x19
    800049ac:	41435a1b          	sraiw	x20,x6,0x14
    800049b0:	1ccec837          	lui	x16,0x1ccec
    800049b4:	00ab5c33          	srl	x24,x22,x10
    800049b8:	003f5e9b          	srliw	x29,x30,0x3
    800049bc:	a9a6cdb7          	lui	x27,0xa9a6c
    800049c0:	40fcd03b          	sraw	x0,x25,x15
    800049c4:	01b9191b          	slliw	x18,x18,0x1b
    800049c8:	08a45d17          	auipc	x26,0x8a45
    800049cc:	415189b3          	sub	x19,x3,x21
    800049d0:	02289093          	slli	x1,x17,0x22
    800049d4:	70ff4037          	lui	x0,0x70ff4
    800049d8:	00260fb3          	add	x31,x12,x2
    800049dc:	01f51b9b          	slliw	x23,x10,0x1f
    800049e0:	0e90c517          	auipc	x10,0xe90c
    800049e4:	01a89f3b          	sllw	x30,x17,x26
    800049e8:	7ec8e713          	ori	x14,x17,2028
    800049ec:	d1c19697          	auipc	x13,0xd1c19
    800049f0:	00933a33          	sltu	x20,x6,x9
    800049f4:	0165d593          	srli	x11,x11,0x16
    800049f8:	1ce35397          	auipc	x7,0x1ce35
    800049fc:	40e00b33          	sub	x22,x0,x14
    80004a00:	4b29b693          	sltiu	x13,x19,1202
    80004a04:	eb453d17          	auipc	x26,0xeb453
    80004a08:	017028b3          	slt	x17,x0,x23
    80004a0c:	4351dc93          	srai	x25,x3,0x35
    80004a10:	bd8d4eb7          	lui	x29,0xbd8d4
    80004a14:	0016f533          	and	x10,x13,x1
    80004a18:	26748c13          	addi	x24,x9,615 # ffffffff8c41f267 <_start+0xffffffff0c41f267>
    80004a1c:	faa1fd97          	auipc	x27,0xfaa1f
    80004a20:	0065dfbb          	srlw	x31,x11,x6
    80004a24:	3a0f0f1b          	addiw	x30,x30,928 # 619e13a0 <_start-0x1e61ec60>
    80004a28:	b511f037          	lui	x0,0xb511f
    80004a2c:	015ab2b3          	sltu	x5,x21,x21
    80004a30:	01a8599b          	srliw	x19,x16,0x1a
    80004a34:	cc5f8337          	lui	x6,0xcc5f8
    80004a38:	01cc9f33          	sll	x30,x25,x28
    80004a3c:	01d01c93          	slli	x25,x0,0x1d
    80004a40:	737c6017          	auipc	x0,0x737c6
    80004a44:	01dd14bb          	sllw	x9,x26,x29
    80004a48:	1f18fd13          	andi	x26,x17,497
    80004a4c:	877b79b7          	lui	x19,0x877b7
    80004a50:	00c8d8b3          	srl	x17,x17,x12
    80004a54:	58ec6713          	ori	x14,x24,1422
    80004a58:	ecad2cb7          	lui	x25,0xecad2
    80004a5c:	0101853b          	addw	x10,x3,x16
    80004a60:	0122521b          	srliw	x4,x4,0x12
    80004a64:	578f9797          	auipc	x15,0x578f9
    80004a68:	407eddbb          	sraw	x27,x29,x7
    80004a6c:	540f4813          	xori	x16,x30,1344
    80004a70:	1305cf37          	lui	x30,0x1305c
    80004a74:	019a89b3          	add	x19,x21,x25
    80004a78:	62400c13          	addi	x24,x0,1572
    80004a7c:	7a0f6d97          	auipc	x27,0x7a0f6
    80004a80:	00282eb3          	slt	x29,x16,x2
    80004a84:	40a6d01b          	sraiw	x0,x13,0xa
    80004a88:	9345f617          	auipc	x12,0x9345f
    80004a8c:	00f4abb3          	slt	x23,x9,x15
    80004a90:	16ed009b          	addiw	x1,x26,366 # 6b457b72 <_start-0x14ba848e>
    80004a94:	4eabd917          	auipc	x18,0x4eabd
    80004a98:	411f0e3b          	subw	x28,x30,x17
    80004a9c:	40725d1b          	sraiw	x26,x4,0x7
    80004aa0:	085e5237          	lui	x4,0x85e5
    80004aa4:	0032b1b3          	sltu	x3,x5,x3
    80004aa8:	0074909b          	slliw	x1,x9,0x7
    80004aac:	476982b7          	lui	x5,0x47698
    80004ab0:	4155533b          	sraw	x6,x10,x21
    80004ab4:	7eebef93          	ori	x31,x23,2030
    80004ab8:	88951b37          	lui	x22,0x88951
    80004abc:	01904433          	xor	x8,x0,x25
    80004ac0:	331a7c93          	andi	x25,x20,817
    80004ac4:	21a77617          	auipc	x12,0x21a77
    80004ac8:	0016a833          	slt	x16,x13,x1
    80004acc:	41b15313          	srai	x6,x2,0x1b
    80004ad0:	50d22d97          	auipc	x27,0x50d22
    80004ad4:	41388cb3          	sub	x25,x17,x19
    80004ad8:	1ca00b93          	addi	x23,x0,458
    80004adc:	cad6d137          	lui	x2,0xcad6d
    80004ae0:	016602b3          	add	x5,x12,x22
    80004ae4:	1e90e493          	ori	x9,x1,489
    80004ae8:	754d5f17          	auipc	x30,0x754d5
    80004aec:	01cae5b3          	or	x11,x21,x28
    80004af0:	02cc9b13          	slli	x22,x25,0x2c
    80004af4:	3ccf93b7          	lui	x7,0x3ccf9
    80004af8:	015a5abb          	srlw	x21,x20,x21
    80004afc:	42525e93          	srai	x29,x4,0x25
    80004b00:	bdcc8617          	auipc	x12,0xbdcc8
    80004b04:	41f85bb3          	sra	x23,x16,x31
    80004b08:	566c4593          	xori	x11,x24,1382
    80004b0c:	07722d97          	auipc	x27,0x7722
    80004b10:	40ecd233          	sra	x4,x25,x14
    80004b14:	01781c9b          	slliw	x25,x16,0x17
    80004b18:	2e2dd517          	auipc	x10,0x2e2dd
    80004b1c:	016fb1b3          	sltu	x3,x31,x22
    80004b20:	0e13fd93          	andi	x27,x7,225
    80004b24:	b3713797          	auipc	x15,0xb3713
    80004b28:	01944cb3          	xor	x25,x8,x25
    80004b2c:	7aa98a13          	addi	x20,x19,1962 # ffffffff877b77aa <_start+0xffffffff077b77aa>
    80004b30:	dd8d9c37          	lui	x24,0xdd8d9
    80004b34:	0089e8b3          	or	x17,x19,x8
    80004b38:	797bb093          	sltiu	x1,x23,1943
    80004b3c:	cd9bd117          	auipc	x2,0xcd9bd
    80004b40:	0057ca33          	xor	x20,x15,x5
    80004b44:	13bf8013          	addi	x0,x31,315 # 3c7f513b <_start-0x4380aec5>
    80004b48:	43d16db7          	lui	x27,0x43d16
    80004b4c:	00cc9933          	sll	x18,x25,x12
    80004b50:	256d6793          	ori	x15,x26,598
    80004b54:	ad7e8597          	auipc	x11,0xad7e8
    80004b58:	00cf6433          	or	x8,x30,x12
    80004b5c:	79c72093          	slti	x1,x14,1948
    80004b60:	65bf7b17          	auipc	x22,0x65bf7
    80004b64:	4121dbbb          	sraw	x23,x3,x18
    80004b68:	77252c93          	slti	x25,x10,1906
    80004b6c:	d977deb7          	lui	x29,0xd977d
    80004b70:	00cf35b3          	sltu	x11,x30,x12
    80004b74:	46d90b1b          	addiw	x22,x18,1133 # ffffffffceac1f01 <_start+0xffffffff4eac1f01>
    80004b78:	a84fb1b7          	lui	x3,0xa84fb
    80004b7c:	006c4933          	xor	x18,x24,x6
    80004b80:	3ab40113          	addi	x2,x8,939 # ffffffffdf47f3ab <_start+0xffffffff5f47f3ab>
    80004b84:	33306897          	auipc	x17,0x33306
    80004b88:	008602bb          	addw	x5,x12,x8
    80004b8c:	00f1d193          	srli	x3,x3,0xf
    80004b90:	4ac9cc97          	auipc	x25,0x4ac9c
    80004b94:	41c5d93b          	sraw	x18,x11,x28
    80004b98:	21f82e93          	slti	x29,x16,543
    80004b9c:	43253897          	auipc	x17,0x43253
    80004ba0:	41e35a33          	sra	x20,x6,x30
    80004ba4:	0020d11b          	srliw	x2,x1,0x2
    80004ba8:	f6775497          	auipc	x9,0xf6775
    80004bac:	0179e833          	or	x16,x19,x23
    80004bb0:	6126cf13          	xori	x30,x13,1554
    80004bb4:	46ee17b7          	lui	x15,0x46ee1
    80004bb8:	41738ab3          	sub	x21,x7,x23
    80004bbc:	02531493          	slli	x9,x6,0x25
    80004bc0:	8c95e2b7          	lui	x5,0x8c95e
    80004bc4:	00d201bb          	addw	x3,x4,x13
    80004bc8:	01ae9f9b          	slliw	x31,x29,0x1a
    80004bcc:	699f4e37          	lui	x28,0x699f4
    80004bd0:	407756bb          	sraw	x13,x14,x7
    80004bd4:	2624b713          	sltiu	x14,x9,610
    80004bd8:	b8b92f37          	lui	x30,0xb8b92
    80004bdc:	40805bb3          	sra	x23,x0,x8
    80004be0:	015ed513          	srli	x10,x29,0x15
    80004be4:	22c47fb7          	lui	x31,0x22c47
    80004be8:	400350b3          	sra	x1,x6,x0
    80004bec:	02df5a93          	srli	x21,x30,0x2d
    80004bf0:	21779897          	auipc	x17,0x21779
    80004bf4:	019251bb          	srlw	x3,x4,x25
    80004bf8:	40ffdd9b          	sraiw	x27,x31,0xf
    80004bfc:	d08f4437          	lui	x8,0xd08f4
    80004c00:	01fed3bb          	srlw	x7,x29,x31
    80004c04:	3098cd13          	xori	x26,x17,777
    80004c08:	5cb1b4b7          	lui	x9,0x5cb1b
    80004c0c:	001287b3          	add	x15,x5,x1
    80004c10:	40885693          	srai	x13,x16,0x8
    80004c14:	0707d817          	auipc	x16,0x707d
    80004c18:	40cf08bb          	subw	x17,x30,x12
    80004c1c:	6cc57f13          	andi	x30,x10,1740
    80004c20:	dce25597          	auipc	x11,0xdce25
    80004c24:	41f1d533          	sra	x10,x3,x31
    80004c28:	007a199b          	slliw	x19,x20,0x7
    80004c2c:	2a071b97          	auipc	x23,0x2a071
    80004c30:	0024e1b3          	or	x3,x9,x2
    80004c34:	7443e493          	ori	x9,x7,1860
    80004c38:	0538c537          	lui	x10,0x538c
    80004c3c:	01d91eb3          	sll	x29,x18,x29
    80004c40:	182a6b93          	ori	x23,x20,386
    80004c44:	9a7c3c37          	lui	x24,0x9a7c3
    80004c48:	40740333          	sub	x6,x8,x7
    80004c4c:	0129d59b          	srliw	x11,x19,0x12
    80004c50:	34c5efb7          	lui	x31,0x34c5e
    80004c54:	013b3eb3          	sltu	x29,x22,x19
    80004c58:	0106d893          	srli	x17,x13,0x10
    80004c5c:	c6c77197          	auipc	x3,0xc6c77
    80004c60:	40120bbb          	subw	x23,x4,x1
    80004c64:	4147d41b          	sraiw	x8,x15,0x14
    80004c68:	f75ed717          	auipc	x14,0xf75ed
    80004c6c:	01e0503b          	srlw	x0,x0,x30
