
./build/test:     file format elf64-littleriscv


Disassembly of section .text:

0000000080000000 <_start>:
    80000000:	14ba5d17          	auipc	x26,0x14ba5
    80000004:	7c686f93          	ori	x31,x16,1990
    80000008:	9b4bcf17          	auipc	x30,0x9b4bc
    8000000c:	01b95593          	srli	x11,x18,0x1b
    80000010:	478cc4b7          	lui	x9,0x478cc
    80000014:	410ad19b          	sraiw	x3,x21,0x10
    80000018:	32911637          	lui	x12,0x32911
    8000001c:	015fd11b          	srliw	x2,x31,0x15
    80000020:	338f1a97          	auipc	x21,0x338f1
    80000024:	3456f813          	andi	x16,x13,837
    80000028:	855f3897          	auipc	x17,0x855f3
    8000002c:	039a0e93          	addi	x29,x20,57
    80000030:	cc329d37          	lui	x26,0xcc329
    80000034:	000e5f1b          	srliw	x30,x28,0x0
    80000038:	aa90be17          	auipc	x28,0xaa90b
    8000003c:	10154b93          	xori	x23,x10,257
    80000040:	71832937          	lui	x18,0x71832
    80000044:	72a24d93          	xori	x27,x4,1834
    80000048:	a3de3137          	lui	x2,0xa3de3
    8000004c:	42625813          	srai	x16,x4,0x26
    80000050:	3fe73c97          	auipc	x25,0x3fe73
    80000054:	41af5593          	srai	x11,x30,0x1a
    80000058:	2eea6897          	auipc	x17,0x2eea6
    8000005c:	51268e9b          	addiw	x29,x13,1298
    80000060:	5e2404b7          	lui	x9,0x5e240
    80000064:	0872cf13          	xori	x30,x5,135
    80000068:	235f2817          	auipc	x16,0x235f2
    8000006c:	215d2b93          	slti	x23,x26,533
    80000070:	291640b7          	lui	x1,0x29164
    80000074:	0199de9b          	srliw	x29,x19,0x19
    80000078:	7893a917          	auipc	x18,0x7893a
    8000007c:	6b5a4c13          	xori	x24,x20,1717
    80000080:	fc3d5797          	auipc	x15,0xfc3d5
    80000084:	016c9b1b          	slliw	x22,x25,0x16
    80000088:	3b0f1537          	lui	x10,0x3b0f1
    8000008c:	02abda13          	srli	x20,x23,0x2a
    80000090:	084c83b7          	lui	x7,0x84c8
    80000094:	00e1d49b          	srliw	x9,x3,0xe
    80000098:	57496e97          	auipc	x29,0x57496
    8000009c:	0fef7793          	andi	x15,x30,254
    800000a0:	4aef7e37          	lui	x28,0x4aef7
    800000a4:	0040d39b          	srliw	x7,x1,0x4
    800000a8:	6085c1b7          	lui	x3,0x6085c
    800000ac:	1eaa8f1b          	addiw	x30,x21,490 # ffffffffb38f120a <_start+0xffffffff338f120a>
    800000b0:	bd82f117          	auipc	x2,0xbd82f
    800000b4:	058b2093          	slti	x1,x22,88
    800000b8:	3f6f2437          	lui	x8,0x3f6f2
    800000bc:	007d5493          	srli	x9,x26,0x7
    800000c0:	d9eabab7          	lui	x21,0xd9eab
    800000c4:	428f021b          	addiw	x4,x30,1064 # 1b4bc430 <_start-0x64b43bd0>
    800000c8:	24d97537          	lui	x10,0x24d97
    800000cc:	01b7161b          	slliw	x12,x14,0x1b
    800000d0:	ef2bd0b7          	lui	x1,0xef2bd
    800000d4:	64228b93          	addi	x23,x5,1602
    800000d8:	b79484b7          	lui	x9,0xb7948
    800000dc:	00af591b          	srliw	x18,x30,0xa
    800000e0:	1db8de37          	lui	x28,0x1db8d
    800000e4:	40a2dc1b          	sraiw	x24,x5,0xa
    800000e8:	805a1897          	auipc	x17,0x805a1
    800000ec:	2cc72a93          	slti	x21,x14,716
    800000f0:	d1df17b7          	lui	x15,0xd1df1
    800000f4:	4fb90f9b          	addiw	x31,x18,1275 # fffffffff893a573 <_start+0xffffffff7893a573>
    800000f8:	807a3617          	auipc	x12,0x807a3
    800000fc:	032cb993          	sltiu	x19,x25,50
    80000100:	287c5d17          	auipc	x26,0x287c5
    80000104:	47e0fc93          	andi	x25,x1,1150
    80000108:	f6b203b7          	lui	x7,0xf6b20
    8000010c:	5bf57a93          	andi	x21,x10,1471
    80000110:	9edf5c37          	lui	x24,0x9edf5
    80000114:	00a71d93          	slli	x27,x14,0xa
    80000118:	62766a37          	lui	x20,0x62766
    8000011c:	00f2d51b          	srliw	x10,x5,0xf
    80000120:	e571fb37          	lui	x22,0xe571f
    80000124:	035c1c93          	slli	x25,x24,0x35
    80000128:	d621c6b7          	lui	x13,0xd621c
    8000012c:	402d5c1b          	sraiw	x24,x26,0x2
    80000130:	20b5b7b7          	lui	x15,0x20b5b
    80000134:	7242ed13          	ori	x26,x5,1828
    80000138:	00091997          	auipc	x19,0x91
    8000013c:	4fe50813          	addi	x16,x10,1278 # 24d974fe <_start-0x5b268b02>
    80000140:	d48ce097          	auipc	x1,0xd48ce
    80000144:	155bca13          	xori	x20,x23,341
    80000148:	cdbae037          	lui	x0,0xcdbae
    8000014c:	0006179b          	slliw	x15,x12,0x0
    80000150:	01350137          	lui	x2,0x1350
    80000154:	006b999b          	slliw	x19,x23,0x6
    80000158:	65a3f2b7          	lui	x5,0x65a3f
    8000015c:	2ead6513          	ori	x10,x26,746
    80000160:	cb1bc937          	lui	x18,0xcb1bc
    80000164:	0110111b          	slliw	x2,x0,0x11
    80000168:	3b476e97          	auipc	x29,0x3b476
    8000016c:	58dbe293          	ori	x5,x23,1421
    80000170:	4f12cfb7          	lui	x31,0x4f12c
    80000174:	0ad06f13          	ori	x30,x0,173
    80000178:	84f363b7          	lui	x7,0x84f36
    8000017c:	4056d613          	srai	x12,x13,0x5
    80000180:	ead60c17          	auipc	x24,0xead60
    80000184:	00b6979b          	slliw	x15,x13,0xb
    80000188:	95029737          	lui	x14,0x95029
    8000018c:	45720213          	addi	x4,x4,1111 # 457 <_start-0x7ffffba9>
    80000190:	bc01d597          	auipc	x11,0xbc01d
    80000194:	0026511b          	srliw	x2,x12,0x2
    80000198:	53e58537          	lui	x10,0x53e58
    8000019c:	5c66bb13          	sltiu	x22,x13,1478
    800001a0:	42604a17          	auipc	x20,0x42604
    800001a4:	3d58e213          	ori	x4,x17,981
    800001a8:	5bf2c5b7          	lui	x11,0x5bf2c
    800001ac:	42615d93          	srai	x27,x2,0x26
    800001b0:	a833df17          	auipc	x30,0xa833d
    800001b4:	1971e793          	ori	x15,x3,407
    800001b8:	ac95d897          	auipc	x17,0xac95d
    800001bc:	40755e1b          	sraiw	x28,x10,0x7
    800001c0:	fed70197          	auipc	x3,0xfed70
    800001c4:	02a51093          	slli	x1,x10,0x2a
    800001c8:	c04ae3b7          	lui	x7,0xc04ae
    800001cc:	40425b9b          	sraiw	x23,x4,0x4
    800001d0:	712e94b7          	lui	x9,0x712e9
    800001d4:	19100793          	addi	x15,x0,401
    800001d8:	94636a17          	auipc	x20,0x94636
    800001dc:	01bed893          	srli	x17,x29,0x1b
    800001e0:	bc95f117          	auipc	x2,0xbc95f
    800001e4:	2aab4493          	xori	x9,x22,682
    800001e8:	b78ff397          	auipc	x7,0xb78ff
    800001ec:	071f2193          	slti	x3,x30,113
    800001f0:	6743ae17          	auipc	x28,0x6743a
    800001f4:	41a7a913          	slti	x18,x15,1050
    800001f8:	158e5bb7          	lui	x23,0x158e5
    800001fc:	409ad39b          	sraiw	x7,x21,0x9
    80000200:	eab47337          	lui	x6,0xeab47
    80000204:	013a1693          	slli	x13,x20,0x13
    80000208:	f9ce3b37          	lui	x22,0xf9ce3
    8000020c:	6c57ba93          	sltiu	x21,x15,1733
    80000210:	a5198c97          	auipc	x25,0xa5198
    80000214:	019bd813          	srli	x16,x23,0x19
    80000218:	ae315037          	lui	x0,0xae315
    8000021c:	0145dd9b          	srliw	x27,x11,0x14
    80000220:	4bf6b937          	lui	x18,0x4bf6b
    80000224:	27eeeb13          	ori	x22,x29,638
    80000228:	96b94a17          	auipc	x20,0x96b94
    8000022c:	01eedc9b          	srliw	x25,x29,0x1e
    80000230:	2b565eb7          	lui	x29,0x2b565
    80000234:	4080df93          	srai	x31,x1,0x8
    80000238:	14cdb237          	lui	x4,0x14cdb
    8000023c:	72dd6013          	ori	x0,x26,1837
    80000240:	5245ff17          	auipc	x30,0x5245f
    80000244:	41ded31b          	sraiw	x6,x29,0x1d
    80000248:	c3b3f997          	auipc	x19,0xc3b3f
    8000024c:	40b15913          	srai	x18,x2,0xb
    80000250:	da4cbd37          	lui	x26,0xda4cb
    80000254:	41a5539b          	sraiw	x7,x10,0x1a
    80000258:	c6f28f97          	auipc	x31,0xc6f28
    8000025c:	05340a1b          	addiw	x20,x8,83 # 3f6f2053 <_start-0x4090dfad>
    80000260:	5d2b0cb7          	lui	x25,0x5d2b0
    80000264:	4129e893          	ori	x17,x19,1042
    80000268:	fcad5117          	auipc	x2,0xfcad5
    8000026c:	68756f13          	ori	x30,x10,1671
    80000270:	c471ae17          	auipc	x28,0xc471a
    80000274:	209b0313          	addi	x6,x22,521 # fffffffff9ce3209 <_start+0xffffffff79ce3209>
    80000278:	ab0545b7          	lui	x11,0xab054
    8000027c:	6af88093          	addi	x1,x17,1711 # 2c95d867 <_start-0x536a2799>
    80000280:	29ca0937          	lui	x18,0x29ca0
    80000284:	01629d1b          	slliw	x26,x5,0x16
    80000288:	eebc1117          	auipc	x2,0xeebc1
    8000028c:	00c19813          	slli	x16,x3,0xc
    80000290:	4d801e17          	auipc	x28,0x4d801
    80000294:	21fa8093          	addi	x1,x21,543 # ffffffffd9eab21f <_start+0xffffffff59eab21f>
    80000298:	b17e7297          	auipc	x5,0xb17e7
    8000029c:	7d8ec713          	xori	x14,x29,2008
    800002a0:	ef335137          	lui	x2,0xef335
    800002a4:	1fd68c1b          	addiw	x24,x13,509 # ffffffffd621c1fd <_start+0xffffffff5621c1fd>
    800002a8:	41147e97          	auipc	x29,0x41147
    800002ac:	00f51e13          	slli	x28,x10,0xf
    800002b0:	c8b7a0b7          	lui	x1,0xc8b7a
    800002b4:	018d5613          	srli	x12,x26,0x18
    800002b8:	2692e697          	auipc	x13,0x2692e
    800002bc:	41690113          	addi	x2,x18,1046 # 29ca0416 <_start-0x5635fbea>
    800002c0:	6e94da37          	lui	x20,0x6e94d
    800002c4:	6b8e4193          	xori	x3,x28,1720
    800002c8:	4a97e297          	auipc	x5,0x4a97e
    800002cc:	00a81b13          	slli	x22,x16,0xa
    800002d0:	203767b7          	lui	x15,0x20376
    800002d4:	27fe2813          	slti	x16,x28,639
    800002d8:	e4b84eb7          	lui	x29,0xe4b84
    800002dc:	00369c13          	slli	x24,x13,0x3
    800002e0:	a624bf97          	auipc	x31,0xa624b
    800002e4:	0161541b          	srliw	x8,x2,0x16
    800002e8:	b7f001b7          	lui	x3,0xb7f00
    800002ec:	0166d01b          	srliw	x0,x13,0x16
    800002f0:	760330b7          	lui	x1,0x76033
    800002f4:	24abf293          	andi	x5,x23,586
    800002f8:	68da5137          	lui	x2,0x68da5
    800002fc:	007d9c9b          	slliw	x25,x27,0x7
    80000300:	bcfea637          	lui	x12,0xbcfea
    80000304:	00eb501b          	srliw	x0,x22,0xe
    80000308:	e878f3b7          	lui	x7,0xe878f
    8000030c:	42172913          	slti	x18,x14,1057
    80000310:	6a8eb0b7          	lui	x1,0x6a8eb
    80000314:	4ae9f693          	andi	x13,x19,1198
    80000318:	a76a7a97          	auipc	x21,0xa76a7
    8000031c:	1a41bb13          	sltiu	x22,x3,420
    80000320:	00e31533          	sll	x10,x6,x14
    80000324:	027ea233          	mulhsu	x4,x29,x7
    80000328:	5e2df437          	lui	x8,0x5e2df
    8000032c:	03984733          	div	x14,x16,x25
    80000330:	64d03b93          	sltiu	x23,x0,1613
    80000334:	02511d33          	mulh	x26,x2,x5
    80000338:	d5602997          	auipc	x19,0xd5602
    8000033c:	02da623b          	remw	x4,x20,x13
    80000340:	7f018117          	auipc	x2,0x7f018
    80000344:	0376fbb3          	remu	x23,x13,x23
    80000348:	00078733          	add	x14,x15,x0
    8000034c:	03166db3          	rem	x27,x12,x17
    80000350:	1748f513          	andi	x10,x17,372
    80000354:	0281aeb3          	mulhsu	x29,x3,x8
    80000358:	413c5a93          	srai	x21,x24,0x13
    8000035c:	02d7fc3b          	remuw	x24,x15,x13
    80000360:	40b7571b          	sraiw	x14,x14,0xb
    80000364:	031537b3          	mulhu	x15,x10,x17
    80000368:	162bf813          	andi	x16,x23,354
    8000036c:	02937e33          	remu	x28,x6,x9
    80000370:	01db589b          	srliw	x17,x22,0x1d
    80000374:	02348333          	mul	x6,x9,x3
    80000378:	004b7a33          	and	x20,x22,x4
    8000037c:	030decb3          	rem	x25,x27,x16
    80000380:	00ee181b          	slliw	x16,x28,0xe
    80000384:	02968e3b          	mulw	x28,x13,x9
    80000388:	017401b3          	add	x3,x8,x23
    8000038c:	02d48033          	mul	x0,x9,x13
    80000390:	40ecdabb          	sraw	x21,x25,x14
    80000394:	02ad72b3          	remu	x5,x26,x10
    80000398:	645e2f97          	auipc	x31,0x645e2
    8000039c:	023141bb          	divw	x3,x2,x3
    800003a0:	ae061997          	auipc	x19,0xae061
    800003a4:	029f1933          	mulh	x18,x30,x9
    800003a8:	4a2f2713          	slti	x14,x30,1186
    800003ac:	0362ca33          	div	x20,x5,x22
    800003b0:	003ad333          	srl	x6,x21,x3
    800003b4:	02daec33          	rem	x24,x21,x13
    800003b8:	00a49ebb          	sllw	x29,x9,x10
    800003bc:	0369f633          	remu	x12,x19,x22
    800003c0:	1edcb193          	sltiu	x3,x25,493
    800003c4:	030a6733          	rem	x14,x20,x16
    800003c8:	42d55c13          	srai	x24,x10,0x2d
    800003cc:	030dd93b          	divuw	x18,x27,x16
    800003d0:	028d5893          	srli	x17,x26,0x28
    800003d4:	02f0fbb3          	remu	x23,x1,x15
    800003d8:	fdb53db7          	lui	x27,0xfdb53
    800003dc:	02030ab3          	mul	x21,x6,x0
    800003e0:	052d2617          	auipc	x12,0x52d2
    800003e4:	03fc013b          	mulw	x2,x24,x31
    800003e8:	019c1d1b          	slliw	x26,x24,0x19
    800003ec:	024086b3          	mul	x13,x1,x4
    800003f0:	017f84b3          	add	x9,x31,x23
    800003f4:	028de5bb          	remw	x11,x27,x8
    800003f8:	40c55a9b          	sraiw	x21,x10,0xc
    800003fc:	03a89833          	mulh	x16,x17,x26
    80000400:	a950e297          	auipc	x5,0xa950e
    80000404:	02fcec33          	rem	x24,x25,x15
    80000408:	02825d13          	srli	x26,x4,0x28
    8000040c:	02f323b3          	mulhsu	x7,x6,x15
    80000410:	fbe1f797          	auipc	x15,0xfbe1f
    80000414:	03d46db3          	rem	x27,x8,x29
    80000418:	006a5313          	srli	x6,x20,0x6
    8000041c:	0374e0b3          	rem	x1,x9,x23
    80000420:	2c613693          	sltiu	x13,x2,710
    80000424:	0365bb33          	mulhu	x22,x11,x22
    80000428:	0129df9b          	srliw	x31,x19,0x12
    8000042c:	0307f63b          	remuw	x12,x15,x16
    80000430:	01b91c9b          	slliw	x25,x18,0x1b
    80000434:	028847bb          	divw	x15,x16,x8
    80000438:	00852333          	slt	x6,x10,x8
    8000043c:	025080b3          	mul	x1,x1,x5
    80000440:	03a685b7          	lui	x11,0x3a68
    80000444:	031ea1b3          	mulhsu	x3,x29,x17
    80000448:	01586bb3          	or	x23,x16,x21
    8000044c:	02d438b3          	mulhu	x17,x8,x13
    80000450:	41d10b33          	sub	x22,x2,x29
    80000454:	02f9d5b3          	divu	x11,x19,x15
    80000458:	16b55017          	auipc	x0,0x16b55
    8000045c:	0271b6b3          	mulhu	x13,x3,x7
    80000460:	007f03bb          	addw	x7,x30,x7
    80000464:	03bdccb3          	div	x25,x27,x27
    80000468:	c4f3b997          	auipc	x19,0xc4f3b
    8000046c:	03f648b3          	div	x17,x12,x31
    80000470:	014560b3          	or	x1,x10,x20
    80000474:	03079033          	mulh	x0,x15,x16
    80000478:	00fea1b3          	slt	x3,x29,x15
    8000047c:	02697933          	remu	x18,x18,x6
    80000480:	27532513          	slti	x10,x6,629
    80000484:	0378e433          	rem	x8,x17,x23
    80000488:	032e1a93          	slli	x21,x28,0x32
    8000048c:	031382b3          	mul	x5,x7,x17
    80000490:	476fbf13          	sltiu	x30,x31,1142
    80000494:	0237d633          	divu	x12,x15,x3
    80000498:	413b553b          	sraw	x10,x22,x19
    8000049c:	02bcf3bb          	remuw	x7,x25,x11
    800004a0:	85a03a17          	auipc	x20,0x85a03
    800004a4:	02304433          	div	x8,x0,x3
    800004a8:	00519d3b          	sllw	x26,x3,x5
    800004ac:	0264e7bb          	remw	x15,x9,x6
    800004b0:	db462db7          	lui	x27,0xdb462
    800004b4:	036681b3          	mul	x3,x13,x22
    800004b8:	b7c25cb7          	lui	x25,0xb7c25
    800004bc:	038c3bb3          	mulhu	x23,x24,x24
    800004c0:	01a45533          	srl	x10,x8,x26
    800004c4:	02b93133          	mulhu	x2,x18,x11
    800004c8:	0166843b          	addw	x8,x13,x22
    800004cc:	026af633          	remu	x12,x21,x6
    800004d0:	414ad01b          	sraiw	x0,x21,0x14
    800004d4:	021c5b33          	divu	x22,x24,x1
    800004d8:	00931293          	slli	x5,x6,0x9
    800004dc:	03d42e33          	mulhsu	x28,x8,x29
    800004e0:	43a654b7          	lui	x9,0x43a65
    800004e4:	02d73db3          	mulhu	x27,x14,x13
    800004e8:	011b1233          	sll	x4,x22,x17
    800004ec:	020f1ab3          	mulh	x21,x30,x0
    800004f0:	010896b3          	sll	x13,x17,x16
    800004f4:	03344033          	div	x0,x8,x19
    800004f8:	01d94cb3          	xor	x25,x18,x29
    800004fc:	02b9e8bb          	remw	x17,x19,x11
    80000500:	0054d1bb          	srlw	x3,x9,x5
    80000504:	028d473b          	divw	x14,x26,x8
    80000508:	1e4ce697          	auipc	x13,0x1e4ce
    8000050c:	03b5b0b3          	mulhu	x1,x11,x27
    80000510:	012fe633          	or	x12,x31,x18
    80000514:	039cddbb          	divuw	x27,x25,x25
    80000518:	298c6713          	ori	x14,x24,664
    8000051c:	0356c033          	div	x0,x13,x21
    80000520:	005b8d33          	add	x26,x23,x5
    80000524:	0368d0b3          	divu	x1,x17,x22
    80000528:	03218493          	addi	x9,x3,50 # ffffffffb7f00032 <_start+0xffffffff37f00032>
    8000052c:	0246bbb3          	mulhu	x23,x13,x4
    80000530:	22c7fc13          	andi	x24,x15,556
    80000534:	0257b833          	mulhu	x16,x15,x5
    80000538:	a85a3297          	auipc	x5,0xa85a3
    8000053c:	02edeebb          	remw	x29,x27,x14
    80000540:	87090737          	lui	x14,0x87090
    80000544:	03ae0a3b          	mulw	x20,x28,x26
    80000548:	401dd833          	sra	x16,x27,x1
    8000054c:	02c6c1bb          	divw	x3,x13,x12
    80000550:	25e28993          	addi	x19,x5,606 # 285a3796 <_start-0x57a5c86a>
    80000554:	03e415b3          	mulh	x11,x8,x30
    80000558:	2b3ec013          	xori	x0,x29,691
    8000055c:	039f6ebb          	remw	x29,x30,x25
    80000560:	00f1ccb3          	xor	x25,x3,x15
    80000564:	036ac23b          	divw	x4,x21,x22
    80000568:	14814ab7          	lui	x21,0x14814
    8000056c:	03ae45b3          	div	x11,x28,x26
    80000570:	401b803b          	subw	x0,x23,x1
    80000574:	02c771b3          	remu	x3,x14,x12
    80000578:	0134c8b3          	xor	x17,x9,x19
    8000057c:	03cdd3b3          	divu	x7,x27,x28
    80000580:	fc107597          	auipc	x11,0xfc107
    80000584:	03466033          	rem	x0,x12,x20
    80000588:	865f6117          	auipc	x2,0x865f6
    8000058c:	030951bb          	divuw	x3,x18,x16
    80000590:	41378833          	sub	x16,x15,x19
    80000594:	03b580b3          	mul	x1,x11,x27
    80000598:	4a2cec93          	ori	x25,x25,1186
    8000059c:	03c45e3b          	divuw	x28,x8,x28
    800005a0:	01e6b5b3          	sltu	x11,x13,x30
    800005a4:	034243b3          	div	x7,x4,x20
    800005a8:	b4eb0a37          	lui	x20,0xb4eb0
    800005ac:	02c22fb3          	mulhsu	x31,x4,x12
    800005b0:	01dad03b          	srlw	x0,x21,x29
    800005b4:	02d28ab3          	mul	x21,x5,x13
    800005b8:	963bbb97          	auipc	x23,0x963bb
    800005bc:	02de5833          	divu	x16,x28,x13
    800005c0:	41d0833b          	subw	x6,x1,x29
    800005c4:	02f0aa33          	mulhsu	x20,x1,x15
    800005c8:	7afdf013          	andi	x0,x27,1967
    800005cc:	03ccdf3b          	divuw	x30,x25,x28
    800005d0:	d906b1b7          	lui	x3,0xd906b
    800005d4:	0323ceb3          	div	x29,x7,x18
    800005d8:	284b2b93          	slti	x23,x22,644
    800005dc:	0358c23b          	divw	x4,x17,x21
    800005e0:	00fd9733          	sll	x14,x27,x15
    800005e4:	02054533          	div	x10,x10,x0
    800005e8:	a2c7b497          	auipc	x9,0xa2c7b
    800005ec:	03dd53b3          	divu	x7,x26,x29
    800005f0:	0308ffb7          	lui	x31,0x308f
    800005f4:	03c279bb          	remuw	x19,x4,x28
    800005f8:	40eade33          	sra	x28,x21,x14
    800005fc:	0320d7b3          	divu	x15,x1,x18
    80000600:	b9753037          	lui	x0,0xb9753
    80000604:	027c033b          	mulw	x6,x24,x7
    80000608:	012c8bbb          	addw	x23,x25,x18
    8000060c:	029d8db3          	mul	x27,x27,x9
    80000610:	407554bb          	sraw	x9,x10,x7
    80000614:	034177bb          	remuw	x15,x2,x20
    80000618:	e6390d37          	lui	x26,0xe6390
    8000061c:	038e8ebb          	mulw	x29,x29,x24
    80000620:	10b84293          	xori	x5,x16,267
    80000624:	0296eb33          	rem	x22,x13,x9
    80000628:	b65b0d97          	auipc	x27,0xb65b0
    8000062c:	02a145bb          	divw	x11,x2,x10
    80000630:	020e5013          	srli	x0,x28,0x20
    80000634:	02e73e33          	mulhu	x28,x14,x14
    80000638:	13ab6c17          	auipc	x24,0x13ab6
    8000063c:	03e6c83b          	divw	x16,x13,x30
    80000640:	009cca33          	xor	x20,x25,x9
    80000644:	02c05f33          	divu	x30,x0,x12
    80000648:	29b800b7          	lui	x1,0x29b80
    8000064c:	02c64fbb          	divw	x31,x12,x12
    80000650:	1c5c2393          	slti	x7,x24,453
    80000654:	0228d9bb          	divuw	x19,x17,x2
    80000658:	c9093637          	lui	x12,0xc9093
    8000065c:	029badb3          	mulhsu	x27,x23,x9
    80000660:	4b83bb37          	lui	x22,0x4b83b
    80000664:	0314efb3          	rem	x31,x9,x17
    80000668:	7b123213          	sltiu	x4,x4,1969
    8000066c:	03ac6abb          	remw	x21,x24,x26
    80000670:	011e8d33          	add	x26,x29,x17
    80000674:	03890eb3          	mul	x29,x18,x24
    80000678:	4066db33          	sra	x22,x13,x6
    8000067c:	03e95e33          	divu	x28,x18,x30
    80000680:	43f2a893          	slti	x17,x5,1087
    80000684:	02a43db3          	mulhu	x27,x8,x10
    80000688:	408ed433          	sra	x8,x29,x8
    8000068c:	03a207bb          	mulw	x15,x4,x26
    80000690:	5a9b40b7          	lui	x1,0x5a9b4
    80000694:	03c159bb          	divuw	x19,x2,x28
    80000698:	e9c093b7          	lui	x7,0xe9c09
    8000069c:	031ec4bb          	divw	x9,x29,x17
    800006a0:	0186cd33          	xor	x26,x13,x24
    800006a4:	034e28b3          	mulhsu	x17,x28,x20
    800006a8:	42bf5113          	srai	x2,x30,0x2b
    800006ac:	023e0f33          	mul	x30,x28,x3
    800006b0:	03961a93          	slli	x21,x12,0x39
    800006b4:	0326deb3          	divu	x29,x13,x18
    800006b8:	a23f92b7          	lui	x5,0xa23f9
    800006bc:	024c8333          	mul	x6,x25,x4
    800006c0:	0b447b13          	andi	x22,x8,180
    800006c4:	0390ebb3          	rem	x23,x1,x25
    800006c8:	56193097          	auipc	x1,0x56193
    800006cc:	02f1df33          	divu	x30,x3,x15
    800006d0:	020a5613          	srli	x12,x20,0x20
    800006d4:	03fa553b          	divuw	x10,x20,x31
    800006d8:	0fb66317          	auipc	x6,0xfb66
    800006dc:	0274fe33          	remu	x28,x9,x7
    800006e0:	314ee737          	lui	x14,0x314ee
    800006e4:	02069033          	mulh	x0,x13,x0
    800006e8:	001c9b13          	slli	x22,x25,0x1
    800006ec:	033ed833          	divu	x16,x29,x19
    800006f0:	01295d3b          	srlw	x26,x18,x18
    800006f4:	03311fb3          	mulh	x31,x2,x19
    800006f8:	3101f017          	auipc	x0,0x3101f
    800006fc:	024615b3          	mulh	x11,x12,x4
    80000700:	92fc52b7          	lui	x5,0x92fc5
    80000704:	02d780b3          	mul	x1,x15,x13
    80000708:	4143dd13          	srai	x26,x7,0x14
    8000070c:	0373ae33          	mulhsu	x28,x7,x23
    80000710:	00066ab3          	or	x21,x12,x0
    80000714:	02dbfb33          	remu	x22,x23,x13
    80000718:	481a4393          	xori	x7,x20,1153
    8000071c:	02c452b3          	divu	x5,x8,x12
    80000720:	5d083793          	sltiu	x15,x16,1488
    80000724:	0357423b          	divw	x4,x14,x21
    80000728:	63d03b13          	sltiu	x22,x0,1597
    8000072c:	0263eebb          	remw	x29,x7,x6
    80000730:	00f58f13          	addi	x30,x11,15 # 7c10758f <_start-0x3ef8a71>
    80000734:	023d00b3          	mul	x1,x26,x3
    80000738:	005d12b3          	sll	x5,x26,x5
    8000073c:	03b75dbb          	divuw	x27,x14,x27
    80000740:	02aa1793          	slli	x15,x20,0x2a
    80000744:	02d364bb          	remw	x9,x6,x13
    80000748:	00276a33          	or	x20,x14,x2
    8000074c:	038aa733          	mulhsu	x14,x21,x24
    80000750:	df400837          	lui	x16,0xdf400
    80000754:	0276b933          	mulhu	x18,x13,x7
    80000758:	f65d9c37          	lui	x24,0xf65d9
    8000075c:	03e16ab3          	rem	x21,x2,x30
    80000760:	be5c2897          	auipc	x17,0xbe5c2
    80000764:	036b003b          	mulw	x0,x22,x22
    80000768:	14a2b4b7          	lui	x9,0x14a2b
    8000076c:	03dfc63b          	divw	x12,x31,x29
    80000770:	18f18ab7          	lui	x21,0x18f18
    80000774:	0217ad33          	mulhsu	x26,x15,x1
    80000778:	35aac797          	auipc	x15,0x35aac
    8000077c:	030b683b          	remw	x16,x22,x16
    80000780:	6938b513          	sltiu	x10,x17,1683
    80000784:	029faab3          	mulhsu	x21,x31,x9
    80000788:	40460633          	sub	x12,x12,x4
    8000078c:	032e56bb          	divuw	x13,x28,x18
    80000790:	0060be33          	sltu	x28,x1,x6
    80000794:	034d42b3          	div	x5,x26,x20
    80000798:	153a9797          	auipc	x15,0x153a9
    8000079c:	02184a33          	div	x20,x16,x1
    800007a0:	41a684bb          	subw	x9,x13,x26
    800007a4:	024236b3          	mulhu	x13,x4,x4
    800007a8:	07f2861b          	addiw	x12,x5,127 # ffffffff92fc507f <_start+0xffffffff12fc507f>
    800007ac:	0317eb33          	rem	x22,x15,x17
    800007b0:	004d1d1b          	slliw	x26,x26,0x4
    800007b4:	03b9f7bb          	remuw	x15,x19,x27
    800007b8:	006242b3          	xor	x5,x4,x6
    800007bc:	03202433          	mulhsu	x8,x0,x18
    800007c0:	024b5693          	srli	x13,x22,0x24
    800007c4:	03966ebb          	remw	x29,x12,x25
    800007c8:	41af5f9b          	sraiw	x31,x30,0x1a
    800007cc:	0254ff3b          	remuw	x30,x9,x5
    800007d0:	4a067917          	auipc	x18,0x4a067
    800007d4:	031c6c33          	rem	x24,x24,x17
    800007d8:	b16be637          	lui	x12,0xb16be
    800007dc:	0298e833          	rem	x16,x17,x9
    800007e0:	32076f17          	auipc	x30,0x32076
    800007e4:	0202523b          	divuw	x4,x4,x0
    800007e8:	013c9bb3          	sll	x23,x25,x19
    800007ec:	036d9cb3          	mulh	x25,x27,x22
    800007f0:	014aea33          	or	x20,x21,x20
    800007f4:	03a481bb          	mulw	x3,x9,x26
    800007f8:	00269333          	sll	x6,x13,x2
    800007fc:	024070bb          	remuw	x1,x0,x4
    80000800:	375e0697          	auipc	x13,0x375e0
    80000804:	0367d93b          	divuw	x18,x15,x22
    80000808:	01d9fcb3          	and	x25,x19,x29
    8000080c:	0343743b          	remuw	x8,x6,x20
    80000810:	01fe513b          	srlw	x2,x28,x31
    80000814:	03e0033b          	mulw	x6,x0,x30
    80000818:	0109d3bb          	srlw	x7,x19,x16
    8000081c:	03254cbb          	divw	x25,x10,x18
    80000820:	0005d7b3          	srl	x15,x11,x0
    80000824:	0257423b          	divw	x4,x14,x5
    80000828:	2c706737          	lui	x14,0x2c706
    8000082c:	02b6dabb          	divuw	x21,x13,x11
    80000830:	4058df93          	srai	x31,x17,0x5
    80000834:	0291fb33          	remu	x22,x3,x9
    80000838:	00cba933          	slt	x18,x23,x12
    8000083c:	0272f433          	remu	x8,x5,x7
    80000840:	01e502bb          	addw	x5,x10,x30
    80000844:	03024f3b          	divw	x30,x4,x16
    80000848:	68f72893          	slti	x17,x14,1679
    8000084c:	0325013b          	mulw	x2,x10,x18
    80000850:	5c032593          	slti	x11,x6,1472
    80000854:	0382f23b          	remuw	x4,x5,x24
    80000858:	00cb131b          	slliw	x6,x22,0xc
    8000085c:	030f80b3          	mul	x1,x31,x16
    80000860:	413bde33          	sra	x28,x23,x19
    80000864:	0322ecbb          	remw	x25,x5,x18
    80000868:	00cd8fbb          	addw	x31,x27,x12
    8000086c:	02801b33          	mulh	x22,x0,x8
    80000870:	0234de93          	srli	x29,x9,0x23
    80000874:	02b7b033          	mulhu	x0,x15,x11
    80000878:	4031d5bb          	sraw	x11,x3,x3
    8000087c:	0287ca33          	div	x20,x15,x8
    80000880:	01bf873b          	addw	x14,x31,x27
    80000884:	02752433          	mulhsu	x8,x10,x7
    80000888:	01dc993b          	sllw	x18,x25,x29
    8000088c:	0376d533          	divu	x10,x13,x23
    80000890:	4167d19b          	sraiw	x3,x15,0x16
    80000894:	02998fbb          	mulw	x31,x19,x9
    80000898:	40dbd6b3          	sra	x13,x23,x13
    8000089c:	02f764b3          	rem	x9,x14,x15
    800008a0:	01227f33          	and	x30,x4,x18
    800008a4:	024841b3          	div	x3,x16,x4
    800008a8:	5fb6bd37          	lui	x26,0x5fb6b
    800008ac:	024458b3          	divu	x17,x8,x4
    800008b0:	412786bb          	subw	x13,x15,x18
    800008b4:	036f7ab3          	remu	x21,x30,x22
    800008b8:	0139161b          	slliw	x12,x18,0x13
    800008bc:	033573b3          	remu	x7,x10,x19
    800008c0:	00b90133          	add	x2,x18,x11
    800008c4:	030f64b3          	rem	x9,x30,x16
    800008c8:	68108e1b          	addiw	x28,x1,1665 # ffffffffd6193d49 <_start+0xffffffff56193d49>
    800008cc:	03a415b3          	mulh	x11,x8,x26
    800008d0:	5c94d237          	lui	x4,0x5c94d
    800008d4:	02077cbb          	remuw	x25,x14,x0
    800008d8:	01270013          	addi	x0,x14,18 # 2c706012 <_start-0x538f9fee>
    800008dc:	036f22b3          	mulhsu	x5,x30,x22
    800008e0:	41b1d4bb          	sraw	x9,x3,x27
    800008e4:	021ff433          	remu	x8,x31,x1
    800008e8:	411fdbbb          	sraw	x23,x31,x17
    800008ec:	02a31a33          	mulh	x20,x6,x10
    800008f0:	00089713          	slli	x14,x17,0x0
    800008f4:	03c6e333          	rem	x6,x13,x28
    800008f8:	58d0049b          	addiw	x9,x0,1421
    800008fc:	02cf66bb          	remw	x13,x30,x12
    80000900:	01722c33          	slt	x24,x4,x23
    80000904:	0235013b          	mulw	x2,x10,x3
    80000908:	41a00533          	sub	x10,x0,x26
    8000090c:	039e2b33          	mulhsu	x22,x28,x25
    80000910:	028a1393          	slli	x7,x20,0x28
    80000914:	0339b833          	mulhu	x16,x19,x19
    80000918:	43cd5193          	srai	x3,x26,0x3c
    8000091c:	032899b3          	mulh	x19,x17,x18
    80000920:	01065a93          	srli	x21,x12,0x10
    80000924:	0226e4b3          	rem	x9,x13,x2
    80000928:	01ef3633          	sltu	x12,x30,x30
    8000092c:	02d3b833          	mulhu	x16,x7,x13
    80000930:	e4dd0017          	auipc	x0,0xe4dd0
    80000934:	02fae0bb          	remw	x1,x21,x15
    80000938:	7b6c28b7          	lui	x17,0x7b6c2
    8000093c:	0269c9b3          	div	x19,x19,x6
    80000940:	03e6d593          	srli	x11,x13,0x3e
    80000944:	034f42bb          	divw	x5,x30,x20
    80000948:	414503b3          	sub	x7,x10,x20
    8000094c:	0211dcbb          	divuw	x25,x3,x1
    80000950:	2906f093          	andi	x1,x13,656
    80000954:	0387f8bb          	remuw	x17,x15,x24
    80000958:	01541913          	slli	x18,x8,0x15
    8000095c:	03dee133          	rem	x2,x29,x29
    80000960:	a7f65db7          	lui	x27,0xa7f65
    80000964:	039a29b3          	mulhsu	x19,x20,x25
    80000968:	01729733          	sll	x14,x5,x23
    8000096c:	0388eb3b          	remw	x22,x17,x24
    80000970:	40fad33b          	sraw	x6,x21,x15
    80000974:	03788433          	mul	x8,x17,x23
    80000978:	164b2037          	lui	x0,0x164b2
    8000097c:	031502b3          	mul	x5,x10,x17
    80000980:	019c95b3          	sll	x11,x25,x25
    80000984:	034e1fb3          	mulh	x31,x28,x20
    80000988:	ad21ec17          	auipc	x24,0xad21e
    8000098c:	0263fbb3          	remu	x23,x7,x6
    80000990:	e054bc97          	auipc	x25,0xe054b
    80000994:	02aae733          	rem	x14,x21,x10
    80000998:	70863237          	lui	x4,0x70863
    8000099c:	025e71bb          	remuw	x3,x28,x5
    800009a0:	6b87bd17          	auipc	x26,0x6b87b
    800009a4:	0200dcb3          	divu	x25,x1,x0
    800009a8:	d31dd137          	lui	x2,0xd31dd
    800009ac:	03dfca3b          	divw	x20,x31,x29
    800009b0:	021ebb37          	lui	x22,0x21eb
    800009b4:	0378d2bb          	divuw	x5,x17,x23
    800009b8:	21d0a717          	auipc	x14,0x21d0a
    800009bc:	031d9bb3          	mulh	x23,x27,x17
    800009c0:	5c2ac793          	xori	x15,x21,1474
    800009c4:	020dc133          	div	x2,x27,x0
    800009c8:	5e100f9b          	addiw	x31,x0,1505
    800009cc:	0244a833          	mulhsu	x16,x9,x4
    800009d0:	008ea4b3          	slt	x9,x29,x8
    800009d4:	033d6733          	rem	x14,x26,x19
    800009d8:	871b9eb7          	lui	x29,0x871b9
    800009dc:	02b210b3          	mulh	x1,x4,x11
    800009e0:	00391ab3          	sll	x21,x18,x3
    800009e4:	02b788bb          	mulw	x17,x15,x11
    800009e8:	de55e237          	lui	x4,0xde55e
    800009ec:	03c34cbb          	divw	x25,x6,x28
    800009f0:	6e0d0193          	addi	x3,x26,1760 # eb87c080 <_start+0x6b87c080>
    800009f4:	02abb0b3          	mulhu	x1,x23,x10
    800009f8:	b0095317          	auipc	x6,0xb0095
    800009fc:	03db4733          	div	x14,x22,x29
    80000a00:	015f6db3          	or	x27,x30,x21
    80000a04:	0336013b          	mulw	x2,x12,x19
    80000a08:	01e903b3          	add	x7,x18,x30
    80000a0c:	02af8bb3          	mul	x23,x31,x10
    80000a10:	32da66b7          	lui	x13,0x32da6
    80000a14:	03d84a3b          	divw	x20,x16,x29
    80000a18:	1331ea93          	ori	x21,x3,307
    80000a1c:	0218423b          	divw	x4,x16,x1
    80000a20:	00c45ebb          	srlw	x29,x8,x12
    80000a24:	039f1933          	mulh	x18,x30,x25
    80000a28:	3aec3c93          	sltiu	x25,x24,942
    80000a2c:	038ae3b3          	rem	x7,x21,x24
    80000a30:	0092a633          	slt	x12,x5,x9
    80000a34:	03fa66bb          	remw	x13,x20,x31
    80000a38:	505f4893          	xori	x17,x30,1285
    80000a3c:	039aa4b3          	mulhsu	x9,x21,x25
    80000a40:	53ff2c93          	slti	x25,x30,1343
    80000a44:	03dd4fb3          	div	x31,x26,x29
    80000a48:	073ac137          	lui	x2,0x73ac
    80000a4c:	02624e33          	div	x28,x4,x6
    80000a50:	0128f3b3          	and	x7,x17,x18
    80000a54:	02385f33          	divu	x30,x16,x3
    80000a58:	29269217          	auipc	x4,0x29269
    80000a5c:	0266483b          	divw	x16,x12,x6
    80000a60:	dfb8bbb7          	lui	x23,0xdfb8b
    80000a64:	02155cbb          	divuw	x25,x10,x1
    80000a68:	44ff8b13          	addi	x22,x31,1103 # 308f44f <_start-0x7cf70bb1>
    80000a6c:	02ac1fb3          	mulh	x31,x24,x10
    80000a70:	7f646097          	auipc	x1,0x7f646
    80000a74:	0292e8bb          	remw	x17,x5,x9
    80000a78:	00e68e33          	add	x28,x13,x14
    80000a7c:	02944a33          	div	x20,x8,x9
    80000a80:	3eeaa797          	auipc	x15,0x3eeaa
    80000a84:	0322e5b3          	rem	x11,x5,x18
    80000a88:	7a3ecc93          	xori	x25,x29,1955
    80000a8c:	0223e033          	rem	x0,x7,x2
    80000a90:	5d802f37          	lui	x30,0x5d802
    80000a94:	03b0a833          	mulhsu	x16,x1,x27
    80000a98:	7e39a217          	auipc	x4,0x7e39a
    80000a9c:	02e575b3          	remu	x11,x10,x14
    80000aa0:	1de0bc97          	auipc	x25,0x1de0b
    80000aa4:	033fad33          	mulhsu	x26,x31,x19
    80000aa8:	4d639437          	lui	x8,0x4d639
    80000aac:	03d53eb3          	mulhu	x29,x10,x29
    80000ab0:	06f4b913          	sltiu	x18,x9,111
    80000ab4:	03efa3b3          	mulhsu	x7,x31,x30
    80000ab8:	40928cbb          	subw	x25,x5,x9
    80000abc:	03e279bb          	remuw	x19,x4,x30
    80000ac0:	008dd2b3          	srl	x5,x27,x8
    80000ac4:	03d58e3b          	mulw	x28,x11,x29
    80000ac8:	40fd5033          	sra	x0,x26,x15
    80000acc:	02247fbb          	remuw	x31,x8,x2
    80000ad0:	c69b4737          	lui	x14,0xc69b4
    80000ad4:	0329b6b3          	mulhu	x13,x19,x18
    80000ad8:	2c0312b7          	lui	x5,0x2c031
    80000adc:	022e803b          	mulw	x0,x29,x2
    80000ae0:	019dd49b          	srliw	x9,x27,0x19
    80000ae4:	0315fcb3          	remu	x25,x11,x17
    80000ae8:	273cb597          	auipc	x11,0x273cb
    80000aec:	028af33b          	remuw	x6,x21,x8
    80000af0:	01c0efb3          	or	x31,x1,x28
    80000af4:	022e0933          	mul	x18,x28,x2
    80000af8:	01982433          	slt	x8,x16,x25
    80000afc:	024c7dbb          	remuw	x27,x24,x4
    80000b00:	000558b3          	srl	x17,x10,x0
    80000b04:	0386423b          	divw	x4,x12,x24
    80000b08:	983ebf17          	auipc	x30,0x983eb
    80000b0c:	029c0b3b          	mulw	x22,x24,x9
    80000b10:	331e0813          	addi	x16,x28,817 # cd8015c1 <_start+0x4d8015c1>
    80000b14:	0315c6bb          	divw	x13,x11,x17
    80000b18:	f36d1217          	auipc	x4,0xf36d1
    80000b1c:	02bd4eb3          	div	x29,x26,x11
    80000b20:	cd736717          	auipc	x14,0xcd736
    80000b24:	038569bb          	remw	x19,x10,x24
    80000b28:	00f3d43b          	srlw	x8,x7,x15
    80000b2c:	025934b3          	mulhu	x9,x18,x5
    80000b30:	014bceb3          	xor	x29,x23,x20
    80000b34:	032dfa3b          	remuw	x20,x27,x18
    80000b38:	00f52633          	slt	x12,x10,x15
    80000b3c:	032bc833          	div	x16,x23,x18
    80000b40:	41035d1b          	sraiw	x26,x6,0x10
    80000b44:	02017cb3          	remu	x25,x2,x0
    80000b48:	41af819b          	addiw	x3,x31,1050
    80000b4c:	03ff703b          	remuw	x0,x30,x31
    80000b50:	5c43ba93          	sltiu	x21,x7,1476
    80000b54:	02154ebb          	divw	x29,x10,x1
    80000b58:	0160d0b3          	srl	x1,x1,x22
    80000b5c:	02bfaf33          	mulhsu	x30,x31,x11
    80000b60:	02e81e13          	slli	x28,x16,0x2e
    80000b64:	02e9d1b3          	divu	x3,x19,x14
    80000b68:	00bd501b          	srliw	x0,x26,0xb
    80000b6c:	02a98ab3          	mul	x21,x19,x10
    80000b70:	c4955fb7          	lui	x31,0xc4955
    80000b74:	03c3b633          	mulhu	x12,x7,x28
    80000b78:	0342dc13          	srli	x24,x5,0x34
    80000b7c:	027f4b3b          	divw	x22,x30,x7
    80000b80:	080a0713          	addi	x14,x20,128 # ffffffffb4eb0080 <_start+0xffffffff34eb0080>
    80000b84:	024bdbbb          	divuw	x23,x23,x4
    80000b88:	40a486b3          	sub	x13,x9,x10
    80000b8c:	035f5c3b          	divuw	x24,x30,x21
    80000b90:	0085509b          	srliw	x1,x10,0x8
    80000b94:	029ddcb3          	divu	x25,x27,x9
    80000b98:	a9427a97          	auipc	x21,0xa9427
    80000b9c:	02f1cb33          	div	x22,x3,x15
    80000ba0:	6794a893          	slti	x17,x9,1657
    80000ba4:	0386c73b          	divw	x14,x13,x24
    80000ba8:	205e069b          	addiw	x13,x28,517
    80000bac:	03cf5cbb          	divuw	x25,x30,x28
    80000bb0:	2f918e1b          	addiw	x28,x3,761 # ffffffffd906b2f9 <_start+0xffffffff5906b2f9>
    80000bb4:	0374e8bb          	remw	x17,x9,x23
    80000bb8:	40ed8bb3          	sub	x23,x27,x14
    80000bbc:	023ec433          	div	x8,x29,x3
    80000bc0:	013f093b          	addw	x18,x30,x19
    80000bc4:	0210713b          	remuw	x2,x0,x1
    80000bc8:	00428e33          	add	x28,x5,x4
    80000bcc:	031ee733          	rem	x14,x29,x17
    80000bd0:	23ff7b93          	andi	x23,x30,575
    80000bd4:	03669cb3          	mulh	x25,x13,x22
    80000bd8:	4060d3b3          	sra	x7,x1,x6
    80000bdc:	0350e033          	rem	x0,x1,x21
    80000be0:	982aa9b7          	lui	x19,0x982aa
    80000be4:	034f6733          	rem	x14,x30,x20
    80000be8:	0098df1b          	srliw	x30,x17,0x9
    80000bec:	027b82bb          	mulw	x5,x23,x7
    80000bf0:	01514eb3          	xor	x29,x2,x21
    80000bf4:	0294f533          	remu	x10,x9,x9
    80000bf8:	00601b93          	slli	x23,x0,0x6
    80000bfc:	022d8dbb          	mulw	x27,x27,x2
    80000c00:	0092149b          	slliw	x9,x4,0x9
    80000c04:	0232793b          	remuw	x18,x4,x3
    80000c08:	a58a3d37          	lui	x26,0xa58a3
    80000c0c:	03ca25b3          	mulhsu	x11,x20,x28
    80000c10:	40f32693          	slti	x13,x6,1039
    80000c14:	031c7533          	remu	x10,x24,x17
    80000c18:	a18ce137          	lui	x2,0xa18ce
    80000c1c:	030e7833          	remu	x16,x28,x16
    80000c20:	0148aab3          	slt	x21,x17,x20
    80000c24:	03829433          	mulh	x8,x5,x24
    80000c28:	24144297          	auipc	x5,0x24144
    80000c2c:	02e0a233          	mulhsu	x4,x1,x14
    80000c30:	002c91b3          	sll	x3,x25,x2
    80000c34:	02db063b          	mulw	x12,x22,x13
    80000c38:	a36b5817          	auipc	x16,0xa36b5
    80000c3c:	032becbb          	remw	x25,x23,x18
    80000c40:	013e043b          	addw	x8,x28,x19
    80000c44:	03d70db3          	mul	x27,x14,x29
    80000c48:	0387be97          	auipc	x29,0x387b
    80000c4c:	030139b3          	mulhu	x19,x2,x16
    80000c50:	3e6d7713          	andi	x14,x26,998
    80000c54:	0318803b          	mulw	x0,x17,x17
    80000c58:	0a260a93          	addi	x21,x12,162 # ffffffffb16be0a2 <_start+0xffffffff316be0a2>
    80000c5c:	0295d333          	divu	x6,x11,x9
    80000c60:	d692de17          	auipc	x28,0xd692d
    80000c64:	03bb8eb3          	mul	x29,x23,x27
    80000c68:	01681b1b          	slliw	x22,x16,0x16
    80000c6c:	03efddbb          	divuw	x27,x31,x30
    80000c70:	018cc0b3          	xor	x1,x25,x24
    80000c74:	026bf8b3          	remu	x17,x23,x6
    80000c78:	f7a6fc17          	auipc	x24,0xf7a6f
    80000c7c:	02fcb033          	mulhu	x0,x25,x15
    80000c80:	007c9f33          	sll	x30,x25,x7
    80000c84:	0345c7bb          	divw	x15,x11,x20
    80000c88:	49c5ca17          	auipc	x20,0x49c5c
    80000c8c:	0286873b          	mulw	x14,x13,x8
    80000c90:	7b324497          	auipc	x9,0x7b324
    80000c94:	0353b433          	mulhu	x8,x7,x21
    80000c98:	0078d6bb          	srlw	x13,x17,x7
    80000c9c:	038bc63b          	divw	x12,x23,x24
    80000ca0:	41b27393          	andi	x7,x4,1051
    80000ca4:	03aa82bb          	mulw	x5,x21,x26
    80000ca8:	013911b3          	sll	x3,x18,x19
    80000cac:	03743d33          	mulhu	x26,x8,x23
    80000cb0:	2d769cb7          	lui	x25,0x2d769
    80000cb4:	02b408bb          	mulw	x17,x8,x11
    80000cb8:	67710917          	auipc	x18,0x67710
    80000cbc:	02a6dfb3          	divu	x31,x13,x10
    80000cc0:	006300b3          	add	x1,x6,x6
    80000cc4:	03e34ebb          	divw	x29,x6,x30
    80000cc8:	0114a1b3          	slt	x3,x9,x17
    80000ccc:	02f8cc33          	div	x24,x17,x15
    80000cd0:	3ae5c117          	auipc	x2,0x3ae5c
    80000cd4:	03b38633          	mul	x12,x7,x27
    80000cd8:	d4697597          	auipc	x11,0xd4697
    80000cdc:	03947733          	remu	x14,x8,x25
    80000ce0:	005ed19b          	srliw	x3,x29,0x5
    80000ce4:	039f803b          	mulw	x0,x31,x25
    80000ce8:	01edb6b3          	sltu	x13,x27,x30
    80000cec:	029b42bb          	divw	x5,x22,x9
    80000cf0:	4fe30e93          	addi	x29,x6,1278 # 30095ef6 <_start-0x4ff6a10a>
    80000cf4:	03fa9f33          	mulh	x30,x21,x31
    80000cf8:	654acd37          	lui	x26,0x654ac
    80000cfc:	02634533          	div	x10,x6,x6
    80000d00:	00726233          	or	x4,x4,x7
    80000d04:	02be48b3          	div	x17,x28,x11
    80000d08:	00d4db1b          	srliw	x22,x9,0xd
    80000d0c:	039f12b3          	mulh	x5,x30,x25
    80000d10:	08cdd437          	lui	x8,0x8cdd
    80000d14:	032cda33          	divu	x20,x25,x18
    80000d18:	01bf4e33          	xor	x28,x30,x27
    80000d1c:	039d4133          	div	x2,x26,x25
    80000d20:	00afdcbb          	srlw	x25,x31,x10
    80000d24:	028d7abb          	remuw	x21,x26,x8
    80000d28:	00d3bf13          	sltiu	x30,x7,13
    80000d2c:	0302e2b3          	rem	x5,x5,x16
    80000d30:	008588b3          	add	x17,x11,x8
    80000d34:	02b7d33b          	divuw	x6,x15,x11
    80000d38:	4174d83b          	sraw	x16,x9,x23
    80000d3c:	03955dbb          	divuw	x27,x10,x25
    80000d40:	012661b3          	or	x3,x12,x18
    80000d44:	035a46b3          	div	x13,x20,x21
    80000d48:	c8f14537          	lui	x10,0xc8f14
    80000d4c:	02479333          	mulh	x6,x15,x4
    80000d50:	41425c3b          	sraw	x24,x4,x20
    80000d54:	031fad33          	mulhsu	x26,x31,x17
    80000d58:	018d9493          	slli	x9,x27,0x18
    80000d5c:	03b2febb          	remuw	x29,x5,x27
    80000d60:	6045e793          	ori	x15,x11,1540
    80000d64:	03e600bb          	mulw	x1,x12,x30
    80000d68:	40719a17          	auipc	x20,0x40719
    80000d6c:	033cfcbb          	remuw	x25,x25,x19
    80000d70:	00a14bb3          	xor	x23,x2,x10
    80000d74:	03c8c7bb          	divw	x15,x17,x28
    80000d78:	4067033b          	subw	x6,x14,x6
    80000d7c:	0331e133          	rem	x2,x3,x19
    80000d80:	eee199b7          	lui	x19,0xeee19
    80000d84:	0213ec3b          	remw	x24,x7,x1
    80000d88:	60c24493          	xori	x9,x4,1548
    80000d8c:	034f61b3          	rem	x3,x30,x20
    80000d90:	43e3d393          	srai	x7,x7,0x3e
    80000d94:	024f9433          	mulh	x8,x31,x4
    80000d98:	01554bb3          	xor	x23,x10,x21
    80000d9c:	036c49bb          	divw	x19,x24,x22
    80000da0:	86313f97          	auipc	x31,0x86313
    80000da4:	03685e3b          	divuw	x28,x16,x22
    80000da8:	00b01db3          	sll	x27,x0,x11
    80000dac:	026d5cb3          	divu	x25,x26,x6
    80000db0:	00e350b3          	srl	x1,x6,x14
    80000db4:	027b38b3          	mulhu	x17,x22,x7
    80000db8:	78c7b413          	sltiu	x8,x15,1932
    80000dbc:	03e51b33          	mulh	x22,x10,x30
    80000dc0:	01b67733          	and	x14,x12,x27
    80000dc4:	02ad6cbb          	remw	x25,x26,x10
    80000dc8:	41e18ab3          	sub	x21,x3,x30
    80000dcc:	034a75b3          	remu	x11,x20,x20
    80000dd0:	404f83b3          	sub	x7,x31,x4
    80000dd4:	020fe433          	rem	x8,x31,x0
    80000dd8:	bd855217          	auipc	x4,0xbd855
    80000ddc:	0232ecbb          	remw	x25,x5,x3
    80000de0:	01bc06bb          	addw	x13,x24,x27
    80000de4:	03ee9733          	mulh	x14,x29,x30
    80000de8:	6c89c513          	xori	x10,x19,1736
    80000dec:	02fdddbb          	divuw	x27,x27,x15
    80000df0:	e1ba8237          	lui	x4,0xe1ba8
    80000df4:	038b95b3          	mulh	x11,x23,x24
    80000df8:	43ef5393          	srai	x7,x30,0x3e
    80000dfc:	025ad2b3          	divu	x5,x21,x5
    80000e00:	409d863b          	subw	x12,x27,x9
    80000e04:	03221333          	mulh	x6,x4,x18
    80000e08:	401f043b          	subw	x8,x30,x1
    80000e0c:	0369ce33          	div	x28,x19,x22
    80000e10:	006b971b          	slliw	x14,x23,0x6
    80000e14:	03349933          	mulh	x18,x9,x19
    80000e18:	161c8f93          	addi	x31,x25,353 # 2d769161 <_start-0x52896e9f>
    80000e1c:	03947eb3          	remu	x29,x8,x25
    80000e20:	01b9fc33          	and	x24,x19,x27
    80000e24:	0353e2b3          	rem	x5,x7,x21
    80000e28:	00a99e1b          	slliw	x28,x19,0xa
    80000e2c:	028afab3          	remu	x21,x21,x8
    80000e30:	24ecc213          	xori	x4,x25,590
    80000e34:	03bfd33b          	divuw	x6,x31,x27
    80000e38:	003113b3          	sll	x7,x2,x3
    80000e3c:	0375c1b3          	div	x3,x11,x23
    80000e40:	d6f64b17          	auipc	x22,0xd6f64
    80000e44:	02510d33          	mul	x26,x2,x5
    80000e48:	aa6c46b7          	lui	x13,0xaa6c4
    80000e4c:	02e7cbb3          	div	x23,x15,x14
    80000e50:	3653ea93          	ori	x21,x7,869
    80000e54:	03b9f13b          	remuw	x2,x19,x27
    80000e58:	36894f93          	xori	x31,x18,872
    80000e5c:	020f75b3          	remu	x11,x30,x0
    80000e60:	42229a17          	auipc	x20,0x42229
    80000e64:	035ce63b          	remw	x12,x25,x21
    80000e68:	00933733          	sltu	x14,x6,x9
    80000e6c:	038c18b3          	mulh	x17,x24,x24
    80000e70:	860dbeb7          	lui	x29,0x860db
    80000e74:	02b174bb          	remuw	x9,x2,x11
    80000e78:	0396d013          	srli	x0,x13,0x39
    80000e7c:	03bd8bb3          	mul	x23,x27,x27
    80000e80:	63a9e817          	auipc	x16,0x63a9e
    80000e84:	02a0af33          	mulhsu	x30,x1,x10
    80000e88:	01949c93          	slli	x25,x9,0x19
    80000e8c:	031477b3          	remu	x15,x8,x17
    80000e90:	feac5ab7          	lui	x21,0xfeac5
    80000e94:	0382cfb3          	div	x31,x5,x24
    80000e98:	1bf44513          	xori	x10,x8,447
    80000e9c:	0297503b          	divuw	x0,x14,x9
    80000ea0:	d2136637          	lui	x12,0xd2136
    80000ea4:	024bf2bb          	remuw	x5,x23,x4
    80000ea8:	78edfe13          	andi	x28,x27,1934
    80000eac:	03ec73b3          	remu	x7,x24,x30
    80000eb0:	df6aaf97          	auipc	x31,0xdf6aa
    80000eb4:	023a66b3          	rem	x13,x20,x3
    80000eb8:	41085d93          	srai	x27,x16,0x10
    80000ebc:	032e1033          	mulh	x0,x28,x18
    80000ec0:	40888b3b          	subw	x22,x17,x8
    80000ec4:	024d6bb3          	rem	x23,x26,x4
    80000ec8:	97b8ac37          	lui	x24,0x97b8a
    80000ecc:	0295433b          	divw	x6,x10,x9
    80000ed0:	419c8933          	sub	x18,x25,x25
    80000ed4:	02025033          	divu	x0,x4,x0
    80000ed8:	73c67e13          	andi	x28,x12,1852
    80000edc:	0386b4b3          	mulhu	x9,x13,x24
    80000ee0:	006a2533          	slt	x10,x20,x6
    80000ee4:	0240f7b3          	remu	x15,x1,x4
    80000ee8:	352d2613          	slti	x12,x26,850
    80000eec:	0341cab3          	div	x21,x3,x20
    80000ef0:	93cf11b7          	lui	x3,0x93cf1
    80000ef4:	03e460bb          	remw	x1,x8,x30
    80000ef8:	00a8939b          	slliw	x7,x17,0xa
    80000efc:	03e5a8b3          	mulhsu	x17,x11,x30
    80000f00:	01ed4933          	xor	x18,x26,x30
    80000f04:	02eac03b          	divw	x0,x21,x14
    80000f08:	1535a213          	slti	x4,x11,339
    80000f0c:	02875e3b          	divuw	x28,x14,x8
    80000f10:	ed1d8497          	auipc	x9,0xed1d8
    80000f14:	0349db3b          	divuw	x22,x19,x20
    80000f18:	0448d7b7          	lui	x15,0x448d
    80000f1c:	027ac73b          	divw	x14,x21,x7
    80000f20:	a0afb997          	auipc	x19,0xa0afb
    80000f24:	03cffc33          	remu	x24,x31,x28
    80000f28:	008d2db3          	slt	x27,x26,x8
    80000f2c:	025e5433          	divu	x8,x28,x5
    80000f30:	05f5c793          	xori	x15,x11,95
    80000f34:	03dad8b3          	divu	x17,x21,x29
    80000f38:	0003fc33          	and	x24,x7,x0
    80000f3c:	033d9833          	mulh	x16,x27,x19
    80000f40:	54e64f13          	xori	x30,x12,1358
    80000f44:	02f0823b          	mulw	x4,x1,x15
    80000f48:	e1b88e17          	auipc	x28,0xe1b88
    80000f4c:	0343d033          	divu	x0,x7,x20
    80000f50:	16732893          	slti	x17,x6,359
    80000f54:	038ce9bb          	remw	x19,x25,x24
    80000f58:	40748b3b          	subw	x22,x9,x7
    80000f5c:	03409733          	mulh	x14,x1,x20
    80000f60:	0178dd97          	auipc	x27,0x178d
    80000f64:	03e4bab3          	mulhu	x21,x9,x30
    80000f68:	912d8c97          	auipc	x25,0x912d8
    80000f6c:	02b110b3          	mulh	x1,x2,x11
    80000f70:	76e3c697          	auipc	x13,0x76e3c
    80000f74:	033748b3          	div	x17,x14,x19
    80000f78:	012b979b          	slliw	x15,x23,0x12
    80000f7c:	02e2d9bb          	divuw	x19,x5,x14
    80000f80:	01a6573b          	srlw	x14,x12,x26
    80000f84:	03bb7f3b          	remuw	x30,x22,x27
    80000f88:	00ba78b3          	and	x17,x20,x11
    80000f8c:	035ec6b3          	div	x13,x29,x21
    80000f90:	001592bb          	sllw	x5,x11,x1
    80000f94:	02a86833          	rem	x16,x16,x10
    80000f98:	00e5941b          	slliw	x8,x11,0xe
    80000f9c:	02cbe033          	rem	x0,x23,x12
    80000fa0:	11b9bf13          	sltiu	x30,x19,283
    80000fa4:	0363723b          	remuw	x4,x6,x22
    80000fa8:	0283cb93          	xori	x23,x7,40
    80000fac:	02fc593b          	divuw	x18,x24,x15
    80000fb0:	40d5033b          	subw	x6,x10,x13
    80000fb4:	021a75b3          	remu	x11,x20,x1
    80000fb8:	00e1d293          	srli	x5,x3,0xe
    80000fbc:	02cdff33          	remu	x30,x27,x12
    80000fc0:	00f6163b          	sllw	x12,x12,x15
    80000fc4:	029e8ab3          	mul	x21,x29,x9
    80000fc8:	1ea4e117          	auipc	x2,0x1ea4e
    80000fcc:	03dcfbbb          	remuw	x23,x25,x29
    80000fd0:	9e644837          	lui	x16,0x9e644
    80000fd4:	023683bb          	mulw	x7,x13,x3
    80000fd8:	2ed0b0b7          	lui	x1,0x2ed0b
    80000fdc:	02b5d033          	divu	x0,x11,x11
    80000fe0:	0b0b8193          	addi	x3,x23,176 # ffffffffdfb8b0b0 <_start+0xffffffff5fb8b0b0>
    80000fe4:	03fbafb3          	mulhsu	x31,x23,x31
    80000fe8:	0112db93          	srli	x23,x5,0x11
    80000fec:	02698d33          	mul	x26,x19,x6
    80000ff0:	1da12c13          	slti	x24,x2,474
    80000ff4:	02f1beb3          	mulhu	x29,x3,x15
    80000ff8:	f27911b7          	lui	x3,0xf2791
    80000ffc:	0317efbb          	remw	x31,x15,x17
    80001000:	4049533b          	sraw	x6,x18,x4
    80001004:	0396af33          	mulhsu	x30,x13,x25
    80001008:	11f7f137          	lui	x2,0x11f7f
    8000100c:	0244e9bb          	remw	x19,x9,x4
    80001010:	0126973b          	sllw	x14,x13,x18
    80001014:	035cda33          	divu	x20,x25,x21
    80001018:	4164053b          	subw	x10,x8,x22
    8000101c:	0372613b          	remw	x2,x4,x23
    80001020:	91373d97          	auipc	x27,0x91373
    80001024:	0206d933          	divu	x18,x13,x0
    80001028:	35a48293          	addi	x5,x9,858 # 6d1d926a <_start-0x12e26d96>
    8000102c:	0243d33b          	divuw	x6,x7,x4
    80001030:	4068cc17          	auipc	x24,0x4068c
    80001034:	024f4533          	div	x10,x30,x4
    80001038:	52d73c93          	sltiu	x25,x14,1325
    8000103c:	0321bb33          	mulhu	x22,x3,x18
    80001040:	80ac2ab7          	lui	x21,0x80ac2
    80001044:	023bd333          	divu	x6,x23,x3
    80001048:	00c45d33          	srl	x26,x8,x12
    8000104c:	023e76bb          	remuw	x13,x28,x3
    80001050:	b6bdd997          	auipc	x19,0xb6bdd
    80001054:	02858bb3          	mul	x23,x11,x8
    80001058:	d79e5e37          	lui	x28,0xd79e5
    8000105c:	03dd843b          	mulw	x8,x27,x29
    80001060:	448d6093          	ori	x1,x26,1096
    80001064:	036661bb          	remw	x3,x12,x22
    80001068:	88889db7          	lui	x27,0x88889
    8000106c:	03ff3bb3          	mulhu	x23,x30,x31
    80001070:	01e6c533          	xor	x10,x13,x30
    80001074:	02620b3b          	mulw	x22,x4,x6
    80001078:	25dcdfb7          	lui	x31,0x25dcd
    8000107c:	039ee4b3          	rem	x9,x29,x25
    80001080:	00000433          	add	x8,x0,x0
    80001084:	02c2fabb          	remuw	x21,x5,x12
    80001088:	019a1393          	slli	x7,x20,0x19
    8000108c:	03ca0c33          	mul	x24,x20,x28
    80001090:	039cd993          	srli	x19,x25,0x39
    80001094:	03e5cb3b          	divw	x22,x11,x30
    80001098:	088cb197          	auipc	x3,0x88cb
    8000109c:	03036633          	rem	x12,x6,x16
    800010a0:	018ddc9b          	srliw	x25,x27,0x18
    800010a4:	03807abb          	remuw	x21,x0,x24
    800010a8:	69d88d9b          	addiw	x27,x17,1693 # 7b6c269d <_start-0x493d963>
    800010ac:	0242f6bb          	remuw	x13,x5,x4
    800010b0:	41e7863b          	subw	x12,x15,x30
    800010b4:	03abed3b          	remw	x26,x23,x26
    800010b8:	288c6113          	ori	x2,x24,648
    800010bc:	03b5403b          	divw	x0,x10,x27
    800010c0:	2d252313          	slti	x6,x10,722
    800010c4:	0379e5b3          	rem	x11,x19,x23
    800010c8:	d9438a97          	auipc	x21,0xd9438
    800010cc:	02a278b3          	remu	x17,x4,x10
    800010d0:	01b484bb          	addw	x9,x9,x27
    800010d4:	033bc733          	div	x14,x23,x19
    800010d8:	0199dc13          	srli	x24,x19,0x19
    800010dc:	037de433          	rem	x8,x27,x23
    800010e0:	d438f037          	lui	x0,0xd438f
    800010e4:	02ae81bb          	mulw	x3,x29,x10
    800010e8:	012090bb          	sllw	x1,x1,x18
    800010ec:	03585ebb          	divuw	x29,x16,x21
    800010f0:	e3ca8997          	auipc	x19,0xe3ca8
    800010f4:	039d0d3b          	mulw	x26,x26,x25
    800010f8:	0ccb7e37          	lui	x28,0xccb7
    800010fc:	029345bb          	divw	x11,x6,x9
    80001100:	31dd93b7          	lui	x7,0x31dd9
    80001104:	030aaeb3          	mulhsu	x29,x21,x16
    80001108:	01f648b3          	xor	x17,x12,x31
    8000110c:	024cffb3          	remu	x31,x25,x4
    80001110:	aeaa0817          	auipc	x16,0xaeaa0
    80001114:	03bce93b          	remw	x18,x25,x27
    80001118:	4105d09b          	sraiw	x1,x11,0x10
    8000111c:	037a6eb3          	rem	x29,x20,x23
    80001120:	41328533          	sub	x10,x5,x19
    80001124:	02c1a2b3          	mulhsu	x5,x3,x12
    80001128:	78890013          	addi	x0,x18,1928 # e7711440 <_start+0x67711440>
    8000112c:	02299ab3          	mulh	x21,x19,x2
    80001130:	008b189b          	slliw	x17,x22,0x8
    80001134:	02b1c53b          	divw	x10,x3,x11
    80001138:	bdc20837          	lui	x16,0xbdc20
    8000113c:	023185b3          	mul	x11,x3,x3
    80001140:	0194d1b3          	srl	x3,x9,x25
    80001144:	02674b33          	div	x22,x14,x6
    80001148:	01991e1b          	slliw	x28,x18,0x19
    8000114c:	0223ebb3          	rem	x23,x7,x2
    80001150:	dd272817          	auipc	x16,0xdd272
    80001154:	024657bb          	divuw	x15,x12,x4
    80001158:	d9211db7          	lui	x27,0xd9211
    8000115c:	02835e3b          	divuw	x28,x6,x8
    80001160:	4147521b          	sraiw	x4,x14,0x14
    80001164:	03ded533          	divu	x10,x29,x29
    80001168:	5314f417          	auipc	x8,0x5314f
    8000116c:	02dcf2b3          	remu	x5,x25,x13
    80001170:	0381d313          	srli	x6,x3,0x38
    80001174:	0223e73b          	remw	x14,x7,x2
    80001178:	00f583bb          	addw	x7,x11,x15
    8000117c:	0231dd3b          	divuw	x26,x3,x3
    80001180:	a7cdbe17          	auipc	x28,0xa7cdb
    80001184:	03bfc5b3          	div	x11,x31,x27
    80001188:	4d6b4b93          	xori	x23,x22,1238
    8000118c:	03f2d2bb          	divuw	x5,x5,x31
    80001190:	002448b3          	xor	x17,x8,x2
    80001194:	03a4e9bb          	remw	x19,x9,x26
    80001198:	16dd8693          	addi	x13,x27,365 # ffffffffd921116d <_start+0xffffffff5921116d>
    8000119c:	03996833          	rem	x16,x18,x25
    800011a0:	0070d21b          	srliw	x4,x1,0x7
    800011a4:	03e1ac33          	mulhsu	x24,x3,x30
    800011a8:	29e6a537          	lui	x10,0x29e6a
    800011ac:	0271cabb          	divw	x21,x3,x7
    800011b0:	41efd5bb          	sraw	x11,x31,x30
    800011b4:	030962b3          	rem	x5,x18,x16
    800011b8:	0186fe33          	and	x28,x13,x24
    800011bc:	02eeabb3          	mulhsu	x23,x29,x14
    800011c0:	2bdd4337          	lui	x6,0x2bdd4
    800011c4:	03e93b33          	mulhu	x22,x18,x30
    800011c8:	2e7cbf97          	auipc	x31,0x2e7cb
    800011cc:	03c758b3          	divu	x17,x14,x28
    800011d0:	1cce5e17          	auipc	x28,0x1cce5
    800011d4:	02f2a5b3          	mulhsu	x11,x5,x15
    800011d8:	70a24113          	xori	x2,x4,1802
    800011dc:	03b6e233          	rem	x4,x13,x27
    800011e0:	33032693          	slti	x13,x6,816
    800011e4:	02eabbb3          	mulhu	x23,x21,x14
    800011e8:	01562fb3          	slt	x31,x12,x21
    800011ec:	0328df3b          	divuw	x30,x17,x18
    800011f0:	409d543b          	sraw	x8,x26,x9
    800011f4:	034b0a33          	mul	x20,x22,x20
    800011f8:	1c38e313          	ori	x6,x17,451
    800011fc:	0232c833          	div	x16,x5,x3
    80001200:	0309d993          	srli	x19,x19,0x30
    80001204:	03dbe5b3          	rem	x11,x23,x29
    80001208:	fd1fd637          	lui	x12,0xfd1fd
    8000120c:	03bdaa33          	mulhsu	x20,x27,x27
    80001210:	008ed89b          	srliw	x17,x29,0x8
    80001214:	03fa8133          	mul	x2,x21,x31
    80001218:	1c0fbe13          	sltiu	x28,x31,448
    8000121c:	038505b3          	mul	x11,x10,x24
    80001220:	403c519b          	sraiw	x3,x24,0x3
    80001224:	027d74bb          	remuw	x9,x26,x7
    80001228:	bc7f5b97          	auipc	x23,0xbc7f5
    8000122c:	03b7e3b3          	rem	x7,x15,x27
    80001230:	01e50d9b          	addiw	x27,x10,30 # 29e6a01e <_start-0x56195fe2>
    80001234:	02f07d33          	remu	x26,x0,x15
    80001238:	4081531b          	sraiw	x6,x2,0x8
    8000123c:	02ae763b          	remuw	x12,x28,x10
    80001240:	d3a28597          	auipc	x11,0xd3a28
    80001244:	029ef6b3          	remu	x13,x29,x9
    80001248:	01d9553b          	srlw	x10,x18,x29
    8000124c:	0398073b          	mulw	x14,x16,x25
    80001250:	8f85ce17          	auipc	x28,0x8f85c
    80001254:	03e3603b          	remw	x0,x6,x30
    80001258:	00f5adb3          	slt	x27,x11,x15
    8000125c:	03ececb3          	rem	x25,x25,x30
    80001260:	00784333          	xor	x6,x16,x7
    80001264:	02342ab3          	mulhsu	x21,x8,x3
    80001268:	5eb2b9b7          	lui	x19,0x5eb2b
    8000126c:	0301d83b          	divuw	x16,x3,x16
    80001270:	00619293          	slli	x5,x3,0x6
    80001274:	03bd00bb          	mulw	x1,x26,x27
    80001278:	406ddd9b          	sraiw	x27,x27,0x6
    8000127c:	0353433b          	divw	x6,x6,x21
    80001280:	0067171b          	slliw	x14,x14,0x6
    80001284:	025917b3          	mulh	x15,x18,x5
    80001288:	72932b37          	lui	x22,0x72932
    8000128c:	031afbbb          	remuw	x23,x21,x17
    80001290:	00d271b3          	and	x3,x4,x13
    80001294:	03a39db3          	mulh	x27,x7,x26
    80001298:	4684bc93          	sltiu	x25,x9,1128
    8000129c:	0265fb3b          	remuw	x22,x11,x6
    800012a0:	33388917          	auipc	x18,0x33388
    800012a4:	0206713b          	remuw	x2,x12,x0
    800012a8:	3f874593          	xori	x11,x14,1016
    800012ac:	0357f63b          	remuw	x12,x15,x21
    800012b0:	7e49f193          	andi	x3,x19,2020
    800012b4:	03f844b3          	div	x9,x16,x31
    800012b8:	006707b3          	add	x15,x14,x6
    800012bc:	03251ab3          	mulh	x21,x10,x18
    800012c0:	40abde9b          	sraiw	x29,x23,0xa
    800012c4:	0349ad33          	mulhsu	x26,x19,x20
    800012c8:	229d6f97          	auipc	x31,0x229d6
    800012cc:	028e763b          	remuw	x12,x28,x8
    800012d0:	cf179017          	auipc	x0,0xcf179
    800012d4:	03c80e33          	mul	x28,x16,x28
    800012d8:	4cfebd93          	sltiu	x27,x29,1231
    800012dc:	025ad533          	divu	x10,x21,x5
    800012e0:	a6377097          	auipc	x1,0xa6377
    800012e4:	020ea7b3          	mulhsu	x15,x29,x0
    800012e8:	50376ab7          	lui	x21,0x50376
    800012ec:	03cf9833          	mulh	x16,x31,x28
    800012f0:	01efd8bb          	srlw	x17,x31,x30
    800012f4:	024e0c3b          	mulw	x24,x28,x4
    800012f8:	b81a9217          	auipc	x4,0xb81a9
    800012fc:	022f433b          	divw	x6,x30,x2
    80001300:	7a744193          	xori	x3,x8,1959
    80001304:	029befbb          	remw	x31,x23,x9
    80001308:	4157df1b          	sraiw	x30,x15,0x15
    8000130c:	02aa46b3          	div	x13,x20,x10
    80001310:	e43c8537          	lui	x10,0xe43c8
    80001314:	03a3eeb3          	rem	x29,x7,x26
    80001318:	412058b3          	sra	x17,x0,x18
    8000131c:	03974d3b          	divw	x26,x14,x25
    80001320:	b2a1aa37          	lui	x20,0xb2a1a
    80001324:	0252ce33          	div	x28,x5,x5
    80001328:	41d35433          	sra	x8,x6,x29
    8000132c:	02dc9633          	mulh	x12,x25,x13
    80001330:	2ae4ee93          	ori	x29,x9,686
    80001334:	03ebe033          	rem	x0,x23,x30
    80001338:	14083793          	sltiu	x15,x16,320
    8000133c:	028a9c33          	mulh	x24,x21,x8
    80001340:	41a583b3          	sub	x7,x11,x26
    80001344:	036d7a33          	remu	x20,x26,x22
    80001348:	40aed29b          	sraiw	x5,x29,0xa
    8000134c:	036afb3b          	remuw	x22,x21,x22
    80001350:	01b55e13          	srli	x28,x10,0x1b
    80001354:	022800bb          	mulw	x1,x16,x2
    80001358:	00ca911b          	slliw	x2,x21,0xc
    8000135c:	038da8b3          	mulhsu	x17,x27,x24
    80001360:	40bad593          	srai	x11,x21,0xb
    80001364:	035fa733          	mulhsu	x14,x31,x21
    80001368:	4f4c061b          	addiw	x12,x24,1268 # ffffffffc068d524 <_start+0xffffffff4068d524>
    8000136c:	03638ebb          	mulw	x29,x7,x22
    80001370:	d3417ab7          	lui	x21,0xd3417
    80001374:	02855133          	divu	x2,x10,x8
    80001378:	4c559537          	lui	x10,0x4c559
    8000137c:	020d50b3          	divu	x1,x26,x0
    80001380:	00079f33          	sll	x30,x15,x0
    80001384:	030ee4b3          	rem	x9,x29,x16
    80001388:	000ea633          	slt	x12,x29,x0
    8000138c:	031aacb3          	mulhsu	x25,x21,x17
    80001390:	400d8b33          	sub	x22,x27,x0
    80001394:	022ed0bb          	divuw	x1,x29,x2
    80001398:	016a9713          	slli	x14,x21,0x16
    8000139c:	033be43b          	remw	x8,x23,x19
    800013a0:	64f10f93          	addi	x31,x2,1615 # 11f7f64f <_start-0x6e0809b1>
    800013a4:	0265eeb3          	rem	x29,x11,x6
    800013a8:	a33febb7          	lui	x23,0xa33fe
    800013ac:	0268d73b          	divuw	x14,x17,x6
    800013b0:	007a15bb          	sllw	x11,x20,x7
    800013b4:	0317d0bb          	divuw	x1,x15,x17
    800013b8:	01ef5133          	srl	x2,x30,x30
    800013bc:	03b936b3          	mulhu	x13,x18,x27
    800013c0:	0924041b          	addiw	x8,x8,146 # ffffffffd31501fa <_start+0xffffffff531501fa>
    800013c4:	03c632b3          	mulhu	x5,x12,x28
    800013c8:	9c084d97          	auipc	x27,0x9c084
    800013cc:	0353723b          	remuw	x4,x6,x21
    800013d0:	40f085bb          	subw	x11,x1,x15
    800013d4:	03c1febb          	remuw	x29,x3,x28
    800013d8:	00689fbb          	sllw	x31,x17,x6
    800013dc:	028df73b          	remuw	x14,x27,x8
    800013e0:	e2977217          	auipc	x4,0xe2977
    800013e4:	02ce4c3b          	divw	x24,x28,x12
    800013e8:	00e91a9b          	slliw	x21,x18,0xe
    800013ec:	0316b933          	mulhu	x18,x13,x17
    800013f0:	1c610d9b          	addiw	x27,x2,454
    800013f4:	0204a2b3          	mulhsu	x5,x9,x0
    800013f8:	5c01d237          	lui	x4,0x5c01d
    800013fc:	020507bb          	mulw	x15,x10,x0
    80001400:	6ead50b7          	lui	x1,0x6ead5
    80001404:	037ce93b          	remw	x18,x25,x23
    80001408:	1eb47f97          	auipc	x31,0x1eb47
    8000140c:	029af43b          	remuw	x8,x21,x9
    80001410:	44a27c13          	andi	x24,x4,1098
    80001414:	02aef633          	remu	x12,x29,x10
    80001418:	5bf1ec93          	ori	x25,x3,1471
    8000141c:	0275c333          	div	x6,x11,x7
    80001420:	60ebc393          	xori	x7,x23,1550
    80001424:	03851a33          	mulh	x20,x10,x24
    80001428:	0b307713          	andi	x14,x0,179
    8000142c:	023c883b          	mulw	x16,x25,x3
    80001430:	99e8c9b7          	lui	x19,0x99e8c
    80001434:	0321e13b          	remw	x2,x3,x18
    80001438:	4b786317          	auipc	x6,0x4b786
    8000143c:	03b5f23b          	remuw	x4,x11,x27
    80001440:	0124163b          	sllw	x12,x8,x18
    80001444:	035fc533          	div	x10,x31,x21
    80001448:	413154b3          	sra	x9,x2,x19
    8000144c:	0317f3bb          	remuw	x7,x15,x17
    80001450:	47e9f197          	auipc	x3,0x47e9f
    80001454:	02fc7f33          	remu	x30,x24,x15
    80001458:	011dc133          	xor	x2,x27,x17
    8000145c:	02d96db3          	rem	x27,x18,x13
    80001460:	00b378b3          	and	x17,x6,x11
    80001464:	03cc0733          	mul	x14,x24,x28
    80001468:	00835a93          	srli	x21,x6,0x8
    8000146c:	02cff1bb          	remuw	x3,x31,x12
    80001470:	6ce26c13          	ori	x24,x4,1742
    80001474:	03355a3b          	divuw	x20,x10,x19
    80001478:	6996809b          	addiw	x1,x13,1689 # fffffffff6e3d609 <_start+0xffffffff76e3d609>
    8000147c:	03c486bb          	mulw	x13,x9,x28
    80001480:	1bbbbb93          	sltiu	x23,x23,443
    80001484:	025b19b3          	mulh	x19,x22,x5
    80001488:	7e0ee897          	auipc	x17,0x7e0ee
    8000148c:	03626e33          	rem	x28,x4,x22
    80001490:	405552bb          	sraw	x5,x10,x5
    80001494:	020ffc3b          	remuw	x24,x31,x0
    80001498:	a106a1b7          	lui	x3,0xa106a
    8000149c:	03a244bb          	divw	x9,x4,x26
    800014a0:	41b25a3b          	sraw	x20,x4,x27
    800014a4:	036958bb          	divuw	x17,x18,x22
    800014a8:	40c5d93b          	sraw	x18,x11,x12
    800014ac:	0213413b          	divw	x2,x6,x1
    800014b0:	4134d6bb          	sraw	x13,x9,x19
    800014b4:	036465bb          	remw	x11,x8,x22
    800014b8:	21fe9d97          	auipc	x27,0x21fe9
    800014bc:	03d8ff3b          	remuw	x30,x17,x29
    800014c0:	70718b93          	addi	x23,x3,1799 # ffffffffa106a707 <_start+0xffffffff2106a707>
    800014c4:	02ad643b          	remw	x8,x26,x10
    800014c8:	afc0c017          	auipc	x0,0xafc0c
    800014cc:	029b663b          	remw	x12,x22,x9
    800014d0:	c019d717          	auipc	x14,0xc019d
    800014d4:	038830b3          	mulhu	x1,x16,x24
    800014d8:	01d835b3          	sltu	x11,x16,x29
    800014dc:	03fac03b          	divw	x0,x21,x31
    800014e0:	24b8f113          	andi	x2,x17,587
    800014e4:	02439f33          	mulh	x30,x7,x4
    800014e8:	40865a3b          	sraw	x20,x12,x8
    800014ec:	0296fbbb          	remuw	x23,x13,x9
    800014f0:	41840db3          	sub	x27,x8,x24
    800014f4:	035ae533          	rem	x10,x21,x21
    800014f8:	002054b3          	srl	x9,x0,x2
    800014fc:	02eb7433          	remu	x8,x22,x14
    80001500:	02c8bd13          	sltiu	x26,x17,44
    80001504:	02502fb3          	mulhsu	x31,x0,x5
    80001508:	00d150b3          	srl	x1,x2,x13
    8000150c:	029bf13b          	remuw	x2,x23,x9
    80001510:	02f5d513          	srli	x10,x11,0x2f
    80001514:	02da6bbb          	remw	x23,x20,x13
    80001518:	01691d3b          	sllw	x26,x18,x22
    8000151c:	03cf0f3b          	mulw	x30,x30,x28
    80001520:	368cc213          	xori	x4,x25,872
    80001524:	0232b1b3          	mulhu	x3,x5,x3
    80001528:	6f01099b          	addiw	x19,x2,1776
    8000152c:	02e87bb3          	remu	x23,x16,x14
    80001530:	014e5b1b          	srliw	x22,x28,0x14
    80001534:	0253e8bb          	remw	x17,x7,x5
    80001538:	0194f933          	and	x18,x9,x25
    8000153c:	03c86ab3          	rem	x21,x16,x28
    80001540:	01fa5a13          	srli	x20,x20,0x1f
    80001544:	0399e433          	rem	x8,x19,x25
    80001548:	a0c4bf37          	lui	x30,0xa0c4b
    8000154c:	0394ccbb          	divw	x25,x9,x25
    80001550:	0037f7b3          	and	x15,x15,x3
    80001554:	02b54ebb          	divw	x29,x10,x11
    80001558:	41f68bb3          	sub	x23,x13,x31
    8000155c:	03c05d33          	divu	x26,x0,x28
    80001560:	006f551b          	srliw	x10,x30,0x6
    80001564:	0369833b          	mulw	x6,x19,x22
    80001568:	00b00033          	add	x0,x0,x11
    8000156c:	033268bb          	remw	x17,x4,x19
    80001570:	41b9d0bb          	sraw	x1,x19,x27
    80001574:	034fb5b3          	mulhu	x11,x31,x20
    80001578:	cd820417          	auipc	x8,0xcd820
    8000157c:	02c9c93b          	divw	x18,x19,x12
    80001580:	96bcae37          	lui	x28,0x96bca
    80001584:	022c9633          	mulh	x12,x25,x2
    80001588:	02c49813          	slli	x16,x9,0x2c
    8000158c:	03ac4b33          	div	x22,x24,x26
    80001590:	01d9d29b          	srliw	x5,x19,0x1d
    80001594:	023974b3          	remu	x9,x18,x3
    80001598:	003a131b          	slliw	x6,x20,0x3
    8000159c:	03f775bb          	remuw	x11,x14,x31
    800015a0:	c48d9097          	auipc	x1,0xc48d9
    800015a4:	02d3d73b          	divuw	x14,x7,x13
    800015a8:	9b0ddab7          	lui	x21,0x9b0dd
    800015ac:	037e54b3          	divu	x9,x28,x23
    800015b0:	00df01bb          	addw	x3,x30,x13
    800015b4:	03e88eb3          	mul	x29,x17,x30
    800015b8:	00bb46b3          	xor	x13,x22,x11
    800015bc:	0209653b          	remw	x10,x18,x0
    800015c0:	b1f68437          	lui	x8,0xb1f68
    800015c4:	037fb1b3          	mulhu	x3,x31,x23
    800015c8:	030e9913          	slli	x18,x29,0x30
    800015cc:	03ebdfbb          	divuw	x31,x23,x30
    800015d0:	033c7013          	andi	x0,x24,51
    800015d4:	03947533          	remu	x10,x8,x25
    800015d8:	033cd213          	srli	x4,x25,0x33
    800015dc:	0255813b          	mulw	x2,x11,x5
    800015e0:	6c560093          	addi	x1,x12,1733 # fffffffffd1fd6c5 <_start+0xffffffff7d1fd6c5>
    800015e4:	03ee0cbb          	mulw	x25,x28,x30
    800015e8:	00d2feb3          	and	x29,x5,x13
    800015ec:	02a67a33          	remu	x20,x12,x10
    800015f0:	79e5b137          	lui	x2,0x79e5b
    800015f4:	020c78b3          	remu	x17,x24,x0
    800015f8:	0015d6bb          	srlw	x13,x11,x1
    800015fc:	03bd03bb          	mulw	x7,x26,x27
    80001600:	42805493          	srai	x9,x0,0x28
    80001604:	028d2eb3          	mulhsu	x29,x26,x8
    80001608:	01092a33          	slt	x20,x18,x16
    8000160c:	02552833          	mulhsu	x16,x10,x5
    80001610:	57757c13          	andi	x24,x10,1399
    80001614:	02c3d43b          	divuw	x8,x7,x12
    80001618:	19ae0f93          	addi	x31,x28,410 # ffffffff96bca19a <_start+0xffffffff16bca19a>
    8000161c:	0345aab3          	mulhsu	x21,x11,x20
    80001620:	29ae0093          	addi	x1,x28,666
    80001624:	0251c2bb          	divw	x5,x3,x5
    80001628:	4317d393          	srai	x7,x15,0x31
    8000162c:	02e60733          	mul	x14,x12,x14
    80001630:	0165103b          	sllw	x0,x10,x22
    80001634:	03ce07b3          	mul	x15,x28,x28
    80001638:	bdee0197          	auipc	x3,0xbdee0
    8000163c:	0288d233          	divu	x4,x17,x8
    80001640:	4cf5de97          	auipc	x29,0x4cf5d
    80001644:	0279bf33          	mulhu	x30,x19,x7
    80001648:	01b94e33          	xor	x28,x18,x27
    8000164c:	033995b3          	mulh	x11,x19,x19
    80001650:	0141da33          	srl	x20,x3,x20
    80001654:	02f42633          	mulhsu	x12,x8,x15
    80001658:	ca37e297          	auipc	x5,0xca37e
    8000165c:	02d1e733          	rem	x14,x3,x13
    80001660:	2deeef93          	ori	x31,x29,734
    80001664:	022dd8b3          	divu	x17,x27,x2
    80001668:	b4221497          	auipc	x9,0xb4221
    8000166c:	026327b3          	mulhsu	x15,x6,x6
    80001670:	6d4b081b          	addiw	x16,x22,1748 # 729326d4 <_start-0xd6cd92c>
    80001674:	03ab5ebb          	divuw	x29,x22,x26
    80001678:	4086501b          	sraiw	x0,x12,0x8
    8000167c:	035708b3          	mul	x17,x14,x21
    80001680:	33050693          	addi	x13,x10,816 # 4c559330 <_start-0x33aa6cd0>
    80001684:	039fe0b3          	rem	x1,x31,x25
    80001688:	013be7b3          	or	x15,x23,x19
    8000168c:	02e87bb3          	remu	x23,x16,x14
    80001690:	5a236537          	lui	x10,0x5a236
    80001694:	02cf2fb3          	mulhsu	x31,x30,x12
    80001698:	41485a93          	srai	x21,x16,0x14
    8000169c:	0276cf3b          	divw	x30,x13,x7
    800016a0:	00f04433          	xor	x8,x0,x15
    800016a4:	0305fd3b          	remuw	x26,x11,x16
    800016a8:	0ea05537          	lui	x10,0xea05
    800016ac:	02927c33          	remu	x24,x4,x9
    800016b0:	497ff013          	andi	x0,x31,1175
    800016b4:	028dc7bb          	divw	x15,x27,x8
    800016b8:	630ecf93          	xori	x31,x29,1584
    800016bc:	03a4af33          	mulhsu	x30,x9,x26
    800016c0:	00799db3          	sll	x27,x19,x7
    800016c4:	0336723b          	remuw	x4,x12,x19
    800016c8:	00c85c3b          	srlw	x24,x16,x12
    800016cc:	037a583b          	divuw	x16,x20,x23
    800016d0:	656a8d13          	addi	x26,x21,1622 # ffffffff9b0dd656 <_start+0xffffffff1b0dd656>
    800016d4:	02c75f3b          	divuw	x30,x14,x12
    800016d8:	ff59e4b7          	lui	x9,0xff59e
    800016dc:	035c46b3          	div	x13,x24,x21
    800016e0:	40c85e9b          	sraiw	x29,x16,0xc
    800016e4:	03a8e2bb          	remw	x5,x17,x26
    800016e8:	d1f14d37          	lui	x26,0xd1f14
    800016ec:	03853933          	mulhu	x18,x10,x24
    800016f0:	8a63f537          	lui	x10,0x8a63f
    800016f4:	027e2233          	mulhsu	x4,x28,x7
    800016f8:	b1b78337          	lui	x6,0xb1b78
    800016fc:	036b3fb3          	mulhu	x31,x22,x22
    80001700:	40928193          	addi	x3,x5,1033 # 4a37fa61 <_start-0x35c8059f>
    80001704:	0286463b          	divw	x12,x12,x8
    80001708:	5f0eea93          	ori	x21,x29,1520
    8000170c:	02b497b3          	mulh	x15,x9,x11
    80001710:	01899a33          	sll	x20,x19,x24
    80001714:	0331cfb3          	div	x31,x3,x19
    80001718:	00a010bb          	sllw	x1,x0,x10
    8000171c:	031b673b          	remw	x14,x22,x17
    80001720:	d9ba9237          	lui	x4,0xd9ba9
    80001724:	0351ec33          	rem	x24,x3,x21
    80001728:	4cee7d97          	auipc	x27,0x4cee7
    8000172c:	02d28033          	mul	x0,x5,x13
    80001730:	ab76c6b7          	lui	x13,0xab76c
    80001734:	03ef0a3b          	mulw	x20,x30,x30
    80001738:	404c89bb          	subw	x19,x25,x4
    8000173c:	027a9bb3          	mulh	x23,x21,x7
    80001740:	67097c13          	andi	x24,x18,1648
    80001744:	021120b3          	mulhsu	x1,x2,x1
    80001748:	014703bb          	addw	x7,x14,x20
    8000174c:	02f26b3b          	remw	x22,x4,x15
    80001750:	23227193          	andi	x3,x4,562
    80001754:	03bcc533          	div	x10,x25,x27
    80001758:	6f67cf93          	xori	x31,x15,1782
    8000175c:	0203bf33          	mulhu	x30,x7,x0
    80001760:	01bc77b3          	and	x15,x24,x27
    80001764:	03b1b933          	mulhu	x18,x3,x27
    80001768:	01db0ebb          	addw	x29,x22,x29
    8000176c:	0278d433          	divu	x8,x17,x7
    80001770:	1a310ab7          	lui	x21,0x1a310
    80001774:	0291cc3b          	divw	x24,x3,x9
    80001778:	132bde37          	lui	x28,0x132bd
    8000177c:	023595b3          	mulh	x11,x11,x3
    80001780:	01f3f1b3          	and	x3,x7,x31
    80001784:	034ef53b          	remuw	x10,x29,x20
    80001788:	26392793          	slti	x15,x18,611
    8000178c:	0282d433          	divu	x8,x5,x8
    80001790:	0ddb0d13          	addi	x26,x22,221
    80001794:	034a7933          	remu	x18,x20,x20
    80001798:	01b39f93          	slli	x31,x7,0x1b
    8000179c:	02b1cebb          	divw	x29,x3,x11
    800017a0:	01c1d49b          	srliw	x9,x3,0x1c
    800017a4:	030b7333          	remu	x6,x22,x16
    800017a8:	e7c8c397          	auipc	x7,0xe7c8c
    800017ac:	028b52bb          	divuw	x5,x22,x8
    800017b0:	40c887bb          	subw	x15,x17,x12
    800017b4:	03b26433          	rem	x8,x4,x27
    800017b8:	01d1b9b3          	sltu	x19,x3,x29
    800017bc:	0396bbb3          	mulhu	x23,x13,x25
    800017c0:	01057033          	and	x0,x10,x16
    800017c4:	02b4b733          	mulhu	x14,x9,x11
    800017c8:	01e600bb          	addw	x1,x12,x30
    800017cc:	03cd8833          	mul	x16,x27,x28
    800017d0:	059c0e9b          	addiw	x29,x24,89
    800017d4:	02f1613b          	remw	x2,x2,x15
    800017d8:	017678b3          	and	x17,x12,x23
    800017dc:	02468a33          	mul	x20,x13,x4
    800017e0:	165ace17          	auipc	x28,0x165ac
    800017e4:	0210f5bb          	remuw	x11,x1,x1
    800017e8:	07204b37          	lui	x22,0x7204
    800017ec:	023bd8bb          	divuw	x17,x23,x3
    800017f0:	006099bb          	sllw	x19,x1,x6
    800017f4:	03e74abb          	divw	x21,x14,x30
    800017f8:	5c81a1b7          	lui	x3,0x5c81a
    800017fc:	03429fb3          	mulh	x31,x5,x20
    80001800:	428b4813          	xori	x16,x22,1064
    80001804:	0320e3b3          	rem	x7,x1,x18
    80001808:	01e12f33          	slt	x30,x2,x30
    8000180c:	0386b233          	mulhu	x4,x13,x24
    80001810:	0094a133          	slt	x2,x9,x9
    80001814:	030372bb          	remuw	x5,x6,x16
    80001818:	0165a833          	slt	x16,x11,x22
    8000181c:	021af4bb          	remuw	x9,x21,x1
    80001820:	4067dcb3          	sra	x25,x15,x6
    80001824:	035de93b          	remw	x18,x27,x21
    80001828:	7ad68513          	addi	x10,x13,1965 # ffffffffab76c7ad <_start+0xffffffff2b76c7ad>
    8000182c:	03bb583b          	divuw	x16,x22,x27
    80001830:	7671ae17          	auipc	x28,0x7671a
    80001834:	034f94b3          	mulh	x9,x31,x20
    80001838:	01af6633          	or	x12,x30,x26
    8000183c:	033fc3b3          	div	x7,x31,x19
    80001840:	c2dd9597          	auipc	x11,0xc2dd9
    80001844:	03e75db3          	divu	x27,x14,x30
    80001848:	31f52513          	slti	x10,x10,799
    8000184c:	03481433          	mulh	x8,x16,x20
    80001850:	76f87313          	andi	x6,x16,1903
    80001854:	02e9b5b3          	mulhu	x11,x19,x14
    80001858:	f3f67b37          	lui	x22,0xf3f67
    8000185c:	0251fcb3          	remu	x25,x3,x5
    80001860:	41d90eb3          	sub	x29,x18,x29
    80001864:	02d04433          	div	x8,x0,x13
    80001868:	535f3037          	lui	x0,0x535f3
    8000186c:	02f7f13b          	remuw	x2,x15,x15
    80001870:	c2777e17          	auipc	x28,0xc2777
    80001874:	038905b3          	mul	x11,x18,x24
    80001878:	003210b3          	sll	x1,x4,x3
    8000187c:	029a2b33          	mulhsu	x22,x20,x9
    80001880:	0087d61b          	srliw	x12,x15,0x8
    80001884:	032e053b          	mulw	x10,x28,x18
    80001888:	0094919b          	slliw	x3,x9,0x9
    8000188c:	025443bb          	divw	x7,x8,x5
    80001890:	0119501b          	srliw	x0,x18,0x11
    80001894:	021a4db3          	div	x27,x20,x1
    80001898:	55fd7e97          	auipc	x29,0x55fd7
    8000189c:	03fb0333          	mul	x6,x22,x31
    800018a0:	40b6d713          	srai	x14,x13,0xb
    800018a4:	030bd033          	divu	x0,x23,x16
    800018a8:	00f534b3          	sltu	x9,x10,x15
    800018ac:	032f88b3          	mul	x17,x31,x18
    800018b0:	6ead3f37          	lui	x30,0x6ead3
    800018b4:	034fd23b          	divuw	x4,x31,x20
    800018b8:	417389b3          	sub	x19,x7,x23
    800018bc:	03affcbb          	remuw	x25,x31,x26
    800018c0:	4095d6bb          	sraw	x13,x11,x9
    800018c4:	021b3db3          	mulhu	x27,x22,x1
    800018c8:	5ef7f117          	auipc	x2,0x5ef7f
    800018cc:	020e1833          	mulh	x16,x28,x0
    800018d0:	deb33497          	auipc	x9,0xdeb33
    800018d4:	033ca0b3          	mulhsu	x1,x25,x19
    800018d8:	32edb893          	sltiu	x17,x27,814
    800018dc:	036acbb3          	div	x23,x21,x22
    800018e0:	5e900413          	addi	x8,x0,1513
    800018e4:	03d8753b          	remuw	x10,x16,x29
    800018e8:	013495b3          	sll	x11,x9,x19
    800018ec:	02225733          	divu	x14,x4,x2
    800018f0:	01e1aab3          	slt	x21,x3,x30
    800018f4:	025261bb          	remw	x3,x4,x5
    800018f8:	80945397          	auipc	x7,0x80945
    800018fc:	02dc66bb          	remw	x13,x24,x13
    80001900:	2056f9b7          	lui	x19,0x2056f
    80001904:	024cd83b          	divuw	x16,x25,x4
    80001908:	0117dd3b          	srlw	x26,x15,x17
    8000190c:	023df13b          	remuw	x2,x27,x3
    80001910:	005baf33          	slt	x30,x23,x5
    80001914:	02e36cb3          	rem	x25,x6,x14
    80001918:	00970633          	add	x12,x14,x9
    8000191c:	0361c2b3          	div	x5,x3,x22
    80001920:	01c5a9b3          	slt	x19,x11,x28
    80001924:	038a43bb          	divw	x7,x20,x24
    80001928:	009f50b3          	srl	x1,x30,x9
    8000192c:	038dfdb3          	remu	x27,x27,x24
    80001930:	414a02bb          	subw	x5,x20,x20
    80001934:	02c48d33          	mul	x26,x9,x12
    80001938:	01216533          	or	x10,x2,x18
    8000193c:	02bcdc33          	divu	x24,x25,x11
    80001940:	62c5d0b7          	lui	x1,0x62c5d
    80001944:	027f45bb          	divw	x11,x30,x7
    80001948:	1596a017          	auipc	x0,0x1596a
    8000194c:	03aa6833          	rem	x16,x20,x26
    80001950:	006cd39b          	srliw	x7,x25,0x6
    80001954:	03f4d8b3          	divu	x17,x9,x31
    80001958:	b552ea17          	auipc	x20,0xb552e
    8000195c:	022dc23b          	divw	x4,x27,x2
    80001960:	157b3cb7          	lui	x25,0x157b3
    80001964:	02de6fb3          	rem	x31,x28,x13
    80001968:	79151397          	auipc	x7,0x79151
    8000196c:	021a4a3b          	divw	x20,x20,x1
    80001970:	8fdbc337          	lui	x6,0x8fdbc
    80001974:	0302af33          	mulhsu	x30,x5,x16
    80001978:	65548113          	addi	x2,x9,1621 # 5eb34f25 <_start-0x214cb0db>
    8000197c:	03bbe7b3          	rem	x15,x23,x27
    80001980:	4ef5bb13          	sltiu	x22,x11,1263
    80001984:	027a50bb          	divuw	x1,x20,x7
    80001988:	39c86717          	auipc	x14,0x39c86
    8000198c:	03aeccbb          	divw	x25,x29,x26
    80001990:	ea656c37          	lui	x24,0xea656
    80001994:	034ad433          	divu	x8,x21,x20
    80001998:	41d6519b          	sraiw	x3,x12,0x1d
    8000199c:	03b5b5b3          	mulhu	x11,x11,x27
    800019a0:	41b1501b          	sraiw	x0,x2,0x1b
    800019a4:	0334b9b3          	mulhu	x19,x9,x19
    800019a8:	0147ddb3          	srl	x27,x15,x20
    800019ac:	0212f333          	remu	x6,x5,x1
    800019b0:	00ffa1b3          	slt	x3,x31,x15
    800019b4:	03a65cbb          	divuw	x25,x12,x26
    800019b8:	571e2a13          	slti	x20,x28,1393
    800019bc:	03a47b33          	remu	x22,x8,x26
    800019c0:	50b5a097          	auipc	x1,0x50b5a
    800019c4:	02a94533          	div	x10,x18,x10
    800019c8:	400a8e3b          	subw	x28,x21,x0
    800019cc:	0311d8bb          	divuw	x17,x3,x17
    800019d0:	bbbc3c17          	auipc	x24,0xbbbc3
    800019d4:	03617ab3          	remu	x21,x2,x22
    800019d8:	d6446db7          	lui	x27,0xd6446
    800019dc:	036775b3          	remu	x11,x14,x22
    800019e0:	41785c9b          	sraiw	x25,x16,0x17
    800019e4:	033b1433          	mulh	x8,x22,x19
    800019e8:	493b821b          	addiw	x4,x23,1171 # ffffffffa33fe493 <_start+0xffffffff233fe493>
    800019ec:	03b3513b          	divuw	x2,x6,x27
    800019f0:	43adda93          	srai	x21,x27,0x3a
    800019f4:	02b97a3b          	remuw	x20,x18,x11
    800019f8:	6f4c0f13          	addi	x30,x24,1780 # 3bbc50c4 <_start-0x4443af3c>
    800019fc:	02175533          	divu	x10,x14,x1
    80001a00:	4070d0bb          	sraw	x1,x1,x7
    80001a04:	023bedb3          	rem	x27,x23,x3
    80001a08:	01aa9893          	slli	x17,x21,0x1a
    80001a0c:	026014b3          	mulh	x9,x0,x6
    80001a10:	09b451b7          	lui	x3,0x9b45
    80001a14:	03c842b3          	div	x5,x16,x28
    80001a18:	380c4513          	xori	x10,x24,896
    80001a1c:	02100cbb          	mulw	x25,x0,x1
    80001a20:	4d9c3697          	auipc	x13,0x4d9c3
    80001a24:	03f0d13b          	divuw	x2,x1,x31
    80001a28:	017090b3          	sll	x1,x1,x23
    80001a2c:	03c7bfb3          	mulhu	x31,x15,x28
    80001a30:	85c29937          	lui	x18,0x85c29
    80001a34:	026a72bb          	remuw	x5,x20,x6
    80001a38:	33567d13          	andi	x26,x12,821
    80001a3c:	03ca8bbb          	mulw	x23,x21,x28
    80001a40:	011993bb          	sllw	x7,x19,x17
    80001a44:	0264c933          	div	x18,x9,x6
    80001a48:	4901f113          	andi	x2,x3,1168
    80001a4c:	02a9e7b3          	rem	x15,x19,x10
    80001a50:	00e6c233          	xor	x4,x13,x14
    80001a54:	03e39f33          	mulh	x30,x7,x30
    80001a58:	02201a13          	slli	x20,x0,0x22
    80001a5c:	03aadd3b          	divuw	x26,x21,x26
    80001a60:	08aa3db7          	lui	x27,0x8aa3
    80001a64:	027000b3          	mul	x1,x0,x7
    80001a68:	2ec08b37          	lui	x22,0x2ec08
    80001a6c:	0227c4b3          	div	x9,x15,x2
    80001a70:	02251413          	slli	x8,x10,0x22
    80001a74:	03bbfabb          	remuw	x21,x23,x27
    80001a78:	413251b3          	sra	x3,x4,x19
    80001a7c:	03d71733          	mulh	x14,x14,x29
    80001a80:	2015d097          	auipc	x1,0x2015d
    80001a84:	02dee5b3          	rem	x11,x29,x13
    80001a88:	fa921337          	lui	x6,0xfa921
    80001a8c:	023454b3          	divu	x9,x8,x3
    80001a90:	255aea97          	auipc	x21,0x255ae
    80001a94:	037c22b3          	mulhsu	x5,x24,x23
    80001a98:	43065113          	srai	x2,x12,0x30
    80001a9c:	02870c33          	mul	x24,x14,x8
    80001aa0:	34248837          	lui	x16,0x34248
    80001aa4:	03f6f433          	remu	x8,x13,x31
    80001aa8:	01ad063b          	addw	x12,x26,x26
    80001aac:	03dfcb3b          	divw	x22,x31,x29
    80001ab0:	00dc1e13          	slli	x28,x24,0xd
    80001ab4:	02d7d733          	divu	x14,x15,x13
    80001ab8:	6005bf93          	sltiu	x31,x11,1536
    80001abc:	02996c33          	rem	x24,x18,x9
    80001ac0:	006b5bbb          	srlw	x23,x22,x6
    80001ac4:	03c1733b          	remuw	x6,x2,x28
    80001ac8:	62fe32b7          	lui	x5,0x62fe3
    80001acc:	03fe8633          	mul	x12,x29,x31
    80001ad0:	351cefb7          	lui	x31,0x351ce
    80001ad4:	036a7b3b          	remuw	x22,x20,x22
    80001ad8:	5b937213          	andi	x4,x6,1465
    80001adc:	02a5f7b3          	remu	x15,x11,x10
    80001ae0:	57848717          	auipc	x14,0x57848
    80001ae4:	0392fcb3          	remu	x25,x5,x25
    80001ae8:	b4689837          	lui	x16,0xb4689
    80001aec:	03a051b3          	divu	x3,x0,x26
    80001af0:	00d5d61b          	srliw	x12,x11,0xd
    80001af4:	02d51d33          	mulh	x26,x10,x13
    80001af8:	011c8233          	add	x4,x25,x17
    80001afc:	037fda3b          	divuw	x20,x31,x23
    80001b00:	01186033          	or	x0,x16,x17
    80001b04:	028194b3          	mulh	x9,x3,x8
    80001b08:	00cb9e9b          	slliw	x29,x23,0xc
    80001b0c:	02b0d6b3          	divu	x13,x1,x11
    80001b10:	001c7fb3          	and	x31,x24,x1
    80001b14:	02c0dab3          	divu	x21,x1,x12
    80001b18:	037c9113          	slli	x2,x25,0x37
    80001b1c:	03828cbb          	mulw	x25,x5,x24
    80001b20:	a0d9d917          	auipc	x18,0xa0d9d
    80001b24:	02300633          	mul	x12,x0,x3
    80001b28:	038c0d17          	auipc	x26,0x38c0
    80001b2c:	0370b8b3          	mulhu	x17,x1,x23
    80001b30:	01071193          	slli	x3,x14,0x10
    80001b34:	02aafab3          	remu	x21,x21,x10
    80001b38:	41ff803b          	subw	x0,x31,x31
    80001b3c:	028b013b          	mulw	x2,x22,x8
    80001b40:	2da8841b          	addiw	x8,x17,730 # fffffffffe0ef762 <_start+0xffffffff7e0ef762>
    80001b44:	0330f4b3          	remu	x9,x1,x19
    80001b48:	4319d993          	srai	x19,x19,0x31
    80001b4c:	03cc4f33          	div	x30,x24,x28
    80001b50:	32e0db17          	auipc	x22,0x32e0d
    80001b54:	038a72bb          	remuw	x5,x20,x24
    80001b58:	40f0dbb3          	sra	x23,x1,x15
    80001b5c:	02e4f833          	remu	x16,x9,x14
    80001b60:	4020de9b          	sraiw	x29,x1,0x2
    80001b64:	02d5ed3b          	remw	x26,x11,x13
    80001b68:	0bd17a37          	lui	x20,0xbd17
    80001b6c:	03330b3b          	mulw	x22,x6,x19
    80001b70:	4ff6cc37          	lui	x24,0x4ff6c
    80001b74:	0318f4bb          	remuw	x9,x17,x17
    80001b78:	015fc733          	xor	x14,x31,x21
    80001b7c:	02d41d33          	mulh	x26,x8,x13
    80001b80:	65862a93          	slti	x21,x12,1624
    80001b84:	038eae33          	mulhsu	x28,x29,x24
    80001b88:	87434197          	auipc	x3,0x87434
    80001b8c:	03fee633          	rem	x12,x29,x31
    80001b90:	d2ae1697          	auipc	x13,0xd2ae1
    80001b94:	027054bb          	divuw	x9,x0,x7
    80001b98:	2f583397          	auipc	x7,0x2f583
    80001b9c:	03f85033          	divu	x0,x16,x31
    80001ba0:	d9a88b37          	lui	x22,0xd9a88
    80001ba4:	03bc3c33          	mulhu	x24,x24,x27
    80001ba8:	00c7dcb3          	srl	x25,x15,x12
    80001bac:	035390b3          	mulh	x1,x7,x21
    80001bb0:	9a8283b7          	lui	x7,0x9a828
    80001bb4:	02931433          	mulh	x8,x6,x9
    80001bb8:	41785e33          	sra	x28,x16,x23
    80001bbc:	026f5633          	divu	x12,x30,x6
    80001bc0:	0009199b          	slliw	x19,x18,0x0
    80001bc4:	0378f23b          	remuw	x4,x17,x23
    80001bc8:	41e50033          	sub	x0,x10,x30
    80001bcc:	02857db3          	remu	x27,x10,x8
    80001bd0:	01fbb333          	sltu	x6,x23,x31
    80001bd4:	027656bb          	divuw	x13,x12,x7
    80001bd8:	4127d61b          	sraiw	x12,x15,0x12
    80001bdc:	03f958b3          	divu	x17,x18,x31
    80001be0:	e865bbb7          	lui	x23,0xe865b
    80001be4:	02fe3433          	mulhu	x8,x28,x15
    80001be8:	001957bb          	srlw	x15,x18,x1
    80001bec:	032fdeb3          	divu	x29,x31,x18
    80001bf0:	fd24c5b7          	lui	x11,0xfd24c
    80001bf4:	031bdbb3          	divu	x23,x23,x17
    80001bf8:	488d2f13          	slti	x30,x26,1160
    80001bfc:	02ea54bb          	divuw	x9,x20,x14
    80001c00:	b16f6197          	auipc	x3,0xb16f6
    80001c04:	02fb583b          	divuw	x16,x22,x15
    80001c08:	00da0733          	add	x14,x20,x13
    80001c0c:	03c6d03b          	divuw	x0,x13,x28
    80001c10:	6cfa099b          	addiw	x19,x20,1743 # bd176cf <_start-0x742e8931>
    80001c14:	022d3cb3          	mulhu	x25,x26,x2
    80001c18:	6f564b37          	lui	x22,0x6f564
    80001c1c:	02d8d23b          	divuw	x4,x17,x13
    80001c20:	4284d093          	srai	x1,x9,0x28
    80001c24:	03885133          	divu	x2,x16,x24
    80001c28:	015993bb          	sllw	x7,x19,x21
    80001c2c:	03dc0bb3          	mul	x23,x24,x29
    80001c30:	01259833          	sll	x16,x11,x18
    80001c34:	034dcb33          	div	x22,x27,x20
    80001c38:	0082e533          	or	x10,x5,x8
    80001c3c:	027db8b3          	mulhu	x17,x27,x7
    80001c40:	416f541b          	sraiw	x8,x30,0x16
    80001c44:	02cd3ab3          	mulhu	x21,x26,x12
    80001c48:	31972e93          	slti	x29,x14,793
    80001c4c:	036f733b          	remuw	x6,x30,x22
    80001c50:	01f76f33          	or	x30,x14,x31
    80001c54:	02ac2833          	mulhsu	x16,x24,x10
    80001c58:	41a18cb3          	sub	x25,x3,x26
    80001c5c:	0203e53b          	remw	x10,x7,x0
    80001c60:	4a47f113          	andi	x2,x15,1188
    80001c64:	02974933          	div	x18,x14,x9
    80001c68:	00669a1b          	slliw	x20,x13,0x6
    80001c6c:	02d7563b          	divuw	x12,x14,x13
    80001c70:	43c2de13          	srai	x28,x5,0x3c
    80001c74:	02dacfbb          	divw	x31,x21,x13
    80001c78:	01240dbb          	addw	x27,x8,x18
    80001c7c:	03a22b33          	mulhsu	x22,x4,x26
    80001c80:	0b743113          	sltiu	x2,x8,183
    80001c84:	03546abb          	remw	x21,x8,x21
    80001c88:	40dd563b          	sraw	x12,x26,x13
    80001c8c:	03bf86bb          	mulw	x13,x31,x27
    80001c90:	01eedd9b          	srliw	x27,x29,0x1e
    80001c94:	03330e33          	mul	x28,x6,x19
    80001c98:	d9b617b7          	lui	x15,0xd9b61
    80001c9c:	0279c9bb          	divw	x19,x19,x7
    80001ca0:	6a452f93          	slti	x31,x10,1700
    80001ca4:	026b04bb          	mulw	x9,x22,x6
    80001ca8:	92dee297          	auipc	x5,0x92dee
    80001cac:	03c88a3b          	mulw	x20,x17,x28
    80001cb0:	00f34eb7          	lui	x29,0xf34
    80001cb4:	0306ddb3          	divu	x27,x13,x16
    80001cb8:	4080d493          	srai	x9,x1,0x8
    80001cbc:	03ee72b3          	remu	x5,x28,x30
    80001cc0:	4df2eb17          	auipc	x22,0x4df2e
    80001cc4:	03812a33          	mulhsu	x20,x2,x24
    80001cc8:	414d5c93          	srai	x25,x26,0x14
    80001ccc:	03d1f0b3          	remu	x1,x3,x29
    80001cd0:	00e58e3b          	addw	x28,x11,x14
    80001cd4:	03e25433          	divu	x8,x4,x30
    80001cd8:	2d9fcd17          	auipc	x26,0x2d9fc
    80001cdc:	034c4abb          	divw	x21,x24,x20
    80001ce0:	aeac3017          	auipc	x0,0xaeac3
    80001ce4:	038208bb          	mulw	x17,x4,x24
    80001ce8:	41b9debb          	sraw	x29,x19,x27
    80001cec:	03624fb3          	div	x31,x4,x22
    80001cf0:	5cf64d37          	lui	x26,0x5cf64
    80001cf4:	03eb74bb          	remuw	x9,x22,x30
    80001cf8:	39587e13          	andi	x28,x16,917
    80001cfc:	0355eeb3          	rem	x29,x11,x21
    80001d00:	00c03f33          	sltu	x30,x0,x12
    80001d04:	0267d9b3          	divu	x19,x15,x6
    80001d08:	a1f63917          	auipc	x18,0xa1f63
    80001d0c:	0267e6b3          	rem	x13,x15,x6
    80001d10:	018dd093          	srli	x1,x27,0x18
    80001d14:	020f88b3          	mul	x17,x31,x0
    80001d18:	363a2313          	slti	x6,x20,867
    80001d1c:	03925dbb          	divuw	x27,x4,x25
    80001d20:	00299413          	slli	x8,x19,0x2
    80001d24:	0232a733          	mulhsu	x14,x5,x3
    80001d28:	7360f997          	auipc	x19,0x7360f
    80001d2c:	0230d83b          	divuw	x16,x1,x3
    80001d30:	1aa1ca13          	xori	x20,x3,426
    80001d34:	03710d3b          	mulw	x26,x2,x23
    80001d38:	75340293          	addi	x5,x8,1875 # ffffffffb1f68753 <_start+0xffffffff31f68753>
    80001d3c:	02a2493b          	divw	x18,x4,x10
    80001d40:	015aff33          	and	x30,x21,x21
    80001d44:	0295c43b          	divw	x8,x11,x9
    80001d48:	00a8db9b          	srliw	x23,x17,0xa
    80001d4c:	02735c33          	divu	x24,x6,x7
    80001d50:	01e6da1b          	srliw	x20,x13,0x1e
    80001d54:	0259e0b3          	rem	x1,x19,x5
    80001d58:	0045103b          	sllw	x0,x10,x4
    80001d5c:	026187b3          	mul	x15,x3,x6
    80001d60:	317ce213          	ori	x4,x25,791
    80001d64:	03090b33          	mul	x22,x18,x16
    80001d68:	8c7e5417          	auipc	x8,0x8c7e5
    80001d6c:	03a16cbb          	remw	x25,x2,x26
    80001d70:	a9a48797          	auipc	x15,0xa9a48
    80001d74:	03804fbb          	divw	x31,x0,x24
    80001d78:	787aaa13          	slti	x20,x21,1927
    80001d7c:	03ec7333          	remu	x6,x24,x30
    80001d80:	7dd394b7          	lui	x9,0x7dd39
    80001d84:	03be8433          	mul	x8,x29,x27
    80001d88:	10f69e17          	auipc	x28,0x10f69
    80001d8c:	027ce733          	rem	x14,x25,x7
    80001d90:	1af04613          	xori	x12,x0,431
    80001d94:	03d38133          	mul	x2,x7,x29
    80001d98:	c87a1a37          	lui	x20,0xc87a1
    80001d9c:	03d3cc33          	div	x24,x7,x29
    80001da0:	01c85813          	srli	x16,x16,0x1c
    80001da4:	032e41bb          	divw	x3,x28,x18
    80001da8:	01d24d33          	xor	x26,x4,x29
    80001dac:	026a5f33          	divu	x30,x20,x6
    80001db0:	01bc549b          	srliw	x9,x24,0x1b
    80001db4:	0242c3b3          	div	x7,x5,x4
    80001db8:	00b36b33          	or	x22,x6,x11
    80001dbc:	03f0ce33          	div	x28,x1,x31
    80001dc0:	4358b993          	sltiu	x19,x17,1077
    80001dc4:	0231623b          	remw	x4,x2,x3
    80001dc8:	38d4089b          	addiw	x17,x8,909 # c7e70f5 <_start-0x73818f0b>
    80001dcc:	0303a7b3          	mulhsu	x15,x7,x16
    80001dd0:	00cfa1b3          	slt	x3,x31,x12
    80001dd4:	0203eab3          	rem	x21,x7,x0
    80001dd8:	43395b37          	lui	x22,0x43395
    80001ddc:	03b666bb          	remw	x13,x12,x27
    80001de0:	01afb3b3          	sltu	x7,x31,x26
    80001de4:	03743633          	mulhu	x12,x8,x23
    80001de8:	d3b36e37          	lui	x28,0xd3b36
    80001dec:	031f4c3b          	divw	x24,x30,x17
    80001df0:	42835593          	srai	x11,x6,0x28
    80001df4:	03e52033          	mulhsu	x0,x10,x30
    80001df8:	ce0ca9b7          	lui	x19,0xce0ca
    80001dfc:	026a4ab3          	div	x21,x20,x6
    80001e00:	0078909b          	slliw	x1,x17,0x7
    80001e04:	03046d3b          	remw	x26,x8,x16
    80001e08:	03ab0517          	auipc	x10,0x3ab0
    80001e0c:	0296eb3b          	remw	x22,x13,x9
    80001e10:	400a8033          	sub	x0,x21,x0
    80001e14:	0232f133          	remu	x2,x5,x3
    80001e18:	12ede613          	ori	x12,x27,302
    80001e1c:	02921f33          	mulh	x30,x4,x9
    80001e20:	01de11b3          	sll	x3,x28,x29
    80001e24:	0366d6bb          	divuw	x13,x13,x22
    80001e28:	01da2033          	slt	x0,x20,x29
    80001e2c:	032d5b3b          	divuw	x22,x26,x18
    80001e30:	01f5d7bb          	srlw	x15,x11,x31
    80001e34:	02c440bb          	divw	x1,x8,x12
    80001e38:	d6dae397          	auipc	x7,0xd6dae
    80001e3c:	03d13733          	mulhu	x14,x2,x29
    80001e40:	36abee13          	ori	x28,x23,874
    80001e44:	020b42b3          	div	x5,x22,x0
    80001e48:	40950f3b          	subw	x30,x10,x9
    80001e4c:	026a80b3          	mul	x1,x21,x6
    80001e50:	01d32ab3          	slt	x21,x6,x29
    80001e54:	03ab3eb3          	mulhu	x29,x22,x26
    80001e58:	c85b3b17          	auipc	x22,0xc85b3
    80001e5c:	023d8cbb          	mulw	x25,x27,x3
    80001e60:	008423b3          	slt	x7,x8,x8
    80001e64:	03360fb3          	mul	x31,x12,x19
    80001e68:	9d36b417          	auipc	x8,0x9d36b
    80001e6c:	02bed933          	divu	x18,x29,x11
    80001e70:	395b2897          	auipc	x17,0x395b2
    80001e74:	0267613b          	remw	x2,x14,x6
    80001e78:	019f4cb3          	xor	x25,x30,x25
    80001e7c:	02cfb4b3          	mulhu	x9,x31,x12
    80001e80:	010bb833          	sltu	x16,x23,x16
    80001e84:	02fe6b3b          	remw	x22,x28,x15
    80001e88:	4157d99b          	sraiw	x19,x15,0x15
    80001e8c:	03731db3          	mulh	x27,x6,x23
    80001e90:	35effa17          	auipc	x20,0x35eff
    80001e94:	038100b3          	mul	x1,x2,x24
    80001e98:	41245eb3          	sra	x29,x8,x18
    80001e9c:	0315eb33          	rem	x22,x11,x17
    80001ea0:	7ed52813          	slti	x16,x10,2029
    80001ea4:	03357133          	remu	x2,x10,x19
    80001ea8:	00c8bfb3          	sltu	x31,x17,x12
    80001eac:	0382c8bb          	divw	x17,x5,x24
    80001eb0:	00f0ebb3          	or	x23,x1,x15
    80001eb4:	0344443b          	divw	x8,x8,x20
    80001eb8:	0075109b          	slliw	x1,x10,0x7
    80001ebc:	02d7e633          	rem	x12,x15,x13
    80001ec0:	20f8879b          	addiw	x15,x17,527 # ffffffffb95b407f <_start+0xffffffff395b407f>
    80001ec4:	0224e333          	rem	x6,x9,x2
    80001ec8:	e86c9f17          	auipc	x30,0xe86c9
    80001ecc:	02959c33          	mulh	x24,x11,x9
    80001ed0:	00accd33          	xor	x26,x25,x10
    80001ed4:	02a883b3          	mul	x7,x17,x10
    80001ed8:	eae17137          	lui	x2,0xeae17
    80001edc:	03b899b3          	mulh	x19,x17,x27
    80001ee0:	355245b7          	lui	x11,0x35524
    80001ee4:	02e48433          	mul	x8,x9,x14
    80001ee8:	40e35fbb          	sraw	x31,x6,x14
    80001eec:	02a3f63b          	remuw	x12,x7,x10
    80001ef0:	003d999b          	slliw	x19,x27,0x3
    80001ef4:	02a4d73b          	divuw	x14,x9,x10
    80001ef8:	1d82d117          	auipc	x2,0x1d82d
    80001efc:	025f0b33          	mul	x22,x30,x5
    80001f00:	410a5013          	srai	x0,x20,0x10
    80001f04:	02bbcf3b          	divw	x30,x23,x11
    80001f08:	011a43b3          	xor	x7,x20,x17
    80001f0c:	03588bb3          	mul	x23,x17,x21
    80001f10:	b7126c37          	lui	x24,0xb7126
    80001f14:	03d31e33          	mulh	x28,x6,x29
    80001f18:	7a14b213          	sltiu	x4,x9,1953
    80001f1c:	027547b3          	div	x15,x10,x7
    80001f20:	ec7532b7          	lui	x5,0xec753
    80001f24:	0333feb3          	remu	x29,x7,x19
    80001f28:	4117581b          	sraiw	x16,x14,0x11
    80001f2c:	02abb633          	mulhu	x12,x23,x10
    80001f30:	dd6f7cb7          	lui	x25,0xdd6f7
    80001f34:	03a767b3          	rem	x15,x14,x26
    80001f38:	0cd4009b          	addiw	x1,x8,205 # 1d36cf35 <_start-0x62c930cb>
    80001f3c:	03fad93b          	divuw	x18,x21,x31
    80001f40:	016b1b13          	slli	x22,x22,0x16
    80001f44:	029b8033          	mul	x0,x23,x9
    80001f48:	45d1af13          	slti	x30,x3,1117
    80001f4c:	02acd0b3          	divu	x1,x25,x10
    80001f50:	d0530737          	lui	x14,0xd0530
    80001f54:	028de63b          	remw	x12,x27,x8
    80001f58:	408e5ebb          	sraw	x29,x28,x8
    80001f5c:	031b2fb3          	mulhsu	x31,x22,x17
    80001f60:	e75fce17          	auipc	x28,0xe75fc
    80001f64:	03b20c3b          	mulw	x24,x4,x27
    80001f68:	409c8bb3          	sub	x23,x25,x9
    80001f6c:	023f79b3          	remu	x19,x30,x3
    80001f70:	40f8d49b          	sraiw	x9,x17,0xf
    80001f74:	03c5d8bb          	divuw	x17,x11,x28
    80001f78:	41c58abb          	subw	x21,x11,x28
    80001f7c:	02081633          	mulh	x12,x16,x0
    80001f80:	418cb213          	sltiu	x4,x25,1048
    80001f84:	028ec2b3          	div	x5,x29,x8
    80001f88:	38ccf693          	andi	x13,x25,908
    80001f8c:	021b74bb          	remuw	x9,x22,x1
    80001f90:	013ad433          	srl	x8,x21,x19
    80001f94:	03385333          	divu	x6,x16,x19
    80001f98:	e5144f37          	lui	x30,0xe5144
    80001f9c:	02cc87bb          	mulw	x15,x25,x12
    80001fa0:	767d2993          	slti	x19,x26,1895
    80001fa4:	03fb773b          	remuw	x14,x22,x31
    80001fa8:	00317533          	and	x10,x2,x3
    80001fac:	03ec723b          	remuw	x4,x24,x30
    80001fb0:	00735a93          	srli	x21,x6,0x7
    80001fb4:	03b9f333          	remu	x6,x19,x27
    80001fb8:	79dfe037          	lui	x0,0x79dfe
    80001fbc:	022ba4b3          	mulhsu	x9,x23,x2
    80001fc0:	f6508e17          	auipc	x28,0xf6508
    80001fc4:	0356ceb3          	div	x29,x13,x21
    80001fc8:	9ae6b197          	auipc	x3,0x9ae6b
    80001fcc:	0381573b          	divuw	x14,x2,x24
    80001fd0:	b379da17          	auipc	x20,0xb379d
    80001fd4:	03a277bb          	remuw	x15,x4,x26
    80001fd8:	0172901b          	slliw	x0,x5,0x17
    80001fdc:	0230f43b          	remuw	x8,x1,x3
    80001fe0:	41058cb3          	sub	x25,x11,x16
    80001fe4:	02cf65b3          	rem	x11,x30,x12
    80001fe8:	78b4ee37          	lui	x28,0x78b4e
    80001fec:	02f64c33          	div	x24,x12,x15
    80001ff0:	27dcb137          	lui	x2,0x27dcb
    80001ff4:	034f8633          	mul	x12,x31,x20
    80001ff8:	0105509b          	srliw	x1,x10,0x10
    80001ffc:	03dffb3b          	remuw	x22,x31,x29
    80002000:	013c54bb          	srlw	x9,x24,x19
    80002004:	027a76bb          	remuw	x13,x20,x7
    80002008:	6088bb93          	sltiu	x23,x17,1544
    8000200c:	0281623b          	remw	x4,x2,x8
    80002010:	40fdddbb          	sraw	x27,x27,x15
    80002014:	02a5dc33          	divu	x24,x11,x10
    80002018:	41d5d73b          	sraw	x14,x11,x29
    8000201c:	03fb53bb          	divuw	x7,x22,x31
    80002020:	41bede1b          	sraiw	x28,x29,0x1b
    80002024:	024125b3          	mulhsu	x11,x2,x4
    80002028:	42795213          	srai	x4,x18,0x27
    8000202c:	0398c0bb          	divw	x1,x17,x25
    80002030:	c69fabb7          	lui	x23,0xc69fa
    80002034:	036f9b33          	mulh	x22,x31,x22
    80002038:	0297dc13          	srli	x24,x15,0x29
    8000203c:	03e1043b          	mulw	x8,x2,x30
    80002040:	24f6ea13          	ori	x20,x13,591
    80002044:	03dbb3b3          	mulhu	x7,x23,x29
    80002048:	41fb0fbb          	subw	x31,x22,x31
    8000204c:	025d8f3b          	mulw	x30,x27,x5
    80002050:	00fc909b          	slliw	x1,x25,0xf
    80002054:	02901a33          	mulh	x20,x0,x9
    80002058:	402b01b3          	sub	x3,x22,x2
    8000205c:	028334b3          	mulhu	x9,x6,x8
    80002060:	d111b997          	auipc	x19,0xd111b
    80002064:	022b16b3          	mulh	x13,x22,x2
    80002068:	a6dff217          	auipc	x4,0xa6dff
    8000206c:	02b08133          	mul	x2,x1,x11
    80002070:	56ea9eb7          	lui	x29,0x56ea9
    80002074:	02b71733          	mulh	x14,x14,x11
    80002078:	01885c13          	srli	x24,x16,0x18
    8000207c:	02345d3b          	divuw	x26,x8,x3
    80002080:	03a81293          	slli	x5,x16,0x3a
    80002084:	02690cbb          	mulw	x25,x18,x6
    80002088:	01e0519b          	srliw	x3,x0,0x1e
    8000208c:	03462433          	mulhsu	x8,x12,x20
    80002090:	4169a993          	slti	x19,x19,1046
    80002094:	02c572bb          	remuw	x5,x10,x12
    80002098:	c8ee6db7          	lui	x27,0xc8ee6
    8000209c:	02bd603b          	remw	x0,x26,x11
    800020a0:	40f5dcbb          	sraw	x25,x11,x15
    800020a4:	0388c63b          	divw	x12,x17,x24
    800020a8:	08c3afb7          	lui	x31,0x8c3a
    800020ac:	0242fd33          	remu	x26,x5,x4
    800020b0:	00740333          	add	x6,x8,x7
    800020b4:	02891b33          	mulh	x22,x18,x8
    800020b8:	00e568b3          	or	x17,x10,x14
    800020bc:	02ff4eb3          	div	x29,x30,x15
    800020c0:	014d2ab3          	slt	x21,x26,x20
    800020c4:	03836333          	rem	x6,x6,x24
    800020c8:	00a6539b          	srliw	x7,x12,0xa
    800020cc:	02144e33          	div	x28,x8,x1
    800020d0:	40c987bb          	subw	x15,x19,x12
    800020d4:	0225b233          	mulhu	x4,x11,x2
    800020d8:	21208613          	addi	x12,x1,530 # a015ec92 <_start+0x2015ec92>
    800020dc:	0239d13b          	divuw	x2,x19,x3
    800020e0:	0092d09b          	srliw	x1,x5,0x9
    800020e4:	02dbefb3          	rem	x31,x23,x13
    800020e8:	00145293          	srli	x5,x8,0x1
    800020ec:	0204753b          	remuw	x10,x8,x0
    800020f0:	00cf25b3          	slt	x11,x30,x12
    800020f4:	026ecb3b          	divw	x22,x29,x6
    800020f8:	003697b3          	sll	x15,x13,x3
    800020fc:	024a21b3          	mulhsu	x3,x20,x4
    80002100:	11530037          	lui	x0,0x11530
    80002104:	02a2c433          	div	x8,x5,x10
    80002108:	71efa997          	auipc	x19,0x71efa
    8000210c:	035bccb3          	div	x25,x23,x21
    80002110:	e3671597          	auipc	x11,0xe3671
    80002114:	02fa3b33          	mulhu	x22,x20,x15
    80002118:	00f31693          	slli	x13,x6,0xf
    8000211c:	037f663b          	remw	x12,x30,x23
    80002120:	0193dab3          	srl	x21,x7,x25
    80002124:	0399603b          	remw	x0,x18,x25
    80002128:	5b680d13          	addi	x26,x16,1462 # ffffffffb46895b6 <_start+0xffffffff346895b6>
    8000212c:	02b3bcb3          	mulhu	x25,x7,x11
    80002130:	fb992137          	lui	x2,0xfb992
    80002134:	02a5efb3          	rem	x31,x11,x10
    80002138:	4f024697          	auipc	x13,0x4f024
    8000213c:	023052bb          	divuw	x5,x0,x3
    80002140:	5d3f0613          	addi	x12,x30,1491 # ffffffffe51445d3 <_start+0xffffffff651445d3>
    80002144:	030e88bb          	mulw	x17,x29,x16
    80002148:	03171093          	slli	x1,x14,0x31
    8000214c:	03695cbb          	divuw	x25,x18,x22
    80002150:	41e48abb          	subw	x21,x9,x30
    80002154:	03724a3b          	divw	x20,x4,x23
    80002158:	679be313          	ori	x6,x23,1657
    8000215c:	033bc233          	div	x4,x23,x19
    80002160:	6f35e793          	ori	x15,x11,1779
    80002164:	0289403b          	divw	x0,x18,x8
    80002168:	009ed63b          	srlw	x12,x29,x9
    8000216c:	039b8e33          	mul	x28,x23,x25
    80002170:	01a87233          	and	x4,x16,x26
    80002174:	02fd773b          	remuw	x14,x26,x15
    80002178:	6ba3ef17          	auipc	x30,0x6ba3e
    8000217c:	0230d033          	divu	x0,x1,x3
    80002180:	017bbcb3          	sltu	x25,x23,x23
    80002184:	02b7e233          	rem	x4,x15,x11
    80002188:	01866633          	or	x12,x12,x24
    8000218c:	02d35733          	divu	x14,x6,x13
    80002190:	af60e4b7          	lui	x9,0xaf60e
    80002194:	038dff3b          	remuw	x30,x27,x24
    80002198:	d3416217          	auipc	x4,0xd3416
    8000219c:	036447bb          	divw	x15,x8,x22
    800021a0:	2118c513          	xori	x10,x17,529
    800021a4:	0292f5bb          	remuw	x11,x5,x9
    800021a8:	55570413          	addi	x8,x14,1365 # ffffffffd0530555 <_start+0xffffffff50530555>
    800021ac:	03a1dc3b          	divuw	x24,x3,x26
    800021b0:	4e9e94b7          	lui	x9,0x4e9e9
    800021b4:	02d3f333          	remu	x6,x7,x13
    800021b8:	77d92593          	slti	x11,x18,1917
    800021bc:	03bec833          	div	x16,x29,x27
    800021c0:	3c1c5137          	lui	x2,0x3c1c5
    800021c4:	023527b3          	mulhsu	x15,x10,x3
    800021c8:	00af9d33          	sll	x26,x31,x10
    800021cc:	032c833b          	mulw	x6,x25,x18
    800021d0:	8c1856b7          	lui	x13,0x8c185
    800021d4:	03cf4f33          	div	x30,x30,x28
    800021d8:	6f3804b7          	lui	x9,0x6f380
    800021dc:	02fd95b3          	mulh	x11,x27,x15
    800021e0:	30cfc897          	auipc	x17,0x30cfc
    800021e4:	03fed13b          	divuw	x2,x29,x31
    800021e8:	00796333          	or	x6,x18,x7
    800021ec:	02ae473b          	divw	x14,x28,x10
    800021f0:	5e303e93          	sltiu	x29,x0,1507
    800021f4:	03bc75b3          	remu	x11,x24,x27
    800021f8:	01ebfcb3          	and	x25,x23,x30
    800021fc:	020bd2b3          	divu	x5,x23,x0
    80002200:	01007333          	and	x6,x0,x16
    80002204:	0301ffb3          	remu	x31,x3,x16
    80002208:	411b5f33          	sra	x30,x22,x17
    8000220c:	0300f13b          	remuw	x2,x1,x16
    80002210:	40a4d7b3          	sra	x15,x9,x10
    80002214:	0308aa33          	mulhsu	x20,x17,x16
    80002218:	01a61f9b          	slliw	x31,x12,0x1a
    8000221c:	0318853b          	mulw	x10,x17,x17
    80002220:	9e440a97          	auipc	x21,0x9e440
    80002224:	022191b3          	mulh	x3,x3,x2
    80002228:	0048579b          	srliw	x15,x16,0x4
    8000222c:	038f48bb          	divw	x17,x30,x24
    80002230:	4342d313          	srai	x6,x5,0x34
    80002234:	02760cbb          	mulw	x25,x12,x7
    80002238:	012402bb          	addw	x5,x8,x18
    8000223c:	02d1e3b3          	rem	x7,x3,x13
    80002240:	013d5193          	srli	x3,x26,0x13
    80002244:	03f0de33          	divu	x28,x1,x31
    80002248:	41d60633          	sub	x12,x12,x29
    8000224c:	038ac333          	div	x6,x21,x24
    80002250:	002c9913          	slli	x18,x25,0x2
    80002254:	02edcbb3          	div	x23,x27,x14
    80002258:	41468533          	sub	x10,x13,x20
    8000225c:	02b5873b          	mulw	x14,x11,x11
    80002260:	0253dd13          	srli	x26,x7,0x25
    80002264:	03d3f033          	remu	x0,x7,x29
    80002268:	6c762093          	slti	x1,x12,1735
    8000226c:	0251a5b3          	mulhsu	x11,x3,x5
    80002270:	4eaf6893          	ori	x17,x30,1258
    80002274:	02a8633b          	remw	x6,x16,x10
    80002278:	d7fdc817          	auipc	x16,0xd7fdc
    8000227c:	02aa4ebb          	divw	x29,x20,x10
    80002280:	0087193b          	sllw	x18,x14,x8
    80002284:	0382ebbb          	remw	x23,x5,x24
    80002288:	31e40217          	auipc	x4,0x31e40
    8000228c:	0292c33b          	divw	x6,x5,x9
    80002290:	a2338197          	auipc	x3,0xa2338
    80002294:	02249033          	mulh	x0,x9,x2
    80002298:	402a5733          	sra	x14,x20,x2
    8000229c:	033c4bb3          	div	x23,x24,x19
    800022a0:	8393d3b7          	lui	x7,0x8393d
    800022a4:	02945d3b          	divuw	x26,x8,x9
    800022a8:	001f02bb          	addw	x5,x30,x1
    800022ac:	02340033          	mul	x0,x8,x3
    800022b0:	00395133          	srl	x2,x18,x3
    800022b4:	02e9c4b3          	div	x9,x19,x14
    800022b8:	4088dc3b          	sraw	x24,x17,x8
    800022bc:	033d753b          	remuw	x10,x26,x19
    800022c0:	01133ab3          	sltu	x21,x6,x17
    800022c4:	021f6333          	rem	x6,x30,x1
    800022c8:	00fb1b3b          	sllw	x22,x22,x15
    800022cc:	0248cd3b          	divw	x26,x17,x4
    800022d0:	56af22b7          	lui	x5,0x56af2
    800022d4:	0353dab3          	divu	x21,x7,x21
    800022d8:	d84b5b97          	auipc	x23,0xd84b5
    800022dc:	0275573b          	divuw	x14,x10,x7
    800022e0:	d576da17          	auipc	x20,0xd576d
    800022e4:	03b38d3b          	mulw	x26,x7,x27
    800022e8:	f3bad037          	lui	x0,0xf3bad
    800022ec:	02b5813b          	mulw	x2,x11,x11
    800022f0:	90b24b97          	auipc	x23,0x90b24
    800022f4:	032ffa3b          	remuw	x20,x31,x18
    800022f8:	4ba20f13          	addi	x30,x4,1210 # b1e42742 <_start+0x31e42742>
    800022fc:	028d24b3          	mulhsu	x9,x26,x8
    80002300:	406981b3          	sub	x3,x19,x6
    80002304:	02a785b3          	mul	x11,x15,x10
    80002308:	4020db13          	srai	x22,x1,0x2
    8000230c:	028ce2bb          	remw	x5,x25,x8
    80002310:	02cd1313          	slli	x6,x26,0x2c
    80002314:	029e9433          	mulh	x8,x29,x9
    80002318:	72375fb7          	lui	x31,0x72375
    8000231c:	031388bb          	mulw	x17,x7,x17
    80002320:	003204bb          	addw	x9,x4,x3
    80002324:	0389c933          	div	x18,x19,x24
    80002328:	00e306b3          	add	x13,x6,x14
    8000232c:	03d27b33          	remu	x22,x4,x29
    80002330:	01a5fa37          	lui	x20,0x1a5f
    80002334:	035983bb          	mulw	x7,x19,x21
    80002338:	4359be37          	lui	x28,0x4359b
    8000233c:	028198b3          	mulh	x17,x3,x8
    80002340:	40c6d2b3          	sra	x5,x13,x12
    80002344:	0287b133          	mulhu	x2,x15,x8
    80002348:	009c933b          	sllw	x6,x25,x9
    8000234c:	02c87bb3          	remu	x23,x16,x12
    80002350:	8d43fdb7          	lui	x27,0x8d43f
    80002354:	02d74cb3          	div	x25,x14,x13
    80002358:	69c3cc13          	xori	x24,x7,1692
    8000235c:	02c25a3b          	divuw	x20,x4,x12
    80002360:	155672b7          	lui	x5,0x15567
    80002364:	0375dbb3          	divu	x23,x11,x23
    80002368:	00a0dcbb          	srlw	x25,x1,x10
    8000236c:	02483f33          	mulhu	x30,x16,x4
    80002370:	01230c33          	add	x24,x6,x18
    80002374:	02d735b3          	mulhu	x11,x14,x13
    80002378:	417dd213          	srai	x4,x27,0x17
    8000237c:	035958bb          	divuw	x17,x18,x21
    80002380:	002b501b          	srliw	x0,x22,0x2
    80002384:	03e16333          	rem	x6,x2,x30
    80002388:	00d79b1b          	slliw	x22,x15,0xd
    8000238c:	02ee70b3          	remu	x1,x28,x14
    80002390:	0115b2b3          	sltu	x5,x11,x17
    80002394:	02de0f33          	mul	x30,x28,x13
    80002398:	465b58b7          	lui	x17,0x465b5
    8000239c:	036ce33b          	remw	x6,x25,x22
    800023a0:	1f0ce617          	auipc	x12,0x1f0ce
    800023a4:	038a93b3          	mulh	x7,x21,x24
    800023a8:	41015033          	sra	x0,x2,x16
    800023ac:	0244f5bb          	remuw	x11,x9,x4
    800023b0:	f4cb1737          	lui	x14,0xf4cb1
    800023b4:	028a883b          	mulw	x16,x21,x8
    800023b8:	03e19f13          	slli	x30,x3,0x3e
    800023bc:	03107eb3          	remu	x29,x0,x17
    800023c0:	4f138313          	addi	x6,x7,1265 # ffffffff8393d4f1 <_start+0xffffffff0393d4f1>
    800023c4:	0222c93b          	divw	x18,x5,x2
    800023c8:	58e6e697          	auipc	x13,0x58e6e
    800023cc:	03c100b3          	mul	x1,x2,x28
    800023d0:	00925b93          	srli	x23,x4,0x9
    800023d4:	0295b733          	mulhu	x14,x11,x9
    800023d8:	41ec5b1b          	sraiw	x22,x24,0x1e
    800023dc:	03dd89bb          	mulw	x19,x27,x29
    800023e0:	01918c3b          	addw	x24,x3,x25
    800023e4:	02045e33          	divu	x28,x8,x0
    800023e8:	113ffbb7          	lui	x23,0x113ff
    800023ec:	02f065b3          	rem	x11,x0,x15
    800023f0:	01b382bb          	addw	x5,x7,x27
    800023f4:	03e9633b          	remw	x6,x18,x30
    800023f8:	00af13b3          	sll	x7,x30,x10
    800023fc:	032f593b          	divuw	x18,x30,x18
    80002400:	2fdf4593          	xori	x11,x30,765
    80002404:	029ce1bb          	remw	x3,x25,x9
    80002408:	7868a513          	slti	x10,x17,1926
    8000240c:	02505c33          	divu	x24,x0,x5
    80002410:	0b147d13          	andi	x26,x8,177
    80002414:	026f84b3          	mul	x9,x31,x6
    80002418:	00d40833          	add	x16,x8,x13
    8000241c:	036b41bb          	divw	x3,x22,x22
    80002420:	cd9fa617          	auipc	x12,0xcd9fa
    80002424:	03e757b3          	divu	x15,x14,x30
    80002428:	9ba2ba37          	lui	x20,0x9ba2b
    8000242c:	03f95d3b          	divuw	x26,x18,x31
    80002430:	0010d33b          	srlw	x6,x1,x1
    80002434:	03f64fb3          	div	x31,x12,x31
    80002438:	79598c9b          	addiw	x25,x19,1941 # fffffffff1efc89d <_start+0xffffffff71efc89d>
    8000243c:	03e446b3          	div	x13,x8,x30
    80002440:	411dd21b          	sraiw	x4,x27,0x11
    80002444:	02a72f33          	mulhsu	x30,x14,x10
    80002448:	01a054b3          	srl	x9,x0,x26
    8000244c:	02ead1b3          	divu	x3,x21,x14
    80002450:	01998ebb          	addw	x29,x19,x25
    80002454:	028adc33          	divu	x24,x21,x8
    80002458:	40895fb3          	sra	x31,x18,x8
    8000245c:	0268c033          	div	x0,x17,x6
    80002460:	87614a37          	lui	x20,0x87614
    80002464:	03cf5433          	divu	x8,x30,x28
    80002468:	c1ecbf17          	auipc	x30,0xc1ecb
    8000246c:	02fc5633          	divu	x12,x24,x15
    80002470:	77866e97          	auipc	x29,0x77866
    80002474:	023c59bb          	divuw	x19,x24,x3
    80002478:	eb37f537          	lui	x10,0xeb37f
    8000247c:	0348aa33          	mulhsu	x20,x17,x20
    80002480:	1e42e313          	ori	x6,x5,484
    80002484:	020ac633          	div	x12,x21,x0
    80002488:	b82a3237          	lui	x4,0xb82a3
    8000248c:	029bf1b3          	remu	x3,x23,x9
    80002490:	1a11f5b7          	lui	x11,0x1a11f
    80002494:	02ff0bb3          	mul	x23,x30,x15
    80002498:	01f51cb3          	sll	x25,x10,x31
    8000249c:	03c95033          	divu	x0,x18,x28
    800024a0:	00870a33          	add	x20,x14,x8
    800024a4:	03ec7c33          	remu	x24,x24,x30
    800024a8:	c57b3297          	auipc	x5,0xc57b3
    800024ac:	02f48433          	mul	x8,x9,x15
    800024b0:	41910eb3          	sub	x29,x2,x25
    800024b4:	03c64133          	div	x2,x12,x28
    800024b8:	00424833          	xor	x16,x4,x4
    800024bc:	03c33233          	mulhu	x4,x6,x28
    800024c0:	1406ca13          	xori	x20,x13,320
    800024c4:	03dc84bb          	mulw	x9,x25,x29
    800024c8:	007d7e33          	and	x28,x26,x7
    800024cc:	03d503bb          	mulw	x7,x10,x29
    800024d0:	7acb4f13          	xori	x30,x22,1964
    800024d4:	02da3133          	mulhu	x2,x20,x13
    800024d8:	2c158f9b          	addiw	x31,x11,705 # 1a11f2c1 <_start-0x65ee0d3f>
    800024dc:	0369b033          	mulhu	x0,x19,x22
    800024e0:	019d183b          	sllw	x16,x26,x25
    800024e4:	033beb3b          	remw	x22,x23,x19
    800024e8:	475856b7          	lui	x13,0x47585
    800024ec:	03de463b          	divw	x12,x28,x29
    800024f0:	002932b3          	sltu	x5,x18,x2
    800024f4:	03273933          	mulhu	x18,x14,x18
    800024f8:	00649833          	sll	x16,x9,x6
    800024fc:	03ffe03b          	remw	x0,x31,x31
    80002500:	00312533          	slt	x10,x2,x3
    80002504:	022dcc3b          	divw	x24,x27,x2
    80002508:	df73cf97          	auipc	x31,0xdf73c
    8000250c:	03b8cb3b          	divw	x22,x17,x27
    80002510:	0cabcf13          	xori	x30,x23,202
    80002514:	02b45633          	divu	x12,x8,x11
    80002518:	004e1533          	sll	x10,x28,x4
    8000251c:	03a1d233          	divu	x4,x3,x26
    80002520:	b3bd04b7          	lui	x9,0xb3bd0
    80002524:	02efe1b3          	rem	x3,x31,x14
    80002528:	01484f33          	xor	x30,x16,x20
    8000252c:	027745b3          	div	x11,x14,x7
    80002530:	01238233          	add	x4,x7,x18
    80002534:	029f96b3          	mulh	x13,x31,x9
    80002538:	db2d4317          	auipc	x6,0xdb2d4
    8000253c:	034ad43b          	divuw	x8,x21,x20
    80002540:	01a9a3b3          	slt	x7,x19,x26
    80002544:	0359a9b3          	mulhsu	x19,x19,x21
    80002548:	417cd73b          	sraw	x14,x25,x23
    8000254c:	03ae5a3b          	divuw	x20,x28,x26
    80002550:	50714293          	xori	x5,x2,1287
    80002554:	0376e8b3          	rem	x17,x13,x23
    80002558:	40bb00bb          	subw	x1,x22,x11
    8000255c:	038523b3          	mulhsu	x7,x10,x24
    80002560:	01f44b33          	xor	x22,x8,x31
    80002564:	024f7e33          	remu	x28,x30,x4
    80002568:	415f56b3          	sra	x13,x30,x21
    8000256c:	0379c43b          	divw	x8,x19,x23
    80002570:	414205bb          	subw	x11,x4,x20
    80002574:	031b0ebb          	mulw	x29,x22,x17
    80002578:	40ff07b3          	sub	x15,x30,x15
    8000257c:	0358c633          	div	x12,x17,x21
    80002580:	00abde3b          	srlw	x28,x23,x10
    80002584:	03f1e833          	rem	x16,x3,x31
    80002588:	0168d913          	srli	x18,x17,0x16
    8000258c:	025d733b          	remuw	x6,x26,x5
    80002590:	419f0bb3          	sub	x23,x30,x25
    80002594:	03d2563b          	divuw	x12,x4,x29
    80002598:	018ab2b3          	sltu	x5,x21,x24
    8000259c:	029488bb          	mulw	x17,x9,x9
    800025a0:	406c093b          	subw	x18,x24,x6
    800025a4:	029a0bb3          	mul	x23,x20,x9
    800025a8:	0ae67eb7          	lui	x29,0xae67
    800025ac:	0216f433          	remu	x8,x13,x1
    800025b0:	01e0f833          	and	x16,x1,x30
    800025b4:	03b88f3b          	mulw	x30,x17,x27
    800025b8:	f3afcb17          	auipc	x22,0xf3afc
    800025bc:	0354e9b3          	rem	x19,x9,x21
    800025c0:	3023a113          	slti	x2,x7,770
    800025c4:	03dbb4b3          	mulhu	x9,x23,x29
    800025c8:	01fa0c3b          	addw	x24,x20,x31
    800025cc:	02872a33          	mulhsu	x20,x14,x8
    800025d0:	42e05193          	srai	x3,x0,0x2e
    800025d4:	02e58333          	mul	x6,x11,x14
    800025d8:	ba8c62b7          	lui	x5,0xba8c6
    800025dc:	024bfe3b          	remuw	x28,x23,x4
    800025e0:	d70297b7          	lui	x15,0xd7029
    800025e4:	03295fbb          	divuw	x31,x18,x18
    800025e8:	b0078437          	lui	x8,0xb0078
    800025ec:	0342dab3          	divu	x21,x5,x20
    800025f0:	a743e597          	auipc	x11,0xa743e
    800025f4:	02fee9bb          	remw	x19,x29,x15
    800025f8:	026c5113          	srli	x2,x24,0x26
    800025fc:	03a063b3          	rem	x7,x0,x26
    80002600:	00c498bb          	sllw	x17,x9,x12
    80002604:	03d00cb3          	mul	x25,x0,x29
    80002608:	1f931fb7          	lui	x31,0x1f931
    8000260c:	02b9443b          	divw	x8,x18,x11
    80002610:	2b1eae17          	auipc	x28,0x2b1ea
    80002614:	03d98d3b          	mulw	x26,x19,x29
    80002618:	1e5e6237          	lui	x4,0x1e5e6
    8000261c:	033ff13b          	remuw	x2,x31,x19
    80002620:	89801eb7          	lui	x29,0x89801
    80002624:	036e26b3          	mulhsu	x13,x28,x22
    80002628:	4164dbbb          	sraw	x23,x9,x22
    8000262c:	02b987b3          	mul	x15,x19,x11
    80002630:	c4f52c17          	auipc	x24,0xc4f52
    80002634:	0321fcb3          	remu	x25,x3,x18
    80002638:	00eb5413          	srli	x8,x22,0xe
    8000263c:	02b8d133          	divu	x2,x17,x11
    80002640:	4132073b          	subw	x14,x4,x19
    80002644:	0303403b          	divw	x0,x6,x16
    80002648:	0037d83b          	srlw	x16,x15,x3
    8000264c:	027b8db3          	mul	x27,x23,x7
    80002650:	ea1c6eb7          	lui	x29,0xea1c6
    80002654:	0368cab3          	div	x21,x17,x22
    80002658:	01648d3b          	addw	x26,x9,x22
    8000265c:	02f295b3          	mulh	x11,x5,x15
    80002660:	01be579b          	srliw	x15,x28,0x1b
    80002664:	02034633          	div	x12,x6,x0
    80002668:	3b22ab37          	lui	x22,0x3b22a
    8000266c:	03f73eb3          	mulhu	x29,x14,x31
    80002670:	d6a6d037          	lui	x0,0xd6a6d
    80002674:	02dafe3b          	remuw	x28,x21,x13
    80002678:	00e9a333          	slt	x6,x19,x14
    8000267c:	033f4433          	div	x8,x30,x19
    80002680:	016bf733          	and	x14,x23,x22
    80002684:	036b57b3          	divu	x15,x22,x22
    80002688:	016d1fbb          	sllw	x31,x26,x22
    8000268c:	03cded33          	rem	x26,x27,x28
    80002690:	01a09313          	slli	x6,x1,0x1a
    80002694:	03bcfbb3          	remu	x23,x25,x27
    80002698:	7fdcc937          	lui	x18,0x7fdcc
    8000269c:	03fcfe33          	remu	x28,x25,x31
    800026a0:	003da433          	slt	x8,x27,x3
    800026a4:	029d2233          	mulhsu	x4,x26,x9
    800026a8:	15754db7          	lui	x27,0x15754
    800026ac:	038a4bbb          	divw	x23,x20,x24
    800026b0:	4107033b          	subw	x6,x14,x16
    800026b4:	02d80533          	mul	x10,x16,x13
    800026b8:	01577fb3          	and	x31,x14,x21
    800026bc:	02f16933          	rem	x18,x2,x15
    800026c0:	09500417          	auipc	x8,0x9500
    800026c4:	03db65b3          	rem	x11,x22,x29
    800026c8:	a9da1717          	auipc	x14,0xa9da1
    800026cc:	03dbe6bb          	remw	x13,x23,x29
    800026d0:	75fb7513          	andi	x10,x22,1887
    800026d4:	02932a33          	mulhsu	x20,x6,x9
    800026d8:	00e45213          	srli	x4,x8,0xe
    800026dc:	03a9a733          	mulhsu	x14,x19,x26
    800026e0:	5e196ab7          	lui	x21,0x5e196
    800026e4:	0387dd3b          	divuw	x26,x15,x24
    800026e8:	59bbe013          	ori	x0,x23,1435
    800026ec:	02bb8c33          	mul	x24,x23,x11
    800026f0:	62581b37          	lui	x22,0x62581
    800026f4:	02269933          	mulh	x18,x13,x2
    800026f8:	409db417          	auipc	x8,0x409db
    800026fc:	03d601bb          	mulw	x3,x12,x29
    80002700:	007f6d33          	or	x26,x30,x7
    80002704:	03fdde3b          	divuw	x28,x27,x31
    80002708:	406b0f3b          	subw	x30,x22,x6
    8000270c:	020aecb3          	rem	x25,x21,x0
    80002710:	2ba79f97          	auipc	x31,0x2ba79
    80002714:	02848733          	mul	x14,x9,x8
    80002718:	10af96b7          	lui	x13,0x10af9
    8000271c:	035340bb          	divw	x1,x6,x21
    80002720:	6533b193          	sltiu	x3,x7,1619
    80002724:	02566d33          	rem	x26,x12,x5
    80002728:	0056149b          	slliw	x9,x12,0x5
    8000272c:	0343d3bb          	divuw	x7,x7,x20
    80002730:	0059d91b          	srliw	x18,x19,0x5
    80002734:	0289eab3          	rem	x21,x19,x8
    80002738:	41355633          	sra	x12,x10,x19
    8000273c:	0361e833          	rem	x16,x3,x22
    80002740:	00571e1b          	slliw	x28,x14,0x5
    80002744:	0334deb3          	divu	x29,x9,x19
    80002748:	00b08fb3          	add	x31,x1,x11
    8000274c:	02b3a1b3          	mulhsu	x3,x7,x11
    80002750:	00bcd0bb          	srlw	x1,x25,x11
    80002754:	029a04bb          	mulw	x9,x20,x9
    80002758:	2956af37          	lui	x30,0x2956a
    8000275c:	032682b3          	mul	x5,x13,x18
    80002760:	af4f3917          	auipc	x18,0xaf4f3
    80002764:	03b0dbb3          	divu	x23,x1,x27
    80002768:	02b9d113          	srli	x2,x19,0x2b
    8000276c:	021627b3          	mulhsu	x15,x12,x1
    80002770:	5853cb17          	auipc	x22,0x5853c
    80002774:	030ed833          	divu	x16,x29,x16
    80002778:	035bfa93          	andi	x21,x23,53
    8000277c:	03c3da3b          	divuw	x20,x7,x28
    80002780:	402f83b3          	sub	x7,x31,x2
    80002784:	02f742bb          	divw	x5,x14,x15
    80002788:	4065dc9b          	sraiw	x25,x11,0x6
    8000278c:	037e88b3          	mul	x17,x29,x23
    80002790:	0d5d0213          	addi	x4,x26,213 # 5cf640d5 <_start-0x2309bf2b>
    80002794:	02697d3b          	remuw	x26,x18,x6
    80002798:	005e9293          	slli	x5,x29,0x5
    8000279c:	039a33b3          	mulhu	x7,x20,x25
    800027a0:	01234113          	xori	x2,x6,18
    800027a4:	037e37b3          	mulhu	x15,x28,x23
    800027a8:	419edab3          	sra	x21,x29,x25
    800027ac:	032dfdbb          	remuw	x27,x27,x18
    800027b0:	010c9033          	sll	x0,x25,x16
    800027b4:	03d486bb          	mulw	x13,x9,x29
    800027b8:	40b85f9b          	sraiw	x31,x16,0xb
    800027bc:	0233ff33          	remu	x30,x7,x3
    800027c0:	0315d093          	srli	x1,x11,0x31
    800027c4:	02eb9e33          	mulh	x28,x23,x14
    800027c8:	036c1a13          	slli	x20,x24,0x36
    800027cc:	03274333          	div	x6,x14,x18
    800027d0:	d4de1eb7          	lui	x29,0xd4de1
    800027d4:	02c16cbb          	remw	x25,x2,x12
    800027d8:	01090db3          	add	x27,x18,x16
    800027dc:	0336cc33          	div	x24,x13,x19
    800027e0:	f40d2597          	auipc	x11,0xf40d2
    800027e4:	020388bb          	mulw	x17,x7,x0
    800027e8:	7eddaf37          	lui	x30,0x7edda
    800027ec:	02e74433          	div	x8,x14,x14
    800027f0:	0c981217          	auipc	x4,0xc981
    800027f4:	032b32b3          	mulhu	x5,x22,x18
    800027f8:	43ffda13          	srai	x20,x31,0x3f
    800027fc:	039bf0b3          	remu	x1,x23,x25
    80002800:	00012fb3          	slt	x31,x2,x0
    80002804:	024b6d3b          	remw	x26,x22,x4
    80002808:	0039d43b          	srlw	x8,x19,x3
    8000280c:	02f284bb          	mulw	x9,x5,x15
    80002810:	01bcdb33          	srl	x22,x25,x27
    80002814:	024f4eb3          	div	x29,x30,x4
    80002818:	01555333          	srl	x6,x10,x21
    8000281c:	030a7f3b          	remuw	x30,x20,x16
    80002820:	82984217          	auipc	x4,0x82984
    80002824:	02fc39b3          	mulhu	x19,x24,x15
    80002828:	0a3c4e93          	xori	x29,x24,163
    8000282c:	03f28d3b          	mulw	x26,x5,x31
    80002830:	873b1417          	auipc	x8,0x873b1
    80002834:	03cff3bb          	remuw	x7,x31,x28
    80002838:	018a8933          	add	x18,x21,x24
    8000283c:	034518b3          	mulh	x17,x10,x20
    80002840:	6b770693          	addi	x13,x14,1719 # 29da3d7f <_start-0x5625c281>
    80002844:	02f67ab3          	remu	x21,x12,x15
    80002848:	41bede3b          	sraw	x28,x29,x27
    8000284c:	0334743b          	remuw	x8,x8,x19
    80002850:	94c02a17          	auipc	x20,0x94c02
    80002854:	020f0d33          	mul	x26,x30,x0
    80002858:	b55276b7          	lui	x13,0xb5527
    8000285c:	031ec8bb          	divw	x17,x29,x17
    80002860:	004e89bb          	addw	x19,x29,x4
    80002864:	03562033          	mulhsu	x0,x12,x21
    80002868:	3362ae13          	slti	x28,x5,822
    8000286c:	0367c4b3          	div	x9,x15,x22
    80002870:	0025f433          	and	x8,x11,x2
    80002874:	02ae82bb          	mulw	x5,x29,x10
    80002878:	01df06bb          	addw	x13,x30,x29
    8000287c:	0333db3b          	divuw	x22,x7,x19
    80002880:	00c5191b          	slliw	x18,x10,0xc
    80002884:	02f0e7b3          	rem	x15,x1,x15
    80002888:	01a81113          	slli	x2,x16,0x1a
    8000288c:	0205dcbb          	divuw	x25,x11,x0
    80002890:	03add993          	srli	x19,x27,0x3a
    80002894:	0219573b          	divuw	x14,x18,x1
    80002898:	7d943e93          	sltiu	x29,x8,2009
    8000289c:	021ff13b          	remuw	x2,x31,x1
    800028a0:	42905013          	srai	x0,x0,0x29
    800028a4:	0236d23b          	divuw	x4,x13,x3
    800028a8:	0192da13          	srli	x20,x5,0x19
    800028ac:	02ce7dbb          	remuw	x27,x28,x12
    800028b0:	f84c34b7          	lui	x9,0xf84c3
    800028b4:	028e533b          	divuw	x6,x28,x8
    800028b8:	e77b00b7          	lui	x1,0xe77b0
    800028bc:	0227da33          	divu	x20,x15,x2
    800028c0:	4093d013          	srai	x0,x7,0x9
    800028c4:	03dcb933          	mulhu	x18,x25,x29
    800028c8:	0034b9b3          	sltu	x19,x9,x3
    800028cc:	0250b7b3          	mulhu	x15,x1,x5
    800028d0:	79043813          	sltiu	x16,x8,1936
    800028d4:	03af9cb3          	mulh	x25,x31,x26
    800028d8:	00da0c3b          	addw	x24,x20,x13
    800028dc:	03c75a3b          	divuw	x20,x14,x28
    800028e0:	008163b3          	or	x7,x2,x8
    800028e4:	02d866bb          	remw	x13,x16,x13
    800028e8:	00ad4533          	xor	x10,x26,x10
    800028ec:	026044bb          	divw	x9,x0,x6
    800028f0:	16d04913          	xori	x18,x0,365
    800028f4:	03316633          	rem	x12,x2,x19
    800028f8:	01f8d71b          	srliw	x14,x17,0x1f
    800028fc:	039b0433          	mul	x8,x22,x25
    80002900:	81bae2b7          	lui	x5,0x81bae
    80002904:	03d14a33          	div	x20,x2,x29
    80002908:	00899793          	slli	x15,x19,0x8
    8000290c:	037c76bb          	remuw	x13,x24,x23
    80002910:	e44b6817          	auipc	x16,0xe44b6
    80002914:	03a77733          	remu	x14,x14,x26
    80002918:	34687e97          	auipc	x29,0x34687
    8000291c:	033a2db3          	mulhsu	x27,x20,x19
    80002920:	01c69a33          	sll	x20,x13,x28
    80002924:	02a06f3b          	remw	x30,x0,x10
    80002928:	026c1f93          	slli	x31,x24,0x26
    8000292c:	039e0bb3          	mul	x23,x28,x25
    80002930:	06a74037          	lui	x0,0x6a74
    80002934:	0233b633          	mulhu	x12,x7,x3
    80002938:	2f8b0393          	addi	x7,x22,760 # d853ea68 <_start+0x5853ea68>
    8000293c:	02aa5a33          	divu	x20,x20,x10
    80002940:	fc914d37          	lui	x26,0xfc914
    80002944:	0367e23b          	remw	x4,x15,x22
    80002948:	7a7af313          	andi	x6,x21,1959
    8000294c:	02a05033          	divu	x0,x0,x10
    80002950:	416a5a93          	srai	x21,x20,0x16
    80002954:	032be7bb          	remw	x15,x23,x18
    80002958:	0094593b          	srlw	x18,x8,x9
    8000295c:	02cb58b3          	divu	x17,x22,x12
    80002960:	40d489bb          	subw	x19,x9,x13
    80002964:	037844b3          	div	x9,x16,x23
    80002968:	0000dd1b          	srliw	x26,x1,0x0
    8000296c:	0326f43b          	remuw	x8,x13,x18
    80002970:	01735733          	srl	x14,x6,x23
    80002974:	0357e0bb          	remw	x1,x15,x21
    80002978:	018c5033          	srl	x0,x24,x24
    8000297c:	02af59b3          	divu	x19,x30,x10
    80002980:	1fa1fc17          	auipc	x24,0x1fa1f
    80002984:	0304e1bb          	remw	x3,x9,x16
    80002988:	8dba0d97          	auipc	x27,0x8dba0
    8000298c:	022f4ab3          	div	x21,x30,x2
    80002990:	1b0fe113          	ori	x2,x31,432
    80002994:	03afb9b3          	mulhu	x19,x31,x26
    80002998:	0103043b          	addw	x8,x6,x16
    8000299c:	024e77bb          	remuw	x15,x28,x4
    800029a0:	4eb3d1b7          	lui	x3,0x4eb3d
    800029a4:	024e9fb3          	mulh	x31,x29,x4
    800029a8:	5943c717          	auipc	x14,0x5943c
    800029ac:	03405933          	divu	x18,x0,x20
    800029b0:	0185e533          	or	x10,x11,x24
    800029b4:	027bcebb          	divw	x29,x23,x7
    800029b8:	025a9993          	slli	x19,x21,0x25
    800029bc:	02dfc1b3          	div	x3,x31,x13
    800029c0:	00df9bbb          	sllw	x23,x31,x13
    800029c4:	029f1d33          	mulh	x26,x30,x9
    800029c8:	dcc3ba37          	lui	x20,0xdcc3b
    800029cc:	02265e3b          	divuw	x28,x12,x2
    800029d0:	001c179b          	slliw	x15,x24,0x1
    800029d4:	036f3133          	mulhu	x2,x30,x22
    800029d8:	8115dab7          	lui	x21,0x8115d
    800029dc:	03e4e0b3          	rem	x1,x9,x30
    800029e0:	018b5d1b          	srliw	x26,x22,0x18
    800029e4:	0286b9b3          	mulhu	x19,x13,x8
    800029e8:	03095193          	srli	x3,x18,0x30
    800029ec:	0322eebb          	remw	x29,x5,x18
    800029f0:	43925f93          	srai	x31,x4,0x39
    800029f4:	039cb333          	mulhu	x6,x25,x25
    800029f8:	02235ab7          	lui	x21,0x2235
    800029fc:	02e56c3b          	remw	x24,x10,x14
    80002a00:	25bb33b7          	lui	x7,0x25bb3
    80002a04:	025ff8bb          	remuw	x17,x31,x5
    80002a08:	01dee7b3          	or	x15,x29,x29
    80002a0c:	02086dbb          	remw	x27,x16,x0
    80002a10:	863aefb7          	lui	x31,0x863ae
    80002a14:	02663a33          	mulhu	x20,x12,x6
    80002a18:	35262193          	slti	x3,x12,850
    80002a1c:	02c24033          	div	x0,x4,x12
    80002a20:	001f6ab3          	or	x21,x30,x1
    80002a24:	02616fb3          	rem	x31,x2,x6
    80002a28:	72223c93          	sltiu	x25,x4,1826
    80002a2c:	026a53b3          	divu	x7,x20,x6
    80002a30:	41d4dbb3          	sra	x23,x9,x29
    80002a34:	036a9f33          	mulh	x30,x21,x22
    80002a38:	94ddcc17          	auipc	x24,0x94ddc
    80002a3c:	0329d5bb          	divuw	x11,x19,x18
    80002a40:	0193139b          	slliw	x7,x6,0x19
    80002a44:	03fae233          	rem	x4,x21,x31
    80002a48:	0124d49b          	srliw	x9,x9,0x12
    80002a4c:	02d8edbb          	remw	x27,x17,x13
    80002a50:	1ff73eb7          	lui	x29,0x1ff73
    80002a54:	03c56733          	rem	x14,x10,x28
    80002a58:	4001d69b          	sraiw	x13,x3,0x0
    80002a5c:	02901a33          	mulh	x20,x0,x9
    80002a60:	24a98613          	addi	x12,x19,586
    80002a64:	03eef1b3          	remu	x3,x29,x30
    80002a68:	3488009b          	addiw	x1,x16,840 # 644b8c58 <_start-0x1bb473a8>
    80002a6c:	03df34b3          	mulhu	x9,x30,x29
    80002a70:	37cca293          	slti	x5,x25,892
    80002a74:	03defc3b          	remuw	x24,x29,x29
    80002a78:	02b75f93          	srli	x31,x14,0x2b
    80002a7c:	037d66bb          	remw	x13,x26,x23
    80002a80:	00e79033          	sll	x0,x15,x14
    80002a84:	02f8ea33          	rem	x20,x17,x15
    80002a88:	6f57b0b7          	lui	x1,0x6f57b
    80002a8c:	02f7f43b          	remuw	x8,x15,x15
    80002a90:	01fe5f9b          	srliw	x31,x28,0x1f
    80002a94:	037c753b          	remuw	x10,x24,x23
    80002a98:	01013e33          	sltu	x28,x2,x16
    80002a9c:	0203763b          	remuw	x12,x6,x0
    80002aa0:	3b728297          	auipc	x5,0x3b728
    80002aa4:	02dd543b          	divuw	x8,x26,x13
    80002aa8:	5d96a697          	auipc	x13,0x5d96a
    80002aac:	029b3e33          	mulhu	x28,x22,x9
    80002ab0:	7ed3f7b7          	lui	x15,0x7ed3f
    80002ab4:	02056dbb          	remw	x27,x10,x0
    80002ab8:	5295849b          	addiw	x9,x11,1321 # 740d4d09 <_start-0xbf2b2f7>
    80002abc:	02ea05bb          	mulw	x11,x20,x14
    80002ac0:	40d2d8bb          	sraw	x17,x5,x13
    80002ac4:	038693b3          	mulh	x7,x13,x24
    80002ac8:	13f41eb7          	lui	x29,0x13f41
    80002acc:	039f59b3          	divu	x19,x30,x25
    80002ad0:	409f8633          	sub	x12,x31,x9
    80002ad4:	02204bbb          	divw	x23,x0,x2
    80002ad8:	8d4aa7b7          	lui	x15,0x8d4aa
    80002adc:	03414f33          	div	x30,x2,x20
    80002ae0:	1eaa021b          	addiw	x4,x20,490 # ffffffffdcc3b1ea <_start+0xffffffff5cc3b1ea>
    80002ae4:	035419b3          	mulh	x19,x8,x21
    80002ae8:	1895ba13          	sltiu	x20,x11,393
    80002aec:	03b29e33          	mulh	x28,x5,x27
    80002af0:	01bf533b          	srlw	x6,x30,x27
    80002af4:	0314d233          	divu	x4,x9,x17
    80002af8:	01ba0497          	auipc	x9,0x1ba0
    80002afc:	02874433          	div	x8,x14,x8
    80002b00:	82c3f717          	auipc	x14,0x82c3f
    80002b04:	025e8bb3          	mul	x23,x29,x5
    80002b08:	998a05b7          	lui	x11,0x998a0
    80002b0c:	024623b3          	mulhsu	x7,x12,x4
    80002b10:	41218fb3          	sub	x31,x3,x18
    80002b14:	022adeb3          	divu	x29,x21,x2
    80002b18:	00a51b9b          	slliw	x23,x10,0xa
    80002b1c:	020004b3          	mul	x9,x0,x0
    80002b20:	516b6413          	ori	x8,x22,1302
    80002b24:	036267b3          	rem	x15,x4,x22
    80002b28:	01899d33          	sll	x26,x19,x24
    80002b2c:	030f1b33          	mulh	x22,x30,x16
    80002b30:	f3b42517          	auipc	x10,0xf3b42
    80002b34:	03fc9833          	mulh	x16,x25,x31
    80002b38:	35be3737          	lui	x14,0x35be3
    80002b3c:	025448b3          	div	x17,x8,x5
    80002b40:	d0ed0b37          	lui	x22,0xd0ed0
    80002b44:	0332b233          	mulhu	x4,x5,x19
    80002b48:	4c464393          	xori	x7,x12,1220
    80002b4c:	030ef5bb          	remuw	x11,x29,x16
    80002b50:	8e00d6b7          	lui	x13,0x8e00d
    80002b54:	035d48b3          	div	x17,x26,x21
    80002b58:	da12d537          	lui	x10,0xda12d
    80002b5c:	03ad8333          	mul	x6,x27,x26
    80002b60:	398c4593          	xori	x11,x24,920
    80002b64:	03610833          	mul	x16,x2,x22
    80002b68:	0194e133          	or	x2,x9,x25
    80002b6c:	03979b33          	mulh	x22,x15,x25
    80002b70:	4038823b          	subw	x4,x17,x3
    80002b74:	03de8533          	mul	x10,x29,x29
    80002b78:	3644f913          	andi	x18,x9,868
    80002b7c:	03c3c6b3          	div	x13,x7,x28
    80002b80:	3679bc13          	sltiu	x24,x19,871
    80002b84:	02b272b3          	remu	x5,x4,x11
    80002b88:	859d5237          	lui	x4,0x859d5
    80002b8c:	031bd13b          	divuw	x2,x23,x17
    80002b90:	01b83533          	sltu	x10,x16,x27
    80002b94:	035c3933          	mulhu	x18,x24,x21
    80002b98:	01b2971b          	slliw	x14,x5,0x1b
    80002b9c:	023b4b33          	div	x22,x22,x3
    80002ba0:	00232633          	slt	x12,x6,x2
    80002ba4:	02f02133          	mulhsu	x2,x0,x15
    80002ba8:	1d15fa93          	andi	x21,x11,465
    80002bac:	02a5d33b          	divuw	x6,x11,x10
    80002bb0:	414f523b          	sraw	x4,x30,x20
    80002bb4:	038826b3          	mulhsu	x13,x16,x24
    80002bb8:	0150d29b          	srliw	x5,x1,0x15
    80002bbc:	02a4ce33          	div	x28,x9,x10
    80002bc0:	813a2017          	auipc	x0,0x813a2
    80002bc4:	03620dbb          	mulw	x27,x4,x22
    80002bc8:	01838433          	add	x8,x7,x24
    80002bcc:	0250c7bb          	divw	x15,x1,x5
    80002bd0:	ebb47897          	auipc	x17,0xebb47
    80002bd4:	03cd75bb          	remuw	x11,x26,x28
    80002bd8:	012cddb3          	srl	x27,x25,x18
    80002bdc:	02247133          	remu	x2,x8,x2
    80002be0:	28ab0e37          	lui	x28,0x28ab0
    80002be4:	023f96b3          	mulh	x13,x31,x3
    80002be8:	d5419f97          	auipc	x31,0xd5419
    80002bec:	031db5b3          	mulhu	x11,x27,x17
    80002bf0:	4e427913          	andi	x18,x4,1252
    80002bf4:	039d4ab3          	div	x21,x26,x25
    80002bf8:	2aef3093          	sltiu	x1,x30,686
    80002bfc:	02e604bb          	mulw	x9,x12,x14
    80002c00:	008d7733          	and	x14,x26,x8
    80002c04:	03d93633          	mulhu	x12,x18,x29
    80002c08:	000356bb          	srlw	x13,x6,x0
    80002c0c:	03c2743b          	remuw	x8,x4,x28
    80002c10:	cf6c3eb7          	lui	x29,0xcf6c3
    80002c14:	0301dfbb          	divuw	x31,x3,x16
    80002c18:	d3f7b797          	auipc	x15,0xd3f7b
    80002c1c:	02601e33          	mulh	x28,x0,x6
    80002c20:	439e63b7          	lui	x7,0x439e6
    80002c24:	0262a6b3          	mulhsu	x13,x5,x6
    80002c28:	08d502b7          	lui	x5,0x8d50
    80002c2c:	024c8b33          	mul	x22,x25,x4
    80002c30:	d1072517          	auipc	x10,0xd1072
    80002c34:	02013133          	mulhu	x2,x2,x0
    80002c38:	0926fa37          	lui	x20,0x926f
    80002c3c:	032d563b          	divuw	x12,x26,x18
    80002c40:	40945693          	srai	x13,x8,0x9
    80002c44:	03597933          	remu	x18,x18,x21
    80002c48:	410b5c33          	sra	x24,x22,x16
    80002c4c:	02784abb          	divw	x21,x16,x7
    80002c50:	013991bb          	sllw	x3,x19,x19
    80002c54:	03eb8b33          	mul	x22,x23,x30
    80002c58:	68ca0713          	addi	x14,x20,1676 # 926f68c <_start-0x76d90974>
    80002c5c:	02b073b3          	remu	x7,x0,x11
    80002c60:	01aa9c93          	slli	x25,x21,0x1a
    80002c64:	03ea78bb          	remuw	x17,x20,x30
    80002c68:	6854819b          	addiw	x3,x9,1669 # ffffffff81ba317d <_start+0xffffffff01ba317d>
    80002c6c:	0285ad33          	mulhsu	x26,x11,x8
    80002c70:	006d8db3          	add	x27,x27,x6
    80002c74:	038469b3          	rem	x19,x8,x24
    80002c78:	49695bb7          	lui	x23,0x49695
    80002c7c:	02366733          	rem	x14,x12,x3
    80002c80:	8b666097          	auipc	x1,0x8b666
    80002c84:	0356b2b3          	mulhu	x5,x13,x21
    80002c88:	009e4633          	xor	x12,x28,x9
    80002c8c:	0307813b          	mulw	x2,x15,x16
    80002c90:	25aa4537          	lui	x10,0x25aa4
    80002c94:	0333dcb3          	divu	x25,x7,x19
    80002c98:	014d3233          	sltu	x4,x26,x20
    80002c9c:	033972bb          	remuw	x5,x18,x19
    80002ca0:	0a694b97          	auipc	x23,0xa694
    80002ca4:	02792fb3          	mulhsu	x31,x18,x7
    80002ca8:	ff94acb7          	lui	x25,0xff94a
    80002cac:	03152733          	mulhsu	x14,x10,x17
    80002cb0:	40c2d79b          	sraiw	x15,x5,0xc
    80002cb4:	02c27133          	remu	x2,x4,x12
    80002cb8:	41f4523b          	sraw	x4,x8,x31
    80002cbc:	02b9ee33          	rem	x28,x19,x11
    80002cc0:	0032f9b3          	and	x19,x5,x3
    80002cc4:	0397e83b          	remw	x16,x15,x25
    80002cc8:	0053d6bb          	srlw	x13,x7,x5
    80002ccc:	02805133          	divu	x2,x0,x8
    80002cd0:	4035d433          	sra	x8,x11,x3
    80002cd4:	029cf2bb          	remuw	x5,x25,x9
    80002cd8:	400600bb          	subw	x1,x12,x0
    80002cdc:	03c27fbb          	remuw	x31,x4,x28
    80002ce0:	403b0f3b          	subw	x30,x22,x3
    80002ce4:	0339e933          	rem	x18,x19,x19
    80002ce8:	0071da9b          	srliw	x21,x3,0x7
    80002cec:	02dc3133          	mulhu	x2,x24,x13
    80002cf0:	014d1a33          	sll	x20,x26,x20
    80002cf4:	02d0ff3b          	remuw	x30,x1,x13
    80002cf8:	020fac17          	auipc	x24,0x20fa
    80002cfc:	02c57933          	remu	x18,x10,x12
    80002d00:	01d85437          	lui	x8,0x1d85
    80002d04:	0253c533          	div	x10,x7,x5
    80002d08:	003a73b3          	and	x7,x20,x3
    80002d0c:	029c533b          	divuw	x6,x24,x9
    80002d10:	3bebef17          	auipc	x30,0x3bebe
    80002d14:	025209b3          	mul	x19,x4,x5
    80002d18:	4182de1b          	sraiw	x28,x5,0x18
    80002d1c:	03790ebb          	mulw	x29,x18,x23
    80002d20:	0197dd13          	srli	x26,x15,0x19
    80002d24:	0244b133          	mulhu	x2,x9,x4
    80002d28:	009710bb          	sllw	x1,x14,x9
    80002d2c:	03e9c933          	div	x18,x19,x30
    80002d30:	8236e717          	auipc	x14,0x8236e
    80002d34:	0397863b          	mulw	x12,x15,x25
    80002d38:	416dd1b3          	sra	x3,x27,x22
    80002d3c:	033f9f33          	mulh	x30,x31,x19
    80002d40:	11a6b593          	sltiu	x11,x13,282
    80002d44:	03a4ecb3          	rem	x25,x9,x26
    80002d48:	9bcf5537          	lui	x10,0x9bcf5
    80002d4c:	0320cebb          	divw	x29,x1,x18
    80002d50:	623f18b7          	lui	x17,0x623f1
    80002d54:	021beb33          	rem	x22,x23,x1
    80002d58:	4144d333          	sra	x6,x9,x20
    80002d5c:	037d4133          	div	x2,x26,x23
    80002d60:	01a3adb3          	slt	x27,x7,x26
    80002d64:	02c1c53b          	divw	x10,x3,x12
    80002d68:	57c83393          	sltiu	x7,x16,1404
    80002d6c:	0251d033          	divu	x0,x3,x5
    80002d70:	00ecd733          	srl	x14,x25,x14
    80002d74:	03a7e0b3          	rem	x1,x15,x26
    80002d78:	57978b1b          	addiw	x22,x15,1401 # 53f7e191 <_start-0x2c081e6f>
    80002d7c:	03c2a8b3          	mulhsu	x17,x5,x28
    80002d80:	019d9d3b          	sllw	x26,x27,x25
    80002d84:	02ff49bb          	divw	x19,x30,x15
    80002d88:	01e6571b          	srliw	x14,x12,0x1e
    80002d8c:	03bf84bb          	mulw	x9,x31,x27
    80002d90:	0068dbb3          	srl	x23,x17,x6
    80002d94:	031065b3          	rem	x11,x0,x17
    80002d98:	9684eb37          	lui	x22,0x9684e
    80002d9c:	0233763b          	remuw	x12,x6,x3
    80002da0:	69ca3d93          	sltiu	x27,x20,1692
    80002da4:	03ae0bb3          	mul	x23,x28,x26
    80002da8:	89d05d17          	auipc	x26,0x89d05
    80002dac:	030adf33          	divu	x30,x21,x16
    80002db0:	5f200c93          	addi	x25,x0,1522
    80002db4:	0356d43b          	divuw	x8,x13,x21
    80002db8:	0133e6b3          	or	x13,x7,x19
    80002dbc:	023a613b          	remw	x2,x20,x3
    80002dc0:	01e07ab3          	and	x21,x0,x30
    80002dc4:	03a5ef33          	rem	x30,x11,x26
    80002dc8:	b8dee317          	auipc	x6,0xb8dee
    80002dcc:	039a6b33          	rem	x22,x20,x25
    80002dd0:	41bd5e1b          	sraiw	x28,x26,0x1b
    80002dd4:	0235d4b3          	divu	x9,x11,x3
    80002dd8:	008fc833          	xor	x16,x31,x8
    80002ddc:	0397b1b3          	mulhu	x3,x15,x25
    80002de0:	2f7b0c13          	addi	x24,x22,759 # ffffffff9684e2f7 <_start+0xffffffff1684e2f7>
    80002de4:	021ddeb3          	divu	x29,x27,x1
    80002de8:	00237433          	and	x8,x6,x2
    80002dec:	03160d3b          	mulw	x26,x12,x17
    80002df0:	40b989b3          	sub	x19,x19,x11
    80002df4:	02bf80b3          	mul	x1,x31,x11
    80002df8:	6108a793          	slti	x15,x17,1552
    80002dfc:	0364c63b          	divw	x12,x9,x22
    80002e00:	00811eb3          	sll	x29,x2,x8
    80002e04:	0383d4bb          	divuw	x9,x7,x24
    80002e08:	41a05a33          	sra	x20,x0,x26
    80002e0c:	0388d93b          	divuw	x18,x17,x24
    80002e10:	4000589b          	sraiw	x17,x0,0x0
    80002e14:	02cc12b3          	mulh	x5,x24,x12
    80002e18:	30374e97          	auipc	x29,0x30374
    80002e1c:	0266ff3b          	remuw	x30,x13,x6
    80002e20:	019c9e3b          	sllw	x28,x25,x25
    80002e24:	02cff333          	remu	x6,x31,x12
    80002e28:	ec7ec137          	lui	x2,0xec7ec
    80002e2c:	03d70833          	mul	x16,x14,x29
    80002e30:	411d80b3          	sub	x1,x27,x17
    80002e34:	02524f3b          	divw	x30,x4,x5
    80002e38:	011c4fb3          	xor	x31,x24,x17
    80002e3c:	022a2cb3          	mulhsu	x25,x20,x2
    80002e40:	57b60713          	addi	x14,x12,1403 # 4d9fc99b <_start-0x32603665>
    80002e44:	030695b3          	mulh	x11,x13,x16
    80002e48:	403300b3          	sub	x1,x6,x3
    80002e4c:	032028b3          	mulhsu	x17,x0,x18
    80002e50:	0856abb7          	lui	x23,0x856a
    80002e54:	03bd62bb          	remw	x5,x26,x27
    80002e58:	4042573b          	sraw	x14,x4,x4
    80002e5c:	03a40a3b          	mulw	x20,x8,x26
    80002e60:	1521801b          	addiw	x0,x3,338 # 4eb3d152 <_start-0x314c2eae>
    80002e64:	037c0e33          	mul	x28,x24,x23
    80002e68:	3a79d637          	lui	x12,0x3a79d
    80002e6c:	0285d2b3          	divu	x5,x11,x8
    80002e70:	013c513b          	srlw	x2,x24,x19
    80002e74:	0352093b          	mulw	x18,x4,x21
    80002e78:	014b1c9b          	slliw	x25,x22,0x14
    80002e7c:	0279f333          	remu	x6,x19,x7
    80002e80:	16a42297          	auipc	x5,0x16a42
    80002e84:	02ad63bb          	remw	x7,x26,x10
    80002e88:	8896a517          	auipc	x10,0x8896a
    80002e8c:	0386c8bb          	divw	x17,x13,x24
    80002e90:	f3fffdb7          	lui	x27,0xf3fff
    80002e94:	024ef5bb          	remuw	x11,x29,x4
    80002e98:	000ff333          	and	x6,x31,x0
    80002e9c:	03a57e33          	remu	x28,x10,x26
    80002ea0:	bd7521b7          	lui	x3,0xbd752
    80002ea4:	03f4eebb          	remw	x29,x9,x31
    80002ea8:	00e4d9b3          	srl	x19,x9,x14
    80002eac:	02dd3b33          	mulhu	x22,x26,x13
    80002eb0:	1984bf93          	sltiu	x31,x9,408
    80002eb4:	03e8c2b3          	div	x5,x17,x30
    80002eb8:	748f0d1b          	addiw	x26,x30,1864 # ffffffffbbec1458 <_start+0xffffffff3bec1458>
    80002ebc:	028766b3          	rem	x13,x14,x8
    80002ec0:	002e5ebb          	srlw	x29,x28,x2
    80002ec4:	02b7e13b          	remw	x2,x15,x11
    80002ec8:	d2c67797          	auipc	x15,0xd2c67
    80002ecc:	02e95733          	divu	x14,x18,x14
    80002ed0:	52050213          	addi	x4,x10,1312 # 896d3a8 <_start-0x77692c58>
    80002ed4:	02b600bb          	mulw	x1,x12,x11
    80002ed8:	40f28197          	auipc	x3,0x40f28
    80002edc:	026d0bb3          	mul	x23,x26,x6
    80002ee0:	97bab037          	lui	x0,0x97bab
    80002ee4:	03b33633          	mulhu	x12,x6,x27
    80002ee8:	20a19517          	auipc	x10,0x20a19
    80002eec:	0280fd3b          	remuw	x26,x1,x8
    80002ef0:	883751b7          	lui	x3,0x88375
    80002ef4:	0283a433          	mulhsu	x8,x7,x8
    80002ef8:	71a16137          	lui	x2,0x71a16
    80002efc:	03207233          	remu	x4,x0,x18
    80002f00:	41bfd79b          	sraiw	x15,x31,0x1b
    80002f04:	03c6ec33          	rem	x24,x13,x28
    80002f08:	03dc7b37          	lui	x22,0x3dc7
    80002f0c:	02ef73bb          	remuw	x7,x30,x14
    80002f10:	41115b9b          	sraiw	x23,x2,0x11
    80002f14:	03df8ebb          	mulw	x29,x31,x29
    80002f18:	6287851b          	addiw	x10,x15,1576 # 52c6a4f0 <_start-0x2d395b10>
    80002f1c:	0287633b          	remw	x6,x14,x8
    80002f20:	4040d79b          	sraiw	x15,x1,0x4
    80002f24:	0385d633          	divu	x12,x11,x24
    80002f28:	3de03b93          	sltiu	x23,x0,990
    80002f2c:	039c5d3b          	divuw	x26,x24,x25
    80002f30:	2c73e093          	ori	x1,x7,711
    80002f34:	034b6fb3          	rem	x31,x22,x20
    80002f38:	3c35da97          	auipc	x21,0x3c35d
    80002f3c:	023efa33          	remu	x20,x29,x3
    80002f40:	41a80bbb          	subw	x23,x16,x26
    80002f44:	023ec0bb          	divw	x1,x29,x3
    80002f48:	02175d13          	srli	x26,x14,0x21
    80002f4c:	02a73cb3          	mulhu	x25,x14,x10
    80002f50:	0477a213          	slti	x4,x15,71
    80002f54:	03e3cc33          	div	x24,x7,x30
    80002f58:	00d29f3b          	sllw	x30,x5,x13
    80002f5c:	023ba433          	mulhsu	x8,x23,x3
    80002f60:	53d833b7          	lui	x7,0x53d83
    80002f64:	035a76b3          	remu	x13,x20,x21
    80002f68:	62bc8d93          	addi	x27,x25,1579 # ffffffffff94a62b <_start+0xffffffff7f94a62b>
    80002f6c:	03f80fb3          	mul	x31,x16,x31
    80002f70:	2d704597          	auipc	x11,0x2d704
    80002f74:	03ccb633          	mulhu	x12,x25,x28
    80002f78:	41c086b3          	sub	x13,x1,x28
    80002f7c:	038bb9b3          	mulhu	x19,x23,x24
    80002f80:	21cd1bb7          	lui	x23,0x21cd1
    80002f84:	029b013b          	mulw	x2,x22,x9
    80002f88:	032a9013          	slli	x0,x21,0x32
    80002f8c:	02d2ef33          	rem	x30,x5,x13
    80002f90:	01fe1f9b          	slliw	x31,x28,0x1f
    80002f94:	027dfe3b          	remuw	x28,x27,x7
    80002f98:	23092393          	slti	x7,x18,560
    80002f9c:	02f984bb          	mulw	x9,x19,x15
    80002fa0:	1ef8b713          	sltiu	x14,x17,495
    80002fa4:	03f54f33          	div	x30,x10,x31
    80002fa8:	01715833          	srl	x16,x2,x23
    80002fac:	033e5a3b          	divuw	x20,x28,x19
    80002fb0:	30004b17          	auipc	x22,0x30004
    80002fb4:	029b9233          	mulh	x4,x23,x9
    80002fb8:	018ade93          	srli	x29,x21,0x18
    80002fbc:	0353b833          	mulhu	x16,x7,x21
    80002fc0:	40974493          	xori	x9,x14,1033
    80002fc4:	028d8a3b          	mulw	x20,x27,x8
    80002fc8:	46ff2b17          	auipc	x22,0x46ff2
    80002fcc:	031cde3b          	divuw	x28,x25,x17
    80002fd0:	13458b93          	addi	x23,x11,308 # ad7070a4 <_start+0x2d7070a4>
    80002fd4:	025657bb          	divuw	x15,x12,x5
    80002fd8:	e1a380b7          	lui	x1,0xe1a38
    80002fdc:	03f4643b          	remw	x8,x8,x31
    80002fe0:	018d3f33          	sltu	x30,x26,x24
    80002fe4:	02ecf4bb          	remuw	x9,x25,x14
    80002fe8:	00d9151b          	slliw	x10,x18,0xd
    80002fec:	039a0dbb          	mulw	x27,x20,x25
    80002ff0:	41675c33          	sra	x24,x14,x22
    80002ff4:	0326ef3b          	remw	x30,x13,x18
    80002ff8:	fee760b7          	lui	x1,0xfee76
    80002ffc:	02723e33          	mulhu	x28,x4,x7
    80003000:	016522b3          	slt	x5,x10,x22
    80003004:	038c9a33          	mulh	x20,x25,x24
    80003008:	01a9d9b3          	srl	x19,x19,x26
    8000300c:	02158c33          	mul	x24,x11,x1
    80003010:	22724bb7          	lui	x23,0x22724
    80003014:	02ce053b          	mulw	x10,x28,x12
    80003018:	014aaa33          	slt	x20,x21,x20
    8000301c:	0301c133          	div	x2,x3,x16
    80003020:	0a225eb7          	lui	x29,0xa225
    80003024:	02e91f33          	mulh	x30,x18,x14
    80003028:	013e13b3          	sll	x7,x28,x19
    8000302c:	030e57b3          	divu	x15,x28,x16
    80003030:	f7ba8697          	auipc	x13,0xf7ba8
    80003034:	03017d3b          	remuw	x26,x2,x16
    80003038:	406dd4b3          	sra	x9,x27,x6
    8000303c:	03723233          	mulhu	x4,x4,x23
    80003040:	b7899c17          	auipc	x24,0xb7899
    80003044:	02b5783b          	remuw	x16,x10,x11
    80003048:	01f6d613          	srli	x12,x13,0x1f
    8000304c:	025bd033          	divu	x0,x23,x5
    80003050:	2be7a693          	slti	x13,x15,702
    80003054:	02f1e3bb          	remw	x7,x3,x15
    80003058:	00fb053b          	addw	x10,x22,x15
    8000305c:	030ff33b          	remuw	x6,x31,x16
    80003060:	400f5dbb          	sraw	x27,x30,x0
    80003064:	03af4cbb          	divw	x25,x30,x26
    80003068:	4021df9b          	sraiw	x31,x3,0x2
    8000306c:	03147033          	remu	x0,x8,x17
    80003070:	015c579b          	srliw	x15,x24,0x15
    80003074:	03e9d733          	divu	x14,x19,x30
    80003078:	75bede17          	auipc	x28,0x75bed
    8000307c:	03b514b3          	mulh	x9,x10,x27
    80003080:	4060523b          	sraw	x4,x0,x6
    80003084:	02b67f3b          	remuw	x30,x12,x11
    80003088:	003322b3          	slt	x5,x6,x3
    8000308c:	0399efbb          	remw	x31,x19,x25
    80003090:	01a95a3b          	srlw	x20,x18,x26
    80003094:	02e69233          	mulh	x4,x13,x14
    80003098:	993da837          	lui	x16,0x993da
    8000309c:	027361b3          	rem	x3,x6,x7
    800030a0:	018b873b          	addw	x14,x23,x24
    800030a4:	03da2d33          	mulhsu	x26,x20,x29
    800030a8:	d6f21b17          	auipc	x22,0xd6f21
    800030ac:	02ff0e3b          	mulw	x28,x30,x15
    800030b0:	0892da97          	auipc	x21,0x892d
    800030b4:	0324e0b3          	rem	x1,x9,x18
    800030b8:	7829cc97          	auipc	x25,0x7829c
    800030bc:	028d2233          	mulhsu	x4,x26,x8
    800030c0:	f32d9537          	lui	x10,0xf32d9
    800030c4:	02c5e43b          	remw	x8,x11,x12
    800030c8:	3c374993          	xori	x19,x14,963
    800030cc:	02cb8db3          	mul	x27,x23,x12
    800030d0:	97bf8a17          	auipc	x20,0x97bf8
    800030d4:	02c706bb          	mulw	x13,x14,x12
    800030d8:	58320d13          	addi	x26,x4,1411 # ffffffff859d5583 <_start+0xffffffff059d5583>
    800030dc:	03ebf1bb          	remuw	x3,x23,x30
    800030e0:	6ecdc493          	xori	x9,x27,1772
    800030e4:	0370c93b          	divw	x18,x1,x23
    800030e8:	beb44db7          	lui	x27,0xbeb44
    800030ec:	02bc9833          	mulh	x16,x25,x11
    800030f0:	7ed6f793          	andi	x15,x13,2029
    800030f4:	03e58433          	mul	x8,x11,x30
    800030f8:	025b5593          	srli	x11,x22,0x25
    800030fc:	026ffbbb          	remuw	x23,x31,x6
    80003100:	00616b33          	or	x22,x2,x6
    80003104:	020ed4b3          	divu	x9,x29,x0
    80003108:	037fd793          	srli	x15,x31,0x37
    8000310c:	024dd933          	divu	x18,x27,x4
    80003110:	81f93137          	lui	x2,0x81f93
    80003114:	02dde3bb          	remw	x7,x27,x13
    80003118:	d2c32197          	auipc	x3,0xd2c32
    8000311c:	03ea023b          	mulw	x4,x20,x30
    80003120:	409605bb          	subw	x11,x12,x9
    80003124:	02542533          	mulhsu	x10,x8,x5
    80003128:	19b0e613          	ori	x12,x1,411
    8000312c:	0376f8bb          	remuw	x17,x13,x23
    80003130:	003e16bb          	sllw	x13,x28,x3
    80003134:	022d97b3          	mulh	x15,x27,x2
    80003138:	01904cb3          	xor	x25,x0,x25
    8000313c:	0253fb33          	remu	x22,x7,x5
    80003140:	c72c3497          	auipc	x9,0xc72c3
    80003144:	024168b3          	rem	x17,x2,x4
    80003148:	3b42ffb7          	lui	x31,0x3b42f
    8000314c:	02acf7b3          	remu	x15,x25,x10
    80003150:	78822a17          	auipc	x20,0x78822
    80003154:	0302f43b          	remuw	x8,x5,x16
    80003158:	015c9193          	slli	x3,x25,0x15
    8000315c:	03203cb3          	mulhu	x25,x0,x18
    80003160:	eb5f4697          	auipc	x13,0xeb5f4
    80003164:	02abf63b          	remuw	x12,x23,x10
    80003168:	015e509b          	srliw	x1,x28,0x15
    8000316c:	03131fb3          	mulh	x31,x6,x17
    80003170:	dfa7bb37          	lui	x22,0xdfa7b
    80003174:	038e7d33          	remu	x26,x28,x24
    80003178:	0098129b          	slliw	x5,x16,0x9
    8000317c:	02971f33          	mulh	x30,x14,x9
    80003180:	a8028eb7          	lui	x29,0xa8028
    80003184:	0310873b          	mulw	x14,x1,x17
    80003188:	041b4e17          	auipc	x28,0x41b4
    8000318c:	028fc23b          	divw	x4,x31,x8
    80003190:	01054cb3          	xor	x25,x10,x16
    80003194:	02a8fab3          	remu	x21,x17,x10
    80003198:	0162d193          	srli	x3,x5,0x16
    8000319c:	029e90b3          	mulh	x1,x29,x9
    800031a0:	c2041437          	lui	x8,0xc2041
    800031a4:	033264bb          	remw	x9,x4,x19
    800031a8:	352a6a93          	ori	x21,x20,850
    800031ac:	03d7cdbb          	divw	x27,x15,x29
    800031b0:	01714d33          	xor	x26,x2,x23
    800031b4:	03371a33          	mulh	x20,x14,x19
    800031b8:	4009549b          	sraiw	x9,x18,0x0
    800031bc:	03779eb3          	mulh	x29,x15,x23
    800031c0:	00eaa633          	slt	x12,x21,x14
    800031c4:	032300b3          	mul	x1,x6,x18
    800031c8:	413f5113          	srai	x2,x30,0x13
    800031cc:	020456b3          	divu	x13,x8,x0
    800031d0:	0065543b          	srlw	x8,x10,x6
    800031d4:	02579333          	mulh	x6,x15,x5
    800031d8:	143b8c13          	addi	x24,x23,323 # 22724143 <_start-0x5d8dbebd>
    800031dc:	02af4db3          	div	x27,x30,x10
    800031e0:	49330617          	auipc	x12,0x49330
    800031e4:	032ad1b3          	divu	x3,x21,x18
    800031e8:	2f9b4993          	xori	x19,x22,761
    800031ec:	035faeb3          	mulhsu	x29,x31,x21
    800031f0:	40555f3b          	sraw	x30,x10,x5
    800031f4:	035ca533          	mulhsu	x10,x25,x21
    800031f8:	2c634e13          	xori	x28,x6,710
    800031fc:	039aebb3          	rem	x23,x21,x25
    80003200:	702ed917          	auipc	x18,0x702ed
    80003204:	02620233          	mul	x4,x4,x6
    80003208:	41ea003b          	subw	x0,x20,x30
    8000320c:	0257f1b3          	remu	x3,x15,x5
    80003210:	402c5abb          	sraw	x21,x24,x2
    80003214:	02655833          	divu	x16,x10,x6
    80003218:	41335893          	srai	x17,x6,0x13
    8000321c:	03b7873b          	mulw	x14,x15,x27
    80003220:	a98aef37          	lui	x30,0xa98ae
    80003224:	02656b33          	rem	x22,x10,x6
    80003228:	d22c6997          	auipc	x19,0xd22c6
    8000322c:	03c7f333          	remu	x6,x15,x28
    80003230:	00d68abb          	addw	x21,x13,x13
    80003234:	0286b233          	mulhu	x4,x13,x8
    80003238:	038ec593          	xori	x11,x29,56
    8000323c:	034e8833          	mul	x16,x29,x20
    80003240:	af30cdb7          	lui	x27,0xaf30c
    80003244:	03650bb3          	mul	x23,x10,x22
    80003248:	16e3cf93          	xori	x31,x7,366
    8000324c:	032ad43b          	divuw	x8,x21,x18
    80003250:	40315f1b          	sraiw	x30,x2,0x3
    80003254:	0386a533          	mulhsu	x10,x13,x24
    80003258:	00581393          	slli	x7,x16,0x5
    8000325c:	0379f2bb          	remuw	x5,x19,x23
    80003260:	015b163b          	sllw	x12,x22,x21
    80003264:	02b37c3b          	remuw	x24,x6,x11
    80003268:	5fba0f13          	addi	x30,x20,1531 # f882574b <_start+0x7882574b>
    8000326c:	0211f033          	remu	x0,x3,x1
    80003270:	01f255b3          	srl	x11,x4,x31
    80003274:	02e886bb          	mulw	x13,x17,x14
    80003278:	c30e1497          	auipc	x9,0xc30e1
    8000327c:	0330bb33          	mulhu	x22,x1,x19
    80003280:	0134179b          	slliw	x15,x8,0x13
    80003284:	03f40fbb          	mulw	x31,x8,x31
    80003288:	01269233          	sll	x4,x13,x18
    8000328c:	021a613b          	remw	x2,x20,x1
    80003290:	00b956bb          	srlw	x13,x18,x11
    80003294:	0348b2b3          	mulhu	x5,x17,x20
    80003298:	009a9b9b          	slliw	x23,x21,0x9
    8000329c:	03b72eb3          	mulhsu	x29,x14,x27
    800032a0:	f5cc48b7          	lui	x17,0xf5cc4
    800032a4:	03613db3          	mulhu	x27,x2,x22
    800032a8:	6b0e039b          	addiw	x7,x28,1712 # ffffffff841b7838 <_start+0xffffffff041b7838>
    800032ac:	03f25c3b          	divuw	x24,x4,x31
    800032b0:	ccd52b37          	lui	x22,0xccd52
    800032b4:	031a2333          	mulhsu	x6,x20,x17
    800032b8:	4010d71b          	sraiw	x14,x1,0x1
    800032bc:	02a8a933          	mulhsu	x18,x17,x10
    800032c0:	08189197          	auipc	x3,0x8189
    800032c4:	02db8433          	mul	x8,x23,x13
    800032c8:	731a3e13          	sltiu	x28,x20,1841
    800032cc:	033cc13b          	divw	x2,x25,x19
    800032d0:	b739f997          	auipc	x19,0xb739f
    800032d4:	02ac5f33          	divu	x30,x24,x10
    800032d8:	007907bb          	addw	x15,x18,x7
    800032dc:	02b0d73b          	divuw	x14,x1,x11
    800032e0:	64b0d197          	auipc	x3,0x64b0d
    800032e4:	03492bb3          	mulhsu	x23,x18,x20
    800032e8:	41c558bb          	sraw	x17,x10,x28
    800032ec:	026a063b          	mulw	x12,x20,x6
    800032f0:	495e4d13          	xori	x26,x28,1173
    800032f4:	02256ebb          	remw	x29,x10,x2
    800032f8:	2e315737          	lui	x14,0x2e315
    800032fc:	02593133          	mulhu	x2,x18,x5
    80003300:	356de693          	ori	x13,x27,854
    80003304:	02b189bb          	mulw	x19,x3,x11
    80003308:	00ab101b          	slliw	x0,x22,0xa
    8000330c:	03e320b3          	mulhsu	x1,x6,x30
    80003310:	3773b593          	sltiu	x11,x7,887
    80003314:	023e4bbb          	divw	x23,x28,x3
    80003318:	0106c6b3          	xor	x13,x13,x16
    8000331c:	03aa8fbb          	mulw	x31,x21,x26
    80003320:	01b2993b          	sllw	x18,x5,x27
    80003324:	02aa5cbb          	divuw	x25,x20,x10
    80003328:	00c254bb          	srlw	x9,x4,x12
    8000332c:	0251d7bb          	divuw	x15,x3,x5
    80003330:	bc5d3db7          	lui	x27,0xbc5d3
    80003334:	0213f533          	remu	x10,x7,x1
    80003338:	047bed17          	auipc	x26,0x47be
    8000333c:	03694333          	div	x6,x18,x22
    80003340:	3bd6841b          	addiw	x8,x13,957 # 6b5f751d <_start-0x14a08ae3>
    80003344:	02d125b3          	mulhsu	x11,x2,x13
    80003348:	154a8b9b          	addiw	x23,x21,340 # ffffffff88930204 <_start+0xffffffff08930204>
    8000334c:	038d1133          	mulh	x2,x26,x24
    80003350:	40f38ab3          	sub	x21,x7,x15
    80003354:	0396b9b3          	mulhu	x19,x13,x25
    80003358:	54eeab13          	slti	x22,x29,1358
    8000335c:	02eb85bb          	mulw	x11,x23,x14
    80003360:	401783bb          	subw	x7,x15,x1
    80003364:	03fd9fb3          	mulh	x31,x27,x31
    80003368:	584f0813          	addi	x16,x30,1412 # ffffffffa98ae584 <_start+0xffffffff298ae584>
    8000336c:	023e5e3b          	divuw	x28,x28,x3
    80003370:	01bbf1b3          	and	x3,x23,x27
    80003374:	027b92b3          	mulh	x5,x23,x7
    80003378:	43ebd093          	srai	x1,x23,0x3e
    8000337c:	029ef33b          	remuw	x6,x29,x9
    80003380:	012b5593          	srli	x11,x22,0x12
    80003384:	02ad64bb          	remw	x9,x26,x10
    80003388:	00d39e9b          	slliw	x29,x7,0xd
    8000338c:	03129433          	mulh	x8,x5,x17
    80003390:	013a1d1b          	slliw	x26,x20,0x13
    80003394:	024ff6b3          	remu	x13,x31,x4
    80003398:	4bd4b493          	sltiu	x9,x9,1213
    8000339c:	027f85bb          	mulw	x11,x31,x7
    800033a0:	73b0b013          	sltiu	x0,x1,1851
    800033a4:	038ca9b3          	mulhsu	x19,x25,x24
    800033a8:	00e6c233          	xor	x4,x13,x14
    800033ac:	02a1e433          	rem	x8,x3,x10
    800033b0:	7e2eba93          	sltiu	x21,x29,2018
    800033b4:	030b1833          	mulh	x16,x22,x16
    800033b8:	00d770b3          	and	x1,x14,x13
    800033bc:	02748533          	mul	x10,x9,x7
    800033c0:	005451b3          	srl	x3,x8,x5
    800033c4:	038feeb3          	rem	x29,x31,x24
    800033c8:	c2b56237          	lui	x4,0xc2b56
    800033cc:	02ba4ab3          	div	x21,x20,x11
    800033d0:	01aa1f3b          	sllw	x30,x20,x26
    800033d4:	03095a3b          	divuw	x20,x18,x16
    800033d8:	58c93d17          	auipc	x26,0x58c93
    800033dc:	0217e3bb          	remw	x7,x15,x1
    800033e0:	014ade1b          	srliw	x28,x21,0x14
    800033e4:	03f1e2bb          	remw	x5,x3,x31
    800033e8:	f4c0cf37          	lui	x30,0xf4c0c
    800033ec:	02672eb3          	mulhsu	x29,x14,x6
    800033f0:	00888c33          	add	x24,x17,x8
    800033f4:	0341033b          	mulw	x6,x2,x20
    800033f8:	a93f62b7          	lui	x5,0xa93f6
    800033fc:	0297c6b3          	div	x13,x15,x9
    80003400:	d814ae37          	lui	x28,0xd814a
    80003404:	02749cb3          	mulh	x25,x9,x7
    80003408:	40255593          	srai	x11,x10,0x2
    8000340c:	03d7dabb          	divuw	x21,x15,x29
    80003410:	781d6513          	ori	x10,x26,1921
    80003414:	0323ab33          	mulhsu	x22,x7,x18
    80003418:	6de9ac13          	slti	x24,x19,1758
    8000341c:	03bd0433          	mul	x8,x26,x27
    80003420:	f4532037          	lui	x0,0xf4532
    80003424:	03776cbb          	remw	x25,x14,x23
    80003428:	41a784bb          	subw	x9,x15,x26
    8000342c:	0302c73b          	divw	x14,x5,x16
    80003430:	24d3f697          	auipc	x13,0x24d3f
    80003434:	03edd2b3          	divu	x5,x27,x30
    80003438:	00e79f9b          	slliw	x31,x15,0xe
    8000343c:	0230d7bb          	divuw	x15,x1,x3
    80003440:	00e26e33          	or	x28,x4,x14
    80003444:	0311a3b3          	mulhsu	x7,x3,x17
    80003448:	40d35433          	sra	x8,x6,x13
    8000344c:	03372033          	mulhsu	x0,x14,x19
    80003450:	18808b9b          	addiw	x23,x1,392 # fffffffffee76188 <_start+0xffffffff7ee76188>
    80003454:	03537db3          	remu	x27,x6,x21
    80003458:	01ccdf3b          	srlw	x30,x25,x28
    8000345c:	029370b3          	remu	x1,x6,x9
    80003460:	6c248897          	auipc	x17,0x6c248
    80003464:	02efdab3          	divu	x21,x31,x14
    80003468:	01a191bb          	sllw	x3,x3,x26
    8000346c:	02f249bb          	divw	x19,x4,x15
    80003470:	0089093b          	addw	x18,x18,x8
    80003474:	02d78133          	mul	x2,x15,x13
    80003478:	98889f97          	auipc	x31,0x98889
    8000347c:	025dd33b          	divuw	x6,x27,x5
    80003480:	405d50b3          	sra	x1,x26,x5
    80003484:	02c47cbb          	remuw	x25,x8,x12
    80003488:	6c477a13          	andi	x20,x14,1732
    8000348c:	02f3a133          	mulhsu	x2,x7,x15
    80003490:	7979861b          	addiw	x12,x19,1943 # 373a2a67 <_start-0x48c5d599>
    80003494:	02bdcbbb          	divw	x23,x27,x11
    80003498:	40535fb3          	sra	x31,x6,x5
    8000349c:	02688eb3          	mul	x29,x17,x6
    800034a0:	414c501b          	sraiw	x0,x24,0x14
    800034a4:	032db833          	mulhu	x16,x27,x18
    800034a8:	015c3533          	sltu	x10,x24,x21
    800034ac:	0293b1b3          	mulhu	x3,x7,x9
    800034b0:	009ebf93          	sltiu	x31,x29,9
    800034b4:	02f94233          	div	x4,x18,x15
    800034b8:	016996b3          	sll	x13,x19,x22
    800034bc:	020e543b          	divuw	x8,x28,x0
    800034c0:	00ac9dbb          	sllw	x27,x25,x10
    800034c4:	0395c1b3          	div	x3,x11,x25
    800034c8:	c81779b7          	lui	x19,0xc8177
    800034cc:	02949333          	mulh	x6,x9,x9
    800034d0:	3b577913          	andi	x18,x14,949
    800034d4:	02c7ee33          	rem	x28,x15,x12
    800034d8:	919e3bb7          	lui	x23,0x919e3
    800034dc:	0202c633          	div	x12,x5,x0
    800034e0:	01e39793          	slli	x15,x7,0x1e
    800034e4:	0241da33          	divu	x20,x3,x4
    800034e8:	7734c5b7          	lui	x11,0x7734c
    800034ec:	0273ecb3          	rem	x25,x7,x7
    800034f0:	1d6fc737          	lui	x14,0x1d6fc
    800034f4:	02195d33          	divu	x26,x18,x1
    800034f8:	015ec437          	lui	x8,0x15ec
    800034fc:	020c7abb          	remuw	x21,x24,x0
    80003500:	e93dee17          	auipc	x28,0xe93de
    80003504:	02d630b3          	mulhu	x1,x12,x13
    80003508:	0042173b          	sllw	x14,x4,x4
    8000350c:	023c6eb3          	rem	x29,x24,x3
    80003510:	61ddb993          	sltiu	x19,x27,1565
    80003514:	03a053bb          	divuw	x7,x0,x26
    80003518:	004af133          	and	x2,x21,x4
    8000351c:	026d4533          	div	x10,x26,x6
    80003520:	1194a793          	slti	x15,x9,281
    80003524:	03ceb833          	mulhu	x16,x29,x28
    80003528:	c2e30037          	lui	x0,0xc2e30
    8000352c:	023fc3b3          	div	x7,x31,x3
    80003530:	40aa8b33          	sub	x22,x21,x10
    80003534:	02c798b3          	mulh	x17,x15,x12
    80003538:	40465713          	srai	x14,x12,0x4
    8000353c:	02f06fb3          	rem	x31,x0,x15
    80003540:	015ab933          	sltu	x18,x21,x21
    80003544:	0200f03b          	remuw	x0,x1,x0
    80003548:	367eeb93          	ori	x23,x29,871
    8000354c:	03820533          	mul	x10,x4,x24
    80003550:	01fe1b13          	slli	x22,x28,0x1f
    80003554:	0316c9b3          	div	x19,x13,x17
    80003558:	06421d17          	auipc	x26,0x6421
    8000355c:	0351603b          	remw	x0,x2,x21
    80003560:	5262a717          	auipc	x14,0x5262a
    80003564:	02a6f7b3          	remu	x15,x13,x10
    80003568:	4090d4bb          	sraw	x9,x1,x9
    8000356c:	03c6fd3b          	remuw	x26,x13,x28
    80003570:	5af8f593          	andi	x11,x17,1455
    80003574:	030c7a33          	remu	x20,x24,x16
    80003578:	41fe5c9b          	sraiw	x25,x28,0x1f
    8000357c:	0254f63b          	remuw	x12,x9,x5
    80003580:	2c588a9b          	addiw	x21,x17,709 # ffffffffec24b725 <_start+0xffffffff6c24b725>
    80003584:	03c06fb3          	rem	x31,x0,x28
    80003588:	00728833          	add	x16,x5,x7
    8000358c:	031783bb          	mulw	x7,x15,x17
    80003590:	019216b3          	sll	x13,x4,x25
    80003594:	03316db3          	rem	x27,x2,x19
    80003598:	42a4d613          	srai	x12,x9,0x2a
    8000359c:	0285a833          	mulhsu	x16,x11,x8
    800035a0:	417008b3          	sub	x17,x0,x23
    800035a4:	03e59bb3          	mulh	x23,x11,x30
    800035a8:	1addf693          	andi	x13,x27,429
    800035ac:	03ac42bb          	divw	x5,x24,x26
    800035b0:	00e79a13          	slli	x20,x15,0xe
    800035b4:	02e36733          	rem	x14,x6,x14
    800035b8:	035b1593          	slli	x11,x22,0x35
    800035bc:	02f42633          	mulhsu	x12,x8,x15
    800035c0:	41e1833b          	subw	x6,x3,x30
    800035c4:	033036b3          	mulhu	x13,x0,x19
    800035c8:	410c88bb          	subw	x17,x25,x16
    800035cc:	024809bb          	mulw	x19,x16,x4
    800035d0:	53ec4497          	auipc	x9,0x53ec4
    800035d4:	03badb3b          	divuw	x22,x21,x27
    800035d8:	00429e1b          	slliw	x28,x5,0x4
    800035dc:	025862b3          	rem	x5,x16,x5
    800035e0:	638c6d13          	ori	x26,x24,1592
    800035e4:	03daa333          	mulhsu	x6,x21,x29
    800035e8:	11f1b413          	sltiu	x8,x3,287
    800035ec:	0278c733          	div	x14,x17,x7
    800035f0:	407a88b3          	sub	x17,x21,x7
    800035f4:	0247e7b3          	rem	x15,x15,x4
    800035f8:	0036bbb3          	sltu	x23,x13,x3
    800035fc:	02d923b3          	mulhsu	x7,x18,x13
    80003600:	504404b7          	lui	x9,0x50440
    80003604:	032a6d33          	rem	x26,x20,x18
    80003608:	40f9af93          	slti	x31,x19,1039
    8000360c:	0357f933          	remu	x18,x15,x21
    80003610:	cde26537          	lui	x10,0xcde26
    80003614:	03b4e033          	rem	x0,x9,x27
    80003618:	013f0ab3          	add	x21,x30,x19
    8000361c:	03a14433          	div	x8,x2,x26
    80003620:	badf8b37          	lui	x22,0xbadf8
    80003624:	03a90e33          	mul	x28,x18,x26
    80003628:	0183c3b3          	xor	x7,x7,x24
    8000362c:	02156633          	rem	x12,x10,x1
    80003630:	4f290e9b          	addiw	x29,x18,1266 # fffffffff02f06f2 <_start+0xffffffff702f06f2>
    80003634:	03541d33          	mulh	x26,x8,x21
    80003638:	a14e2737          	lui	x14,0xa14e2
    8000363c:	029b1433          	mulh	x8,x22,x9
    80003640:	002c8e3b          	addw	x28,x25,x2
    80003644:	034005bb          	mulw	x11,x0,x20
    80003648:	0118fbb3          	and	x23,x17,x17
    8000364c:	03b81fb3          	mulh	x31,x16,x27
    80003650:	47384037          	lui	x0,0x47384
    80003654:	024ee333          	rem	x6,x29,x4
    80003658:	699dc713          	xori	x14,x27,1689
    8000365c:	034d5ebb          	divuw	x29,x26,x20
    80003660:	616d7d93          	andi	x27,x26,1558
    80003664:	0218afb3          	mulhsu	x31,x17,x1
    80003668:	01366ab3          	or	x21,x12,x19
    8000366c:	0386c2b3          	div	x5,x13,x24
    80003670:	ed126b37          	lui	x22,0xed126
    80003674:	020bf133          	remu	x2,x23,x0
    80003678:	01ad96b3          	sll	x13,x27,x26
    8000367c:	02c62eb3          	mulhsu	x29,x12,x12
    80003680:	cc429297          	auipc	x5,0xcc429
    80003684:	03b0e333          	rem	x6,x1,x27
    80003688:	f4167097          	auipc	x1,0xf4167
    8000368c:	0278da3b          	divuw	x20,x17,x7
    80003690:	1d87be93          	sltiu	x29,x15,472
    80003694:	029af6bb          	remuw	x13,x21,x9
    80003698:	5de27013          	andi	x0,x4,1502
    8000369c:	0226793b          	remuw	x18,x12,x2
    800036a0:	40ffdfbb          	sraw	x31,x31,x15
    800036a4:	03eb4633          	div	x12,x22,x30
    800036a8:	302c2d37          	lui	x26,0x302c2
    800036ac:	035f25b3          	mulhsu	x11,x30,x21
    800036b0:	dc747197          	auipc	x3,0xdc747
    800036b4:	038b9a33          	mulh	x20,x23,x24
    800036b8:	40aed51b          	sraiw	x10,x29,0xa
    800036bc:	02ff79bb          	remuw	x19,x30,x15
    800036c0:	01659413          	slli	x8,x11,0x16
    800036c4:	02bd1933          	mulh	x18,x26,x11
    800036c8:	01c0bcb3          	sltu	x25,x1,x28
    800036cc:	03f1e733          	rem	x14,x3,x31
    800036d0:	24313613          	sltiu	x12,x2,579
    800036d4:	03c538b3          	mulhu	x17,x10,x28
    800036d8:	009824b3          	slt	x9,x16,x9
    800036dc:	02207033          	remu	x0,x0,x2
    800036e0:	9342fc97          	auipc	x25,0x9342f
    800036e4:	0381eb33          	rem	x22,x3,x24
    800036e8:	72e73bb7          	lui	x23,0x72e73
    800036ec:	02c76533          	rem	x10,x14,x12
    800036f0:	00f780bb          	addw	x1,x15,x15
    800036f4:	0286533b          	divuw	x6,x12,x8
    800036f8:	00deff33          	and	x30,x29,x13
    800036fc:	02ebd7bb          	divuw	x15,x23,x14
    80003700:	f5314917          	auipc	x18,0xf5314
    80003704:	02bdccbb          	divw	x25,x27,x11
    80003708:	085bbfb7          	lui	x31,0x85bb
    8000370c:	027e84b3          	mul	x9,x29,x7
    80003710:	2d92099b          	addiw	x19,x4,729 # ffffffffc2b562d9 <_start+0xffffffff42b562d9>
    80003714:	02b89833          	mulh	x16,x17,x11
    80003718:	bee77617          	auipc	x12,0xbee77
    8000371c:	03b578b3          	remu	x17,x10,x27
    80003720:	0ceb1737          	lui	x14,0xceb1
    80003724:	02650a33          	mul	x20,x10,x6
    80003728:	004cd9b3          	srl	x19,x25,x4
    8000372c:	024f6633          	rem	x12,x30,x4
    80003730:	4659d217          	auipc	x4,0x4659d
    80003734:	03ebb2b3          	mulhu	x5,x23,x30
    80003738:	001f9b93          	slli	x23,x31,0x1
    8000373c:	032571bb          	remuw	x3,x10,x18
    80003740:	51d59517          	auipc	x10,0x51d59
    80003744:	03bcac33          	mulhsu	x24,x25,x27
    80003748:	4125f693          	andi	x13,x11,1042
    8000374c:	02c0713b          	remuw	x2,x0,x12
    80003750:	36008c93          	addi	x25,x1,864 # 7416a9e8 <_start-0xbe95618>
    80003754:	02372433          	mulhsu	x8,x14,x3
    80003758:	d0a2dfb7          	lui	x31,0xd0a2d
    8000375c:	032e70bb          	remuw	x1,x28,x18
    80003760:	24403893          	sltiu	x17,x0,580
    80003764:	02fc5633          	divu	x12,x24,x15
    80003768:	a62a2d17          	auipc	x26,0xa62a2
    8000376c:	0395dcbb          	divuw	x25,x11,x25
    80003770:	012a09b3          	add	x19,x20,x18
    80003774:	0256b3b3          	mulhu	x7,x13,x5
    80003778:	03309093          	slli	x1,x1,0x33
    8000377c:	0384c833          	div	x16,x9,x24
    80003780:	00789793          	slli	x15,x17,0x7
    80003784:	0318e433          	rem	x8,x17,x17
    80003788:	005489b3          	add	x19,x9,x5
    8000378c:	03f15c3b          	divuw	x24,x2,x31
    80003790:	0046511b          	srliw	x2,x12,0x4
    80003794:	0341e0bb          	remw	x1,x3,x20
    80003798:	3d88e313          	ori	x6,x17,984
    8000379c:	02d53cb3          	mulhu	x25,x10,x13
    800037a0:	004d5733          	srl	x14,x26,x4
    800037a4:	035bce33          	div	x28,x23,x21
    800037a8:	0031a1b3          	slt	x3,x3,x3
    800037ac:	02af6433          	rem	x8,x30,x10
    800037b0:	01094533          	xor	x10,x18,x16
    800037b4:	03593cb3          	mulhu	x25,x18,x21
    800037b8:	40f8debb          	sraw	x29,x17,x15
    800037bc:	02d20e33          	mul	x28,x4,x13
    800037c0:	01ef9433          	sll	x8,x31,x30
    800037c4:	0203f1bb          	remuw	x3,x7,x0
    800037c8:	9c4b0ab7          	lui	x21,0x9c4b0
    800037cc:	02b6a3b3          	mulhsu	x7,x13,x11
    800037d0:	748d2f13          	slti	x30,x26,1864
    800037d4:	02008d3b          	mulw	x26,x1,x0
    800037d8:	40e0591b          	sraiw	x18,x0,0xe
    800037dc:	02c02a33          	mulhsu	x20,x0,x12
    800037e0:	0131c033          	xor	x0,x3,x19
    800037e4:	033f5233          	divu	x4,x30,x19
    800037e8:	015a999b          	slliw	x19,x21,0x15
    800037ec:	03c154bb          	divuw	x9,x2,x28
    800037f0:	412650b3          	sra	x1,x12,x18
    800037f4:	022e7133          	remu	x2,x28,x2
    800037f8:	d1b6dd97          	auipc	x27,0xd1b6d
    800037fc:	0243fbbb          	remuw	x23,x7,x4
    80003800:	4168d413          	srai	x8,x17,0x16
    80003804:	02420f3b          	mulw	x30,x4,x4
    80003808:	4e6ec037          	lui	x0,0x4e6ec
    8000380c:	03953fb3          	mulhu	x31,x10,x25
    80003810:	a54d88b7          	lui	x17,0xa54d8
    80003814:	023e42b3          	div	x5,x28,x3
    80003818:	fb55d9b7          	lui	x19,0xfb55d
    8000381c:	0210bdb3          	mulhu	x27,x1,x1
    80003820:	416a813b          	subw	x2,x21,x22
    80003824:	03867933          	remu	x18,x12,x24
    80003828:	0075a633          	slt	x12,x11,x7
    8000382c:	037e70bb          	remuw	x1,x28,x23
    80003830:	500e4693          	xori	x13,x28,1280
    80003834:	031ad43b          	divuw	x8,x21,x17
    80003838:	4d1d7317          	auipc	x6,0x4d1d7
    8000383c:	0372fb3b          	remuw	x22,x5,x23
    80003840:	b3be87b7          	lui	x15,0xb3be8
    80003844:	0386ee33          	rem	x28,x13,x24
    80003848:	00bdd63b          	srlw	x12,x27,x11
    8000384c:	02d08033          	mul	x0,x1,x13
    80003850:	01ecb733          	sltu	x14,x25,x30
    80003854:	03abd9bb          	divuw	x19,x23,x26
    80003858:	01a44433          	xor	x8,x8,x26
    8000385c:	024d43b3          	div	x7,x26,x4
    80003860:	0119103b          	sllw	x0,x18,x17
    80003864:	02b7f5bb          	remuw	x11,x15,x11
    80003868:	b3d8f897          	auipc	x17,0xb3d8f
    8000386c:	022a1fb3          	mulh	x31,x20,x2
    80003870:	2fba9e17          	auipc	x28,0x2fba9
    80003874:	03574f3b          	divw	x30,x14,x21
    80003878:	963c1c17          	auipc	x24,0x963c1
    8000387c:	027906bb          	mulw	x13,x18,x7
    80003880:	02715c93          	srli	x25,x2,0x27
    80003884:	02a2f2b3          	remu	x5,x5,x10
    80003888:	9fad0f17          	auipc	x30,0x9fad0
    8000388c:	0283fabb          	remuw	x21,x7,x8
    80003890:	4034023b          	subw	x4,x8,x3
    80003894:	0381603b          	remw	x0,x2,x24
    80003898:	411381b3          	sub	x3,x7,x17
    8000389c:	03a5ee3b          	remw	x28,x11,x26
    800038a0:	2128039b          	addiw	x7,x16,530 # ffffffff993da212 <_start+0xffffffff193da212>
    800038a4:	03ab1f33          	mulh	x30,x22,x26
    800038a8:	014af533          	and	x10,x21,x20
    800038ac:	036bfeb3          	remu	x29,x23,x22
    800038b0:	01f15333          	srl	x6,x2,x31
    800038b4:	02ecc1bb          	divw	x3,x25,x14
    800038b8:	339a6293          	ori	x5,x20,825
    800038bc:	03b4e533          	rem	x10,x9,x27
    800038c0:	41690c33          	sub	x24,x18,x22
    800038c4:	028b3b33          	mulhu	x22,x22,x8
    800038c8:	01515bb3          	srl	x23,x2,x21
    800038cc:	03e769b3          	rem	x19,x14,x30
    800038d0:	10ed7813          	andi	x16,x26,270
    800038d4:	03f0763b          	remuw	x12,x0,x31
    800038d8:	148fbc13          	sltiu	x24,x31,328
    800038dc:	02d06d3b          	remw	x26,x0,x13
    800038e0:	a31ebe17          	auipc	x28,0xa31eb
    800038e4:	026dc23b          	divw	x4,x27,x6
    800038e8:	78a68b1b          	addiw	x22,x13,1930 # ffffffffa4d42bba <_start+0xffffffff24d42bba>
    800038ec:	03e5cdbb          	divw	x27,x11,x30
    800038f0:	9a6e6c37          	lui	x24,0x9a6e6
    800038f4:	02335033          	divu	x0,x6,x3
    800038f8:	4149d49b          	sraiw	x9,x19,0x14
    800038fc:	033e1a33          	mulh	x20,x28,x19
    80003900:	78682d13          	slti	x26,x16,1926
    80003904:	03e0f433          	remu	x8,x1,x30
    80003908:	01d665b3          	or	x11,x12,x29
    8000390c:	02373633          	mulhu	x12,x14,x3
    80003910:	686a3993          	sltiu	x19,x20,1670
    80003914:	0318413b          	divw	x2,x16,x17
    80003918:	1df33013          	sltiu	x0,x6,479
    8000391c:	031c5a3b          	divuw	x20,x24,x17
    80003920:	01e5083b          	addw	x16,x10,x30
    80003924:	03de7fbb          	remuw	x31,x28,x29
    80003928:	55174a93          	xori	x21,x14,1361
    8000392c:	03d449b3          	div	x19,x8,x29
    80003930:	0078ae33          	slt	x28,x17,x7
    80003934:	03dbe6b3          	rem	x13,x23,x29
    80003938:	a9ee3b97          	auipc	x23,0xa9ee3
    8000393c:	03a1bd33          	mulhu	x26,x3,x26
    80003940:	01c0d213          	srli	x4,x1,0x1c
    80003944:	0337be33          	mulhu	x28,x15,x19
    80003948:	03501113          	slli	x2,x0,0x35
    8000394c:	0343e8b3          	rem	x17,x7,x20
    80003950:	41630bbb          	subw	x23,x6,x22
    80003954:	023d2333          	mulhsu	x6,x26,x3
    80003958:	30c50993          	addi	x19,x10,780 # d1d5ca4c <_start+0x51d5ca4c>
    8000395c:	03508533          	mul	x10,x1,x21
    80003960:	019d7db3          	and	x27,x26,x25
    80003964:	0385d03b          	divuw	x0,x11,x24
    80003968:	413d5c9b          	sraiw	x25,x26,0x13
    8000396c:	02feeb3b          	remw	x22,x29,x15
    80003970:	40a0d4bb          	sraw	x9,x1,x10
    80003974:	03733833          	mulhu	x16,x6,x23
    80003978:	f9ce36b7          	lui	x13,0xf9ce3
    8000397c:	02159433          	mulh	x8,x11,x1
    80003980:	0e800a97          	auipc	x21,0xe800
    80003984:	031321b3          	mulhsu	x3,x6,x17
    80003988:	408d5d1b          	sraiw	x26,x26,0x8
    8000398c:	02fb4933          	div	x18,x22,x15
    80003990:	0b083493          	sltiu	x9,x16,176
    80003994:	02b9f7b3          	remu	x15,x19,x11
    80003998:	5d63841b          	addiw	x8,x7,1494 # 53d835d6 <_start-0x2c27ca2a>
    8000399c:	035a4a3b          	divw	x20,x20,x21
    800039a0:	413fd2b3          	sra	x5,x31,x19
    800039a4:	031be333          	rem	x6,x23,x17
    800039a8:	40edd6bb          	sraw	x13,x27,x14
    800039ac:	03eacabb          	divw	x21,x21,x30
    800039b0:	00ed8dbb          	addw	x27,x27,x14
    800039b4:	02bbc63b          	divw	x12,x23,x11
    800039b8:	103d0e1b          	addiw	x28,x26,259 # 262a586b <_start-0x59d5a795>
    800039bc:	038d403b          	divw	x0,x26,x24
    800039c0:	77a78837          	lui	x16,0x77a78
    800039c4:	02e7e9bb          	remw	x19,x15,x14
    800039c8:	a58e3417          	auipc	x8,0xa58e3
    800039cc:	0360d8bb          	divuw	x17,x1,x22
    800039d0:	0645a197          	auipc	x3,0x645a
    800039d4:	02eafe33          	remu	x28,x21,x14
    800039d8:	00ac9633          	sll	x12,x25,x10
    800039dc:	03720733          	mul	x14,x4,x23
    800039e0:	416006bb          	subw	x13,x0,x22
    800039e4:	022f7533          	remu	x10,x30,x2
    800039e8:	01643033          	sltu	x0,x8,x22
    800039ec:	033a9d33          	mulh	x26,x21,x19
    800039f0:	40ea5e1b          	sraiw	x28,x20,0xe
    800039f4:	033836b3          	mulhu	x13,x16,x19
    800039f8:	433f0113          	addi	x2,x30,1075 # 1fad3cbb <_start-0x6052c345>
    800039fc:	02e7f73b          	remuw	x14,x15,x14
    80003a00:	007edd33          	srl	x26,x29,x7
    80003a04:	02644033          	div	x0,x8,x6
    80003a08:	69d74917          	auipc	x18,0x69d74
    80003a0c:	027265b3          	rem	x11,x4,x7
    80003a10:	416dd133          	sra	x2,x27,x22
    80003a14:	031f0db3          	mul	x27,x30,x17
    80003a18:	40a6521b          	sraiw	x4,x12,0xa
    80003a1c:	03c52933          	mulhsu	x18,x10,x28
    80003a20:	01c6da3b          	srlw	x20,x13,x28
    80003a24:	02f401b3          	mul	x3,x8,x15
    80003a28:	e2abdb97          	auipc	x23,0xe2abd
    80003a2c:	024f86b3          	mul	x13,x31,x4
    80003a30:	a7adfeb7          	lui	x29,0xa7adf
    80003a34:	03bcf7bb          	remuw	x15,x25,x27
    80003a38:	4162d29b          	sraiw	x5,x5,0x16
    80003a3c:	03fd6e33          	rem	x28,x26,x31
    80003a40:	00e1d3b3          	srl	x7,x3,x14
    80003a44:	03d84c33          	div	x24,x16,x29
    80003a48:	001e9f9b          	slliw	x31,x29,0x1
    80003a4c:	03adbeb3          	mulhu	x29,x27,x26
    80003a50:	76460993          	addi	x19,x12,1892 # 3ee7ae7c <_start-0x41185184>
    80003a54:	03c5433b          	divw	x6,x10,x28
    80003a58:	49226213          	ori	x4,x4,1170
    80003a5c:	02a450bb          	divuw	x1,x8,x10
    80003a60:	427b6f13          	ori	x30,x22,1063
    80003a64:	023d9ab3          	mulh	x21,x27,x3
    80003a68:	ff918997          	auipc	x19,0xff918
    80003a6c:	03ad5a33          	divu	x20,x26,x26
    80003a70:	53cce937          	lui	x18,0x53cce
    80003a74:	038b44bb          	divw	x9,x22,x24
    80003a78:	0152903b          	sllw	x0,x5,x21
    80003a7c:	033ceeb3          	rem	x29,x25,x19
    80003a80:	01379313          	slli	x6,x15,0x13
    80003a84:	03524cbb          	divw	x25,x4,x21
    80003a88:	9b8b3997          	auipc	x19,0x9b8b3
    80003a8c:	03802b33          	mulhsu	x22,x0,x24
    80003a90:	019adf1b          	srliw	x30,x21,0x19
    80003a94:	03a56e33          	rem	x28,x10,x26
    80003a98:	3a71f597          	auipc	x11,0x3a71f
    80003a9c:	026356b3          	divu	x13,x6,x6
    80003aa0:	beaa4fb7          	lui	x31,0xbeaa4
    80003aa4:	03535933          	divu	x18,x6,x21
    80003aa8:	613cf213          	andi	x4,x25,1555
    80003aac:	02789733          	mulh	x14,x17,x7
    80003ab0:	d1e22f17          	auipc	x30,0xd1e22
    80003ab4:	03fdeb3b          	remw	x22,x27,x31
    80003ab8:	5aac6cb7          	lui	x25,0x5aac6
    80003abc:	03f6cebb          	divw	x29,x13,x31
    80003ac0:	38b68c1b          	addiw	x24,x13,907 # fffffffff9ce338b <_start+0xffffffff79ce338b>
    80003ac4:	02f5a633          	mulhsu	x12,x11,x15
    80003ac8:	40505a3b          	sraw	x20,x0,x5
    80003acc:	0225f933          	remu	x18,x11,x2
    80003ad0:	95f5f0b7          	lui	x1,0x95f5f
    80003ad4:	0297e13b          	remw	x2,x15,x9
    80003ad8:	01c20abb          	addw	x21,x4,x28
    80003adc:	03da5233          	divu	x4,x20,x29
    80003ae0:	01f9d1bb          	srlw	x3,x19,x31
    80003ae4:	03a7e2b3          	rem	x5,x15,x26
    80003ae8:	009da9b3          	slt	x19,x27,x9
    80003aec:	020cd73b          	divuw	x14,x25,x0
    80003af0:	01ba57b3          	srl	x15,x20,x27
    80003af4:	034a68bb          	remw	x17,x20,x20
    80003af8:	00131633          	sll	x12,x6,x1
    80003afc:	0290e3bb          	remw	x7,x1,x9
    80003b00:	aa836917          	auipc	x18,0xaa836
    80003b04:	03f1e733          	rem	x14,x3,x31
    80003b08:	f0719517          	auipc	x10,0xf0719
    80003b0c:	02036ebb          	remw	x29,x6,x0
    80003b10:	00d41e3b          	sllw	x28,x8,x13
    80003b14:	02fb033b          	mulw	x6,x22,x15
    80003b18:	7a077d93          	andi	x27,x14,1952
    80003b1c:	02f6803b          	mulw	x0,x13,x15
    80003b20:	40a0de9b          	sraiw	x29,x1,0xa
    80003b24:	03aa893b          	mulw	x18,x21,x26
    80003b28:	01141e33          	sll	x28,x8,x17
    80003b2c:	03153833          	mulhu	x16,x10,x17
    80003b30:	003397bb          	sllw	x15,x7,x3
    80003b34:	03a9bdb3          	mulhu	x27,x19,x26
    80003b38:	0065ecb3          	or	x25,x11,x6
    80003b3c:	02b9873b          	mulw	x14,x19,x11
    80003b40:	9ab10137          	lui	x2,0x9ab10
    80003b44:	02d504bb          	mulw	x9,x10,x13
    80003b48:	03bedf13          	srli	x30,x29,0x3b
    80003b4c:	02d84cbb          	divw	x25,x16,x13
    80003b50:	01619933          	sll	x18,x3,x22
    80003b54:	02de7e3b          	remuw	x28,x28,x13
    80003b58:	001471b3          	and	x3,x8,x1
    80003b5c:	03a4ec3b          	remw	x24,x9,x26
    80003b60:	01e258bb          	srlw	x17,x4,x30
    80003b64:	02579433          	mulh	x8,x15,x5
    80003b68:	efbf76b7          	lui	x13,0xefbf7
    80003b6c:	03ce4633          	div	x12,x28,x28
    80003b70:	01355293          	srli	x5,x10,0x13
    80003b74:	03050bb3          	mul	x23,x10,x16
    80003b78:	01e0b233          	sltu	x4,x1,x30
    80003b7c:	034787bb          	mulw	x15,x15,x20
    80003b80:	598fc613          	xori	x12,x31,1432
    80003b84:	02bee733          	rem	x14,x29,x11
    80003b88:	fba38d37          	lui	x26,0xfba38
    80003b8c:	0354deb3          	divu	x29,x9,x21
    80003b90:	07554e37          	lui	x28,0x7554
    80003b94:	028c8bb3          	mul	x23,x25,x8
    80003b98:	614c8193          	addi	x3,x25,1556 # 5aac6614 <_start-0x255399ec>
    80003b9c:	03a34fbb          	divw	x31,x6,x26
    80003ba0:	1d680d9b          	addiw	x27,x16,470 # 77a781d6 <_start-0x8587e2a>
    80003ba4:	0293d53b          	divuw	x10,x7,x9
    80003ba8:	0083d69b          	srliw	x13,x7,0x8
    80003bac:	0370ba33          	mulhu	x20,x1,x23
    80003bb0:	0080e733          	or	x14,x1,x8
    80003bb4:	031b7f3b          	remuw	x30,x22,x17
    80003bb8:	f5672597          	auipc	x11,0xf5672
    80003bbc:	0291f9b3          	remu	x19,x3,x9
    80003bc0:	41808433          	sub	x8,x1,x24
    80003bc4:	038a51bb          	divuw	x3,x20,x24
    80003bc8:	108d8b13          	addi	x22,x27,264 # 51b70900 <_start-0x2e48f700>
    80003bcc:	0328f633          	remu	x12,x17,x18
    80003bd0:	0115893b          	addw	x18,x11,x17
    80003bd4:	02f045bb          	divw	x11,x0,x15
    80003bd8:	f565a237          	lui	x4,0xf565a
    80003bdc:	03f3cb3b          	divw	x22,x7,x31
    80003be0:	f702e397          	auipc	x7,0xf702e
    80003be4:	037d5733          	divu	x14,x26,x23
    80003be8:	01432833          	slt	x16,x6,x20
    80003bec:	03ac81bb          	mulw	x3,x25,x26
    80003bf0:	0029b8b3          	sltu	x17,x19,x2
    80003bf4:	0374c3bb          	divw	x7,x9,x23
    80003bf8:	dfbe4237          	lui	x4,0xdfbe4
    80003bfc:	03254c3b          	divw	x24,x10,x18
    80003c00:	009fbeb3          	sltu	x29,x31,x9
    80003c04:	0390453b          	divw	x10,x0,x25
    80003c08:	00d777b3          	and	x15,x14,x13
    80003c0c:	0283c033          	div	x0,x7,x8
    80003c10:	2325dcb7          	lui	x25,0x2325d
    80003c14:	0312d0b3          	divu	x1,x5,x17
    80003c18:	29bbb9b7          	lui	x19,0x29bbb
    80003c1c:	02ad8db3          	mul	x27,x27,x10
    80003c20:	c2e74e97          	auipc	x29,0xc2e74
    80003c24:	025b07bb          	mulw	x15,x22,x5
    80003c28:	6a9a8a93          	addi	x21,x21,1705 # 8e804029 <_start+0xe804029>
    80003c2c:	03c95333          	divu	x6,x18,x28
    80003c30:	a4a56f17          	auipc	x30,0xa4a56
    80003c34:	03a9483b          	divw	x16,x18,x26
    80003c38:	39050793          	addi	x15,x10,912 # 7071ce98 <_start-0xf8e3168>
    80003c3c:	02b953b3          	divu	x7,x18,x11
    80003c40:	00191fb3          	sll	x31,x18,x1
    80003c44:	032adcb3          	divu	x25,x21,x18
    80003c48:	9aa29a97          	auipc	x21,0x9aa29
    80003c4c:	038b79b3          	remu	x19,x22,x24
    80003c50:	45ae0137          	lui	x2,0x45ae0
    80003c54:	03ba44bb          	divw	x9,x20,x27
    80003c58:	2666f197          	auipc	x3,0x2666f
    80003c5c:	03ff2433          	mulhsu	x8,x30,x31
    80003c60:	01e503bb          	addw	x7,x10,x30
    80003c64:	030f063b          	mulw	x12,x30,x16
    80003c68:	421dd113          	srai	x2,x27,0x21
    80003c6c:	0340fdb3          	remu	x27,x1,x20
    80003c70:	405356bb          	sraw	x13,x6,x5
    80003c74:	031bda3b          	divuw	x20,x23,x17
    80003c78:	00fce433          	or	x8,x25,x15
    80003c7c:	029282b3          	mul	x5,x5,x9
    80003c80:	60950a93          	addi	x21,x10,1545
    80003c84:	02100eb3          	mul	x29,x0,x1
    80003c88:	41f0c393          	xori	x7,x1,1055
    80003c8c:	020788bb          	mulw	x17,x15,x0
    80003c90:	0191bbb3          	sltu	x23,x3,x25
    80003c94:	028a463b          	divw	x12,x20,x8
    80003c98:	1011041b          	addiw	x8,x2,257 # 45ae0101 <_start-0x3a51feff>
    80003c9c:	0216d83b          	divuw	x16,x13,x1
    80003ca0:	4f7d47b7          	lui	x15,0x4f7d4
    80003ca4:	03bfb333          	mulhu	x6,x31,x27
    80003ca8:	ff81ac97          	auipc	x25,0xff81a
    80003cac:	033f0933          	mul	x18,x30,x19
    80003cb0:	64cae717          	auipc	x14,0x64cae
    80003cb4:	036e453b          	divw	x10,x28,x22
    80003cb8:	00601493          	slli	x9,x0,0x6
    80003cbc:	03f19033          	mulh	x0,x3,x31
    80003cc0:	00b6109b          	slliw	x1,x12,0xb
    80003cc4:	03458bb3          	mul	x23,x11,x20
    80003cc8:	01a8ceb3          	xor	x29,x17,x26
    80003ccc:	02de0e33          	mul	x28,x28,x13
    80003cd0:	b5270417          	auipc	x8,0xb5270
    80003cd4:	0305ea33          	rem	x20,x11,x16
    80003cd8:	0049939b          	slliw	x7,x19,0x4
    80003cdc:	02a370b3          	remu	x1,x6,x10
    80003ce0:	40ec07b3          	sub	x15,x24,x14
    80003ce4:	0365873b          	mulw	x14,x11,x22
    80003ce8:	106b3bb7          	lui	x23,0x106b3
    80003cec:	03ecd1bb          	divuw	x3,x25,x30
    80003cf0:	01a0191b          	slliw	x18,x0,0x1a
    80003cf4:	038443bb          	divw	x7,x8,x24
    80003cf8:	a7435097          	auipc	x1,0xa7435
    80003cfc:	03971033          	mulh	x0,x14,x25
    80003d00:	01449a1b          	slliw	x20,x9,0x14
    80003d04:	033541b3          	div	x3,x10,x19
    80003d08:	01fbdc9b          	srliw	x25,x23,0x1f
    80003d0c:	02a819b3          	mulh	x19,x16,x10
    80003d10:	00bbd933          	srl	x18,x23,x11
    80003d14:	036acfb3          	div	x31,x21,x22
    80003d18:	54cd8713          	addi	x14,x27,1356
    80003d1c:	0302e7b3          	rem	x15,x5,x16
    80003d20:	417503b3          	sub	x7,x10,x23
    80003d24:	039605bb          	mulw	x11,x12,x25
    80003d28:	40ced8bb          	sraw	x17,x29,x12
    80003d2c:	022aeabb          	remw	x21,x21,x2
    80003d30:	01f23533          	sltu	x10,x4,x31
    80003d34:	03c3ddb3          	divu	x27,x7,x28
    80003d38:	8f580bb7          	lui	x23,0x8f580
    80003d3c:	02bf9233          	mulh	x4,x31,x11
    80003d40:	0ac9ee93          	ori	x29,x19,172
    80003d44:	03c107b3          	mul	x15,x2,x28
    80003d48:	0959fb13          	andi	x22,x19,149
    80003d4c:	03ce7e3b          	remuw	x28,x28,x28
    80003d50:	f14a3017          	auipc	x0,0xf14a3
    80003d54:	03f1bc33          	mulhu	x24,x3,x31
    80003d58:	0070bbb3          	sltu	x23,x1,x7
    80003d5c:	026d5633          	divu	x12,x26,x6
    80003d60:	016db2b3          	sltu	x5,x27,x22
    80003d64:	0300ef33          	rem	x30,x1,x16
    80003d68:	532a881b          	addiw	x16,x21,1330 # 1aa2d17a <_start-0x655d2e86>
    80003d6c:	02ad0333          	mul	x6,x26,x10
    80003d70:	4334d413          	srai	x8,x9,0x33
    80003d74:	036623b3          	mulhsu	x7,x12,x22
    80003d78:	bed312b7          	lui	x5,0xbed31
    80003d7c:	023ce1b3          	rem	x3,x25,x3
    80003d80:	415907bb          	subw	x15,x18,x21
    80003d84:	02e246bb          	divw	x13,x4,x14
    80003d88:	01e90e33          	add	x28,x18,x30
    80003d8c:	033bd533          	divu	x10,x23,x19
    80003d90:	69a1ec13          	ori	x24,x3,1690
    80003d94:	02291d33          	mulh	x26,x18,x2
    80003d98:	0161d2bb          	srlw	x5,x3,x22
    80003d9c:	027e6cbb          	remw	x25,x28,x7
    80003da0:	01a9941b          	slliw	x8,x19,0x1a
    80003da4:	020dc5b3          	div	x11,x27,x0
    80003da8:	e9aa53b7          	lui	x7,0xe9aa5
    80003dac:	02417033          	remu	x0,x2,x4
    80003db0:	01e88b3b          	addw	x22,x17,x30
    80003db4:	033bc333          	div	x6,x23,x19
    80003db8:	4136d69b          	sraiw	x13,x13,0x13
    80003dbc:	03c5ae33          	mulhsu	x28,x11,x28
    80003dc0:	016c999b          	slliw	x19,x25,0x16
    80003dc4:	025d6bbb          	remw	x23,x26,x5
    80003dc8:	01c0181b          	slliw	x16,x0,0x1c
    80003dcc:	03b42d33          	mulhsu	x26,x8,x27
    80003dd0:	d11bba37          	lui	x20,0xd11bb
    80003dd4:	02cc12b3          	mulh	x5,x24,x12
    80003dd8:	6a63af93          	slti	x31,x7,1702
    80003ddc:	029bc233          	div	x4,x23,x9
    80003de0:	41ed5d3b          	sraw	x26,x26,x30
    80003de4:	039f68bb          	remw	x17,x30,x25
    80003de8:	0076d33b          	srlw	x6,x13,x7
    80003dec:	037775bb          	remuw	x11,x14,x23
    80003df0:	01e013bb          	sllw	x7,x0,x30
    80003df4:	02871933          	mulh	x18,x14,x8
    80003df8:	1070af97          	auipc	x31,0x1070a
    80003dfc:	026a16b3          	mulh	x13,x20,x6
    80003e00:	00886633          	or	x12,x16,x8
    80003e04:	02617f33          	remu	x30,x2,x6
    80003e08:	e0965717          	auipc	x14,0xe0965
    80003e0c:	024db9b3          	mulhu	x19,x27,x4
    80003e10:	40dc0fb3          	sub	x31,x24,x13
    80003e14:	02bae4b3          	rem	x9,x21,x11
    80003e18:	bade8437          	lui	x8,0xbade8
    80003e1c:	022e5333          	divu	x6,x28,x2
    80003e20:	83911137          	lui	x2,0x83911
    80003e24:	0310b233          	mulhu	x4,x1,x17
    80003e28:	017d8fbb          	addw	x31,x27,x23
    80003e2c:	0289e433          	rem	x8,x19,x8
    80003e30:	f3ebe537          	lui	x10,0xf3ebe
    80003e34:	034107b3          	mul	x15,x2,x20
    80003e38:	636d4f13          	xori	x30,x26,1590
    80003e3c:	0278ed3b          	remw	x26,x17,x7
    80003e40:	55427213          	andi	x4,x4,1364
    80003e44:	033c26b3          	mulhsu	x13,x24,x19
    80003e48:	a05a9e17          	auipc	x28,0xa05a9
    80003e4c:	02e86333          	rem	x6,x16,x14
    80003e50:	0158dd1b          	srliw	x26,x17,0x15
    80003e54:	03fad2bb          	divuw	x5,x21,x31
    80003e58:	4108509b          	sraiw	x1,x16,0x10
    80003e5c:	03603233          	mulhu	x4,x0,x22
    80003e60:	7ace0517          	auipc	x10,0x7ace0
    80003e64:	036d43bb          	divw	x7,x26,x22
    80003e68:	01a6ecb3          	or	x25,x13,x26
    80003e6c:	021a6d3b          	remw	x26,x20,x1
    80003e70:	e92b8db7          	lui	x27,0xe92b8
    80003e74:	037fffbb          	remuw	x31,x31,x23
    80003e78:	2ca75b37          	lui	x22,0x2ca75
    80003e7c:	02bc7ebb          	remuw	x29,x24,x11
    80003e80:	006983bb          	addw	x7,x19,x6
    80003e84:	02278e3b          	mulw	x28,x15,x2
    80003e88:	51f90293          	addi	x5,x18,1311 # 2a83a01f <_start-0x557c5fe1>
    80003e8c:	03f788bb          	mulw	x17,x15,x31
    80003e90:	99e81137          	lui	x2,0x99e81
    80003e94:	02ab6f3b          	remw	x30,x22,x10
    80003e98:	01da2333          	slt	x6,x20,x29
    80003e9c:	02cb2b33          	mulhsu	x22,x22,x12
    80003ea0:	012779b3          	and	x19,x14,x18
    80003ea4:	03ddf5b3          	remu	x11,x27,x29
    80003ea8:	5891af17          	auipc	x30,0x5891a
    80003eac:	03da7733          	remu	x14,x20,x29
    80003eb0:	00221b13          	slli	x22,x4,0x2
    80003eb4:	02433bb3          	mulhu	x23,x6,x4
    80003eb8:	01da9c1b          	slliw	x24,x21,0x1d
    80003ebc:	03c285bb          	mulw	x11,x5,x28
    80003ec0:	62570e1b          	addiw	x28,x14,1573 # 6096942d <_start-0x1f696bd3>
    80003ec4:	02e8d333          	divu	x6,x17,x14
    80003ec8:	40df83b3          	sub	x7,x31,x13
    80003ecc:	034bcab3          	div	x21,x23,x20
    80003ed0:	18947437          	lui	x8,0x18947
    80003ed4:	02e676b3          	remu	x13,x12,x14
    80003ed8:	40a8523b          	sraw	x4,x16,x10
    80003edc:	02636a33          	rem	x20,x6,x6
    80003ee0:	750968b7          	lui	x17,0x75096
    80003ee4:	037e553b          	divuw	x10,x28,x23
    80003ee8:	01e3f2b3          	and	x5,x7,x30
    80003eec:	02239733          	mulh	x14,x7,x2
    80003ef0:	70a0cd97          	auipc	x27,0x70a0c
    80003ef4:	036f4a33          	div	x20,x30,x22
    80003ef8:	4110033b          	subw	x6,x0,x17
    80003efc:	02278abb          	mulw	x21,x15,x2
    80003f00:	48545c37          	lui	x24,0x48545
    80003f04:	020ee733          	rem	x14,x29,x0
    80003f08:	000fdcb3          	srl	x25,x31,x0
    80003f0c:	03654533          	div	x10,x10,x22
    80003f10:	00710e3b          	addw	x28,x2,x7
    80003f14:	02864fb3          	div	x31,x12,x8
    80003f18:	3a4abf13          	sltiu	x30,x21,932
    80003f1c:	039eadb3          	mulhsu	x27,x29,x25
    80003f20:	e4f07697          	auipc	x13,0xe4f07
    80003f24:	02bba0b3          	mulhsu	x1,x23,x11
    80003f28:	0763f213          	andi	x4,x7,118
    80003f2c:	039e25b3          	mulhsu	x11,x28,x25
    80003f30:	016bca13          	xori	x20,x23,22
    80003f34:	022c52bb          	divuw	x5,x24,x2
    80003f38:	40b9501b          	sraiw	x0,x18,0xb
    80003f3c:	02862633          	mulhsu	x12,x12,x8
    80003f40:	b1f11bb7          	lui	x23,0xb1f11
    80003f44:	023b06b3          	mul	x13,x22,x3
    80003f48:	7ab4f513          	andi	x10,x9,1963
    80003f4c:	03a9a2b3          	mulhsu	x5,x19,x26
    80003f50:	3600dd97          	auipc	x27,0x3600d
    80003f54:	02b718b3          	mulh	x17,x14,x11
    80003f58:	4d016613          	ori	x12,x2,1232
    80003f5c:	021755b3          	divu	x11,x14,x1
    80003f60:	0b773a93          	sltiu	x21,x14,183
    80003f64:	02f0cf33          	div	x30,x1,x15
    80003f68:	85c1b7b7          	lui	x15,0x85c1b
    80003f6c:	02535ebb          	divuw	x29,x6,x5
    80003f70:	d53ce537          	lui	x10,0xd53ce
    80003f74:	02e38033          	mul	x0,x7,x14
    80003f78:	7c227637          	lui	x12,0x7c227
    80003f7c:	03fddcb3          	divu	x25,x27,x31
    80003f80:	9fb16797          	auipc	x15,0x9fb16
    80003f84:	03ca2233          	mulhsu	x4,x20,x28
    80003f88:	010f9bbb          	sllw	x23,x31,x16
    80003f8c:	032506b3          	mul	x13,x10,x18
    80003f90:	00fa111b          	slliw	x2,x20,0xf
    80003f94:	036d2633          	mulhsu	x12,x26,x22
    80003f98:	e87f6837          	lui	x16,0xe87f6
    80003f9c:	026ce23b          	remw	x4,x25,x6
    80003fa0:	746c5f37          	lui	x30,0x746c5
    80003fa4:	03345a3b          	divuw	x20,x8,x19
    80003fa8:	0178dd9b          	srliw	x27,x17,0x17
    80003fac:	03549c33          	mulh	x24,x9,x21
    80003fb0:	003b47b3          	xor	x15,x22,x3
    80003fb4:	0239cb3b          	divw	x22,x19,x3
    80003fb8:	00e93933          	sltu	x18,x18,x14
    80003fbc:	03126dbb          	remw	x27,x4,x17
    80003fc0:	01188e3b          	addw	x28,x17,x17
    80003fc4:	02c8d9b3          	divu	x19,x17,x12
    80003fc8:	3e07b593          	sltiu	x11,x15,992
    80003fcc:	031be7b3          	rem	x15,x23,x17
    80003fd0:	002b5d1b          	srliw	x26,x22,0x2
    80003fd4:	02572bb3          	mulhsu	x23,x14,x5
    80003fd8:	00571a3b          	sllw	x20,x14,x5
    80003fdc:	0281663b          	remw	x12,x2,x8
    80003fe0:	74b33c13          	sltiu	x24,x6,1867
    80003fe4:	027ca833          	mulhsu	x16,x25,x7
    80003fe8:	002bd31b          	srliw	x6,x23,0x2
    80003fec:	021a40b3          	div	x1,x20,x1
    80003ff0:	e4686cb7          	lui	x25,0xe4686
    80003ff4:	024d043b          	mulw	x8,x26,x4
    80003ff8:	79053497          	auipc	x9,0x79053
    80003ffc:	030e2233          	mulhsu	x4,x28,x16
    80004000:	95371617          	auipc	x12,0x95371
    80004004:	03f0aeb3          	mulhsu	x29,x1,x31
    80004008:	017add33          	srl	x26,x21,x23
    8000400c:	03f06b3b          	remw	x22,x0,x31
    80004010:	00b71133          	sll	x2,x14,x11
    80004014:	03f0fbb3          	remu	x23,x1,x31
    80004018:	57b67697          	auipc	x13,0x57b67
    8000401c:	0240b833          	mulhu	x16,x1,x4
    80004020:	00aa4c33          	xor	x24,x20,x10
    80004024:	03ee7a33          	remu	x20,x28,x30
    80004028:	240ed497          	auipc	x9,0x240ed
    8000402c:	03cad3bb          	divuw	x7,x21,x28
    80004030:	01e719b3          	sll	x19,x14,x30
    80004034:	02a66db3          	rem	x27,x12,x10
    80004038:	4107823b          	subw	x4,x15,x16
    8000403c:	0295ec33          	rem	x24,x11,x9
    80004040:	007efd33          	and	x26,x29,x7
    80004044:	03f360bb          	remw	x1,x6,x31
    80004048:	26d9f713          	andi	x14,x19,621
    8000404c:	0369d3bb          	divuw	x7,x19,x22
    80004050:	36cfd037          	lui	x0,0x36cfd
    80004054:	03af9d33          	mulh	x26,x31,x26
    80004058:	43282113          	slti	x2,x16,1074
    8000405c:	026b4e3b          	divw	x28,x22,x6
    80004060:	40ead31b          	sraiw	x6,x21,0xe
    80004064:	033ad8b3          	divu	x17,x21,x19
    80004068:	be4f0817          	auipc	x16,0xbe4f0
    8000406c:	02852c33          	mulhsu	x24,x10,x8
    80004070:	f15e9bb7          	lui	x23,0xf15e9
    80004074:	02cab2b3          	mulhu	x5,x21,x12
    80004078:	0040d99b          	srliw	x19,x1,0x4
    8000407c:	03259533          	mulh	x10,x11,x18
    80004080:	306527b7          	lui	x15,0x30652
    80004084:	03fac33b          	divw	x6,x21,x31
    80004088:	bfedc397          	auipc	x7,0xbfedc
    8000408c:	03f1cdbb          	divw	x27,x3,x31
    80004090:	41fe80bb          	subw	x1,x29,x31
    80004094:	039c98b3          	mulh	x17,x25,x25
    80004098:	01de2bb3          	slt	x23,x28,x29
    8000409c:	0291a733          	mulhsu	x14,x3,x9
    800040a0:	00b37033          	and	x0,x6,x11
    800040a4:	02be6a3b          	remw	x20,x28,x11
    800040a8:	e5fa7397          	auipc	x7,0xe5fa7
    800040ac:	0239443b          	divw	x8,x18,x3
    800040b0:	7b3e6513          	ori	x10,x28,1971
    800040b4:	0224f73b          	remuw	x14,x9,x2
    800040b8:	004e89bb          	addw	x19,x29,x4
    800040bc:	036cdab3          	divu	x21,x25,x22
    800040c0:	01b5d213          	srli	x4,x11,0x1b
    800040c4:	02d3d1bb          	divuw	x3,x7,x13
    800040c8:	851158b7          	lui	x17,0x85115
    800040cc:	0280603b          	remw	x0,x0,x8
    800040d0:	535bce13          	xori	x28,x23,1333
    800040d4:	028f54bb          	divuw	x9,x30,x8
    800040d8:	013925b3          	slt	x11,x18,x19
    800040dc:	02c4783b          	remuw	x16,x8,x12
    800040e0:	00829113          	slli	x2,x5,0x8
    800040e4:	03d1e6b3          	rem	x13,x3,x29
    800040e8:	008fd01b          	srliw	x0,x31,0x8
    800040ec:	02b7ffbb          	remuw	x31,x15,x11
    800040f0:	e5a779b7          	lui	x19,0xe5a77
    800040f4:	037e91b3          	mulh	x3,x29,x23
    800040f8:	0096c2b3          	xor	x5,x13,x9
    800040fc:	02d5cbbb          	divw	x23,x11,x13
    80004100:	00a7109b          	slliw	x1,x14,0xa
    80004104:	03a8f63b          	remuw	x12,x17,x26
    80004108:	00a51c13          	slli	x24,x10,0xa
    8000410c:	02554a3b          	divw	x20,x10,x5
    80004110:	0b473e93          	sltiu	x29,x14,180
    80004114:	03b9e4b3          	rem	x9,x19,x27
    80004118:	00391593          	slli	x11,x18,0x3
    8000411c:	03b0c2b3          	div	x5,x1,x27
    80004120:	00ed8a33          	add	x20,x27,x14
    80004124:	03294b33          	div	x22,x18,x18
    80004128:	0d152913          	slti	x18,x10,209
    8000412c:	0267c833          	div	x16,x15,x6
    80004130:	01f7e033          	or	x0,x15,x31
    80004134:	03d17f3b          	remuw	x30,x2,x29
    80004138:	3c7ed297          	auipc	x5,0x3c7ed
    8000413c:	03d39eb3          	mulh	x29,x7,x29
    80004140:	40f1033b          	subw	x6,x2,x15
    80004144:	027b64b3          	rem	x9,x22,x7
    80004148:	1fbc8137          	lui	x2,0x1fbc8
    8000414c:	0362ab33          	mulhsu	x22,x5,x22
    80004150:	5f8e1a37          	lui	x20,0x5f8e1
    80004154:	0203f53b          	remuw	x10,x7,x0
    80004158:	02ba9213          	slli	x4,x21,0x2b
    8000415c:	0330b3b3          	mulhu	x7,x1,x19
    80004160:	1fad6c13          	ori	x24,x26,506
    80004164:	02275ab3          	divu	x21,x14,x2
    80004168:	3ebeff13          	andi	x30,x29,1003
    8000416c:	02bec4b3          	div	x9,x29,x11
    80004170:	0129a033          	slt	x0,x19,x18
    80004174:	03c6c6b3          	div	x13,x13,x28
    80004178:	010de133          	or	x2,x27,x16
    8000417c:	036cedbb          	remw	x27,x25,x22
    80004180:	7aee3593          	sltiu	x11,x28,1966
    80004184:	02aee03b          	remw	x0,x29,x10
    80004188:	412482b3          	sub	x5,x9,x18
    8000418c:	02fb0133          	mul	x2,x22,x15
    80004190:	6049f893          	andi	x17,x19,1540
    80004194:	03235f3b          	divuw	x30,x6,x18
    80004198:	40da5f93          	srai	x31,x20,0xd
    8000419c:	036489b3          	mul	x19,x9,x22
    800041a0:	02d1dc93          	srli	x25,x3,0x2d
    800041a4:	02121b33          	mulh	x22,x4,x1
    800041a8:	78310293          	addi	x5,x2,1923 # 1fbc8783 <_start-0x6043787d>
    800041ac:	02dd4c3b          	divw	x24,x26,x13
    800041b0:	689285b7          	lui	x11,0x68928
    800041b4:	027a5a3b          	divuw	x20,x20,x7
    800041b8:	68603f97          	auipc	x31,0x68603
    800041bc:	037f0033          	mul	x0,x30,x23
    800041c0:	417e5e3b          	sraw	x28,x28,x23
    800041c4:	02d470bb          	remuw	x1,x8,x13
    800041c8:	408cdc1b          	sraiw	x24,x25,0x8
    800041cc:	02b38cb3          	mul	x25,x7,x11
    800041d0:	00240fbb          	addw	x31,x8,x2
    800041d4:	02fdf5b3          	remu	x11,x27,x15
    800041d8:	01139eb3          	sll	x29,x7,x17
    800041dc:	0285653b          	remw	x10,x10,x8
    800041e0:	32a71a37          	lui	x20,0x32a71
    800041e4:	02c08833          	mul	x16,x1,x12
    800041e8:	40430c33          	sub	x24,x6,x4
    800041ec:	03caab33          	mulhsu	x22,x21,x28
    800041f0:	42ded193          	srai	x3,x29,0x2d
    800041f4:	029a42b3          	div	x5,x20,x9
    800041f8:	001bff33          	and	x30,x23,x1
    800041fc:	030e5733          	divu	x14,x28,x16
    80004200:	4895f3b7          	lui	x7,0x4895f
    80004204:	02946cb3          	rem	x25,x8,x9
    80004208:	411a5a13          	srai	x20,x20,0x11
    8000420c:	03dc7933          	remu	x18,x24,x29
    80004210:	0cd432b7          	lui	x5,0xcd43
    80004214:	02882533          	mulhsu	x10,x16,x8
    80004218:	417ddc9b          	sraiw	x25,x27,0x17
    8000421c:	034400bb          	mulw	x1,x8,x20
    80004220:	0432a017          	auipc	x0,0x432a
    80004224:	037bdd3b          	divuw	x26,x23,x23
    80004228:	5c514193          	xori	x3,x2,1477
    8000422c:	024f3f33          	mulhu	x30,x30,x4
    80004230:	013e2133          	slt	x2,x28,x19
    80004234:	029fecbb          	remw	x25,x31,x9
    80004238:	9b54f637          	lui	x12,0x9b54f
    8000423c:	02003833          	mulhu	x16,x0,x0
    80004240:	01f894b3          	sll	x9,x17,x31
    80004244:	02b7d733          	divu	x14,x15,x11
    80004248:	091281b7          	lui	x3,0x9128
    8000424c:	0389f63b          	remuw	x12,x19,x24
    80004250:	7ccc8c37          	lui	x24,0x7ccc8
    80004254:	02929133          	mulh	x2,x5,x9
    80004258:	fe7cf2b7          	lui	x5,0xfe7cf
    8000425c:	035eca33          	div	x20,x29,x21
    80004260:	01f4d5b3          	srl	x11,x9,x31
    80004264:	03cce23b          	remw	x4,x25,x28
    80004268:	00031c1b          	slliw	x24,x6,0x0
    8000426c:	022b21b3          	mulhsu	x3,x22,x2
    80004270:	01da5ab3          	srl	x21,x20,x29
    80004274:	03d84933          	div	x18,x16,x29
    80004278:	449c0fb7          	lui	x31,0x449c0
    8000427c:	03ca3f33          	mulhu	x30,x20,x28
    80004280:	41be579b          	sraiw	x15,x28,0x1b
    80004284:	02ddca3b          	divw	x20,x27,x13
    80004288:	0c1809b7          	lui	x19,0xc180
    8000428c:	02c65dbb          	divuw	x27,x12,x12
    80004290:	00f1951b          	slliw	x10,x3,0xf
    80004294:	03c61333          	mulh	x6,x12,x28
    80004298:	5bde1bb7          	lui	x23,0x5bde1
    8000429c:	02189133          	mulh	x2,x17,x1
    800042a0:	2fafa937          	lui	x18,0x2fafa
    800042a4:	03a26a33          	rem	x20,x4,x26
    800042a8:	4819a613          	slti	x12,x19,1153
    800042ac:	02acd7bb          	divuw	x15,x25,x10
    800042b0:	d11a60b7          	lui	x1,0xd11a6
    800042b4:	0365d233          	divu	x4,x11,x22
    800042b8:	298bc417          	auipc	x8,0x298bc
    800042bc:	0353a733          	mulhsu	x14,x7,x21
    800042c0:	01d15cb3          	srl	x25,x2,x29
    800042c4:	03b85133          	divu	x2,x16,x27
    800042c8:	418a59b3          	sra	x19,x20,x24
    800042cc:	037b86b3          	mul	x13,x23,x23
    800042d0:	43e25e13          	srai	x28,x4,0x3e
    800042d4:	02a63c33          	mulhu	x24,x12,x10
    800042d8:	0026581b          	srliw	x16,x12,0x2
    800042dc:	021a8633          	mul	x12,x21,x1
    800042e0:	412f6913          	ori	x18,x30,1042
    800042e4:	0297ffbb          	remuw	x31,x15,x9
    800042e8:	1ed74b93          	xori	x23,x14,493
    800042ec:	039cfd33          	remu	x26,x25,x25
    800042f0:	8c526737          	lui	x14,0x8c526
    800042f4:	030d9533          	mulh	x10,x27,x16
    800042f8:	01339fbb          	sllw	x31,x7,x19
    800042fc:	026c1433          	mulh	x8,x24,x6
    80004300:	0260d013          	srli	x0,x1,0x26
    80004304:	039d73bb          	remuw	x7,x26,x25
    80004308:	00f91613          	slli	x12,x18,0xf
    8000430c:	026e06bb          	mulw	x13,x28,x6
    80004310:	0971e237          	lui	x4,0x971e
    80004314:	03fbf433          	remu	x8,x23,x31
    80004318:	0b755497          	auipc	x9,0xb755
    8000431c:	02a55dbb          	divuw	x27,x10,x10
    80004320:	a8e47e17          	auipc	x28,0xa8e47
    80004324:	025a0d3b          	mulw	x26,x20,x5
    80004328:	001803bb          	addw	x7,x16,x1
    8000432c:	02ba5b3b          	divuw	x22,x20,x11
    80004330:	01899f3b          	sllw	x30,x19,x24
    80004334:	035ec0bb          	divw	x1,x29,x21
    80004338:	40165d9b          	sraiw	x27,x12,0x1
    8000433c:	032be83b          	remw	x16,x23,x18
    80004340:	41275c3b          	sraw	x24,x14,x18
    80004344:	03fe053b          	mulw	x10,x28,x31
    80004348:	00298133          	add	x2,x19,x2
    8000434c:	033047bb          	divw	x15,x0,x19
    80004350:	70ff4037          	lui	x0,0x70ff4
    80004354:	02168fb3          	mul	x31,x13,x1
    80004358:	01695533          	srl	x10,x18,x22
    8000435c:	02985ebb          	divuw	x29,x16,x9
    80004360:	011f0d33          	add	x26,x30,x17
    80004364:	0317643b          	remw	x8,x14,x17
    80004368:	d1c19717          	auipc	x14,0xd1c19
    8000436c:	02a309bb          	mulw	x19,x6,x10
    80004370:	59852617          	auipc	x12,0x59852
    80004374:	0276db3b          	divuw	x22,x13,x7
    80004378:	58302a93          	slti	x21,x0,1411
    8000437c:	03b925b3          	mulhsu	x11,x18,x27
    80004380:	41a754b3          	sra	x9,x14,x26
    80004384:	0318583b          	divuw	x16,x16,x17
    80004388:	007d199b          	slliw	x19,x26,0x7
    8000438c:	03d057bb          	divuw	x15,x0,x29
    80004390:	00a61ab3          	sll	x21,x12,x10
    80004394:	0210d6b3          	divu	x13,x1,x1
    80004398:	00827eb3          	and	x29,x4,x8
    8000439c:	03ff78bb          	remuw	x17,x30,x31
    800043a0:	7408bb37          	lui	x22,0x7408b
    800043a4:	0200ca3b          	divw	x20,x1,x0
    800043a8:	00b9183b          	sllw	x16,x18,x11
    800043ac:	038c023b          	mulw	x4,x24,x24
    800043b0:	41d7d9bb          	sraw	x19,x15,x29
    800043b4:	035aed33          	rem	x26,x21,x21
    800043b8:	007f5eb3          	srl	x29,x30,x7
    800043bc:	03eaa6b3          	mulhsu	x13,x21,x30
    800043c0:	000c173b          	sllw	x14,x24,x0
    800043c4:	03b037b3          	mulhu	x15,x0,x27
    800043c8:	007d93bb          	sllw	x7,x27,x7
    800043cc:	03b5ef3b          	remw	x30,x11,x27
    800043d0:	503d0a37          	lui	x20,0x503d0
    800043d4:	031b84bb          	mulw	x9,x23,x17
    800043d8:	dcd2b597          	auipc	x11,0xdcd2b
    800043dc:	03fe5c3b          	divuw	x24,x28,x31
    800043e0:	ecad2d37          	lui	x26,0xecad2
    800043e4:	0311d633          	divu	x12,x3,x17
    800043e8:	4092523b          	sraw	x4,x4,x9
    800043ec:	02e54cbb          	divw	x25,x10,x14
    800043f0:	00d3de9b          	srliw	x29,x7,0xd
    800043f4:	03a5ef33          	rem	x30,x11,x26
    800043f8:	0760009b          	addiw	x1,x0,118
    800043fc:	0326e03b          	remw	x0,x13,x18
    80004400:	2fcf3837          	lui	x16,0x2fcf3
    80004404:	0277f13b          	remuw	x2,x15,x7
    80004408:	9345fe17          	auipc	x28,0x9345f
    8000440c:	02f57c33          	remu	x24,x10,x15
    80004410:	01ee8d33          	add	x26,x29,x30
    80004414:	025815b3          	mulh	x11,x16,x5
    80004418:	3eabce97          	auipc	x29,0x3eabc
    8000441c:	026b9b33          	mulh	x22,x23,x6
    80004420:	27018893          	addi	x17,x3,624 # 9128270 <_start-0x76ed7d90>
    80004424:	021c1f33          	mulh	x30,x24,x1
    80004428:	23b12193          	slti	x3,x2,571
    8000442c:	02a993b3          	mulh	x7,x19,x10
    80004430:	01fc1abb          	sllw	x21,x24,x31
    80004434:	03637a33          	remu	x20,x6,x22
    80004438:	4083553b          	sraw	x10,x6,x8
    8000443c:	03a60d33          	mul	x26,x12,x26
    80004440:	00c7d333          	srl	x6,x15,x12
    80004444:	02d818b3          	mulh	x17,x16,x13
    80004448:	41b15393          	srai	x7,x2,0x1b
    8000444c:	03cde93b          	remw	x18,x27,x28
    80004450:	06682d13          	slti	x26,x16,102
    80004454:	0261d03b          	divuw	x0,x3,x6
    80004458:	02f29093          	slli	x1,x5,0x2f
    8000445c:	0234d5bb          	divuw	x11,x9,x3
    80004460:	34e4ff13          	andi	x30,x9,846
    80004464:	03de4ab3          	div	x21,x28,x29
    80004468:	726a5e17          	auipc	x28,0x726a5
    8000446c:	034eb1b3          	mulhu	x3,x29,x20
    80004470:	005d9933          	sll	x18,x27,x5
    80004474:	036f4b33          	div	x22,x30,x22
    80004478:	e724c617          	auipc	x12,0xe724c
    8000447c:	03bcb6b3          	mulhu	x13,x25,x27
    80004480:	017e073b          	addw	x14,x28,x23
    80004484:	024df03b          	remuw	x0,x27,x4
    80004488:	412d0c3b          	subw	x24,x26,x18
    8000448c:	02355933          	divu	x18,x10,x3
    80004490:	40cb8fb3          	sub	x31,x23,x12
    80004494:	03a9e33b          	remw	x6,x19,x26
    80004498:	01b0dd33          	srl	x26,x1,x27
    8000449c:	02465733          	divu	x14,x12,x4
    800044a0:	01406c33          	or	x24,x0,x20
    800044a4:	036e08bb          	mulw	x17,x28,x22
    800044a8:	00f6da9b          	srliw	x21,x13,0xf
    800044ac:	02440a3b          	mulw	x20,x8,x4
    800044b0:	01ef9b1b          	slliw	x22,x31,0x1e
    800044b4:	0389f0b3          	remu	x1,x19,x24
    800044b8:	da92d937          	lui	x18,0xda92d
    800044bc:	03f01133          	mulh	x2,x0,x31
    800044c0:	008d941b          	slliw	x8,x27,0x8
    800044c4:	02dd4a3b          	divw	x20,x26,x13
    800044c8:	4add7d97          	auipc	x27,0x4add7
    800044cc:	02bf5e3b          	divuw	x28,x30,x11
    800044d0:	8c004317          	auipc	x6,0x8c004
    800044d4:	02d0d133          	divu	x2,x1,x13
    800044d8:	014838b3          	sltu	x17,x16,x20
    800044dc:	0321bb33          	mulhu	x22,x3,x18
    800044e0:	00f8151b          	slliw	x10,x16,0xf
    800044e4:	02fe7bbb          	remuw	x23,x28,x15
    800044e8:	01468f3b          	addw	x30,x13,x20
    800044ec:	0214593b          	divuw	x18,x8,x1
    800044f0:	2cd8f213          	andi	x4,x17,717
    800044f4:	02840133          	mul	x2,x8,x8
    800044f8:	41cd5a33          	sra	x20,x26,x28
    800044fc:	033888bb          	mulw	x17,x17,x19
    80004500:	33267293          	andi	x5,x12,818
    80004504:	0241f1b3          	remu	x3,x3,x4
    80004508:	406cd93b          	sraw	x18,x25,x6
    8000450c:	022e75b3          	remu	x11,x28,x2
    80004510:	854b6fb7          	lui	x31,0x854b6
    80004514:	035c82bb          	mulw	x5,x25,x21
    80004518:	0020d11b          	srliw	x2,x1,0x2
    8000451c:	032d4533          	div	x10,x26,x18
    80004520:	019b5993          	srli	x19,x22,0x19
    80004524:	0287ddb3          	divu	x27,x15,x8
    80004528:	76e881b7          	lui	x3,0x76e88
    8000452c:	0275d7bb          	divuw	x15,x11,x7
    80004530:	8c95e337          	lui	x6,0x8c95e
    80004534:	02d2d233          	divu	x4,x5,x13
    80004538:	01fd5ebb          	srlw	x29,x26,x31
    8000453c:	03c1883b          	mulw	x16,x3,x28
    80004540:	2f93f713          	andi	x14,x7,761
    80004544:	03ab64b3          	rem	x9,x22,x26
    80004548:	06060f93          	addi	x31,x12,96 # 672504d8 <_start-0x18dafb28>
    8000454c:	03d5c933          	div	x18,x11,x29
    80004550:	016c92bb          	sllw	x5,x25,x22
    80004554:	03cc3f33          	mulhu	x30,x24,x28
    80004558:	0013d09b          	srliw	x1,x7,0x1
    8000455c:	02dffb33          	remu	x22,x31,x13
    80004560:	2dc3c197          	auipc	x3,0x2dc3c
    80004564:	03ae1cb3          	mulh	x25,x28,x26
    80004568:	3697a493          	slti	x9,x15,873
    8000456c:	03b3ffbb          	remuw	x31,x7,x27
    80004570:	751cc037          	lui	x0,0x751cc
    80004574:	02135f3b          	divuw	x30,x6,x1
    80004578:	b5808137          	lui	x2,0xb5808
    8000457c:	02f6e233          	rem	x4,x13,x15
    80004580:	01d80833          	add	x16,x16,x29
    80004584:	02ced633          	divu	x12,x29,x12
    80004588:	00e758bb          	srlw	x17,x14,x14
    8000458c:	0235ed33          	rem	x26,x11,x3
    80004590:	003a3a33          	sltu	x20,x20,x3
    80004594:	02e9cdbb          	divw	x27,x19,x14
    80004598:	409183b3          	sub	x7,x3,x9
    8000459c:	026494b3          	mulh	x9,x9,x6
    800045a0:	0538c537          	lui	x10,0x538c
    800045a4:	03d94ebb          	divw	x29,x18,x29
    800045a8:	9a7c31b7          	lui	x3,0x9a7c3
    800045ac:	028593b3          	mulh	x7,x11,x8
    800045b0:	00cb8abb          	addw	x21,x23,x12
    800045b4:	03f45dbb          	divuw	x27,x8,x31
    800045b8:	41225eb3          	sra	x29,x4,x18
    800045bc:	0307d93b          	divuw	x18,x15,x16
    800045c0:	d43d0f37          	lui	x30,0xd43d0
    800045c4:	03669633          	mulh	x12,x13,x22
    800045c8:	70038d13          	addi	x26,x7,1792 # 4895f700 <_start-0x376a0900>
    800045cc:	0299deb3          	divu	x29,x19,x9
    800045d0:	0f536f97          	auipc	x31,0xf536
    800045d4:	033c0e33          	mul	x28,x24,x19
    800045d8:	3e254593          	xori	x11,x10,994
    800045dc:	0307d23b          	divuw	x4,x15,x16
    800045e0:	01b98d33          	add	x26,x19,x27
    800045e4:	0200cf33          	div	x30,x1,x0
    800045e8:	28223eb7          	lui	x29,0x28223
    800045ec:	03c96ab3          	rem	x21,x18,x28
    800045f0:	67934617          	auipc	x12,0x67934
    800045f4:	03613433          	mulhu	x8,x2,x22
    800045f8:	52483d97          	auipc	x27,0x52483
    800045fc:	0342d23b          	divuw	x4,x5,x20
    80004600:	440c6f13          	ori	x30,x24,1088
    80004604:	02ed663b          	remw	x12,x26,x14
    80004608:	ae75a1b7          	lui	x3,0xae75a
    8000460c:	03137433          	remu	x8,x6,x17
    80004610:	92c2dbb7          	lui	x23,0x92c2d
    80004614:	02d09cb3          	mulh	x25,x1,x13
    80004618:	00048abb          	addw	x21,x9,x0
    8000461c:	03b82d33          	mulhsu	x26,x16,x27
    80004620:	00e88b3b          	addw	x22,x17,x14
    80004624:	029135b3          	mulhu	x11,x2,x9
    80004628:	2721849b          	addiw	x9,x3,626 # ffffffffae75a272 <_start+0xffffffff2e75a272>
    8000462c:	034d8abb          	mulw	x21,x27,x20
    80004630:	0398d293          	srli	x5,x17,0x39
    80004634:	037c3333          	mulhu	x6,x24,x23
    80004638:	01d55dbb          	srlw	x27,x10,x29
    8000463c:	020743bb          	divw	x7,x14,x0
    80004640:	01821bbb          	sllw	x23,x4,x24
    80004644:	0304ee3b          	remw	x28,x9,x16
    80004648:	fd3c7e97          	auipc	x29,0xfd3c7
    8000464c:	031998b3          	mulh	x17,x19,x17
    80004650:	ee650337          	lui	x6,0xee650
    80004654:	02fc9033          	mulh	x0,x25,x15
    80004658:	12743913          	sltiu	x18,x8,295
    8000465c:	03cea7b3          	mulhsu	x15,x29,x28
    80004660:	00709a33          	sll	x20,x1,x7
    80004664:	03766633          	rem	x12,x12,x23
    80004668:	001d9533          	sll	x10,x27,x1
    8000466c:	03befebb          	remuw	x29,x29,x27
    80004670:	0132541b          	srliw	x8,x4,0x13
    80004674:	0315a5b3          	mulhsu	x11,x11,x17
    80004678:	01068033          	add	x0,x13,x16
    8000467c:	03615abb          	divuw	x21,x2,x22
    80004680:	4576f493          	andi	x9,x13,1111
    80004684:	02519b33          	mulh	x22,x3,x5
    80004688:	44aeb6b7          	lui	x13,0x44aeb
    8000468c:	02bb8433          	mul	x8,x23,x11
    80004690:	28223fb7          	lui	x31,0x28223
    80004694:	02a1f5bb          	remuw	x11,x3,x10
    80004698:	01f9911b          	slliw	x2,x19,0x1f
    8000469c:	035a8733          	mul	x14,x21,x21
    800046a0:	4194de9b          	sraiw	x29,x9,0x19
    800046a4:	039adab3          	divu	x21,x21,x25
    800046a8:	4b32ab93          	slti	x23,x5,1203
    800046ac:	020e4db3          	div	x27,x28,x0
    800046b0:	00ac15bb          	sllw	x11,x24,x10
    800046b4:	02ac7933          	remu	x18,x24,x10
    800046b8:	00fec3b3          	xor	x7,x29,x15
    800046bc:	03de36b3          	mulhu	x13,x28,x29
    800046c0:	00218133          	add	x2,x3,x2
    800046c4:	029eeab3          	rem	x21,x29,x9
    800046c8:	0127a1b3          	slt	x3,x15,x18
    800046cc:	037db033          	mulhu	x0,x27,x23
    800046d0:	bdb95fb7          	lui	x31,0xbdb95
    800046d4:	02cdff3b          	remuw	x30,x27,x12
    800046d8:	00bc6eb3          	or	x29,x24,x11
    800046dc:	03bc8d33          	mul	x26,x25,x27
    800046e0:	0149ddbb          	srlw	x27,x19,x20
    800046e4:	02179533          	mulh	x10,x15,x1
    800046e8:	623e6113          	ori	x2,x28,1571
    800046ec:	0342f8bb          	remuw	x17,x5,x20
    800046f0:	18630297          	auipc	x5,0x18630
    800046f4:	026d25b3          	mulhsu	x11,x26,x6
    800046f8:	009017bb          	sllw	x15,x0,x9
    800046fc:	022b793b          	remuw	x18,x22,x2
    80004700:	2bab039b          	addiw	x7,x22,698 # 7408b2ba <_start-0xbf74d46>
    80004704:	035afbbb          	remuw	x23,x21,x21
    80004708:	61a55db7          	lui	x27,0x61a55
    8000470c:	03380f33          	mul	x30,x16,x19
    80004710:	01362933          	slt	x18,x12,x19
    80004714:	036e5e33          	divu	x28,x28,x22
    80004718:	fc6e36b7          	lui	x13,0xfc6e3
    8000471c:	035df7bb          	remuw	x15,x27,x21
    80004720:	474dcb17          	auipc	x22,0x474dc
    80004724:	02176c33          	rem	x24,x14,x1
    80004728:	97487097          	auipc	x1,0x97487
    8000472c:	02aab133          	mulhu	x2,x21,x10
    80004730:	adbfba97          	auipc	x21,0xadbfb
    80004734:	02a334b3          	mulhu	x9,x6,x10
    80004738:	00421833          	sll	x16,x4,x4
    8000473c:	031d6333          	rem	x6,x26,x17
    80004740:	a3eeda37          	lui	x20,0xa3eed
    80004744:	03d088b3          	mul	x17,x1,x29
    80004748:	4070f613          	andi	x12,x1,1031
    8000474c:	029eae33          	mulhsu	x28,x29,x9
    80004750:	61656413          	ori	x8,x10,1558
    80004754:	0275f233          	remu	x4,x11,x7
    80004758:	01399a9b          	slliw	x21,x19,0x13
    8000475c:	03b0ddbb          	divuw	x27,x1,x27
    80004760:	08056793          	ori	x15,x10,128
    80004764:	03d85433          	divu	x8,x16,x29
    80004768:	0151981b          	slliw	x16,x3,0x15
    8000476c:	0222433b          	divw	x6,x4,x2
    80004770:	8fb10fb7          	lui	x31,0x8fb10
    80004774:	0390cdbb          	divw	x27,x1,x25
    80004778:	33f38b13          	addi	x22,x7,831
    8000477c:	039271bb          	remuw	x3,x4,x25
    80004780:	7919809b          	addiw	x1,x19,1937 # c180791 <_start-0x73e7f86f>
    80004784:	02f289b3          	mul	x19,x5,x15
    80004788:	cc3a5217          	auipc	x4,0xcc3a5
    8000478c:	022cb8b3          	mulhu	x17,x25,x2
    80004790:	00c83fb3          	sltu	x31,x16,x12
    80004794:	021947b3          	div	x15,x18,x1
    80004798:	01290b3b          	addw	x22,x18,x18
    8000479c:	026bbab3          	mulhu	x21,x23,x6
    800047a0:	4084d13b          	sraw	x2,x9,x8
    800047a4:	023e85b3          	mul	x11,x29,x3
    800047a8:	51551917          	auipc	x18,0x51551
    800047ac:	028eac33          	mulhsu	x24,x29,x8
    800047b0:	006c8733          	add	x14,x25,x6
    800047b4:	0269c633          	div	x12,x19,x6
    800047b8:	005fd99b          	srliw	x19,x31,0x5
    800047bc:	03e33ab3          	mulhu	x21,x6,x30
    800047c0:	00421233          	sll	x4,x4,x4
    800047c4:	027ea933          	mulhsu	x18,x29,x7
    800047c8:	98aad897          	auipc	x17,0x98aad
    800047cc:	025830b3          	mulhu	x1,x16,x5
    800047d0:	3404e7b7          	lui	x15,0x3404e
    800047d4:	03618bbb          	mulw	x23,x3,x22
    800047d8:	41a5db3b          	sraw	x22,x11,x26
    800047dc:	03fe3933          	mulhu	x18,x28,x31
    800047e0:	0020919b          	slliw	x3,x1,0x2
    800047e4:	02aedd3b          	divuw	x26,x29,x10
    800047e8:	0b49d217          	auipc	x4,0xb49d
    800047ec:	03e28eb3          	mul	x29,x5,x30
    800047f0:	5ec96693          	ori	x13,x18,1516
    800047f4:	03c141b3          	div	x3,x2,x28
    800047f8:	0d3ae513          	ori	x10,x21,211
    800047fc:	0259ebb3          	rem	x23,x19,x5
    80004800:	1ea0ed13          	ori	x26,x1,490
    80004804:	034b543b          	divuw	x8,x22,x20
    80004808:	11180f93          	addi	x31,x16,273 # 2fcf3111 <_start-0x5030ceef>
    8000480c:	038651b3          	divu	x3,x12,x24
    80004810:	276d57b7          	lui	x15,0x276d5
    80004814:	02a74a33          	div	x20,x14,x10
    80004818:	becf6f37          	lui	x30,0xbecf6
    8000481c:	02d655b3          	divu	x11,x12,x13
    80004820:	01935e33          	srl	x28,x6,x25
    80004824:	03deabb3          	mulhsu	x23,x29,x29
    80004828:	40f807bb          	subw	x15,x16,x15
    8000482c:	032ff8bb          	remuw	x17,x31,x18
    80004830:	01f51f3b          	sllw	x30,x10,x31
    80004834:	03f0cebb          	divw	x29,x1,x31
    80004838:	0f693213          	sltiu	x4,x18,246
    8000483c:	03c78c3b          	mulw	x24,x15,x28
    80004840:	7ac5a397          	auipc	x7,0x7ac5a
    80004844:	02b675bb          	remuw	x11,x12,x11
    80004848:	413952bb          	sraw	x5,x18,x19
    8000484c:	023346b3          	div	x13,x6,x3
    80004850:	443dc0b7          	lui	x1,0x443dc
    80004854:	035dcb33          	div	x22,x27,x21
    80004858:	00b0111b          	slliw	x2,x0,0xb
    8000485c:	02328d33          	mul	x26,x5,x3
    80004860:	047e7197          	auipc	x3,0x47e7
    80004864:	0395753b          	remuw	x10,x10,x25
    80004868:	c348f3b7          	lui	x7,0xc348f
    8000486c:	035175bb          	remuw	x11,x2,x21
    80004870:	55c94937          	lui	x18,0x55c94
    80004874:	033f743b          	remuw	x8,x30,x19
    80004878:	eda21c97          	auipc	x25,0xeda21
    8000487c:	02571f33          	mulh	x30,x14,x5
    80004880:	b75df317          	auipc	x6,0xb75df
    80004884:	0310d6bb          	divuw	x13,x1,x17
    80004888:	40c0d493          	srai	x9,x1,0xc
    8000488c:	02ae0db3          	mul	x27,x28,x10
    80004890:	65086993          	ori	x19,x16,1616
    80004894:	032a71bb          	remuw	x3,x20,x18
    80004898:	7c3d0b93          	addi	x23,x26,1987 # ffffffffecad27c3 <_start+0xffffffff6cad27c3>
    8000489c:	03a68e33          	mul	x28,x13,x26
    800048a0:	007a933b          	sllw	x6,x21,x7
    800048a4:	035170bb          	remuw	x1,x2,x21
    800048a8:	00d724b3          	slt	x9,x14,x13
    800048ac:	03ecc633          	div	x12,x25,x30
    800048b0:	0079513b          	srlw	x2,x18,x7
    800048b4:	03b25fb3          	divu	x31,x4,x27
    800048b8:	5c23099b          	addiw	x19,x6,1474 # 375e3e42 <_start-0x48a1c1be>
    800048bc:	031c18b3          	mulh	x17,x24,x17
    800048c0:	42c1db93          	srai	x23,x3,0x2c
    800048c4:	0252c1b3          	div	x3,x5,x5
    800048c8:	15501937          	lui	x18,0x15501
    800048cc:	024a66bb          	remw	x13,x20,x4
    800048d0:	00628c3b          	addw	x24,x5,x6
    800048d4:	02c9dab3          	divu	x21,x19,x12
    800048d8:	55d12017          	auipc	x0,0x55d12
    800048dc:	0223f83b          	remuw	x16,x7,x2
    800048e0:	019f7d33          	and	x26,x30,x25
    800048e4:	025ea333          	mulhsu	x6,x29,x5
    800048e8:	11ba4413          	xori	x8,x20,283
    800048ec:	03289cb3          	mulh	x25,x17,x18
    800048f0:	0141de33          	srl	x28,x3,x20
    800048f4:	02ea513b          	divuw	x2,x20,x14
    800048f8:	4a3f2b37          	lui	x22,0x4a3f2
    800048fc:	02dd39b3          	mulhu	x19,x26,x13
    80004900:	015013bb          	sllw	x7,x0,x21
    80004904:	02e8483b          	divw	x16,x16,x14
    80004908:	607f5117          	auipc	x2,0x607f5
    8000490c:	021f8ebb          	mulw	x29,x31,x1
    80004910:	a5639237          	lui	x4,0xa5639
    80004914:	02af56bb          	divuw	x13,x30,x10
    80004918:	5d7bac13          	slti	x24,x23,1495
    8000491c:	034b8ab3          	mul	x21,x23,x20
    80004920:	5afd67b7          	lui	x15,0x5afd6
    80004924:	03c465bb          	remw	x11,x8,x28
    80004928:	414a5d3b          	sraw	x26,x20,x20
    8000492c:	0322ca3b          	divw	x20,x5,x18
    80004930:	3ae3c013          	xori	x0,x7,942
    80004934:	033ffebb          	remuw	x29,x31,x19
    80004938:	03265293          	srli	x5,x12,0x32
    8000493c:	0350ee33          	rem	x28,x1,x21
    80004940:	4101d99b          	sraiw	x19,x3,0x10
    80004944:	02f24033          	div	x0,x4,x15
    80004948:	3093f097          	auipc	x1,0x3093f
    8000494c:	03faa233          	mulhsu	x4,x21,x31
    80004950:	1be1a193          	slti	x3,x3,446
    80004954:	032285b3          	mul	x11,x5,x18
    80004958:	40ce0933          	sub	x18,x28,x12
    8000495c:	027562bb          	remw	x5,x10,x7
    80004960:	0877fd13          	andi	x26,x15,135
    80004964:	034386b3          	mul	x13,x7,x20
    80004968:	64caa497          	auipc	x9,0x64caa
    8000496c:	022b9233          	mulh	x4,x23,x2
    80004970:	dc580997          	auipc	x19,0xdc580
    80004974:	02797b33          	remu	x22,x18,x7
    80004978:	b80c3917          	auipc	x18,0xb80c3
    8000497c:	031a7cbb          	remuw	x25,x20,x17
    80004980:	6af6c713          	xori	x14,x13,1711
    80004984:	02848abb          	mulw	x21,x9,x8
    80004988:	01e3fbb3          	and	x23,x7,x30
    8000498c:	03a304b3          	mul	x9,x6,x26
    80004990:	80084897          	auipc	x17,0x80084
    80004994:	027a3eb3          	mulhu	x29,x20,x7
    80004998:	413752bb          	sraw	x5,x14,x19
    8000499c:	038140b3          	div	x1,x2,x24
    800049a0:	00f684b3          	add	x9,x13,x15
    800049a4:	0277b1b3          	mulhu	x3,x15,x7
    800049a8:	014fd3b3          	srl	x7,x31,x20
    800049ac:	03f6753b          	remuw	x10,x12,x31
    800049b0:	413c8e3b          	subw	x28,x25,x19
    800049b4:	03b46cb3          	rem	x25,x8,x27
    800049b8:	414ed09b          	sraiw	x1,x29,0x14
    800049bc:	03e0463b          	divw	x12,x0,x30
    800049c0:	00aaa733          	slt	x14,x21,x10
    800049c4:	032c443b          	divw	x8,x24,x18
    800049c8:	406bdbbb          	sraw	x23,x23,x6
    800049cc:	036f3b33          	mulhu	x22,x30,x22
    800049d0:	a70c1137          	lui	x2,0xa70c1
    800049d4:	02e609bb          	mulw	x19,x12,x14
    800049d8:	0d6e4617          	auipc	x12,0xd6e4
    800049dc:	030e91b3          	mulh	x3,x29,x16
    800049e0:	01b4153b          	sllw	x10,x8,x27
    800049e4:	035b893b          	mulw	x18,x23,x21
    800049e8:	693a2a17          	auipc	x20,0x693a2
    800049ec:	037be133          	rem	x2,x23,x23
    800049f0:	01c0dd13          	srli	x26,x1,0x1c
    800049f4:	02cf9cb3          	mulh	x25,x31,x12
    800049f8:	cf0ae997          	auipc	x19,0xcf0ae
    800049fc:	0257d3b3          	divu	x7,x15,x5
    80004a00:	35894d93          	xori	x27,x18,856
    80004a04:	028effb3          	remu	x31,x29,x8
    80004a08:	6e5eb913          	sltiu	x18,x29,1765
    80004a0c:	02f29433          	mulh	x8,x5,x15
    80004a10:	46c5cb13          	xori	x22,x11,1132
    80004a14:	024c003b          	mulw	x0,x24,x4
    80004a18:	00609e3b          	sllw	x28,x1,x6
    80004a1c:	022a9fb3          	mulh	x31,x21,x2
    80004a20:	680d7793          	andi	x15,x26,1664
    80004a24:	0264d8bb          	divuw	x17,x9,x6
    80004a28:	01a854bb          	srlw	x9,x16,x26
    80004a2c:	036f7933          	remu	x18,x30,x22
    80004a30:	291a6a93          	ori	x21,x20,657
    80004a34:	0282c33b          	divw	x6,x5,x8
    80004a38:	03cb1693          	slli	x13,x22,0x3c
    80004a3c:	03cb6e33          	rem	x28,x22,x28
    80004a40:	00f199b3          	sll	x19,x3,x15
    80004a44:	02e2cb33          	div	x22,x5,x14
    80004a48:	0154501b          	srliw	x0,x8,0x15
    80004a4c:	03452c33          	mulhsu	x24,x10,x20
    80004a50:	01bfaab3          	slt	x21,x31,x27
    80004a54:	032955b3          	divu	x11,x18,x18
    80004a58:	5b6d6197          	auipc	x3,0x5b6d6
    80004a5c:	028d62bb          	remw	x5,x26,x8
    80004a60:	0139da1b          	srliw	x20,x19,0x13
    80004a64:	03293133          	mulhu	x2,x18,x18
    80004a68:	0014561b          	srliw	x12,x8,0x1
    80004a6c:	02627ab3          	remu	x21,x4,x6
    80004a70:	7434fb97          	auipc	x23,0x7434f
    80004a74:	0346e8bb          	remw	x17,x13,x20
    80004a78:	14886917          	auipc	x18,0x14886
    80004a7c:	02358033          	mul	x0,x11,x3
    80004a80:	011cdc9b          	srliw	x25,x25,0x11
    80004a84:	029ef0bb          	remuw	x1,x29,x9
    80004a88:	00811793          	slli	x15,x2,0x8
    80004a8c:	028569b3          	rem	x19,x10,x8
    80004a90:	004fe533          	or	x10,x31,x4
    80004a94:	034716b3          	mulh	x13,x14,x20
    80004a98:	6184f393          	andi	x7,x9,1560
    80004a9c:	02cb08b3          	mul	x17,x22,x12
    80004aa0:	000d41b3          	xor	x3,x26,x0
    80004aa4:	025cea33          	rem	x20,x25,x5
    80004aa8:	4005dd33          	sra	x26,x11,x0
    80004aac:	037b5533          	divu	x10,x22,x23
    80004ab0:	0043183b          	sllw	x16,x6,x4
    80004ab4:	032ccb33          	div	x22,x25,x18
    80004ab8:	4268df13          	srai	x30,x17,0x26
    80004abc:	027981b3          	mul	x3,x19,x7
    80004ac0:	1bcc7a17          	auipc	x20,0x1bcc7
    80004ac4:	02266bb3          	rem	x23,x12,x2
    80004ac8:	b4507937          	lui	x18,0xb4507
    80004acc:	027826b3          	mulhsu	x13,x16,x7
    80004ad0:	021c5f93          	srli	x31,x24,0x21
    80004ad4:	0293ff33          	remu	x30,x7,x9
    80004ad8:	51c230b7          	lui	x1,0x51c23
    80004adc:	03b32a33          	mulhsu	x20,x6,x27
    80004ae0:	178b0537          	lui	x10,0x178b0
    80004ae4:	0372fab3          	remu	x21,x5,x23
    80004ae8:	4c19ddb7          	lui	x27,0x4c19d
    80004aec:	02f36933          	rem	x18,x6,x15
    80004af0:	40675b3b          	sraw	x22,x14,x6
    80004af4:	029a5533          	divu	x10,x20,x9
    80004af8:	415f89bb          	subw	x19,x31,x21
    80004afc:	02b73e33          	mulhu	x28,x14,x11
    80004b00:	183db293          	sltiu	x5,x27,387
    80004b04:	03d468b3          	rem	x17,x8,x29
    80004b08:	00475b1b          	srliw	x22,x14,0x4
    80004b0c:	0265483b          	divw	x16,x10,x6
    80004b10:	00c7d133          	srl	x2,x15,x12
    80004b14:	03866cb3          	rem	x25,x12,x24
    80004b18:	0e91ebb7          	lui	x23,0xe91e
    80004b1c:	02f9093b          	mulw	x18,x18,x15
    80004b20:	05a3f1b7          	lui	x3,0x5a3f
    80004b24:	038eaf33          	mulhsu	x30,x29,x24
    80004b28:	41c486b3          	sub	x13,x9,x28
    80004b2c:	0314c2b3          	div	x5,x9,x17
    80004b30:	b7270797          	auipc	x15,0xb7270
    80004b34:	033645bb          	divw	x11,x12,x19
    80004b38:	03cc9113          	slli	x2,x25,0x3c
    80004b3c:	02dffe3b          	remuw	x28,x31,x13
    80004b40:	232f4bb7          	lui	x23,0x232f4
    80004b44:	02d1bb33          	mulhu	x22,x3,x13
    80004b48:	649fa9b7          	lui	x19,0x649fa
    80004b4c:	038fdcbb          	divuw	x25,x31,x24
    80004b50:	41fa813b          	subw	x2,x21,x31
    80004b54:	020946bb          	divw	x13,x18,x0
    80004b58:	0f8d7313          	andi	x6,x26,248
    80004b5c:	03a1ee3b          	remw	x28,x3,x26
    80004b60:	28722737          	lui	x14,0x28722
    80004b64:	036fcfbb          	divw	x31,x31,x22
    80004b68:	70352e93          	slti	x29,x10,1795
    80004b6c:	023a08b3          	mul	x17,x20,x3
    80004b70:	0133101b          	slliw	x0,x6,0x13
    80004b74:	02659bb3          	mulh	x23,x11,x6
    80004b78:	cd9eb137          	lui	x2,0xcd9eb
    80004b7c:	03addfbb          	divuw	x31,x27,x26
    80004b80:	c03342b7          	lui	x5,0xc0334
    80004b84:	032ec93b          	divw	x18,x29,x18
    80004b88:	756b0993          	addi	x19,x22,1878 # 4a3f2756 <_start-0x35c0d8aa>
    80004b8c:	02c16dbb          	remw	x27,x2,x12
    80004b90:	022b1d13          	slli	x26,x22,0x22
    80004b94:	02008abb          	mulw	x21,x1,x0
    80004b98:	03831a13          	slli	x20,x6,0x38
    80004b9c:	032b2b33          	mulhsu	x22,x22,x18
    80004ba0:	1751c497          	auipc	x9,0x1751c
    80004ba4:	03338133          	mul	x2,x7,x19
    80004ba8:	40c087b3          	sub	x15,x1,x12
    80004bac:	02c51633          	mulh	x12,x10,x12
    80004bb0:	82c62ab7          	lui	x21,0x82c62
    80004bb4:	0335eb3b          	remw	x22,x11,x19
    80004bb8:	43e09117          	auipc	x2,0x43e09
    80004bbc:	02b4ad33          	mulhsu	x26,x9,x11
    80004bc0:	03a21593          	slli	x11,x4,0x3a
    80004bc4:	03fe62b3          	rem	x5,x28,x31
    80004bc8:	01b409bb          	addw	x19,x8,x27
    80004bcc:	027f7733          	remu	x14,x30,x7
    80004bd0:	01dec633          	xor	x12,x29,x29
    80004bd4:	035dcdbb          	divw	x27,x27,x21
    80004bd8:	5fa2c117          	auipc	x2,0x5fa2c
    80004bdc:	0285bc33          	mulhu	x24,x11,x8
    80004be0:	19824913          	xori	x18,x4,408
    80004be4:	03058d33          	mul	x26,x11,x16
    80004be8:	01928a33          	add	x20,x5,x25
    80004bec:	03b7f2bb          	remuw	x5,x15,x27
    80004bf0:	41358ab3          	sub	x21,x11,x19
    80004bf4:	028e94b3          	mulh	x9,x29,x8
    80004bf8:	01b08d33          	add	x26,x1,x27
    80004bfc:	03e3a133          	mulhsu	x2,x7,x30
    80004c00:	333fe337          	lui	x6,0x333fe
    80004c04:	024b2a33          	mulhsu	x20,x22,x4
    80004c08:	4135da9b          	sraiw	x21,x11,0x13
    80004c0c:	028bbeb3          	mulhu	x29,x23,x8
    80004c10:	40258233          	sub	x4,x11,x2
    80004c14:	03f1eb3b          	remw	x22,x3,x31
    80004c18:	54758337          	lui	x6,0x54758
    80004c1c:	033d8a3b          	mulw	x20,x27,x19
    80004c20:	00b2d49b          	srliw	x9,x5,0xb
    80004c24:	02d9ceb3          	div	x29,x19,x13
    80004c28:	01a39ab3          	sll	x21,x7,x26
    80004c2c:	0395e03b          	remw	x0,x11,x25
    80004c30:	fe017597          	auipc	x11,0xfe017
    80004c34:	02377833          	remu	x16,x14,x3
    80004c38:	1d6e3a13          	sltiu	x20,x28,470
    80004c3c:	03a9b133          	mulhu	x2,x19,x26
    80004c40:	40f1d23b          	sraw	x4,x3,x15
    80004c44:	02dfd2b3          	divu	x5,x31,x13
    80004c48:	f2037c97          	auipc	x25,0xf2037
    80004c4c:	0219bd33          	mulhu	x26,x19,x1
    80004c50:	41075fb3          	sra	x31,x14,x16
    80004c54:	03583533          	mulhu	x10,x16,x21
    80004c58:	00d0a633          	slt	x12,x1,x13
    80004c5c:	028e3033          	mulhu	x0,x28,x8
    80004c60:	00fb3333          	sltu	x6,x22,x15
    80004c64:	0246e7b3          	rem	x15,x13,x4
    80004c68:	d2df5497          	auipc	x9,0xd2df5
    80004c6c:	032e5733          	divu	x14,x28,x18
    80004c70:	580819b7          	lui	x19,0x58081
    80004c74:	03116533          	rem	x10,x2,x17
    80004c78:	38ffcd37          	lui	x26,0x38ffc
    80004c7c:	03c24fb3          	div	x31,x4,x28
    80004c80:	00b2943b          	sllw	x8,x5,x11
    80004c84:	03983833          	mulhu	x16,x16,x25
    80004c88:	abcd8537          	lui	x10,0xabcd8
    80004c8c:	020a8033          	mul	x0,x21,x0
    80004c90:	018126b3          	slt	x13,x2,x24
    80004c94:	022160b3          	rem	x1,x2,x2
    80004c98:	57b62d93          	slti	x27,x12,1403
    80004c9c:	03960f33          	mul	x30,x12,x25
    80004ca0:	00bc0cb3          	add	x25,x24,x11
    80004ca4:	0256bbb3          	mulhu	x23,x13,x5
    80004ca8:	89869d37          	lui	x26,0x89869
    80004cac:	02b16abb          	remw	x21,x2,x11
    80004cb0:	e9da9c37          	lui	x24,0xe9da9
    80004cb4:	027db533          	mulhu	x10,x27,x7
    80004cb8:	8e5aaf97          	auipc	x31,0x8e5aa
    80004cbc:	03c59f33          	mulh	x30,x11,x28
    80004cc0:	01562eb3          	slt	x29,x12,x21
    80004cc4:	035a7933          	remu	x18,x20,x21
    80004cc8:	4336801b          	addiw	x0,x13,1075 # fffffffffc6e3433 <_start+0xffffffff7c6e3433>
    80004ccc:	0296f633          	remu	x12,x13,x9
    80004cd0:	0284d093          	srli	x1,x9,0x28
    80004cd4:	02dc33b3          	mulhu	x7,x24,x13
    80004cd8:	01489f9b          	slliw	x31,x17,0x14
    80004cdc:	0328b1b3          	mulhu	x3,x17,x18
    80004ce0:	4191093b          	subw	x18,x2,x25
    80004ce4:	037a4db3          	div	x27,x20,x23
    80004ce8:	00a0e033          	or	x0,x1,x10
    80004cec:	026d25b3          	mulhsu	x11,x26,x6
    80004cf0:	0142d9b3          	srl	x19,x5,x20
    80004cf4:	0276f933          	remu	x18,x13,x7
    80004cf8:	0112b0b3          	sltu	x1,x5,x17
    80004cfc:	02800ab3          	mul	x21,x0,x8
    80004d00:	019c8b33          	add	x22,x25,x25
    80004d04:	0239ecb3          	rem	x25,x19,x3
    80004d08:	a1eb4197          	auipc	x3,0xa1eb4
    80004d0c:	033ba2b3          	mulhsu	x5,x23,x19
    80004d10:	0147d0bb          	srlw	x1,x15,x20
    80004d14:	0379ebb3          	rem	x23,x19,x23
    80004d18:	40905c1b          	sraiw	x24,x0,0x9
    80004d1c:	02980f3b          	mulw	x30,x16,x9
    80004d20:	aa7abeb7          	lui	x29,0xaa7ab
    80004d24:	033854b3          	divu	x9,x16,x19
    80004d28:	005865b3          	or	x11,x16,x5
    80004d2c:	037099b3          	mulh	x19,x1,x23
    80004d30:	e165a837          	lui	x16,0xe165a
    80004d34:	02020abb          	mulw	x21,x4,x0
    80004d38:	009d9fbb          	sllw	x31,x27,x9
    80004d3c:	02d1ae33          	mulhsu	x28,x3,x13
    80004d40:	3f5fd117          	auipc	x2,0x3f5fd
    80004d44:	023d42b3          	div	x5,x26,x3
    80004d48:	00bad433          	srl	x8,x21,x11
    80004d4c:	039b20b3          	mulhsu	x1,x22,x25
    80004d50:	67fc5937          	lui	x18,0x67fc5
    80004d54:	03cc653b          	remw	x10,x24,x28
    80004d58:	014811b3          	sll	x3,x16,x20
    80004d5c:	03de8db3          	mul	x27,x29,x29
    80004d60:	8a825a37          	lui	x20,0x8a825
    80004d64:	031cd3b3          	divu	x7,x25,x17
    80004d68:	e5d6e717          	auipc	x14,0xe5d6e
    80004d6c:	03a09c33          	mulh	x24,x1,x26
    80004d70:	000dfd33          	and	x26,x27,x0
    80004d74:	0394483b          	divw	x16,x8,x25
    80004d78:	017f97b3          	sll	x15,x31,x23
    80004d7c:	0295bbb3          	mulhu	x23,x11,x9
    80004d80:	29e54db7          	lui	x27,0x29e54
    80004d84:	026500b3          	mul	x1,x10,x6
    80004d88:	7f174e13          	xori	x28,x14,2033
    80004d8c:	020c01b3          	mul	x3,x24,x0
    80004d90:	ba8b5337          	lui	x6,0xba8b5
    80004d94:	036eec3b          	remw	x24,x29,x22
    80004d98:	004d913b          	sllw	x2,x27,x4
    80004d9c:	035ddbb3          	divu	x23,x27,x21
    80004da0:	6b8d41b7          	lui	x3,0x6b8d4
    80004da4:	03d4dfbb          	divuw	x31,x9,x29
    80004da8:	908f40b7          	lui	x1,0x908f4
    80004dac:	02f20833          	mul	x16,x4,x15
    80004db0:	00f019b3          	sll	x19,x0,x15
    80004db4:	02b4533b          	divuw	x6,x8,x11
