
./os/opensbi-qemu:     file format elf64-littleriscv


Disassembly of section .text:

0000000080000000 <_fw_start>:
    80000000:	00050433          	add	x8,x10,x0
    80000004:	000584b3          	add	x9,x11,x0
    80000008:	00060933          	add	x18,x12,x0
    8000000c:	54c000ef          	jal	x1,80000558 <fw_boot_hart>
    80000010:	00050833          	add	x16,x10,x0
    80000014:	00040533          	add	x10,x8,x0
    80000018:	000485b3          	add	x11,x9,x0
    8000001c:	00090633          	add	x12,x18,x0
    80000020:	58fd                	c.li	x17,-1
    80000022:	01180463          	beq	x16,x17,8000002a <_try_lottery>
    80000026:	0b051d63          	bne	x10,x16,800000e0 <_wait_relocate_copy_done>

000000008000002a <_try_lottery>:
    8000002a:	00018817          	auipc	x16,0x18
    8000002e:	fde80813          	addi	x16,x16,-34 # 80018008 <_relocate_lottery>
    80000032:	4885                	c.li	x17,1
    80000034:	0118282f          	amoadd.w	x16,x17,(x16)
    80000038:	0a081463          	bne	x16,x0,800000e0 <_wait_relocate_copy_done>
    8000003c:	00018297          	auipc	x5,0x18
    80000040:	fdc28293          	addi	x5,x5,-36 # 80018018 <_load_start>
    80000044:	00000317          	auipc	x6,0x0
    80000048:	fbc30313          	addi	x6,x6,-68 # 80000000 <_fw_start>
    8000004c:	0062b023          	sd	x6,0(x5)
    80000050:	00018297          	auipc	x5,0x18
    80000054:	fd028293          	addi	x5,x5,-48 # 80018020 <_link_start>
    80000058:	0002b283          	ld	x5,0(x5)
    8000005c:	405303b3          	sub	x7,x6,x5
    80000060:	00018e17          	auipc	x28,0x18
    80000064:	fa0e0e13          	addi	x28,x28,-96 # 80018000 <_runtime_offset>
    80000068:	007e3023          	sd	x7,0(x28)
    8000006c:	00019297          	auipc	x5,0x19
    80000070:	7bc28293          	addi	x5,x5,1980 # 80019828 <__rel_dyn_start>
    80000074:	0001b317          	auipc	x6,0x1b
    80000078:	25430313          	addi	x6,x6,596 # 8001b2c8 <__rel_dyn_end>
    8000007c:	06628363          	beq	x5,x6,800000e2 <_relocate_done>
    80000080:	a8a1                	c.j	800000d8 <_try_lottery+0xae>
    80000082:	ff02bf03          	ld	x30,-16(x5)
    80000086:	4e0d                	c.li	x28,3
    80000088:	01cf1b63          	bne	x30,x28,8000009e <_try_lottery+0x74>
    8000008c:	fe82be03          	ld	x28,-24(x5)
    80000090:	ff82bf03          	ld	x30,-8(x5)
    80000094:	9f1e                	c.add	x30,x7
    80000096:	9e1e                	c.add	x28,x7
    80000098:	01ee3023          	sd	x30,0(x28)
    8000009c:	a835                	c.j	800000d8 <_try_lottery+0xae>
    8000009e:	00019e97          	auipc	x29,0x19
    800000a2:	36ae8e93          	addi	x29,x29,874 # 80019408 <__dyn_sym_start>
    800000a6:	ff02bf03          	ld	x30,-16(x5)
    800000aa:	020f5f93          	srli	x31,x30,0x20
    800000ae:	0fff7f13          	andi	x30,x30,255
    800000b2:	4e09                	c.li	x28,2
    800000b4:	03cf1263          	bne	x30,x28,800000d8 <_try_lottery+0xae>
    800000b8:	fe82be03          	ld	x28,-24(x5)
    800000bc:	4f61                	c.li	x30,24
    800000be:	03ef8fb3          	mul	x31,x31,x30
    800000c2:	01fe8ab3          	add	x21,x29,x31
    800000c6:	ff82bf83          	ld	x31,-8(x5)
    800000ca:	008abf03          	ld	x30,8(x21)
    800000ce:	9f7e                	c.add	x30,x31
    800000d0:	9f1e                	c.add	x30,x7
    800000d2:	9e1e                	c.add	x28,x7
    800000d4:	01ee3023          	sd	x30,0(x28)
    800000d8:	02e1                	c.addi	x5,24
    800000da:	fa5354e3          	bge	x6,x5,80000082 <_try_lottery+0x58>
    800000de:	a011                	c.j	800000e2 <_relocate_done>

00000000800000e0 <_wait_relocate_copy_done>:
    800000e0:	a4b9                	c.j	8000032e <_wait_for_boot_hart>

00000000800000e2 <_relocate_done>:
    800000e2:	00018297          	auipc	x5,0x18
    800000e6:	f2e28293          	addi	x5,x5,-210 # 80018010 <_boot_status>
    800000ea:	4305                	c.li	x6,1
    800000ec:	0062b023          	sd	x6,0(x5)
    800000f0:	0330000f          	fence	rw,rw
    800000f4:	4081                	c.li	x1,0
    800000f6:	422000ef          	jal	x1,80000518 <_reset_regs>
    800000fa:	0001ca17          	auipc	x20,0x1c
    800000fe:	f06a0a13          	addi	x20,x20,-250 # 8001c000 <coldboot_lottery>
    80000102:	00044a97          	auipc	x21,0x44
    80000106:	7c6a8a93          	addi	x21,x21,1990 # 800448c8 <custom_csr>

000000008000010a <_bss_zero>:
    8000010a:	000a3023          	sd	x0,0(x20)
    8000010e:	0a21                	c.addi	x20,8
    80000110:	ff5a4de3          	blt	x20,x21,8000010a <_bss_zero>
    80000114:	00000a17          	auipc	x20,0x0
    80000118:	2e4a0a13          	addi	x20,x20,740 # 800003f8 <_start_hang>
    8000011c:	305a1073          	csrrw	x0,mtvec,x20
    80000120:	00045a17          	auipc	x20,0x45
    80000124:	ee0a0a13          	addi	x20,x20,-288 # 80045000 <_fw_end>
    80000128:	6a89                	c.lui	x21,0x2
    8000012a:	015a0133          	add	x2,x20,x21
    8000012e:	00050433          	add	x8,x10,x0
    80000132:	000584b3          	add	x9,x11,x0
    80000136:	00060933          	add	x18,x12,x0
    8000013a:	000689b3          	add	x19,x13,x0
    8000013e:	00070a33          	add	x20,x14,x0
    80000142:	41e000ef          	jal	x1,80000560 <fw_save_info>
    80000146:	00040533          	add	x10,x8,x0
    8000014a:	000485b3          	add	x11,x9,x0
    8000014e:	00090633          	add	x12,x18,x0
    80000152:	000986b3          	add	x13,x19,x0
    80000156:	000a0733          	add	x14,x20,x0
    8000015a:	00050433          	add	x8,x10,x0
    8000015e:	000584b3          	add	x9,x11,x0
    80000162:	00060933          	add	x18,x12,x0
    80000166:	000689b3          	add	x19,x13,x0
    8000016a:	00070a33          	add	x20,x14,x0
    8000016e:	0c5030ef          	jal	x1,80003a32 <fw_platform_init>
    80000172:	000502b3          	add	x5,x10,x0
    80000176:	00040533          	add	x10,x8,x0
    8000017a:	000485b3          	add	x11,x9,x0
    8000017e:	00090633          	add	x12,x18,x0
    80000182:	000986b3          	add	x13,x19,x0
    80000186:	000a0733          	add	x14,x20,x0
    8000018a:	000285b3          	add	x11,x5,x0
    8000018e:	00018717          	auipc	x14,0x18
    80000192:	ffa70713          	addi	x14,x14,-6 # 80018188 <platform>
    80000196:	05076b83          	lwu	x23,80(x14)
    8000019a:	05476c03          	lwu	x24,84(x14)
    8000019e:	00045217          	auipc	x4,0x45
    800001a2:	e6220213          	addi	x4,x4,-414 # 80045000 <_fw_end>
    800001a6:	038b87b3          	mul	x15,x23,x24
    800001aa:	923e                	c.add	x4,x15
    800001ac:	00020e33          	add	x28,x4,x0
    800001b0:	4385                	c.li	x7,1
    800001b2:	4301                	c.li	x6,0

00000000800001b4 <_scratch_init>:
    800001b4:	000e0233          	add	x4,x28,x0
    800001b8:	026c07b3          	mul	x15,x24,x6
    800001bc:	40f20233          	sub	x4,x4,x15
    800001c0:	6785                	c.lui	x15,0x1
    800001c2:	40f20233          	sub	x4,x4,x15
    800001c6:	00000717          	auipc	x14,0x0
    800001ca:	e3a70713          	addi	x14,x14,-454 # 80000000 <_fw_start>
    800001ce:	40ee07b3          	sub	x15,x28,x14
    800001d2:	00e23023          	sd	x14,0(x4) # 0 <_fw_start-0x80000000>
    800001d6:	00f23423          	sd	x15,8(x4) # 8 <_fw_start-0x7ffffff8>
    800001da:	00050433          	add	x8,x10,x0
    800001de:	000584b3          	add	x9,x11,x0
    800001e2:	00060933          	add	x18,x12,x0
    800001e6:	382000ef          	jal	x1,80000568 <fw_next_arg1>
    800001ea:	00a23823          	sd	x10,16(x4) # 10 <_fw_start-0x7ffffff0>
    800001ee:	00040533          	add	x10,x8,x0
    800001f2:	000485b3          	add	x11,x9,x0
    800001f6:	00090633          	add	x12,x18,x0
    800001fa:	00050433          	add	x8,x10,x0
    800001fe:	000584b3          	add	x9,x11,x0
    80000202:	00060933          	add	x18,x12,x0
    80000206:	36a000ef          	jal	x1,80000570 <fw_next_addr>
    8000020a:	00a23c23          	sd	x10,24(x4) # 18 <_fw_start-0x7fffffe8>
    8000020e:	00040533          	add	x10,x8,x0
    80000212:	000485b3          	add	x11,x9,x0
    80000216:	00090633          	add	x12,x18,x0
    8000021a:	00050433          	add	x8,x10,x0
    8000021e:	000584b3          	add	x9,x11,x0
    80000222:	00060933          	add	x18,x12,x0
    80000226:	35a000ef          	jal	x1,80000580 <fw_next_mode>
    8000022a:	02a23023          	sd	x10,32(x4) # 20 <_fw_start-0x7fffffe0>
    8000022e:	00040533          	add	x10,x8,x0
    80000232:	000485b3          	add	x11,x9,x0
    80000236:	00090633          	add	x12,x18,x0
    8000023a:	00000717          	auipc	x14,0x0
    8000023e:	10c70713          	addi	x14,x14,268 # 80000346 <_start_warm>
    80000242:	02e23423          	sd	x14,40(x4) # 28 <_fw_start-0x7fffffd8>
    80000246:	00018717          	auipc	x14,0x18
    8000024a:	f4270713          	addi	x14,x14,-190 # 80018188 <platform>
    8000024e:	02e23823          	sd	x14,48(x4) # 30 <_fw_start-0x7fffffd0>
    80000252:	00000717          	auipc	x14,0x0
    80000256:	17670713          	addi	x14,x14,374 # 800003c8 <_hartid_to_scratch>
    8000025a:	02e23c23          	sd	x14,56(x4) # 38 <_fw_start-0x7fffffc8>
    8000025e:	00000717          	auipc	x14,0x0
    80000262:	23870713          	addi	x14,x14,568 # 80000496 <_trap_exit>
    80000266:	04e23023          	sd	x14,64(x4) # 40 <_fw_start-0x7fffffc0>
    8000026a:	04023423          	sd	x0,72(x4) # 48 <_fw_start-0x7fffffb8>
    8000026e:	00050433          	add	x8,x10,x0
    80000272:	000584b3          	add	x9,x11,x0
    80000276:	00060933          	add	x18,x12,x0
    8000027a:	30e000ef          	jal	x1,80000588 <fw_options>
    8000027e:	04a23823          	sd	x10,80(x4) # 50 <_fw_start-0x7fffffb0>
    80000282:	00040533          	add	x10,x8,x0
    80000286:	000485b3          	add	x11,x9,x0
    8000028a:	00090633          	add	x12,x18,x0
    8000028e:	931e                	c.add	x6,x7
    80000290:	f37342e3          	blt	x6,x23,800001b4 <_scratch_init>
    80000294:	c1d9                	c.beqz	x11,8000031a <_fdt_reloc_done>
    80000296:	0ff00713          	addi	x14,x0,255
    8000029a:	00050433          	add	x8,x10,x0
    8000029e:	000584b3          	add	x9,x11,x0
    800002a2:	00060933          	add	x18,x12,x0
    800002a6:	2c2000ef          	jal	x1,80000568 <fw_next_arg1>
    800002aa:	00050333          	add	x6,x10,x0
    800002ae:	00040533          	add	x10,x8,x0
    800002b2:	000485b3          	add	x11,x9,x0
    800002b6:	00090633          	add	x12,x18,x0
    800002ba:	06030063          	beq	x6,x0,8000031a <_fdt_reloc_done>
    800002be:	04b30e63          	beq	x6,x11,8000031a <_fdt_reloc_done>
    800002c2:	000582b3          	add	x5,x11,x0
    800002c6:	0042e383          	lwu	x7,4(x5)
    800002ca:	00038e33          	add	x28,x7,x0
    800002ce:	010e5e13          	srli	x28,x28,0x10
    800002d2:	00ee7e33          	and	x28,x28,x14
    800002d6:	0e22                	c.slli	x28,0x8
    800002d8:	00038eb3          	add	x29,x7,x0
    800002dc:	008ede93          	srli	x29,x29,0x8
    800002e0:	00eefeb3          	and	x29,x29,x14
    800002e4:	0ec2                	c.slli	x29,0x10
    800002e6:	00038f33          	add	x30,x7,x0
    800002ea:	00ef7f33          	and	x30,x30,x14
    800002ee:	0f62                	c.slli	x30,0x18
    800002f0:	0183d393          	srli	x7,x7,0x18
    800002f4:	00e3f3b3          	and	x7,x7,x14
    800002f8:	01c3e3b3          	or	x7,x7,x28
    800002fc:	01d3e3b3          	or	x7,x7,x29
    80000300:	01e3e3b3          	or	x7,x7,x30
    80000304:	939a                	c.add	x7,x6
    80000306:	00735a63          	bge	x6,x7,8000031a <_fdt_reloc_done>

000000008000030a <_fdt_reloc_again>:
    8000030a:	0002be03          	ld	x28,0(x5)
    8000030e:	01c33023          	sd	x28,0(x6)
    80000312:	02a1                	c.addi	x5,8
    80000314:	0321                	c.addi	x6,8
    80000316:	fe734ae3          	blt	x6,x7,8000030a <_fdt_reloc_again>

000000008000031a <_fdt_reloc_done>:
    8000031a:	4289                	c.li	x5,2
    8000031c:	00018317          	auipc	x6,0x18
    80000320:	cf430313          	addi	x6,x6,-780 # 80018010 <_boot_status>
    80000324:	00533023          	sd	x5,0(x6)
    80000328:	0330000f          	fence	rw,rw
    8000032c:	a829                	c.j	80000346 <_start_warm>

000000008000032e <_wait_for_boot_hart>:
    8000032e:	4289                	c.li	x5,2
    80000330:	00018317          	auipc	x6,0x18
    80000334:	ce030313          	addi	x6,x6,-800 # 80018010 <_boot_status>
    80000338:	00033303          	ld	x6,0(x6)
    8000033c:	0001                	c.addi	x0,0
    8000033e:	0001                	c.addi	x0,0
    80000340:	0001                	c.addi	x0,0
    80000342:	fe6296e3          	bne	x5,x6,8000032e <_wait_for_boot_hart>

0000000080000346 <_start_warm>:
    80000346:	4081                	c.li	x1,0
    80000348:	1d0000ef          	jal	x1,80000518 <_reset_regs>
    8000034c:	30401073          	csrrw	x0,mie,x0
    80000350:	34401073          	csrrw	x0,mip,x0
    80000354:	00018717          	auipc	x14,0x18
    80000358:	e3470713          	addi	x14,x14,-460 # 80018188 <platform>
    8000035c:	05076b83          	lwu	x23,80(x14)
    80000360:	05476c03          	lwu	x24,84(x14)
    80000364:	06873c83          	ld	x25,104(x14)
    80000368:	f1402b73          	csrrs	x22,mhartid,x0
    8000036c:	000c8e63          	beq	x25,x0,80000388 <_start_warm+0x42>
    80000370:	4701                	c.li	x14,0
    80000372:	000ce783          	lwu	x15,0(x25)
    80000376:	01678763          	beq	x15,x22,80000384 <_start_warm+0x3e>
    8000037a:	0c91                	c.addi	x25,4
    8000037c:	0705                	c.addi	x14,1
    8000037e:	ff774ae3          	blt	x14,x23,80000372 <_start_warm+0x2c>
    80000382:	577d                	c.li	x14,-1
    80000384:	00070b33          	add	x22,x14,x0
    80000388:	077b5863          	bge	x22,x23,800003f8 <_start_hang>
    8000038c:	00045217          	auipc	x4,0x45
    80000390:	c7420213          	addi	x4,x4,-908 # 80045000 <_fw_end>
    80000394:	038b87b3          	mul	x15,x23,x24
    80000398:	923e                	c.add	x4,x15
    8000039a:	036c07b3          	mul	x15,x24,x22
    8000039e:	40f20233          	sub	x4,x4,x15
    800003a2:	6785                	c.lui	x15,0x1
    800003a4:	40f20233          	sub	x4,x4,x15
    800003a8:	34021073          	csrrw	x0,mscratch,x4
    800003ac:	00020133          	add	x2,x4,x0
    800003b0:	00000717          	auipc	x14,0x0
    800003b4:	05870713          	addi	x14,x14,88 # 80000408 <_trap_handler>
    800003b8:	30571073          	csrrw	x0,mtvec,x14
    800003bc:	34002573          	csrrs	x10,mscratch,x0
    800003c0:	1fc000ef          	jal	x1,800005bc <sbi_init>
    800003c4:	a815                	c.j	800003f8 <_start_hang>
    800003c6:	0001                	c.addi	x0,0

00000000800003c8 <_hartid_to_scratch>:
    800003c8:	00018397          	auipc	x7,0x18
    800003cc:	dc038393          	addi	x7,x7,-576 # 80018188 <platform>
    800003d0:	0543e283          	lwu	x5,84(x7)
    800003d4:	0503e383          	lwu	x7,80(x7)
    800003d8:	40b383b3          	sub	x7,x7,x11
    800003dc:	025383b3          	mul	x7,x7,x5
    800003e0:	00045317          	auipc	x6,0x45
    800003e4:	c2030313          	addi	x6,x6,-992 # 80045000 <_fw_end>
    800003e8:	931e                	c.add	x6,x7
    800003ea:	6385                	c.lui	x7,0x1
    800003ec:	40730533          	sub	x10,x6,x7
    800003f0:	8082                	c.jr	x1
    800003f2:	0001                	c.addi	x0,0
    800003f4:	00000013          	addi	x0,x0,0

00000000800003f8 <_start_hang>:
    800003f8:	10500073          	wfi
    800003fc:	bff5                	c.j	800003f8 <_start_hang>
    800003fe:	0001                	c.addi	x0,0
    80000400:	00058533          	add	x10,x11,x0
    80000404:	8082                	c.jr	x1
    80000406:	0001                	c.addi	x0,0

0000000080000408 <_trap_handler>:
    80000408:	34021273          	csrrw	x4,mscratch,x4
    8000040c:	04523423          	sd	x5,72(x4) # 48 <_fw_start-0x7fffffb8>
    80000410:	300022f3          	csrrs	x5,mstatus,x0
    80000414:	00b2d293          	srli	x5,x5,0xb
    80000418:	0032f293          	andi	x5,x5,3
    8000041c:	0032a293          	slti	x5,x5,3
    80000420:	12fd                	c.addi	x5,-1
    80000422:	00414133          	xor	x2,x2,x4
    80000426:	0022f2b3          	and	x5,x5,x2
    8000042a:	00414133          	xor	x2,x2,x4
    8000042e:	005242b3          	xor	x5,x4,x5
    80000432:	ee22bc23          	sd	x2,-264(x5)
    80000436:	ee828113          	addi	x2,x5,-280
    8000043a:	04823283          	ld	x5,72(x4) # 48 <_fw_start-0x7fffffb8>
    8000043e:	f416                	c.sdsp	x5,40(x2)
    80000440:	34021273          	csrrw	x4,mscratch,x4
    80000444:	341022f3          	csrrs	x5,mepc,x0
    80000448:	e216                	c.sdsp	x5,256(x2)
    8000044a:	300022f3          	csrrs	x5,mstatus,x0
    8000044e:	e616                	c.sdsp	x5,264(x2)
    80000450:	ea02                	c.sdsp	x0,272(x2)
    80000452:	e002                	c.sdsp	x0,0(x2)
    80000454:	e406                	c.sdsp	x1,8(x2)
    80000456:	ec0e                	c.sdsp	x3,24(x2)
    80000458:	f012                	c.sdsp	x4,32(x2)
    8000045a:	f81a                	c.sdsp	x6,48(x2)
    8000045c:	fc1e                	c.sdsp	x7,56(x2)
    8000045e:	e0a2                	c.sdsp	x8,64(x2)
    80000460:	e4a6                	c.sdsp	x9,72(x2)
    80000462:	e8aa                	c.sdsp	x10,80(x2)
    80000464:	ecae                	c.sdsp	x11,88(x2)
    80000466:	f0b2                	c.sdsp	x12,96(x2)
    80000468:	f4b6                	c.sdsp	x13,104(x2)
    8000046a:	f8ba                	c.sdsp	x14,112(x2)
    8000046c:	fcbe                	c.sdsp	x15,120(x2)
    8000046e:	e142                	c.sdsp	x16,128(x2)
    80000470:	e546                	c.sdsp	x17,136(x2)
    80000472:	e94a                	c.sdsp	x18,144(x2)
    80000474:	ed4e                	c.sdsp	x19,152(x2)
    80000476:	f152                	c.sdsp	x20,160(x2)
    80000478:	f556                	c.sdsp	x21,168(x2)
    8000047a:	f95a                	c.sdsp	x22,176(x2)
    8000047c:	fd5e                	c.sdsp	x23,184(x2)
    8000047e:	e1e2                	c.sdsp	x24,192(x2)
    80000480:	e5e6                	c.sdsp	x25,200(x2)
    80000482:	e9ea                	c.sdsp	x26,208(x2)
    80000484:	edee                	c.sdsp	x27,216(x2)
    80000486:	f1f2                	c.sdsp	x28,224(x2)
    80000488:	f5f6                	c.sdsp	x29,232(x2)
    8000048a:	f9fa                	c.sdsp	x30,240(x2)
    8000048c:	fdfe                	c.sdsp	x31,248(x2)
    8000048e:	00010533          	add	x10,x2,x0
    80000492:	6c3020ef          	jal	x1,80003354 <sbi_trap_handler>

0000000080000496 <_trap_exit>:
    80000496:	00853083          	ld	x1,8(x10)
    8000049a:	01053103          	ld	x2,16(x10)
    8000049e:	01853183          	ld	x3,24(x10)
    800004a2:	02053203          	ld	x4,32(x10)
    800004a6:	03053303          	ld	x6,48(x10)
    800004aa:	03853383          	ld	x7,56(x10)
    800004ae:	6120                	c.ld	x8,64(x10)
    800004b0:	6524                	c.ld	x9,72(x10)
    800004b2:	6d2c                	c.ld	x11,88(x10)
    800004b4:	7130                	c.ld	x12,96(x10)
    800004b6:	7534                	c.ld	x13,104(x10)
    800004b8:	7938                	c.ld	x14,112(x10)
    800004ba:	7d3c                	c.ld	x15,120(x10)
    800004bc:	08053803          	ld	x16,128(x10)
    800004c0:	08853883          	ld	x17,136(x10)
    800004c4:	09053903          	ld	x18,144(x10)
    800004c8:	09853983          	ld	x19,152(x10)
    800004cc:	0a053a03          	ld	x20,160(x10)
    800004d0:	0a853a83          	ld	x21,168(x10)
    800004d4:	0b053b03          	ld	x22,176(x10)
    800004d8:	0b853b83          	ld	x23,184(x10)
    800004dc:	0c053c03          	ld	x24,192(x10)
    800004e0:	0c853c83          	ld	x25,200(x10)
    800004e4:	0d053d03          	ld	x26,208(x10)
    800004e8:	0d853d83          	ld	x27,216(x10)
    800004ec:	0e053e03          	ld	x28,224(x10)
    800004f0:	0e853e83          	ld	x29,232(x10)
    800004f4:	0f053f03          	ld	x30,240(x10)
    800004f8:	0f853f83          	ld	x31,248(x10)
    800004fc:	10053283          	ld	x5,256(x10)
    80000500:	34129073          	csrrw	x0,mepc,x5
    80000504:	10853283          	ld	x5,264(x10)
    80000508:	30029073          	csrrw	x0,mstatus,x5
    8000050c:	02853283          	ld	x5,40(x10)
    80000510:	6928                	c.ld	x10,80(x10)
    80000512:	30200073          	mret
    80000516:	0001                	c.addi	x0,0

0000000080000518 <_reset_regs>:
    80000518:	0000100f          	fence.i
    8000051c:	4101                	c.li	x2,0
    8000051e:	4181                	c.li	x3,0
    80000520:	4201                	c.li	x4,0
    80000522:	4281                	c.li	x5,0
    80000524:	4301                	c.li	x6,0
    80000526:	4381                	c.li	x7,0
    80000528:	4401                	c.li	x8,0
    8000052a:	4481                	c.li	x9,0
    8000052c:	4681                	c.li	x13,0
    8000052e:	4701                	c.li	x14,0
    80000530:	4781                	c.li	x15,0
    80000532:	4801                	c.li	x16,0
    80000534:	4881                	c.li	x17,0
    80000536:	4901                	c.li	x18,0
    80000538:	4981                	c.li	x19,0
    8000053a:	4a01                	c.li	x20,0
    8000053c:	4a81                	c.li	x21,0
    8000053e:	4b01                	c.li	x22,0
    80000540:	4b81                	c.li	x23,0
    80000542:	4c01                	c.li	x24,0
    80000544:	4c81                	c.li	x25,0
    80000546:	4d01                	c.li	x26,0
    80000548:	4d81                	c.li	x27,0
    8000054a:	4e01                	c.li	x28,0
    8000054c:	4e81                	c.li	x29,0
    8000054e:	4f01                	c.li	x30,0
    80000550:	4f81                	c.li	x31,0
    80000552:	34005073          	csrrwi	x0,mscratch,0
    80000556:	8082                	c.jr	x1

0000000080000558 <fw_boot_hart>:
    80000558:	557d                	c.li	x10,-1
    8000055a:	8082                	c.jr	x1
    8000055c:	00000013          	addi	x0,x0,0

0000000080000560 <fw_save_info>:
    80000560:	8082                	c.jr	x1
    80000562:	0001                	c.addi	x0,0
    80000564:	00000013          	addi	x0,x0,0

0000000080000568 <fw_next_arg1>:
    80000568:	4110051b          	addiw	x10,x0,1041
    8000056c:	0556                	c.slli	x10,0x15
    8000056e:	8082                	c.jr	x1

0000000080000570 <fw_next_addr>:
    80000570:	00000517          	auipc	x10,0x0
    80000574:	02050513          	addi	x10,x10,32 # 80000590 <_jump_addr>
    80000578:	6108                	c.ld	x10,0(x10)
    8000057a:	8082                	c.jr	x1
    8000057c:	00000013          	addi	x0,x0,0

0000000080000580 <fw_next_mode>:
    80000580:	4505                	c.li	x10,1
    80000582:	8082                	c.jr	x1
    80000584:	00000013          	addi	x0,x0,0

0000000080000588 <fw_options>:
    80000588:	00000533          	add	x10,x0,x0
    8000058c:	8082                	c.jr	x1
    8000058e:	0001                	c.addi	x0,0

0000000080000590 <_jump_addr>:
    80000590:	0000                	c.unimp
    80000592:	8020                	.insn	2, 0x8020
	...

00000000800005a0 <memcpy>:
    800005a0:	6bd0106f          	jal	x0,8000245c <sbi_memcpy>
    800005a4:	00000013          	addi	x0,x0,0

00000000800005a8 <memset>:
    800005a8:	6930106f          	jal	x0,8000243a <sbi_memset>
    800005ac:	00000013          	addi	x0,x0,0

00000000800005b0 <memmove>:
    800005b0:	6cf0106f          	jal	x0,8000247e <sbi_memmove>
    800005b4:	00000013          	addi	x0,x0,0

00000000800005b8 <memcmp>:
    800005b8:	7170106f          	jal	x0,800024ce <sbi_memcmp>

00000000800005bc <sbi_init>:
    800005bc:	7155                	c.addi16sp	x2,-208
    800005be:	e1a2                	c.sdsp	x8,192(x2)
    800005c0:	e586                	c.sdsp	x1,200(x2)
    800005c2:	fd26                	c.sdsp	x9,184(x2)
    800005c4:	f94a                	c.sdsp	x18,176(x2)
    800005c6:	f54e                	c.sdsp	x19,168(x2)
    800005c8:	f152                	c.sdsp	x20,160(x2)
    800005ca:	ed56                	c.sdsp	x21,152(x2)
    800005cc:	e95a                	c.sdsp	x22,144(x2)
    800005ce:	e55e                	c.sdsp	x23,136(x2)
    800005d0:	e162                	c.sdsp	x24,128(x2)
    800005d2:	0980                	c.addi4spn	x8,x2,208
    800005d4:	f1402a73          	csrrs	x20,mhartid,x0
    800005d8:	07f00793          	addi	x15,x0,127
    800005dc:	000a091b          	addiw	x18,x20,0
    800005e0:	0327e863          	bltu	x15,x18,80000610 <sbi_init+0x54>
    800005e4:	03053983          	ld	x19,48(x10)
    800005e8:	84aa                	c.mv	x9,x10
    800005ea:	02098363          	beq	x19,x0,80000610 <sbi_init+0x54>
    800005ee:	0509aa83          	lw	x21,80(x19)
    800005f2:	85ca                	c.mv	x11,x18
    800005f4:	854e                	c.mv	x10,x19
    800005f6:	569000ef          	jal	x1,8000135e <sbi_platform_hart_index>
    800005fa:	2501                	c.addiw	x10,0
    800005fc:	01557a63          	bgeu	x10,x21,80000610 <sbi_init+0x54>
    80000600:	709c                	c.ld	x15,32(x9)
    80000602:	4705                	c.li	x14,1
    80000604:	0ee78363          	beq	x15,x14,800006ea <sbi_init+0x12e>
    80000608:	470d                	c.li	x14,3
    8000060a:	00e78b63          	beq	x15,x14,80000620 <sbi_init+0x64>
    8000060e:	c399                	c.beqz	x15,80000614 <sbi_init+0x58>
    80000610:	04a090ef          	jal	x1,8000965a <sbi_hart_hang>
    80000614:	05500513          	addi	x10,x0,85
    80000618:	71e030ef          	jal	x1,80003d36 <misa_extension_imp>
    8000061c:	0c050d63          	beq	x10,x0,800006f6 <sbi_init+0x13a>
    80000620:	4585                	c.li	x11,1
    80000622:	0001c517          	auipc	x10,0x1c
    80000626:	9de50513          	addi	x10,x10,-1570 # 8001c000 <coldboot_lottery>
    8000062a:	288040ef          	jal	x1,800048b2 <atomic_xchg>
    8000062e:	e561                	c.bnez	x10,800006f6 <sbi_init+0x13a>
    80000630:	0589b783          	ld	x15,88(x19)
    80000634:	639c                	c.ld	x15,0(x15)
    80000636:	c399                	c.beqz	x15,8000063c <sbi_init+0x80>
    80000638:	9782                	c.jalr	x15
    8000063a:	f979                	c.bnez	x10,80000610 <sbi_init+0x54>
    8000063c:	8526                	c.mv	x10,x9
    8000063e:	0304b983          	ld	x19,48(x9)
    80000642:	33d010ef          	jal	x1,8000217e <sbi_scratch_init>
    80000646:	f569                	c.bnez	x10,80000610 <sbi_init+0x54>
    80000648:	85ca                	c.mv	x11,x18
    8000064a:	8526                	c.mv	x10,x9
    8000064c:	59b050ef          	jal	x1,800063e6 <sbi_domain_init>
    80000650:	f161                	c.bnez	x10,80000610 <sbi_init+0x54>
    80000652:	4521                	c.li	x10,8
    80000654:	3bf010ef          	jal	x1,80002212 <sbi_scratch_alloc_offset>
    80000658:	0001ca97          	auipc	x21,0x1c
    8000065c:	9a8a8a93          	addi	x21,x21,-1624 # 8001c000 <coldboot_lottery>
    80000660:	00aab423          	sd	x10,8(x21)
    80000664:	d555                	c.beqz	x10,80000610 <sbi_init+0x54>
    80000666:	4605                	c.li	x12,1
    80000668:	85ca                	c.mv	x11,x18
    8000066a:	8526                	c.mv	x10,x9
    8000066c:	2a8090ef          	jal	x1,80009914 <sbi_hsm_init>
    80000670:	f145                	c.bnez	x10,80000610 <sbi_init+0x54>
    80000672:	00098963          	beq	x19,x0,80000684 <sbi_init+0xc8>
    80000676:	0589b783          	ld	x15,88(x19)
    8000067a:	679c                	c.ld	x15,8(x15)
    8000067c:	c781                	c.beqz	x15,80000684 <sbi_init+0xc8>
    8000067e:	4505                	c.li	x10,1
    80000680:	9782                	c.jalr	x15
    80000682:	f559                	c.bnez	x10,80000610 <sbi_init+0x54>
    80000684:	4585                	c.li	x11,1
    80000686:	8526                	c.mv	x10,x9
    80000688:	07a070ef          	jal	x1,80007702 <sbi_hart_init>
    8000068c:	f151                	c.bnez	x10,80000610 <sbi_init+0x54>
    8000068e:	8526                	c.mv	x10,x9
    80000690:	0c6050ef          	jal	x1,80005756 <sbi_console_init>
    80000694:	fd35                	c.bnez	x10,80000610 <sbi_init+0x54>
    80000696:	4585                	c.li	x11,1
    80000698:	8526                	c.mv	x10,x9
    8000069a:	273010ef          	jal	x1,8000210c <sbi_pmu_init>
    8000069e:	f92d                	c.bnez	x10,80000610 <sbi_init+0x54>
    800006a0:	68bc                	c.ld	x15,80(x9)
    800006a2:	8b85                	c.andi	x15,1
    800006a4:	e38d                	c.bnez	x15,800006c6 <sbi_init+0x10a>
    800006a6:	00015597          	auipc	x11,0x15
    800006aa:	96258593          	addi	x11,x11,-1694 # 80015008 <_PROCEDURE_LINKAGE_TABLE_+0x418>
    800006ae:	00015517          	auipc	x10,0x15
    800006b2:	97250513          	addi	x10,x10,-1678 # 80015020 <_PROCEDURE_LINKAGE_TABLE_+0x430>
    800006b6:	6cb040ef          	jal	x1,80005580 <sbi_printf>
    800006ba:	00015517          	auipc	x10,0x15
    800006be:	97650513          	addi	x10,x10,-1674 # 80015030 <_PROCEDURE_LINKAGE_TABLE_+0x440>
    800006c2:	6bf040ef          	jal	x1,80005580 <sbi_printf>
    800006c6:	4585                	c.li	x11,1
    800006c8:	8526                	c.mv	x10,x9
    800006ca:	341000ef          	jal	x1,8000120a <sbi_irqchip_init>
    800006ce:	862a                	c.mv	x12,x10
    800006d0:	1c050463          	beq	x10,x0,80000898 <sbi_init+0x2dc>
    800006d4:	00015597          	auipc	x11,0x15
    800006d8:	ed458593          	addi	x11,x11,-300 # 800155a8 <__func__.2095>
    800006dc:	00015517          	auipc	x10,0x15
    800006e0:	a7c50513          	addi	x10,x10,-1412 # 80015158 <_PROCEDURE_LINKAGE_TABLE_+0x568>
    800006e4:	69d040ef          	jal	x1,80005580 <sbi_printf>
    800006e8:	b725                	c.j	80000610 <sbi_init+0x54>
    800006ea:	05300513          	addi	x10,x0,83
    800006ee:	648030ef          	jal	x1,80003d36 <misa_extension_imp>
    800006f2:	f20517e3          	bne	x10,x0,80000620 <sbi_init+0x64>
    800006f6:	0589b783          	ld	x15,88(x19)
    800006fa:	639c                	c.ld	x15,0(x15)
    800006fc:	c781                	c.beqz	x15,80000704 <sbi_init+0x148>
    800006fe:	9782                	c.jalr	x15
    80000700:	f00518e3          	bne	x10,x0,80000610 <sbi_init+0x54>
    80000704:	30402b73          	csrrs	x22,mie,x0
    80000708:	6705                	c.lui	x14,0x1
    8000070a:	80870993          	addi	x19,x14,-2040 # 808 <_fw_start-0x7ffff7f8>
    8000070e:	3049a073          	csrrs	x0,mie,x19
    80000712:	0001c517          	auipc	x10,0x1c
    80000716:	90650513          	addi	x10,x10,-1786 # 8001c018 <coldboot_lock>
    8000071a:	33c040ef          	jal	x1,80004a56 <spin_lock>
    8000071e:	40695c13          	srai	x24,x18,0x6
    80000722:	003c1793          	slli	x15,x24,0x3
    80000726:	0001cc17          	auipc	x24,0x1c
    8000072a:	8fac0c13          	addi	x24,x24,-1798 # 8001c020 <coldboot_wait_hmask>
    8000072e:	9c3e                	c.add	x24,x15
    80000730:	000c3783          	ld	x15,0(x24)
    80000734:	4b85                	c.li	x23,1
    80000736:	012b9bb3          	sll	x23,x23,x18
    8000073a:	0177e7b3          	or	x15,x15,x23
    8000073e:	0001c517          	auipc	x10,0x1c
    80000742:	8da50513          	addi	x10,x10,-1830 # 8001c018 <coldboot_lock>
    80000746:	00fc3023          	sd	x15,0(x24)
    8000074a:	338040ef          	jal	x1,80004a82 <spin_unlock>
    8000074e:	0001ca97          	auipc	x21,0x1c
    80000752:	8b2a8a93          	addi	x21,x21,-1870 # 8001c000 <coldboot_lottery>
    80000756:	874e                	c.mv	x14,x19
    80000758:	010ab783          	ld	x15,16(x21)
    8000075c:	0230000f          	fence	r,rw
    80000760:	eb81                	c.bnez	x15,80000770 <sbi_init+0x1b4>
    80000762:	10500073          	wfi
    80000766:	344027f3          	csrrs	x15,mip,x0
    8000076a:	8ff9                	c.and	x15,x14
    8000076c:	dbfd                	c.beqz	x15,80000762 <sbi_init+0x1a6>
    8000076e:	b7ed                	c.j	80000758 <sbi_init+0x19c>
    80000770:	0001c517          	auipc	x10,0x1c
    80000774:	8a850513          	addi	x10,x10,-1880 # 8001c018 <coldboot_lock>
    80000778:	2de040ef          	jal	x1,80004a56 <spin_lock>
    8000077c:	000c3783          	ld	x15,0(x24)
    80000780:	fffbcb93          	xori	x23,x23,-1
    80000784:	0001c517          	auipc	x10,0x1c
    80000788:	89450513          	addi	x10,x10,-1900 # 8001c018 <coldboot_lock>
    8000078c:	0177fbb3          	and	x23,x15,x23
    80000790:	017c3023          	sd	x23,0(x24)
    80000794:	2ee040ef          	jal	x1,80004a82 <spin_unlock>
    80000798:	304b1073          	csrrw	x0,mie,x22
    8000079c:	f14027f3          	csrrs	x15,mhartid,x0
    800007a0:	1782                	c.slli	x15,0x20
    800007a2:	83f5                	c.srli	x15,0x1d
    800007a4:	00019717          	auipc	x14,0x19
    800007a8:	b6c73703          	ld	x14,-1172(x14) # 80019310 <_GLOBAL_OFFSET_TABLE_+0x80>
    800007ac:	97ba                	c.add	x15,x14
    800007ae:	6388                	c.ld	x10,0(x15)
    800007b0:	85ca                	c.mv	x11,x18
    800007b2:	7f5080ef          	jal	x1,800097a6 <sbi_hsm_hart_get_state>
    800007b6:	e4054de3          	blt	x10,x0,80000610 <sbi_init+0x54>
    800007ba:	4791                	c.li	x15,4
    800007bc:	0af50d63          	beq	x10,x15,80000876 <sbi_init+0x2ba>
    800007c0:	008ab783          	ld	x15,8(x21)
    800007c4:	0304b983          	ld	x19,48(x9)
    800007c8:	e40784e3          	beq	x15,x0,80000610 <sbi_init+0x54>
    800007cc:	4601                	c.li	x12,0
    800007ce:	85ca                	c.mv	x11,x18
    800007d0:	8526                	c.mv	x10,x9
    800007d2:	142090ef          	jal	x1,80009914 <sbi_hsm_init>
    800007d6:	e2051de3          	bne	x10,x0,80000610 <sbi_init+0x54>
    800007da:	00098963          	beq	x19,x0,800007ec <sbi_init+0x230>
    800007de:	0589b783          	ld	x15,88(x19)
    800007e2:	679c                	c.ld	x15,8(x15)
    800007e4:	c781                	c.beqz	x15,800007ec <sbi_init+0x230>
    800007e6:	9782                	c.jalr	x15
    800007e8:	e20514e3          	bne	x10,x0,80000610 <sbi_init+0x54>
    800007ec:	4581                	c.li	x11,0
    800007ee:	8526                	c.mv	x10,x9
    800007f0:	713060ef          	jal	x1,80007702 <sbi_hart_init>
    800007f4:	e0051ee3          	bne	x10,x0,80000610 <sbi_init+0x54>
    800007f8:	4581                	c.li	x11,0
    800007fa:	8526                	c.mv	x10,x9
    800007fc:	111010ef          	jal	x1,8000210c <sbi_pmu_init>
    80000800:	e00518e3          	bne	x10,x0,80000610 <sbi_init+0x54>
    80000804:	4581                	c.li	x11,0
    80000806:	8526                	c.mv	x10,x9
    80000808:	203000ef          	jal	x1,8000120a <sbi_irqchip_init>
    8000080c:	e00512e3          	bne	x10,x0,80000610 <sbi_init+0x54>
    80000810:	4581                	c.li	x11,0
    80000812:	8526                	c.mv	x10,x9
    80000814:	0c5000ef          	jal	x1,800010d8 <sbi_ipi_init>
    80000818:	de051ce3          	bne	x10,x0,80000610 <sbi_init+0x54>
    8000081c:	4581                	c.li	x11,0
    8000081e:	8526                	c.mv	x10,x9
    80000820:	041020ef          	jal	x1,80003060 <sbi_tlb_init>
    80000824:	de0516e3          	bne	x10,x0,80000610 <sbi_init+0x54>
    80000828:	4581                	c.li	x11,0
    8000082a:	8526                	c.mv	x10,x9
    8000082c:	16a020ef          	jal	x1,80002996 <sbi_timer_init>
    80000830:	de0510e3          	bne	x10,x0,80000610 <sbi_init+0x54>
    80000834:	8526                	c.mv	x10,x9
    80000836:	1f5060ef          	jal	x1,8000722a <sbi_hart_pmp_configure>
    8000083a:	dc051be3          	bne	x10,x0,80000610 <sbi_init+0x54>
    8000083e:	00098963          	beq	x19,x0,80000850 <sbi_init+0x294>
    80000842:	0589b783          	ld	x15,88(x19)
    80000846:	6b9c                	c.ld	x15,16(x15)
    80000848:	c781                	c.beqz	x15,80000850 <sbi_init+0x294>
    8000084a:	9782                	c.jalr	x15
    8000084c:	dc0512e3          	bne	x10,x0,80000610 <sbi_init+0x54>
    80000850:	008ab783          	ld	x15,8(x21)
    80000854:	85ca                	c.mv	x11,x18
    80000856:	8526                	c.mv	x10,x9
    80000858:	97a6                	c.add	x15,x9
    8000085a:	6398                	c.ld	x14,0(x15)
    8000085c:	0705                	c.addi	x14,1
    8000085e:	e398                	c.sd	x14,0(x15)
    80000860:	050090ef          	jal	x1,800098b0 <sbi_hsm_prepare_next_jump>
    80000864:	7094                	c.ld	x13,32(x9)
    80000866:	6c90                	c.ld	x12,24(x9)
    80000868:	688c                	c.ld	x11,16(x9)
    8000086a:	020a1513          	slli	x10,x20,0x20
    8000086e:	4701                	c.li	x14,0
    80000870:	9101                	c.srli	x10,0x20
    80000872:	5f9080ef          	jal	x1,8000966a <sbi_hart_switch_mode>
    80000876:	8526                	c.mv	x10,x9
    80000878:	2d4090ef          	jal	x1,80009b4c <sbi_hsm_hart_resume_start>
    8000087c:	8526                	c.mv	x10,x9
    8000087e:	48b060ef          	jal	x1,80007508 <sbi_hart_reinit>
    80000882:	d80517e3          	bne	x10,x0,80000610 <sbi_init+0x54>
    80000886:	8526                	c.mv	x10,x9
    80000888:	1a3060ef          	jal	x1,8000722a <sbi_hart_pmp_configure>
    8000088c:	d80512e3          	bne	x10,x0,80000610 <sbi_init+0x54>
    80000890:	8526                	c.mv	x10,x9
    80000892:	30e090ef          	jal	x1,80009ba0 <sbi_hsm_hart_resume_finish>
    80000896:	b7f9                	c.j	80000864 <sbi_init+0x2a8>
    80000898:	4585                	c.li	x11,1
    8000089a:	8526                	c.mv	x10,x9
    8000089c:	03d000ef          	jal	x1,800010d8 <sbi_ipi_init>
    800008a0:	862a                	c.mv	x12,x10
    800008a2:	cd09                	c.beqz	x10,800008bc <sbi_init+0x300>
    800008a4:	00015597          	auipc	x11,0x15
    800008a8:	d0458593          	addi	x11,x11,-764 # 800155a8 <__func__.2095>
    800008ac:	00015517          	auipc	x10,0x15
    800008b0:	8d450513          	addi	x10,x10,-1836 # 80015180 <_PROCEDURE_LINKAGE_TABLE_+0x590>
    800008b4:	4cd040ef          	jal	x1,80005580 <sbi_printf>
    800008b8:	5a3080ef          	jal	x1,8000965a <sbi_hart_hang>
    800008bc:	4585                	c.li	x11,1
    800008be:	8526                	c.mv	x10,x9
    800008c0:	7a0020ef          	jal	x1,80003060 <sbi_tlb_init>
    800008c4:	862a                	c.mv	x12,x10
    800008c6:	cd09                	c.beqz	x10,800008e0 <sbi_init+0x324>
    800008c8:	00015597          	auipc	x11,0x15
    800008cc:	ce058593          	addi	x11,x11,-800 # 800155a8 <__func__.2095>
    800008d0:	00015517          	auipc	x10,0x15
    800008d4:	8d050513          	addi	x10,x10,-1840 # 800151a0 <_PROCEDURE_LINKAGE_TABLE_+0x5b0>
    800008d8:	4a9040ef          	jal	x1,80005580 <sbi_printf>
    800008dc:	57f080ef          	jal	x1,8000965a <sbi_hart_hang>
    800008e0:	4585                	c.li	x11,1
    800008e2:	8526                	c.mv	x10,x9
    800008e4:	0b2020ef          	jal	x1,80002996 <sbi_timer_init>
    800008e8:	862a                	c.mv	x12,x10
    800008ea:	cd09                	c.beqz	x10,80000904 <sbi_init+0x348>
    800008ec:	00015597          	auipc	x11,0x15
    800008f0:	cbc58593          	addi	x11,x11,-836 # 800155a8 <__func__.2095>
    800008f4:	00015517          	auipc	x10,0x15
    800008f8:	8cc50513          	addi	x10,x10,-1844 # 800151c0 <_PROCEDURE_LINKAGE_TABLE_+0x5d0>
    800008fc:	485040ef          	jal	x1,80005580 <sbi_printf>
    80000900:	55b080ef          	jal	x1,8000965a <sbi_hart_hang>
    80000904:	5f5050ef          	jal	x1,800066f8 <sbi_ecall_init>
    80000908:	862a                	c.mv	x12,x10
    8000090a:	cd09                	c.beqz	x10,80000924 <sbi_init+0x368>
    8000090c:	00015597          	auipc	x11,0x15
    80000910:	c9c58593          	addi	x11,x11,-868 # 800155a8 <__func__.2095>
    80000914:	00015517          	auipc	x10,0x15
    80000918:	8d450513          	addi	x10,x10,-1836 # 800151e8 <_PROCEDURE_LINKAGE_TABLE_+0x5f8>
    8000091c:	465040ef          	jal	x1,80005580 <sbi_printf>
    80000920:	53b080ef          	jal	x1,8000965a <sbi_hart_hang>
    80000924:	85ca                	c.mv	x11,x18
    80000926:	8526                	c.mv	x10,x9
    80000928:	195050ef          	jal	x1,800062bc <sbi_domain_finalize>
    8000092c:	862a                	c.mv	x12,x10
    8000092e:	cd09                	c.beqz	x10,80000948 <sbi_init+0x38c>
    80000930:	00015597          	auipc	x11,0x15
    80000934:	c7858593          	addi	x11,x11,-904 # 800155a8 <__func__.2095>
    80000938:	00015517          	auipc	x10,0x15
    8000093c:	8d850513          	addi	x10,x10,-1832 # 80015210 <_PROCEDURE_LINKAGE_TABLE_+0x620>
    80000940:	441040ef          	jal	x1,80005580 <sbi_printf>
    80000944:	517080ef          	jal	x1,8000965a <sbi_hart_hang>
    80000948:	8526                	c.mv	x10,x9
    8000094a:	0e1060ef          	jal	x1,8000722a <sbi_hart_pmp_configure>
    8000094e:	862a                	c.mv	x12,x10
    80000950:	2e051063          	bne	x10,x0,80000c30 <sbi_init+0x674>
    80000954:	00098b63          	beq	x19,x0,8000096a <sbi_init+0x3ae>
    80000958:	0589b783          	ld	x15,88(x19)
    8000095c:	6b9c                	c.ld	x15,16(x15)
    8000095e:	c791                	c.beqz	x15,8000096a <sbi_init+0x3ae>
    80000960:	4505                	c.li	x10,1
    80000962:	9782                	c.jalr	x15
    80000964:	862a                	c.mv	x12,x10
    80000966:	2e051163          	bne	x10,x0,80000c48 <sbi_init+0x68c>
    8000096a:	0504b983          	ld	x19,80(x9)
    8000096e:	0019f993          	andi	x19,x19,1
    80000972:	12099363          	bne	x19,x0,80000a98 <sbi_init+0x4dc>
    80000976:	0304bb03          	ld	x22,48(x9)
    8000097a:	300b0c63          	beq	x22,x0,80000c92 <sbi_init+0x6d6>
    8000097e:	008b0593          	addi	x11,x22,8
    80000982:	00015517          	auipc	x10,0x15
    80000986:	90e50513          	addi	x10,x10,-1778 # 80015290 <_PROCEDURE_LINKAGE_TABLE_+0x6a0>
    8000098a:	3f7040ef          	jal	x1,80005580 <sbi_printf>
    8000098e:	f3040b93          	addi	x23,x8,-208
    80000992:	08000613          	addi	x12,x0,128
    80000996:	855a                	c.mv	x10,x22
    80000998:	85de                	c.mv	x11,x23
    8000099a:	10f000ef          	jal	x1,800012a8 <sbi_platform_get_features_str>
    8000099e:	85de                	c.mv	x11,x23
    800009a0:	00015517          	auipc	x10,0x15
    800009a4:	91050513          	addi	x10,x10,-1776 # 800152b0 <_PROCEDURE_LINKAGE_TABLE_+0x6c0>
    800009a8:	3d9040ef          	jal	x1,80005580 <sbi_printf>
    800009ac:	050b2583          	lw	x11,80(x22)
    800009b0:	00015517          	auipc	x10,0x15
    800009b4:	92050513          	addi	x10,x10,-1760 # 800152d0 <_PROCEDURE_LINKAGE_TABLE_+0x6e0>
    800009b8:	3c9040ef          	jal	x1,80005580 <sbi_printf>
    800009bc:	6e2000ef          	jal	x1,8000109e <sbi_ipi_get_device>
    800009c0:	85aa                	c.mv	x11,x10
    800009c2:	2c050363          	beq	x10,x0,80000c88 <sbi_init+0x6cc>
    800009c6:	00015517          	auipc	x10,0x15
    800009ca:	92a50513          	addi	x10,x10,-1750 # 800152f0 <_PROCEDURE_LINKAGE_TABLE_+0x700>
    800009ce:	3b3040ef          	jal	x1,80005580 <sbi_printf>
    800009d2:	789010ef          	jal	x1,8000295a <sbi_timer_get_device>
    800009d6:	85aa                	c.mv	x11,x10
    800009d8:	2a050363          	beq	x10,x0,80000c7e <sbi_init+0x6c2>
    800009dc:	02053983          	ld	x19,32(x10)
    800009e0:	864e                	c.mv	x12,x19
    800009e2:	00015517          	auipc	x10,0x15
    800009e6:	92e50513          	addi	x10,x10,-1746 # 80015310 <_PROCEDURE_LINKAGE_TABLE_+0x720>
    800009ea:	397040ef          	jal	x1,80005580 <sbi_printf>
    800009ee:	533040ef          	jal	x1,80005720 <sbi_console_get_device>
    800009f2:	85aa                	c.mv	x11,x10
    800009f4:	28050063          	beq	x10,x0,80000c74 <sbi_init+0x6b8>
    800009f8:	00015517          	auipc	x10,0x15
    800009fc:	94050513          	addi	x10,x10,-1728 # 80015338 <_PROCEDURE_LINKAGE_TABLE_+0x748>
    80000a00:	381040ef          	jal	x1,80005580 <sbi_printf>
    80000a04:	6db080ef          	jal	x1,800098de <sbi_hsm_get_device>
    80000a08:	85aa                	c.mv	x11,x10
    80000a0a:	26050063          	beq	x10,x0,80000c6a <sbi_init+0x6ae>
    80000a0e:	00015517          	auipc	x10,0x15
    80000a12:	94a50513          	addi	x10,x10,-1718 # 80015358 <_PROCEDURE_LINKAGE_TABLE_+0x768>
    80000a16:	36b040ef          	jal	x1,80005580 <sbi_printf>
    80000a1a:	4581                	c.li	x11,0
    80000a1c:	4505                	c.li	x10,1
    80000a1e:	313010ef          	jal	x1,80002530 <sbi_system_reset_get_device>
    80000a22:	85aa                	c.mv	x11,x10
    80000a24:	22050e63          	beq	x10,x0,80000c60 <sbi_init+0x6a4>
    80000a28:	00015517          	auipc	x10,0x15
    80000a2c:	95050513          	addi	x10,x10,-1712 # 80015378 <_PROCEDURE_LINKAGE_TABLE_+0x788>
    80000a30:	351040ef          	jal	x1,80005580 <sbi_printf>
    80000a34:	4581                	c.li	x11,0
    80000a36:	4501                	c.li	x10,0
    80000a38:	2f9010ef          	jal	x1,80002530 <sbi_system_reset_get_device>
    80000a3c:	85aa                	c.mv	x11,x10
    80000a3e:	1a050e63          	beq	x10,x0,80000bfa <sbi_init+0x63e>
    80000a42:	00015517          	auipc	x10,0x15
    80000a46:	95650513          	addi	x10,x10,-1706 # 80015398 <_PROCEDURE_LINKAGE_TABLE_+0x7a8>
    80000a4a:	337040ef          	jal	x1,80005580 <sbi_printf>
    80000a4e:	608c                	c.ld	x11,0(x9)
    80000a50:	00015517          	auipc	x10,0x15
    80000a54:	96850513          	addi	x10,x10,-1688 # 800153b8 <_PROCEDURE_LINKAGE_TABLE_+0x7c8>
    80000a58:	329040ef          	jal	x1,80005580 <sbi_printf>
    80000a5c:	648c                	c.ld	x11,8(x9)
    80000a5e:	00015517          	auipc	x10,0x15
    80000a62:	98250513          	addi	x10,x10,-1662 # 800153e0 <_PROCEDURE_LINKAGE_TABLE_+0x7f0>
    80000a66:	81a9                	c.srli	x11,0xa
    80000a68:	2581                	c.addiw	x11,0
    80000a6a:	317040ef          	jal	x1,80005580 <sbi_printf>
    80000a6e:	291050ef          	jal	x1,800064fe <sbi_ecall_version_major>
    80000a72:	89aa                	c.mv	x19,x10
    80000a74:	299050ef          	jal	x1,8000650c <sbi_ecall_version_minor>
    80000a78:	0005061b          	addiw	x12,x10,0
    80000a7c:	0009859b          	addiw	x11,x19,0
    80000a80:	00015517          	auipc	x10,0x15
    80000a84:	98850513          	addi	x10,x10,-1656 # 80015408 <_PROCEDURE_LINKAGE_TABLE_+0x818>
    80000a88:	2f9040ef          	jal	x1,80005580 <sbi_printf>
    80000a8c:	00014517          	auipc	x10,0x14
    80000a90:	6c450513          	addi	x10,x10,1732 # 80015150 <_PROCEDURE_LINKAGE_TABLE_+0x560>
    80000a94:	2ed040ef          	jal	x1,80005580 <sbi_printf>
    80000a98:	68bc                	c.ld	x15,80(x9)
    80000a9a:	8b85                	c.andi	x15,1
    80000a9c:	e799                	c.bnez	x15,80000aaa <sbi_init+0x4ee>
    80000a9e:	00015517          	auipc	x10,0x15
    80000aa2:	99250513          	addi	x10,x10,-1646 # 80015430 <_PROCEDURE_LINKAGE_TABLE_+0x840>
    80000aa6:	480050ef          	jal	x1,80005f26 <sbi_domain_dump_all>
    80000aaa:	f14027f3          	csrrs	x15,mhartid,x0
    80000aae:	68b8                	c.ld	x14,80(x9)
    80000ab0:	8b05                	c.andi	x14,1
    80000ab2:	0e071e63          	bne	x14,x0,80000bae <sbi_init+0x5f2>
    80000ab6:	1782                	c.slli	x15,0x20
    80000ab8:	00019717          	auipc	x14,0x19
    80000abc:	85873703          	ld	x14,-1960(x14) # 80019310 <_GLOBAL_OFFSET_TABLE_+0x80>
    80000ac0:	83f5                	c.srli	x15,0x1d
    80000ac2:	97ba                	c.add	x15,x14
    80000ac4:	0007b983          	ld	x19,0(x15) # 1000 <_fw_start-0x7ffff000>
    80000ac8:	2ca030ef          	jal	x1,80003d92 <misa_xlen>
    80000acc:	8b2a                	c.mv	x22,x10
    80000ace:	12a05b63          	bge	x0,x10,80000c04 <sbi_init+0x648>
    80000ad2:	85ca                	c.mv	x11,x18
    80000ad4:	00015517          	auipc	x10,0x15
    80000ad8:	98450513          	addi	x10,x10,-1660 # 80015458 <_PROCEDURE_LINKAGE_TABLE_+0x868>
    80000adc:	2a5040ef          	jal	x1,80005580 <sbi_printf>
    80000ae0:	01898593          	addi	x11,x19,24
    80000ae4:	00015517          	auipc	x10,0x15
    80000ae8:	99450513          	addi	x10,x10,-1644 # 80015478 <_PROCEDURE_LINKAGE_TABLE_+0x888>
    80000aec:	f3040993          	addi	x19,x8,-208
    80000af0:	291040ef          	jal	x1,80005580 <sbi_printf>
    80000af4:	08000613          	addi	x12,x0,128
    80000af8:	8526                	c.mv	x10,x9
    80000afa:	85ce                	c.mv	x11,x19
    80000afc:	049060ef          	jal	x1,80007344 <sbi_hart_get_priv_version_str>
    80000b00:	85ce                	c.mv	x11,x19
    80000b02:	00015517          	auipc	x10,0x15
    80000b06:	99650513          	addi	x10,x10,-1642 # 80015498 <_PROCEDURE_LINKAGE_TABLE_+0x8a8>
    80000b0a:	277040ef          	jal	x1,80005580 <sbi_printf>
    80000b0e:	08000613          	addi	x12,x0,128
    80000b12:	855a                	c.mv	x10,x22
    80000b14:	85ce                	c.mv	x11,x19
    80000b16:	2c0030ef          	jal	x1,80003dd6 <misa_string>
    80000b1a:	85ce                	c.mv	x11,x19
    80000b1c:	00015517          	auipc	x10,0x15
    80000b20:	99c50513          	addi	x10,x10,-1636 # 800154b8 <_PROCEDURE_LINKAGE_TABLE_+0x8c8>
    80000b24:	25d040ef          	jal	x1,80005580 <sbi_printf>
    80000b28:	08000613          	addi	x12,x0,128
    80000b2c:	8526                	c.mv	x10,x9
    80000b2e:	85ce                	c.mv	x11,x19
    80000b30:	0c3060ef          	jal	x1,800073f2 <sbi_hart_get_extensions_str>
    80000b34:	85ce                	c.mv	x11,x19
    80000b36:	00015517          	auipc	x10,0x15
    80000b3a:	9a250513          	addi	x10,x10,-1630 # 800154d8 <_PROCEDURE_LINKAGE_TABLE_+0x8e8>
    80000b3e:	243040ef          	jal	x1,80005580 <sbi_printf>
    80000b42:	8526                	c.mv	x10,x9
    80000b44:	686060ef          	jal	x1,800071ca <sbi_hart_pmp_count>
    80000b48:	0005059b          	addiw	x11,x10,0
    80000b4c:	00015517          	auipc	x10,0x15
    80000b50:	9ac50513          	addi	x10,x10,-1620 # 800154f8 <_PROCEDURE_LINKAGE_TABLE_+0x908>
    80000b54:	22d040ef          	jal	x1,80005580 <sbi_printf>
    80000b58:	8526                	c.mv	x10,x9
    80000b5a:	688060ef          	jal	x1,800071e2 <sbi_hart_pmp_granularity>
    80000b5e:	85aa                	c.mv	x11,x10
    80000b60:	00015517          	auipc	x10,0x15
    80000b64:	9b850513          	addi	x10,x10,-1608 # 80015518 <_PROCEDURE_LINKAGE_TABLE_+0x928>
    80000b68:	219040ef          	jal	x1,80005580 <sbi_printf>
    80000b6c:	8526                	c.mv	x10,x9
    80000b6e:	68c060ef          	jal	x1,800071fa <sbi_hart_pmp_addrbits>
    80000b72:	0005059b          	addiw	x11,x10,0
    80000b76:	00015517          	auipc	x10,0x15
    80000b7a:	9ca50513          	addi	x10,x10,-1590 # 80015540 <_PROCEDURE_LINKAGE_TABLE_+0x950>
    80000b7e:	203040ef          	jal	x1,80005580 <sbi_printf>
    80000b82:	8526                	c.mv	x10,x9
    80000b84:	62e060ef          	jal	x1,800071b2 <sbi_hart_mhpm_count>
    80000b88:	0005059b          	addiw	x11,x10,0
    80000b8c:	00015517          	auipc	x10,0x15
    80000b90:	9d450513          	addi	x10,x10,-1580 # 80015560 <_PROCEDURE_LINKAGE_TABLE_+0x970>
    80000b94:	1ed040ef          	jal	x1,80005580 <sbi_printf>
    80000b98:	00015617          	auipc	x12,0x15
    80000b9c:	9e860613          	addi	x12,x12,-1560 # 80015580 <_PROCEDURE_LINKAGE_TABLE_+0x990>
    80000ba0:	00015597          	auipc	x11,0x15
    80000ba4:	9f058593          	addi	x11,x11,-1552 # 80015590 <_PROCEDURE_LINKAGE_TABLE_+0x9a0>
    80000ba8:	8526                	c.mv	x10,x9
    80000baa:	5ba060ef          	jal	x1,80007164 <sbi_hart_delegation_dump>
    80000bae:	0310000f          	fence	rw,w
    80000bb2:	4785                	c.li	x15,1
    80000bb4:	0001b517          	auipc	x10,0x1b
    80000bb8:	46450513          	addi	x10,x10,1124 # 8001c018 <coldboot_lock>
    80000bbc:	00fab823          	sd	x15,16(x21)
    80000bc0:	4981                	c.li	x19,0
    80000bc2:	695030ef          	jal	x1,80004a56 <spin_lock>
    80000bc6:	00018c17          	auipc	x24,0x18
    80000bca:	7e2c3c03          	ld	x24,2018(x24) # 800193a8 <_GLOBAL_OFFSET_TABLE_+0x118>
    80000bce:	07f00b93          	addi	x23,x0,127
    80000bd2:	0001bb17          	auipc	x22,0x1b
    80000bd6:	44eb0b13          	addi	x22,x22,1102 # 8001c020 <coldboot_wait_hmask>
    80000bda:	01390463          	beq	x18,x19,80000be2 <sbi_init+0x626>
    80000bde:	033bfc63          	bgeu	x23,x19,80000c16 <sbi_init+0x65a>
    80000be2:	000c2783          	lw	x15,0(x24)
    80000be6:	2985                	c.addiw	x19,1
    80000be8:	ff37f9e3          	bgeu	x15,x19,80000bda <sbi_init+0x61e>
    80000bec:	0001b517          	auipc	x10,0x1b
    80000bf0:	42c50513          	addi	x10,x10,1068 # 8001c018 <coldboot_lock>
    80000bf4:	68f030ef          	jal	x1,80004a82 <spin_unlock>
    80000bf8:	b9a1                	c.j	80000850 <sbi_init+0x294>
    80000bfa:	00014597          	auipc	x11,0x14
    80000bfe:	40658593          	addi	x11,x11,1030 # 80015000 <_PROCEDURE_LINKAGE_TABLE_+0x410>
    80000c02:	b581                	c.j	80000a42 <sbi_init+0x486>
    80000c04:	85aa                	c.mv	x11,x10
    80000c06:	00015517          	auipc	x10,0x15
    80000c0a:	83250513          	addi	x10,x10,-1998 # 80015438 <_PROCEDURE_LINKAGE_TABLE_+0x848>
    80000c0e:	173040ef          	jal	x1,80005580 <sbi_printf>
    80000c12:	249080ef          	jal	x1,8000965a <sbi_hart_hang>
    80000c16:	4069d793          	srai	x15,x19,0x6
    80000c1a:	078e                	c.slli	x15,0x3
    80000c1c:	97da                	c.add	x15,x22
    80000c1e:	639c                	c.ld	x15,0(x15)
    80000c20:	0137d7b3          	srl	x15,x15,x19
    80000c24:	8b85                	c.andi	x15,1
    80000c26:	dfd5                	c.beqz	x15,80000be2 <sbi_init+0x626>
    80000c28:	854e                	c.mv	x10,x19
    80000c2a:	44e000ef          	jal	x1,80001078 <sbi_ipi_raw_send>
    80000c2e:	bf55                	c.j	80000be2 <sbi_init+0x626>
    80000c30:	00015597          	auipc	x11,0x15
    80000c34:	97858593          	addi	x11,x11,-1672 # 800155a8 <__func__.2095>
    80000c38:	00014517          	auipc	x10,0x14
    80000c3c:	60050513          	addi	x10,x10,1536 # 80015238 <_PROCEDURE_LINKAGE_TABLE_+0x648>
    80000c40:	141040ef          	jal	x1,80005580 <sbi_printf>
    80000c44:	217080ef          	jal	x1,8000965a <sbi_hart_hang>
    80000c48:	00015597          	auipc	x11,0x15
    80000c4c:	96058593          	addi	x11,x11,-1696 # 800155a8 <__func__.2095>
    80000c50:	00014517          	auipc	x10,0x14
    80000c54:	61050513          	addi	x10,x10,1552 # 80015260 <_PROCEDURE_LINKAGE_TABLE_+0x670>
    80000c58:	129040ef          	jal	x1,80005580 <sbi_printf>
    80000c5c:	1ff080ef          	jal	x1,8000965a <sbi_hart_hang>
    80000c60:	00014597          	auipc	x11,0x14
    80000c64:	3a058593          	addi	x11,x11,928 # 80015000 <_PROCEDURE_LINKAGE_TABLE_+0x410>
    80000c68:	b3c1                	c.j	80000a28 <sbi_init+0x46c>
    80000c6a:	00014597          	auipc	x11,0x14
    80000c6e:	39658593          	addi	x11,x11,918 # 80015000 <_PROCEDURE_LINKAGE_TABLE_+0x410>
    80000c72:	bb71                	c.j	80000a0e <sbi_init+0x452>
    80000c74:	00014597          	auipc	x11,0x14
    80000c78:	38c58593          	addi	x11,x11,908 # 80015000 <_PROCEDURE_LINKAGE_TABLE_+0x410>
    80000c7c:	bbb5                	c.j	800009f8 <sbi_init+0x43c>
    80000c7e:	00014597          	auipc	x11,0x14
    80000c82:	38258593          	addi	x11,x11,898 # 80015000 <_PROCEDURE_LINKAGE_TABLE_+0x410>
    80000c86:	bba9                	c.j	800009e0 <sbi_init+0x424>
    80000c88:	00014597          	auipc	x11,0x14
    80000c8c:	37858593          	addi	x11,x11,888 # 80015000 <_PROCEDURE_LINKAGE_TABLE_+0x410>
    80000c90:	bb1d                	c.j	800009c6 <sbi_init+0x40a>
    80000c92:	00015597          	auipc	x11,0x15
    80000c96:	90e58593          	addi	x11,x11,-1778 # 800155a0 <_PROCEDURE_LINKAGE_TABLE_+0x9b0>
    80000c9a:	00014517          	auipc	x10,0x14
    80000c9e:	5f650513          	addi	x10,x10,1526 # 80015290 <_PROCEDURE_LINKAGE_TABLE_+0x6a0>
    80000ca2:	0df040ef          	jal	x1,80005580 <sbi_printf>
    80000ca6:	f3040b13          	addi	x22,x8,-208
    80000caa:	08000613          	addi	x12,x0,128
    80000cae:	4501                	c.li	x10,0
    80000cb0:	85da                	c.mv	x11,x22
    80000cb2:	5f6000ef          	jal	x1,800012a8 <sbi_platform_get_features_str>
    80000cb6:	85da                	c.mv	x11,x22
    80000cb8:	00014517          	auipc	x10,0x14
    80000cbc:	5f850513          	addi	x10,x10,1528 # 800152b0 <_PROCEDURE_LINKAGE_TABLE_+0x6c0>
    80000cc0:	0c1040ef          	jal	x1,80005580 <sbi_printf>
    80000cc4:	4581                	c.li	x11,0
    80000cc6:	b1ed                	c.j	800009b0 <sbi_init+0x3f4>

0000000080000cc8 <sbi_init_count>:
    80000cc8:	1141                	c.addi	x2,-16
    80000cca:	e422                	c.sdsp	x8,8(x2)
    80000ccc:	0800                	c.addi4spn	x8,x2,16
    80000cce:	0001b717          	auipc	x14,0x1b
    80000cd2:	33a73703          	ld	x14,826(x14) # 8001c008 <init_count_offset>
    80000cd6:	cf09                	c.beqz	x14,80000cf0 <sbi_init_count+0x28>
    80000cd8:	02051793          	slli	x15,x10,0x20
    80000cdc:	83f5                	c.srli	x15,0x1d
    80000cde:	00018517          	auipc	x10,0x18
    80000ce2:	63a53503          	ld	x10,1594(x10) # 80019318 <_GLOBAL_OFFSET_TABLE_+0x88>
    80000ce6:	97aa                	c.add	x15,x10
    80000ce8:	6388                	c.ld	x10,0(x15)
    80000cea:	c519                	c.beqz	x10,80000cf8 <sbi_init_count+0x30>
    80000cec:	953a                	c.add	x10,x14
    80000cee:	6118                	c.ld	x14,0(x10)
    80000cf0:	6422                	c.ldsp	x8,8(x2)
    80000cf2:	853a                	c.mv	x10,x14
    80000cf4:	0141                	c.addi	x2,16
    80000cf6:	8082                	c.jr	x1
    80000cf8:	6422                	c.ldsp	x8,8(x2)
    80000cfa:	4701                	c.li	x14,0
    80000cfc:	853a                	c.mv	x10,x14
    80000cfe:	0141                	c.addi	x2,16
    80000d00:	8082                	c.jr	x1

0000000080000d02 <sbi_exit>:
    80000d02:	7179                	c.addi16sp	x2,-48
    80000d04:	f022                	c.sdsp	x8,32(x2)
    80000d06:	f406                	c.sdsp	x1,40(x2)
    80000d08:	ec26                	c.sdsp	x9,24(x2)
    80000d0a:	e84a                	c.sdsp	x18,16(x2)
    80000d0c:	e44e                	c.sdsp	x19,8(x2)
    80000d0e:	1800                	c.addi4spn	x8,x2,48
    80000d10:	f14025f3          	csrrs	x11,mhartid,x0
    80000d14:	03053903          	ld	x18,48(x10)
    80000d18:	04090563          	beq	x18,x0,80000d62 <sbi_exit+0x60>
    80000d1c:	05092983          	lw	x19,80(x18)
    80000d20:	84aa                	c.mv	x9,x10
    80000d22:	2581                	c.addiw	x11,0
    80000d24:	854a                	c.mv	x10,x18
    80000d26:	638000ef          	jal	x1,8000135e <sbi_platform_hart_index>
    80000d2a:	2501                	c.addiw	x10,0
    80000d2c:	03357b63          	bgeu	x10,x19,80000d62 <sbi_exit+0x60>
    80000d30:	05893783          	ld	x15,88(x18)
    80000d34:	6f9c                	c.ld	x15,24(x15)
    80000d36:	c391                	c.beqz	x15,80000d3a <sbi_exit+0x38>
    80000d38:	9782                	c.jalr	x15
    80000d3a:	8526                	c.mv	x10,x9
    80000d3c:	388010ef          	jal	x1,800020c4 <sbi_pmu_exit>
    80000d40:	8526                	c.mv	x10,x9
    80000d42:	4dd010ef          	jal	x1,80002a1e <sbi_timer_exit>
    80000d46:	8526                	c.mv	x10,x9
    80000d48:	458000ef          	jal	x1,800011a0 <sbi_ipi_exit>
    80000d4c:	8526                	c.mv	x10,x9
    80000d4e:	51e000ef          	jal	x1,8000126c <sbi_irqchip_exit>
    80000d52:	05893783          	ld	x15,88(x18)
    80000d56:	739c                	c.ld	x15,32(x15)
    80000d58:	c391                	c.beqz	x15,80000d5c <sbi_exit+0x5a>
    80000d5a:	9782                	c.jalr	x15
    80000d5c:	8526                	c.mv	x10,x9
    80000d5e:	457080ef          	jal	x1,800099b4 <sbi_hsm_exit>
    80000d62:	0f9080ef          	jal	x1,8000965a <sbi_hart_hang>

0000000080000d66 <sbi_ipi_process_smode>:
    80000d66:	1141                	c.addi	x2,-16
    80000d68:	e422                	c.sdsp	x8,8(x2)
    80000d6a:	0800                	c.addi4spn	x8,x2,16
    80000d6c:	34416073          	csrrsi	x0,mip,2
    80000d70:	6422                	c.ldsp	x8,8(x2)
    80000d72:	0141                	c.addi	x2,16
    80000d74:	8082                	c.jr	x1

0000000080000d76 <sbi_ipi_send>:
    80000d76:	715d                	c.addi16sp	x2,-80
    80000d78:	e0a2                	c.sdsp	x8,64(x2)
    80000d7a:	e486                	c.sdsp	x1,72(x2)
    80000d7c:	fc26                	c.sdsp	x9,56(x2)
    80000d7e:	f84a                	c.sdsp	x18,48(x2)
    80000d80:	f44e                	c.sdsp	x19,40(x2)
    80000d82:	f052                	c.sdsp	x20,32(x2)
    80000d84:	ec56                	c.sdsp	x21,24(x2)
    80000d86:	e85a                	c.sdsp	x22,16(x2)
    80000d88:	e45e                	c.sdsp	x23,8(x2)
    80000d8a:	0880                	c.addi4spn	x8,x2,80
    80000d8c:	03f00793          	addi	x15,x0,63
    80000d90:	08c7eb63          	bltu	x15,x12,80000e26 <sbi_ipi_send+0xb0>
    80000d94:	02061793          	slli	x15,x12,0x20
    80000d98:	9381                	c.srli	x15,0x20
    80000d9a:	0001bb17          	auipc	x22,0x1b
    80000d9e:	296b0b13          	addi	x22,x22,662 # 8001c030 <ipi_ops_array>
    80000da2:	078e                	c.slli	x15,0x3
    80000da4:	97da                	c.add	x15,x22
    80000da6:	0007ba83          	ld	x21,0(x15)
    80000daa:	84b2                	c.mv	x9,x12
    80000dac:	060a8d63          	beq	x21,x0,80000e26 <sbi_ipi_send+0xb0>
    80000db0:	02059793          	slli	x15,x11,0x20
    80000db4:	01d7d713          	srli	x14,x15,0x1d
    80000db8:	00018797          	auipc	x15,0x18
    80000dbc:	5607b783          	ld	x15,1376(x15) # 80019318 <_GLOBAL_OFFSET_TABLE_+0x88>
    80000dc0:	97ba                	c.add	x15,x14
    80000dc2:	892e                	c.mv	x18,x11
    80000dc4:	638c                	c.ld	x11,0(x15)
    80000dc6:	c1a5                	c.beqz	x11,80000e26 <sbi_ipi_send+0xb0>
    80000dc8:	200b3783          	ld	x15,512(x22)
    80000dcc:	020ab703          	ld	x14,32(x21)
    80000dd0:	8a2a                	c.mv	x20,x10
    80000dd2:	00f58bb3          	add	x23,x11,x15
    80000dd6:	c711                	c.beqz	x14,80000de2 <sbi_ipi_send+0x6c>
    80000dd8:	864a                	c.mv	x12,x18
    80000dda:	9702                	c.jalr	x14
    80000ddc:	89aa                	c.mv	x19,x10
    80000dde:	02054863          	blt	x10,x0,80000e0e <sbi_ipi_send+0x98>
    80000de2:	85de                	c.mv	x11,x23
    80000de4:	8526                	c.mv	x10,x9
    80000de6:	34b030ef          	jal	x1,80004930 <atomic_raw_set_bit>
    80000dea:	0110000f          	fence	w,w
    80000dee:	208b3783          	ld	x15,520(x22)
    80000df2:	c789                	c.beqz	x15,80000dfc <sbi_ipi_send+0x86>
    80000df4:	739c                	c.ld	x15,32(x15)
    80000df6:	c399                	c.beqz	x15,80000dfc <sbi_ipi_send+0x86>
    80000df8:	854a                	c.mv	x10,x18
    80000dfa:	9782                	c.jalr	x15
    80000dfc:	4519                	c.li	x10,6
    80000dfe:	1d0010ef          	jal	x1,80001fce <sbi_pmu_ctr_incr_fw>
    80000e02:	028ab783          	ld	x15,40(x21)
    80000e06:	4981                	c.li	x19,0
    80000e08:	c399                	c.beqz	x15,80000e0e <sbi_ipi_send+0x98>
    80000e0a:	8552                	c.mv	x10,x20
    80000e0c:	9782                	c.jalr	x15
    80000e0e:	60a6                	c.ldsp	x1,72(x2)
    80000e10:	6406                	c.ldsp	x8,64(x2)
    80000e12:	74e2                	c.ldsp	x9,56(x2)
    80000e14:	7942                	c.ldsp	x18,48(x2)
    80000e16:	7a02                	c.ldsp	x20,32(x2)
    80000e18:	6ae2                	c.ldsp	x21,24(x2)
    80000e1a:	6b42                	c.ldsp	x22,16(x2)
    80000e1c:	6ba2                	c.ldsp	x23,8(x2)
    80000e1e:	854e                	c.mv	x10,x19
    80000e20:	79a2                	c.ldsp	x19,40(x2)
    80000e22:	6161                	c.addi16sp	x2,80
    80000e24:	8082                	c.jr	x1
    80000e26:	59f5                	c.li	x19,-3
    80000e28:	b7dd                	c.j	80000e0e <sbi_ipi_send+0x98>

0000000080000e2a <sbi_ipi_process_halt>:
    80000e2a:	1141                	c.addi	x2,-16
    80000e2c:	e022                	c.sdsp	x8,0(x2)
    80000e2e:	e406                	c.sdsp	x1,8(x2)
    80000e30:	0800                	c.addi4spn	x8,x2,16
    80000e32:	4585                	c.li	x11,1
    80000e34:	4a9080ef          	jal	x1,80009adc <sbi_hsm_hart_stop>
    80000e38:	60a2                	c.ldsp	x1,8(x2)
    80000e3a:	6402                	c.ldsp	x8,0(x2)
    80000e3c:	0141                	c.addi	x2,16
    80000e3e:	8082                	c.jr	x1

0000000080000e40 <sbi_ipi_event_create.part.0>:
    80000e40:	1141                	c.addi	x2,-16
    80000e42:	e422                	c.sdsp	x8,8(x2)
    80000e44:	0001b617          	auipc	x12,0x1b
    80000e48:	1ec60613          	addi	x12,x12,492 # 8001c030 <ipi_ops_array>
    80000e4c:	0800                	c.addi4spn	x8,x2,16
    80000e4e:	85aa                	c.mv	x11,x10
    80000e50:	87b2                	c.mv	x15,x12
    80000e52:	4501                	c.li	x10,0
    80000e54:	04000693          	addi	x13,x0,64
    80000e58:	a021                	c.j	80000e60 <sbi_ipi_event_create.part.0+0x20>
    80000e5a:	2505                	c.addiw	x10,1
    80000e5c:	00d50c63          	beq	x10,x13,80000e74 <sbi_ipi_event_create.part.0+0x34>
    80000e60:	6398                	c.ld	x14,0(x15)
    80000e62:	07a1                	c.addi	x15,8
    80000e64:	fb7d                	c.bnez	x14,80000e5a <sbi_ipi_event_create.part.0+0x1a>
    80000e66:	00351793          	slli	x15,x10,0x3
    80000e6a:	963e                	c.add	x12,x15
    80000e6c:	e20c                	c.sd	x11,0(x12)
    80000e6e:	6422                	c.ldsp	x8,8(x2)
    80000e70:	0141                	c.addi	x2,16
    80000e72:	8082                	c.jr	x1
    80000e74:	6422                	c.ldsp	x8,8(x2)
    80000e76:	c1300513          	addi	x10,x0,-1005
    80000e7a:	0141                	c.addi	x2,16
    80000e7c:	8082                	c.jr	x1

0000000080000e7e <sbi_ipi_send_many>:
    80000e7e:	711d                	c.addi16sp	x2,-96
    80000e80:	e8a2                	c.sdsp	x8,80(x2)
    80000e82:	fc4e                	c.sdsp	x19,56(x2)
    80000e84:	f852                	c.sdsp	x20,48(x2)
    80000e86:	ec86                	c.sdsp	x1,88(x2)
    80000e88:	e4a6                	c.sdsp	x9,72(x2)
    80000e8a:	e0ca                	c.sdsp	x18,64(x2)
    80000e8c:	f456                	c.sdsp	x21,40(x2)
    80000e8e:	f05a                	c.sdsp	x22,32(x2)
    80000e90:	ec5e                	c.sdsp	x23,24(x2)
    80000e92:	1080                	c.addi4spn	x8,x2,96
    80000e94:	89b2                	c.mv	x19,x12
    80000e96:	8a36                	c.mv	x20,x13
    80000e98:	f14027f3          	csrrs	x15,mhartid,x0
    80000e9c:	1782                	c.slli	x15,0x20
    80000e9e:	00018717          	auipc	x14,0x18
    80000ea2:	47273703          	ld	x14,1138(x14) # 80019310 <_GLOBAL_OFFSET_TABLE_+0x80>
    80000ea6:	83f5                	c.srli	x15,0x1d
    80000ea8:	97ba                	c.add	x15,x14
    80000eaa:	0007bb03          	ld	x22,0(x15)
    80000eae:	34002af3          	csrrs	x21,mscratch,x0
    80000eb2:	57fd                	c.li	x15,-1
    80000eb4:	06f59a63          	bne	x11,x15,80000f28 <sbi_ipi_send_many+0xaa>
    80000eb8:	4901                	c.li	x18,0
    80000eba:	fa840b93          	addi	x23,x8,-88
    80000ebe:	865e                	c.mv	x12,x23
    80000ec0:	85ca                	c.mv	x11,x18
    80000ec2:	855a                	c.mv	x10,x22
    80000ec4:	127080ef          	jal	x1,800097ea <sbi_hsm_hart_interruptible_mask>
    80000ec8:	e521                	c.bnez	x10,80000f10 <sbi_ipi_send_many+0x92>
    80000eca:	fa843783          	ld	x15,-88(x8)
    80000ece:	84ca                	c.mv	x9,x18
    80000ed0:	e799                	c.bnez	x15,80000ede <sbi_ipi_send_many+0x60>
    80000ed2:	a03d                	c.j	80000f00 <sbi_ipi_send_many+0x82>
    80000ed4:	8385                	c.srli	x15,0x1
    80000ed6:	faf43423          	sd	x15,-88(x8)
    80000eda:	0485                	c.addi	x9,1
    80000edc:	c395                	c.beqz	x15,80000f00 <sbi_ipi_send_many+0x82>
    80000ede:	0017f713          	andi	x14,x15,1
    80000ee2:	db6d                	c.beqz	x14,80000ed4 <sbi_ipi_send_many+0x56>
    80000ee4:	0004859b          	addiw	x11,x9,0
    80000ee8:	86d2                	c.mv	x13,x20
    80000eea:	864e                	c.mv	x12,x19
    80000eec:	8556                	c.mv	x10,x21
    80000eee:	e89ff0ef          	jal	x1,80000d76 <sbi_ipi_send>
    80000ef2:	fa843783          	ld	x15,-88(x8)
    80000ef6:	0485                	c.addi	x9,1
    80000ef8:	8385                	c.srli	x15,0x1
    80000efa:	faf43423          	sd	x15,-88(x8)
    80000efe:	f3e5                	c.bnez	x15,80000ede <sbi_ipi_send_many+0x60>
    80000f00:	04090913          	addi	x18,x18,64
    80000f04:	865e                	c.mv	x12,x23
    80000f06:	85ca                	c.mv	x11,x18
    80000f08:	855a                	c.mv	x10,x22
    80000f0a:	0e1080ef          	jal	x1,800097ea <sbi_hsm_hart_interruptible_mask>
    80000f0e:	dd55                	c.beqz	x10,80000eca <sbi_ipi_send_many+0x4c>
    80000f10:	4501                	c.li	x10,0
    80000f12:	60e6                	c.ldsp	x1,88(x2)
    80000f14:	6446                	c.ldsp	x8,80(x2)
    80000f16:	64a6                	c.ldsp	x9,72(x2)
    80000f18:	6906                	c.ldsp	x18,64(x2)
    80000f1a:	79e2                	c.ldsp	x19,56(x2)
    80000f1c:	7a42                	c.ldsp	x20,48(x2)
    80000f1e:	7aa2                	c.ldsp	x21,40(x2)
    80000f20:	7b02                	c.ldsp	x22,32(x2)
    80000f22:	6be2                	c.ldsp	x23,24(x2)
    80000f24:	6125                	c.addi16sp	x2,96
    80000f26:	8082                	c.jr	x1
    80000f28:	84aa                	c.mv	x9,x10
    80000f2a:	fa840613          	addi	x12,x8,-88
    80000f2e:	855a                	c.mv	x10,x22
    80000f30:	892e                	c.mv	x18,x11
    80000f32:	0b9080ef          	jal	x1,800097ea <sbi_hsm_hart_interruptible_mask>
    80000f36:	fd71                	c.bnez	x10,80000f12 <sbi_ipi_send_many+0x94>
    80000f38:	fa843783          	ld	x15,-88(x8)
    80000f3c:	00f4f733          	and	x14,x9,x15
    80000f40:	fae43423          	sd	x14,-88(x8)
    80000f44:	87ba                	c.mv	x15,x14
    80000f46:	eb01                	c.bnez	x14,80000f56 <sbi_ipi_send_many+0xd8>
    80000f48:	b7e1                	c.j	80000f10 <sbi_ipi_send_many+0x92>
    80000f4a:	8385                	c.srli	x15,0x1
    80000f4c:	faf43423          	sd	x15,-88(x8)
    80000f50:	0905                	c.addi	x18,1
    80000f52:	873e                	c.mv	x14,x15
    80000f54:	dfd5                	c.beqz	x15,80000f10 <sbi_ipi_send_many+0x92>
    80000f56:	8b05                	c.andi	x14,1
    80000f58:	db6d                	c.beqz	x14,80000f4a <sbi_ipi_send_many+0xcc>
    80000f5a:	0009059b          	addiw	x11,x18,0
    80000f5e:	86d2                	c.mv	x13,x20
    80000f60:	864e                	c.mv	x12,x19
    80000f62:	8556                	c.mv	x10,x21
    80000f64:	e13ff0ef          	jal	x1,80000d76 <sbi_ipi_send>
    80000f68:	fa843783          	ld	x15,-88(x8)
    80000f6c:	bff9                	c.j	80000f4a <sbi_ipi_send_many+0xcc>

0000000080000f6e <sbi_ipi_event_create>:
    80000f6e:	cd09                	c.beqz	x10,80000f88 <sbi_ipi_event_create+0x1a>
    80000f70:	791c                	c.ld	x15,48(x10)
    80000f72:	cb99                	c.beqz	x15,80000f88 <sbi_ipi_event_create+0x1a>
    80000f74:	1141                	c.addi	x2,-16
    80000f76:	e022                	c.sdsp	x8,0(x2)
    80000f78:	e406                	c.sdsp	x1,8(x2)
    80000f7a:	0800                	c.addi4spn	x8,x2,16
    80000f7c:	ec5ff0ef          	jal	x1,80000e40 <sbi_ipi_event_create.part.0>
    80000f80:	60a2                	c.ldsp	x1,8(x2)
    80000f82:	6402                	c.ldsp	x8,0(x2)
    80000f84:	0141                	c.addi	x2,16
    80000f86:	8082                	c.jr	x1
    80000f88:	5575                	c.li	x10,-3
    80000f8a:	8082                	c.jr	x1

0000000080000f8c <sbi_ipi_event_destroy>:
    80000f8c:	1141                	c.addi	x2,-16
    80000f8e:	e422                	c.sdsp	x8,8(x2)
    80000f90:	0800                	c.addi4spn	x8,x2,16
    80000f92:	03f00793          	addi	x15,x0,63
    80000f96:	00a7eb63          	bltu	x15,x10,80000fac <sbi_ipi_event_destroy+0x20>
    80000f9a:	1502                	c.slli	x10,0x20
    80000f9c:	8175                	c.srli	x10,0x1d
    80000f9e:	0001b797          	auipc	x15,0x1b
    80000fa2:	09278793          	addi	x15,x15,146 # 8001c030 <ipi_ops_array>
    80000fa6:	953e                	c.add	x10,x15
    80000fa8:	00053023          	sd	x0,0(x10)
    80000fac:	6422                	c.ldsp	x8,8(x2)
    80000fae:	0141                	c.addi	x2,16
    80000fb0:	8082                	c.jr	x1

0000000080000fb2 <sbi_ipi_send_smode>:
    80000fb2:	1141                	c.addi	x2,-16
    80000fb4:	e022                	c.sdsp	x8,0(x2)
    80000fb6:	e406                	c.sdsp	x1,8(x2)
    80000fb8:	0800                	c.addi4spn	x8,x2,16
    80000fba:	4681                	c.li	x13,0
    80000fbc:	00017617          	auipc	x12,0x17
    80000fc0:	07462603          	lw	x12,116(x12) # 80018030 <ipi_smode_event>
    80000fc4:	ebbff0ef          	jal	x1,80000e7e <sbi_ipi_send_many>
    80000fc8:	60a2                	c.ldsp	x1,8(x2)
    80000fca:	6402                	c.ldsp	x8,0(x2)
    80000fcc:	0141                	c.addi	x2,16
    80000fce:	8082                	c.jr	x1

0000000080000fd0 <sbi_ipi_clear_smode>:
    80000fd0:	1141                	c.addi	x2,-16
    80000fd2:	e422                	c.sdsp	x8,8(x2)
    80000fd4:	0800                	c.addi4spn	x8,x2,16
    80000fd6:	34417073          	csrrci	x0,mip,2
    80000fda:	6422                	c.ldsp	x8,8(x2)
    80000fdc:	0141                	c.addi	x2,16
    80000fde:	8082                	c.jr	x1

0000000080000fe0 <sbi_ipi_send_halt>:
    80000fe0:	1141                	c.addi	x2,-16
    80000fe2:	e022                	c.sdsp	x8,0(x2)
    80000fe4:	e406                	c.sdsp	x1,8(x2)
    80000fe6:	0800                	c.addi4spn	x8,x2,16
    80000fe8:	4681                	c.li	x13,0
    80000fea:	00017617          	auipc	x12,0x17
    80000fee:	04a62603          	lw	x12,74(x12) # 80018034 <ipi_halt_event>
    80000ff2:	e8dff0ef          	jal	x1,80000e7e <sbi_ipi_send_many>
    80000ff6:	60a2                	c.ldsp	x1,8(x2)
    80000ff8:	6402                	c.ldsp	x8,0(x2)
    80000ffa:	0141                	c.addi	x2,16
    80000ffc:	8082                	c.jr	x1

0000000080000ffe <sbi_ipi_process>:
    80000ffe:	7179                	c.addi16sp	x2,-48
    80001000:	f022                	c.sdsp	x8,32(x2)
    80001002:	f406                	c.sdsp	x1,40(x2)
    80001004:	ec26                	c.sdsp	x9,24(x2)
    80001006:	e84a                	c.sdsp	x18,16(x2)
    80001008:	e44e                	c.sdsp	x19,8(x2)
    8000100a:	e052                	c.sdsp	x20,0(x2)
    8000100c:	1800                	c.addi4spn	x8,x2,48
    8000100e:	34002a73          	csrrs	x20,mscratch,x0
    80001012:	0001b997          	auipc	x19,0x1b
    80001016:	01e98993          	addi	x19,x19,30 # 8001c030 <ipi_ops_array>
    8000101a:	2009b483          	ld	x9,512(x19)
    8000101e:	94d2                	c.add	x9,x20
    80001020:	f1402973          	csrrs	x18,mhartid,x0
    80001024:	451d                	c.li	x10,7
    80001026:	7a9000ef          	jal	x1,80001fce <sbi_pmu_ctr_incr_fw>
    8000102a:	2089b783          	ld	x15,520(x19)
    8000102e:	c791                	c.beqz	x15,8000103a <sbi_ipi_process+0x3c>
    80001030:	779c                	c.ld	x15,40(x15)
    80001032:	c781                	c.beqz	x15,8000103a <sbi_ipi_process+0x3c>
    80001034:	0009051b          	addiw	x10,x18,0
    80001038:	9782                	c.jalr	x15
    8000103a:	8526                	c.mv	x10,x9
    8000103c:	4581                	c.li	x11,0
    8000103e:	0cb030ef          	jal	x1,80004908 <atomic_raw_xchg_ulong>
    80001042:	84aa                	c.mv	x9,x10
    80001044:	c115                	c.beqz	x10,80001068 <sbi_ipi_process+0x6a>
    80001046:	4901                	c.li	x18,0
    80001048:	02091793          	slli	x15,x18,0x20
    8000104c:	83f5                	c.srli	x15,0x1d
    8000104e:	0014f713          	andi	x14,x9,1
    80001052:	97ce                	c.add	x15,x19
    80001054:	8085                	c.srli	x9,0x1
    80001056:	c719                	c.beqz	x14,80001064 <sbi_ipi_process+0x66>
    80001058:	639c                	c.ld	x15,0(x15)
    8000105a:	8552                	c.mv	x10,x20
    8000105c:	c781                	c.beqz	x15,80001064 <sbi_ipi_process+0x66>
    8000105e:	7b9c                	c.ld	x15,48(x15)
    80001060:	c391                	c.beqz	x15,80001064 <sbi_ipi_process+0x66>
    80001062:	9782                	c.jalr	x15
    80001064:	2905                	c.addiw	x18,1
    80001066:	f0ed                	c.bnez	x9,80001048 <sbi_ipi_process+0x4a>
    80001068:	70a2                	c.ldsp	x1,40(x2)
    8000106a:	7402                	c.ldsp	x8,32(x2)
    8000106c:	64e2                	c.ldsp	x9,24(x2)
    8000106e:	6942                	c.ldsp	x18,16(x2)
    80001070:	69a2                	c.ldsp	x19,8(x2)
    80001072:	6a02                	c.ldsp	x20,0(x2)
    80001074:	6145                	c.addi16sp	x2,48
    80001076:	8082                	c.jr	x1

0000000080001078 <sbi_ipi_raw_send>:
    80001078:	0001b797          	auipc	x15,0x1b
    8000107c:	1c07b783          	ld	x15,448(x15) # 8001c238 <ipi_dev>
    80001080:	cf89                	c.beqz	x15,8000109a <sbi_ipi_raw_send+0x22>
    80001082:	739c                	c.ld	x15,32(x15)
    80001084:	cb99                	c.beqz	x15,8000109a <sbi_ipi_raw_send+0x22>
    80001086:	1141                	c.addi	x2,-16
    80001088:	e022                	c.sdsp	x8,0(x2)
    8000108a:	e406                	c.sdsp	x1,8(x2)
    8000108c:	0800                	c.addi4spn	x8,x2,16
    8000108e:	9782                	c.jalr	x15
    80001090:	60a2                	c.ldsp	x1,8(x2)
    80001092:	6402                	c.ldsp	x8,0(x2)
    80001094:	4501                	c.li	x10,0
    80001096:	0141                	c.addi	x2,16
    80001098:	8082                	c.jr	x1
    8000109a:	5575                	c.li	x10,-3
    8000109c:	8082                	c.jr	x1

000000008000109e <sbi_ipi_get_device>:
    8000109e:	1141                	c.addi	x2,-16
    800010a0:	e422                	c.sdsp	x8,8(x2)
    800010a2:	0800                	c.addi4spn	x8,x2,16
    800010a4:	6422                	c.ldsp	x8,8(x2)
    800010a6:	0001b517          	auipc	x10,0x1b
    800010aa:	19253503          	ld	x10,402(x10) # 8001c238 <ipi_dev>
    800010ae:	0141                	c.addi	x2,16
    800010b0:	8082                	c.jr	x1

00000000800010b2 <sbi_ipi_set_device>:
    800010b2:	1141                	c.addi	x2,-16
    800010b4:	e422                	c.sdsp	x8,8(x2)
    800010b6:	0800                	c.addi4spn	x8,x2,16
    800010b8:	c901                	c.beqz	x10,800010c8 <sbi_ipi_set_device+0x16>
    800010ba:	0001b797          	auipc	x15,0x1b
    800010be:	f7678793          	addi	x15,x15,-138 # 8001c030 <ipi_ops_array>
    800010c2:	2087b703          	ld	x14,520(x15)
    800010c6:	c701                	c.beqz	x14,800010ce <sbi_ipi_set_device+0x1c>
    800010c8:	6422                	c.ldsp	x8,8(x2)
    800010ca:	0141                	c.addi	x2,16
    800010cc:	8082                	c.jr	x1
    800010ce:	20a7b423          	sd	x10,520(x15)
    800010d2:	6422                	c.ldsp	x8,8(x2)
    800010d4:	0141                	c.addi	x2,16
    800010d6:	8082                	c.jr	x1

00000000800010d8 <sbi_ipi_init>:
    800010d8:	7179                	c.addi16sp	x2,-48
    800010da:	f022                	c.sdsp	x8,32(x2)
    800010dc:	e84a                	c.sdsp	x18,16(x2)
    800010de:	e44e                	c.sdsp	x19,8(x2)
    800010e0:	f406                	c.sdsp	x1,40(x2)
    800010e2:	ec26                	c.sdsp	x9,24(x2)
    800010e4:	e052                	c.sdsp	x20,0(x2)
    800010e6:	1800                	c.addi4spn	x8,x2,48
    800010e8:	89ae                	c.mv	x19,x11
    800010ea:	892a                	c.mv	x18,x10
    800010ec:	e9a9                	c.bnez	x11,8000113e <sbi_ipi_init+0x66>
    800010ee:	0001b497          	auipc	x9,0x1b
    800010f2:	1424b483          	ld	x9,322(x9) # 8001c230 <ipi_data_off>
    800010f6:	c0c5                	c.beqz	x9,80001196 <sbi_ipi_init+0xbe>
    800010f8:	00017717          	auipc	x14,0x17
    800010fc:	f3870713          	addi	x14,x14,-200 # 80018030 <ipi_smode_event>
    80001100:	4314                	c.lw	x13,0(x14)
    80001102:	03f00793          	addi	x15,x0,63
    80001106:	08d7e563          	bltu	x15,x13,80001190 <sbi_ipi_init+0xb8>
    8000110a:	4358                	c.lw	x14,4(x14)
    8000110c:	08e7e263          	bltu	x15,x14,80001190 <sbi_ipi_init+0xb8>
    80001110:	94ca                	c.add	x9,x18
    80001112:	0004b023          	sd	x0,0(x9)
    80001116:	03093783          	ld	x15,48(x18)
    8000111a:	c799                	c.beqz	x15,80001128 <sbi_ipi_init+0x50>
    8000111c:	6fbc                	c.ld	x15,88(x15)
    8000111e:	7bbc                	c.ld	x15,112(x15)
    80001120:	c781                	c.beqz	x15,80001128 <sbi_ipi_init+0x50>
    80001122:	854e                	c.mv	x10,x19
    80001124:	9782                	c.jalr	x15
    80001126:	e501                	c.bnez	x10,8000112e <sbi_ipi_init+0x56>
    80001128:	30446073          	csrrsi	x0,mie,8
    8000112c:	4501                	c.li	x10,0
    8000112e:	70a2                	c.ldsp	x1,40(x2)
    80001130:	7402                	c.ldsp	x8,32(x2)
    80001132:	64e2                	c.ldsp	x9,24(x2)
    80001134:	6942                	c.ldsp	x18,16(x2)
    80001136:	69a2                	c.ldsp	x19,8(x2)
    80001138:	6a02                	c.ldsp	x20,0(x2)
    8000113a:	6145                	c.addi16sp	x2,48
    8000113c:	8082                	c.jr	x1
    8000113e:	4521                	c.li	x10,8
    80001140:	0d2010ef          	jal	x1,80002212 <sbi_scratch_alloc_offset>
    80001144:	0001b797          	auipc	x15,0x1b
    80001148:	0ea7b623          	sd	x10,236(x15) # 8001c230 <ipi_data_off>
    8000114c:	84aa                	c.mv	x9,x10
    8000114e:	c521                	c.beqz	x10,80001196 <sbi_ipi_init+0xbe>
    80001150:	00017a17          	auipc	x20,0x17
    80001154:	f78a0a13          	addi	x20,x20,-136 # 800180c8 <ipi_smode_ops>
    80001158:	030a3783          	ld	x15,48(x20)
    8000115c:	c3a1                	c.beqz	x15,8000119c <sbi_ipi_init+0xc4>
    8000115e:	8552                	c.mv	x10,x20
    80001160:	ce1ff0ef          	jal	x1,80000e40 <sbi_ipi_event_create.part.0>
    80001164:	fc0545e3          	blt	x10,x0,8000112e <sbi_ipi_init+0x56>
    80001168:	068a3703          	ld	x14,104(x20)
    8000116c:	00017a17          	auipc	x20,0x17
    80001170:	ec4a0a13          	addi	x20,x20,-316 # 80018030 <ipi_smode_event>
    80001174:	00aa2023          	sw	x10,0(x20)
    80001178:	c315                	c.beqz	x14,8000119c <sbi_ipi_init+0xc4>
    8000117a:	00017517          	auipc	x10,0x17
    8000117e:	f8650513          	addi	x10,x10,-122 # 80018100 <ipi_halt_ops>
    80001182:	cbfff0ef          	jal	x1,80000e40 <sbi_ipi_event_create.part.0>
    80001186:	fa0544e3          	blt	x10,x0,8000112e <sbi_ipi_init+0x56>
    8000118a:	00aa2223          	sw	x10,4(x20)
    8000118e:	b749                	c.j	80001110 <sbi_ipi_init+0x38>
    80001190:	c1300513          	addi	x10,x0,-1005
    80001194:	bf69                	c.j	8000112e <sbi_ipi_init+0x56>
    80001196:	c1200513          	addi	x10,x0,-1006
    8000119a:	bf51                	c.j	8000112e <sbi_ipi_init+0x56>
    8000119c:	5575                	c.li	x10,-3
    8000119e:	bf41                	c.j	8000112e <sbi_ipi_init+0x56>

00000000800011a0 <sbi_ipi_exit>:
    800011a0:	1101                	c.addi	x2,-32
    800011a2:	e822                	c.sdsp	x8,16(x2)
    800011a4:	e426                	c.sdsp	x9,8(x2)
    800011a6:	ec06                	c.sdsp	x1,24(x2)
    800011a8:	1000                	c.addi4spn	x8,x2,32
    800011aa:	84aa                	c.mv	x9,x10
    800011ac:	30447073          	csrrci	x0,mie,8
    800011b0:	e4fff0ef          	jal	x1,80000ffe <sbi_ipi_process>
    800011b4:	789c                	c.ld	x15,48(x9)
    800011b6:	c789                	c.beqz	x15,800011c0 <sbi_ipi_exit+0x20>
    800011b8:	6fbc                	c.ld	x15,88(x15)
    800011ba:	7fbc                	c.ld	x15,120(x15)
    800011bc:	c391                	c.beqz	x15,800011c0 <sbi_ipi_exit+0x20>
    800011be:	9782                	c.jalr	x15
    800011c0:	60e2                	c.ldsp	x1,24(x2)
    800011c2:	6442                	c.ldsp	x8,16(x2)
    800011c4:	64a2                	c.ldsp	x9,8(x2)
    800011c6:	6105                	c.addi16sp	x2,32
    800011c8:	8082                	c.jr	x1

00000000800011ca <default_irqfn>:
    800011ca:	1141                	c.addi	x2,-16
    800011cc:	e422                	c.sdsp	x8,8(x2)
    800011ce:	0800                	c.addi4spn	x8,x2,16
    800011d0:	6422                	c.ldsp	x8,8(x2)
    800011d2:	c1800513          	addi	x10,x0,-1000
    800011d6:	0141                	c.addi	x2,16
    800011d8:	8082                	c.jr	x1

00000000800011da <sbi_irqchip_set_irqfn>:
    800011da:	1141                	c.addi	x2,-16
    800011dc:	e422                	c.sdsp	x8,8(x2)
    800011de:	0800                	c.addi4spn	x8,x2,16
    800011e0:	c509                	c.beqz	x10,800011ea <sbi_irqchip_set_irqfn+0x10>
    800011e2:	00017797          	auipc	x15,0x17
    800011e6:	f4a7bb23          	sd	x10,-170(x15) # 80018138 <ext_irqfn>
    800011ea:	6422                	c.ldsp	x8,8(x2)
    800011ec:	0141                	c.addi	x2,16
    800011ee:	8082                	c.jr	x1

00000000800011f0 <sbi_irqchip_process>:
    800011f0:	1141                	c.addi	x2,-16
    800011f2:	e022                	c.sdsp	x8,0(x2)
    800011f4:	e406                	c.sdsp	x1,8(x2)
    800011f6:	0800                	c.addi4spn	x8,x2,16
    800011f8:	00017797          	auipc	x15,0x17
    800011fc:	f407b783          	ld	x15,-192(x15) # 80018138 <ext_irqfn>
    80001200:	9782                	c.jalr	x15
    80001202:	60a2                	c.ldsp	x1,8(x2)
    80001204:	6402                	c.ldsp	x8,0(x2)
    80001206:	0141                	c.addi	x2,16
    80001208:	8082                	c.jr	x1

000000008000120a <sbi_irqchip_init>:
    8000120a:	791c                	c.ld	x15,48(x10)
    8000120c:	cf9d                	c.beqz	x15,8000124a <sbi_irqchip_init+0x40>
    8000120e:	6fbc                	c.ld	x15,88(x15)
    80001210:	73bc                	c.ld	x15,96(x15)
    80001212:	cf85                	c.beqz	x15,8000124a <sbi_irqchip_init+0x40>
    80001214:	1141                	c.addi	x2,-16
    80001216:	e022                	c.sdsp	x8,0(x2)
    80001218:	e406                	c.sdsp	x1,8(x2)
    8000121a:	0800                	c.addi4spn	x8,x2,16
    8000121c:	852e                	c.mv	x10,x11
    8000121e:	9782                	c.jalr	x15
    80001220:	e10d                	c.bnez	x10,80001242 <sbi_irqchip_init+0x38>
    80001222:	00017717          	auipc	x14,0x17
    80001226:	f1673703          	ld	x14,-234(x14) # 80018138 <ext_irqfn>
    8000122a:	00000797          	auipc	x15,0x0
    8000122e:	fa078793          	addi	x15,x15,-96 # 800011ca <default_irqfn>
    80001232:	00f70763          	beq	x14,x15,80001240 <sbi_irqchip_init+0x36>
    80001236:	6785                	c.lui	x15,0x1
    80001238:	80078793          	addi	x15,x15,-2048 # 800 <_fw_start-0x7ffff800>
    8000123c:	3047a073          	csrrs	x0,mie,x15
    80001240:	4501                	c.li	x10,0
    80001242:	60a2                	c.ldsp	x1,8(x2)
    80001244:	6402                	c.ldsp	x8,0(x2)
    80001246:	0141                	c.addi	x2,16
    80001248:	8082                	c.jr	x1
    8000124a:	00017717          	auipc	x14,0x17
    8000124e:	eee73703          	ld	x14,-274(x14) # 80018138 <ext_irqfn>
    80001252:	00000797          	auipc	x15,0x0
    80001256:	f7878793          	addi	x15,x15,-136 # 800011ca <default_irqfn>
    8000125a:	00f70763          	beq	x14,x15,80001268 <sbi_irqchip_init+0x5e>
    8000125e:	6785                	c.lui	x15,0x1
    80001260:	80078793          	addi	x15,x15,-2048 # 800 <_fw_start-0x7ffff800>
    80001264:	3047a073          	csrrs	x0,mie,x15
    80001268:	4501                	c.li	x10,0
    8000126a:	8082                	c.jr	x1

000000008000126c <sbi_irqchip_exit>:
    8000126c:	00017697          	auipc	x13,0x17
    80001270:	ecc6b683          	ld	x13,-308(x13) # 80018138 <ext_irqfn>
    80001274:	00000797          	auipc	x15,0x0
    80001278:	f5678793          	addi	x15,x15,-170 # 800011ca <default_irqfn>
    8000127c:	7918                	c.ld	x14,48(x10)
    8000127e:	00f68763          	beq	x13,x15,8000128c <sbi_irqchip_exit+0x20>
    80001282:	6785                	c.lui	x15,0x1
    80001284:	80078793          	addi	x15,x15,-2048 # 800 <_fw_start-0x7ffff800>
    80001288:	3047b073          	csrrc	x0,mie,x15
    8000128c:	cf09                	c.beqz	x14,800012a6 <sbi_irqchip_exit+0x3a>
    8000128e:	6f3c                	c.ld	x15,88(x14)
    80001290:	77bc                	c.ld	x15,104(x15)
    80001292:	cb91                	c.beqz	x15,800012a6 <sbi_irqchip_exit+0x3a>
    80001294:	1141                	c.addi	x2,-16
    80001296:	e022                	c.sdsp	x8,0(x2)
    80001298:	e406                	c.sdsp	x1,8(x2)
    8000129a:	0800                	c.addi4spn	x8,x2,16
    8000129c:	9782                	c.jalr	x15
    8000129e:	60a2                	c.ldsp	x1,8(x2)
    800012a0:	6402                	c.ldsp	x8,0(x2)
    800012a2:	0141                	c.addi	x2,16
    800012a4:	8082                	c.jr	x1
    800012a6:	8082                	c.jr	x1

00000000800012a8 <sbi_platform_get_features_str>:
    800012a8:	c955                	c.beqz	x10,8000135c <sbi_platform_get_features_str+0xb4>
    800012aa:	711d                	c.addi16sp	x2,-96
    800012ac:	e8a2                	c.sdsp	x8,80(x2)
    800012ae:	e4a6                	c.sdsp	x9,72(x2)
    800012b0:	ec86                	c.sdsp	x1,88(x2)
    800012b2:	e0ca                	c.sdsp	x18,64(x2)
    800012b4:	fc4e                	c.sdsp	x19,56(x2)
    800012b6:	f852                	c.sdsp	x20,48(x2)
    800012b8:	f456                	c.sdsp	x21,40(x2)
    800012ba:	f05a                	c.sdsp	x22,32(x2)
    800012bc:	ec5e                	c.sdsp	x23,24(x2)
    800012be:	e862                	c.sdsp	x24,16(x2)
    800012c0:	e466                	c.sdsp	x25,8(x2)
    800012c2:	1080                	c.addi4spn	x8,x2,96
    800012c4:	84ae                	c.mv	x9,x11
    800012c6:	c199                	c.beqz	x11,800012cc <sbi_platform_get_features_str+0x24>
    800012c8:	8932                	c.mv	x18,x12
    800012ca:	ee11                	c.bnez	x12,800012e6 <sbi_platform_get_features_str+0x3e>
    800012cc:	60e6                	c.ldsp	x1,88(x2)
    800012ce:	6446                	c.ldsp	x8,80(x2)
    800012d0:	64a6                	c.ldsp	x9,72(x2)
    800012d2:	6906                	c.ldsp	x18,64(x2)
    800012d4:	79e2                	c.ldsp	x19,56(x2)
    800012d6:	7a42                	c.ldsp	x20,48(x2)
    800012d8:	7aa2                	c.ldsp	x21,40(x2)
    800012da:	7b02                	c.ldsp	x22,32(x2)
    800012dc:	6be2                	c.ldsp	x23,24(x2)
    800012de:	6c42                	c.ldsp	x24,16(x2)
    800012e0:	6ca2                	c.ldsp	x25,8(x2)
    800012e2:	6125                	c.addi16sp	x2,96
    800012e4:	8082                	c.jr	x1
    800012e6:	89aa                	c.mv	x19,x10
    800012e8:	4581                	c.li	x11,0
    800012ea:	8526                	c.mv	x10,x9
    800012ec:	14e010ef          	jal	x1,8000243a <sbi_memset>
    800012f0:	0489b783          	ld	x15,72(x19)
    800012f4:	8bca                	c.mv	x23,x18
    800012f6:	c7a9                	c.beqz	x15,80001340 <sbi_platform_get_features_str+0x98>
    800012f8:	4a85                	c.li	x21,1
    800012fa:	4a01                	c.li	x20,0
    800012fc:	4b05                	c.li	x22,1
    800012fe:	0027f993          	andi	x19,x15,2
    80001302:	00014c97          	auipc	x25,0x14
    80001306:	2b6c8c93          	addi	x25,x25,694 # 800155b8 <__func__.2095+0x10>
    8000130a:	00014c17          	auipc	x24,0x14
    8000130e:	2b6c0c13          	addi	x24,x24,694 # 800155c0 <__func__.2095+0x18>
    80001312:	036a9563          	bne	x21,x22,8000133c <sbi_platform_get_features_str+0x94>
    80001316:	414905bb          	subw	x11,x18,x20
    8000131a:	01448533          	add	x10,x9,x20
    8000131e:	86e6                	c.mv	x13,x25
    80001320:	8662                	c.mv	x12,x24
    80001322:	4a89                	c.li	x21,2
    80001324:	fe0987e3          	beq	x19,x0,80001312 <sbi_platform_get_features_str+0x6a>
    80001328:	3ae040ef          	jal	x1,800056d6 <sbi_snprintf>
    8000132c:	00054863          	blt	x10,x0,8000133c <sbi_platform_get_features_str+0x94>
    80001330:	01450a3b          	addw	x20,x10,x20
    80001334:	032a5063          	bge	x20,x18,80001354 <sbi_platform_get_features_str+0xac>
    80001338:	fd6a8fe3          	beq	x21,x22,80001316 <sbi_platform_get_features_str+0x6e>
    8000133c:	000a1b63          	bne	x20,x0,80001352 <sbi_platform_get_features_str+0xaa>
    80001340:	864a                	c.mv	x12,x18
    80001342:	00014597          	auipc	x11,0x14
    80001346:	28658593          	addi	x11,x11,646 # 800155c8 <__func__.2095+0x20>
    8000134a:	8526                	c.mv	x10,x9
    8000134c:	064010ef          	jal	x1,800023b0 <sbi_strncpy>
    80001350:	bfb5                	c.j	800012cc <sbi_platform_get_features_str+0x24>
    80001352:	8bd2                	c.mv	x23,x20
    80001354:	94de                	c.add	x9,x23
    80001356:	fe048fa3          	sb	x0,-1(x9)
    8000135a:	bf8d                	c.j	800012cc <sbi_platform_get_features_str+0x24>
    8000135c:	8082                	c.jr	x1

000000008000135e <sbi_platform_hart_index>:
    8000135e:	1141                	c.addi	x2,-16
    80001360:	e422                	c.sdsp	x8,8(x2)
    80001362:	0800                	c.addi4spn	x8,x2,16
    80001364:	c11d                	c.beqz	x10,8000138a <sbi_platform_hart_index+0x2c>
    80001366:	753c                	c.ld	x15,104(x10)
    80001368:	872a                	c.mv	x14,x10
    8000136a:	852e                	c.mv	x10,x11
    8000136c:	cf81                	c.beqz	x15,80001384 <sbi_platform_hart_index+0x26>
    8000136e:	4b34                	c.lw	x13,80(x14)
    80001370:	ce89                	c.beqz	x13,8000138a <sbi_platform_hart_index+0x2c>
    80001372:	4501                	c.li	x10,0
    80001374:	a021                	c.j	8000137c <sbi_platform_hart_index+0x1e>
    80001376:	2505                	c.addiw	x10,1
    80001378:	00d50963          	beq	x10,x13,8000138a <sbi_platform_hart_index+0x2c>
    8000137c:	4398                	c.lw	x14,0(x15)
    8000137e:	0791                	c.addi	x15,4
    80001380:	feb71be3          	bne	x14,x11,80001376 <sbi_platform_hart_index+0x18>
    80001384:	6422                	c.ldsp	x8,8(x2)
    80001386:	0141                	c.addi	x2,16
    80001388:	8082                	c.jr	x1
    8000138a:	6422                	c.ldsp	x8,8(x2)
    8000138c:	557d                	c.li	x10,-1
    8000138e:	0141                	c.addi	x2,16
    80001390:	8082                	c.jr	x1

0000000080001392 <pmu_add_hw_event_map>:
    80001392:	711d                	c.addi16sp	x2,-96
    80001394:	e8a2                	c.sdsp	x8,80(x2)
    80001396:	e4a6                	c.sdsp	x9,72(x2)
    80001398:	e0ca                	c.sdsp	x18,64(x2)
    8000139a:	fc4e                	c.sdsp	x19,56(x2)
    8000139c:	f852                	c.sdsp	x20,48(x2)
    8000139e:	f456                	c.sdsp	x21,40(x2)
    800013a0:	f05a                	c.sdsp	x22,32(x2)
    800013a2:	ec5e                	c.sdsp	x23,24(x2)
    800013a4:	e862                	c.sdsp	x24,16(x2)
    800013a6:	e466                	c.sdsp	x25,8(x2)
    800013a8:	ec86                	c.sdsp	x1,88(x2)
    800013aa:	1080                	c.addi4spn	x8,x2,96
    800013ac:	0001bc97          	auipc	x25,0x1b
    800013b0:	e94c8c93          	addi	x25,x25,-364 # 8001c240 <num_hw_events>
    800013b4:	000ce483          	lwu	x9,0(x25)
    800013b8:	00039b97          	auipc	x23,0x39
    800013bc:	e98b8b93          	addi	x23,x23,-360 # 8003a250 <hw_event_map>
    800013c0:	892a                	c.mv	x18,x10
    800013c2:	00549993          	slli	x19,x9,0x5
    800013c6:	8c2e                	c.mv	x24,x11
    800013c8:	8ab2                	c.mv	x21,x12
    800013ca:	8a36                	c.mv	x20,x13
    800013cc:	8b3a                	c.mv	x22,x14
    800013ce:	99de                	c.add	x19,x23
    800013d0:	34002573          	csrrs	x10,mscratch,x0
    800013d4:	5df050ef          	jal	x1,800071b2 <sbi_hart_mhpm_count>
    800013d8:	4789                	c.li	x15,2
    800013da:	2501                	c.addiw	x10,0
    800013dc:	0127f563          	bgeu	x15,x18,800013e6 <pmu_add_hw_event_map+0x54>
    800013e0:	007af793          	andi	x15,x21,7
    800013e4:	e7e9                	c.bnez	x15,800014ae <pmu_add_hw_event_map+0x11c>
    800013e6:	000ca703          	lw	x14,0(x25)
    800013ea:	0fe00793          	addi	x15,x0,254
    800013ee:	0ce7e263          	bltu	x15,x14,800014b2 <pmu_add_hw_event_map+0x120>
    800013f2:	00549793          	slli	x15,x9,0x5
    800013f6:	97de                	c.add	x15,x23
    800013f8:	0127a223          	sw	x18,4(x15)
    800013fc:	0187a423          	sw	x24,8(x15)
    80001400:	c359                	c.beqz	x14,80001486 <pmu_add_hw_event_map+0xf4>
    80001402:	fff7079b          	addiw	x15,x14,-1
    80001406:	1782                	c.slli	x15,0x20
    80001408:	83ed                	c.srli	x15,0x1b
    8000140a:	00039697          	auipc	x13,0x39
    8000140e:	e6a68693          	addi	x13,x13,-406 # 8003a274 <hw_event_map+0x24>
    80001412:	00039597          	auipc	x11,0x39
    80001416:	e4258593          	addi	x11,x11,-446 # 8003a254 <hw_event_map+0x4>
    8000141a:	97b6                	c.add	x15,x13
    8000141c:	00020837          	lui	x16,0x20
    80001420:	05090763          	beq	x18,x16,8000146e <pmu_add_hw_event_map+0xdc>
    80001424:	41d0                	c.lw	x12,4(x11)
    80001426:	0049a683          	lw	x13,4(x19)
    8000142a:	0005a883          	lw	x17,0(x11)
    8000142e:	00d67663          	bgeu	x12,x13,8000143a <pmu_add_hw_event_map+0xa8>
    80001432:	0089a303          	lw	x6,8(x19)
    80001436:	04666463          	bltu	x12,x6,8000147e <pmu_add_hw_event_map+0xec>
    8000143a:	0116f663          	bgeu	x13,x17,80001446 <pmu_add_hw_event_map+0xb4>
    8000143e:	0089a683          	lw	x13,8(x19)
    80001442:	0316ee63          	bltu	x13,x17,8000147e <pmu_add_hw_event_map+0xec>
    80001446:	0496                	c.slli	x9,0x5
    80001448:	94de                	c.add	x9,x23
    8000144a:	0004a223          	sw	x0,4(x9)
    8000144e:	0004a423          	sw	x0,8(x9)
    80001452:	5575                	c.li	x10,-3
    80001454:	60e6                	c.ldsp	x1,88(x2)
    80001456:	6446                	c.ldsp	x8,80(x2)
    80001458:	64a6                	c.ldsp	x9,72(x2)
    8000145a:	6906                	c.ldsp	x18,64(x2)
    8000145c:	79e2                	c.ldsp	x19,56(x2)
    8000145e:	7a42                	c.ldsp	x20,48(x2)
    80001460:	7aa2                	c.ldsp	x21,40(x2)
    80001462:	7b02                	c.ldsp	x22,32(x2)
    80001464:	6be2                	c.ldsp	x23,24(x2)
    80001466:	6c42                	c.ldsp	x24,16(x2)
    80001468:	6ca2                	c.ldsp	x25,8(x2)
    8000146a:	6125                	c.addi16sp	x2,96
    8000146c:	8082                	c.jr	x1
    8000146e:	00c5b683          	ld	x13,12(x11)
    80001472:	00da1663          	bne	x20,x13,8000147e <pmu_add_hw_event_map+0xec>
    80001476:	0145b683          	ld	x13,20(x11)
    8000147a:	fcdb06e3          	beq	x22,x13,80001446 <pmu_add_hw_event_map+0xb4>
    8000147e:	02058593          	addi	x11,x11,32
    80001482:	f8b79fe3          	bne	x15,x11,80001420 <pmu_add_hw_event_map+0x8e>
    80001486:	47f5                	c.li	x15,29
    80001488:	9f89                	c.subw	x15,x10
    8000148a:	557d                	c.li	x10,-1
    8000148c:	00f5553b          	srlw	x10,x10,x15
    80001490:	0496                	c.slli	x9,0x5
    80001492:	94de                	c.add	x9,x23
    80001494:	00aafab3          	and	x21,x21,x10
    80001498:	2705                	c.addiw	x14,1
    8000149a:	0164bc23          	sd	x22,24(x9)
    8000149e:	0154a023          	sw	x21,0(x9)
    800014a2:	0144b823          	sd	x20,16(x9)
    800014a6:	00eca023          	sw	x14,0(x25)
    800014aa:	4501                	c.li	x10,0
    800014ac:	b765                	c.j	80001454 <pmu_add_hw_event_map+0xc2>
    800014ae:	5571                	c.li	x10,-4
    800014b0:	b755                	c.j	80001454 <pmu_add_hw_event_map+0xc2>
    800014b2:	10000593          	addi	x11,x0,256
    800014b6:	00014517          	auipc	x10,0x14
    800014ba:	11a50513          	addi	x10,x10,282 # 800155d0 <__func__.2095+0x28>
    800014be:	0c2040ef          	jal	x1,80005580 <sbi_printf>
    800014c2:	557d                	c.li	x10,-1
    800014c4:	bf41                	c.j	80001454 <pmu_add_hw_event_map+0xc2>

00000000800014c6 <pmu_ctr_start_hw>:
    800014c6:	715d                	c.addi16sp	x2,-80
    800014c8:	e0a2                	c.sdsp	x8,64(x2)
    800014ca:	e486                	c.sdsp	x1,72(x2)
    800014cc:	fc26                	c.sdsp	x9,56(x2)
    800014ce:	f84a                	c.sdsp	x18,48(x2)
    800014d0:	f44e                	c.sdsp	x19,40(x2)
    800014d2:	f052                	c.sdsp	x20,32(x2)
    800014d4:	ec56                	c.sdsp	x21,24(x2)
    800014d6:	e85a                	c.sdsp	x22,16(x2)
    800014d8:	0880                	c.addi4spn	x8,x2,80
    800014da:	34002b73          	csrrs	x22,mscratch,x0
    800014de:	0001b797          	auipc	x15,0x1b
    800014e2:	d667a783          	lw	x15,-666(x15) # 8001c244 <num_hw_ctrs>
    800014e6:	0cf57763          	bgeu	x10,x15,800015b4 <pmu_ctr_start_hw+0xee>
    800014ea:	4905                	c.li	x18,1
    800014ec:	84aa                	c.mv	x9,x10
    800014ee:	0d250363          	beq	x10,x18,800015b4 <pmu_ctr_start_hw+0xee>
    800014f2:	855a                	c.mv	x10,x22
    800014f4:	8a2e                	c.mv	x20,x11
    800014f6:	89b2                	c.mv	x19,x12
    800014f8:	635050ef          	jal	x1,8000732c <sbi_hart_priv_version>
    800014fc:	04a95f63          	bge	x18,x10,8000155a <pmu_ctr_start_hw+0x94>
    80001500:	320025f3          	csrrs	x11,mcountinhibit,x0
    80001504:	43f4d793          	srai	x15,x9,0x3f
    80001508:	01a7d61b          	srliw	x12,x15,0x1a
    8000150c:	009607bb          	addw	x15,x12,x9
    80001510:	4067d69b          	sraiw	x13,x15,0x6
    80001514:	00369713          	slli	x14,x13,0x3
    80001518:	fb840693          	addi	x13,x8,-72
    8000151c:	fab43c23          	sd	x11,-72(x8)
    80001520:	96ba                	c.add	x13,x14
    80001522:	6298                	c.ld	x14,0(x13)
    80001524:	00048a9b          	addiw	x21,x9,0
    80001528:	00975733          	srl	x14,x14,x9
    8000152c:	8b05                	c.andi	x14,1
    8000152e:	c749                	c.beqz	x14,800015b8 <pmu_ctr_start_hw+0xf2>
    80001530:	03f7f793          	andi	x15,x15,63
    80001534:	6298                	c.ld	x14,0(x13)
    80001536:	9f91                	c.subw	x15,x12
    80001538:	00f91933          	sll	x18,x18,x15
    8000153c:	fff94913          	xori	x18,x18,-1
    80001540:	01277933          	and	x18,x14,x18
    80001544:	4581                	c.li	x11,0
    80001546:	855a                	c.mv	x10,x22
    80001548:	0126b023          	sd	x18,0(x13)
    8000154c:	689050ef          	jal	x1,800073d4 <sbi_hart_has_extension>
    80001550:	e115                	c.bnez	x10,80001574 <pmu_ctr_start_hw+0xae>
    80001552:	fb843783          	ld	x15,-72(x8)
    80001556:	32079073          	csrrw	x0,mcountinhibit,x15
    8000155a:	04099463          	bne	x19,x0,800015a2 <pmu_ctr_start_hw+0xdc>
    8000155e:	60a6                	c.ldsp	x1,72(x2)
    80001560:	6406                	c.ldsp	x8,64(x2)
    80001562:	74e2                	c.ldsp	x9,56(x2)
    80001564:	7942                	c.ldsp	x18,48(x2)
    80001566:	7a02                	c.ldsp	x20,32(x2)
    80001568:	6ae2                	c.ldsp	x21,24(x2)
    8000156a:	6b42                	c.ldsp	x22,16(x2)
    8000156c:	854e                	c.mv	x10,x19
    8000156e:	79a2                	c.ldsp	x19,40(x2)
    80001570:	6161                	c.addi16sp	x2,80
    80001572:	8082                	c.jr	x1
    80001574:	ffd4879b          	addiw	x15,x9,-3
    80001578:	4771                	c.li	x14,28
    8000157a:	fcf76ce3          	bltu	x14,x15,80001552 <pmu_ctr_start_hw+0x8c>
    8000157e:	320a8a9b          	addiw	x21,x21,800
    80001582:	8556                	c.mv	x10,x21
    80001584:	16d020ef          	jal	x1,80003ef0 <csr_read_num>
    80001588:	344027f3          	csrrs	x15,mip,x0
    8000158c:	03279713          	slli	x14,x15,0x32
    80001590:	fc0741e3          	blt	x14,x0,80001552 <pmu_ctr_start_hw+0x8c>
    80001594:	0506                	c.slli	x10,0x1
    80001596:	00155593          	srli	x11,x10,0x1
    8000159a:	8556                	c.mv	x10,x21
    8000159c:	51f020ef          	jal	x1,800042ba <csr_write_num>
    800015a0:	bf4d                	c.j	80001552 <pmu_ctr_start_hw+0x8c>
    800015a2:	6505                	c.lui	x10,0x1
    800015a4:	b005051b          	addiw	x10,x10,-1280 # b00 <_fw_start-0x7ffff500>
    800015a8:	85d2                	c.mv	x11,x20
    800015aa:	9d25                	c.addw	x10,x9
    800015ac:	50f020ef          	jal	x1,800042ba <csr_write_num>
    800015b0:	4981                	c.li	x19,0
    800015b2:	b775                	c.j	8000155e <pmu_ctr_start_hw+0x98>
    800015b4:	59f5                	c.li	x19,-3
    800015b6:	b765                	c.j	8000155e <pmu_ctr_start_hw+0x98>
    800015b8:	59e5                	c.li	x19,-7
    800015ba:	b755                	c.j	8000155e <pmu_ctr_start_hw+0x98>

00000000800015bc <pmu_reset_event_map>:
    800015bc:	1101                	c.addi	x2,-32
    800015be:	e822                	c.sdsp	x8,16(x2)
    800015c0:	ec06                	c.sdsp	x1,24(x2)
    800015c2:	e426                	c.sdsp	x9,8(x2)
    800015c4:	e04a                	c.sdsp	x18,0(x2)
    800015c6:	1000                	c.addi4spn	x8,x2,32
    800015c8:	02051613          	slli	x12,x10,0x20
    800015cc:	0001b717          	auipc	x14,0x1b
    800015d0:	c7c72703          	lw	x14,-900(x14) # 8001c248 <total_ctrs>
    800015d4:	478d                	c.li	x15,3
    800015d6:	9201                	c.srli	x12,0x20
    800015d8:	02e7fd63          	bgeu	x15,x14,80001612 <pmu_reset_event_map+0x56>
    800015dc:	ffc7069b          	addiw	x13,x14,-4
    800015e0:	00161793          	slli	x15,x12,0x1
    800015e4:	97b2                	c.add	x15,x12
    800015e6:	1682                	c.slli	x13,0x20
    800015e8:	00479713          	slli	x14,x15,0x4
    800015ec:	9281                	c.srli	x13,0x20
    800015ee:	9736                	c.add	x14,x13
    800015f0:	079a                	c.slli	x15,0x6
    800015f2:	00033697          	auipc	x13,0x33
    800015f6:	c5e68693          	addi	x13,x13,-930 # 80034250 <active_events>
    800015fa:	070a                	c.slli	x14,0x2
    800015fc:	97b6                	c.add	x15,x13
    800015fe:	00033697          	auipc	x13,0x33
    80001602:	c5668693          	addi	x13,x13,-938 # 80034254 <active_events+0x4>
    80001606:	9736                	c.add	x14,x13
    80001608:	56fd                	c.li	x13,-1
    8000160a:	c7d4                	c.sw	x13,12(x15)
    8000160c:	0791                	c.addi	x15,4
    8000160e:	fee79ee3          	bne	x15,x14,8000160a <pmu_reset_event_map+0x4e>
    80001612:	00161913          	slli	x18,x12,0x1
    80001616:	964a                	c.add	x12,x18
    80001618:	0622                	c.slli	x12,0x8
    8000161a:	0001b497          	auipc	x9,0x1b
    8000161e:	c3648493          	addi	x9,x9,-970 # 8001c250 <fw_event_map>
    80001622:	0001b917          	auipc	x18,0x1b
    80001626:	f2e90913          	addi	x18,x18,-210 # 8001c550 <fw_event_map+0x300>
    8000162a:	94b2                	c.add	x9,x12
    8000162c:	9932                	c.add	x18,x12
    8000162e:	8526                	c.mv	x10,x9
    80001630:	4661                	c.li	x12,24
    80001632:	04e1                	c.addi	x9,24
    80001634:	4581                	c.li	x11,0
    80001636:	605000ef          	jal	x1,8000243a <sbi_memset>
    8000163a:	ff249ae3          	bne	x9,x18,8000162e <pmu_reset_event_map+0x72>
    8000163e:	60e2                	c.ldsp	x1,24(x2)
    80001640:	6442                	c.ldsp	x8,16(x2)
    80001642:	64a2                	c.ldsp	x9,8(x2)
    80001644:	6902                	c.ldsp	x18,0(x2)
    80001646:	6105                	c.addi16sp	x2,32
    80001648:	8082                	c.jr	x1

000000008000164a <sbi_pmu_ctr_read>:
    8000164a:	f1402773          	csrrs	x14,mhartid,x0
    8000164e:	0001b797          	auipc	x15,0x1b
    80001652:	bfa7a783          	lw	x15,-1030(x15) # 8001c248 <total_ctrs>
    80001656:	08f57c63          	bgeu	x10,x15,800016ee <sbi_pmu_ctr_read+0xa4>
    8000165a:	2701                	c.addiw	x14,0
    8000165c:	02071793          	slli	x15,x14,0x20
    80001660:	9381                	c.srli	x15,0x20
    80001662:	00179713          	slli	x14,x15,0x1
    80001666:	973e                	c.add	x14,x15
    80001668:	02051793          	slli	x15,x10,0x20
    8000166c:	0712                	c.slli	x14,0x4
    8000166e:	9381                	c.srli	x15,0x20
    80001670:	97ba                	c.add	x15,x14
    80001672:	078a                	c.slli	x15,0x2
    80001674:	00033717          	auipc	x14,0x33
    80001678:	bdc70713          	addi	x14,x14,-1060 # 80034250 <active_events>
    8000167c:	97ba                	c.add	x15,x14
    8000167e:	439c                	c.lw	x15,0(x15)
    80001680:	56fd                	c.li	x13,-1
    80001682:	0107d71b          	srliw	x14,x15,0x10
    80001686:	8b3d                	c.andi	x14,15
    80001688:	06d78363          	beq	x15,x13,800016ee <sbi_pmu_ctr_read+0xa4>
    8000168c:	46bd                	c.li	x13,15
    8000168e:	02d70463          	beq	x14,x13,800016b6 <sbi_pmu_ctr_read+0x6c>
    80001692:	4785                	c.li	x15,1
    80001694:	04f50b63          	beq	x10,x15,800016ea <sbi_pmu_ctr_read+0xa0>
    80001698:	1141                	c.addi	x2,-16
    8000169a:	6785                	c.lui	x15,0x1
    8000169c:	e022                	c.sdsp	x8,0(x2)
    8000169e:	e406                	c.sdsp	x1,8(x2)
    800016a0:	0800                	c.addi4spn	x8,x2,16
    800016a2:	b007879b          	addiw	x15,x15,-1280 # b00 <_fw_start-0x7ffff500>
    800016a6:	9d3d                	c.addw	x10,x15
    800016a8:	049020ef          	jal	x1,80003ef0 <csr_read_num>
    800016ac:	60a2                	c.ldsp	x1,8(x2)
    800016ae:	6402                	c.ldsp	x8,0(x2)
    800016b0:	4501                	c.li	x10,0
    800016b2:	0141                	c.addi	x2,16
    800016b4:	8082                	c.jr	x1
    800016b6:	f1402773          	csrrs	x14,mhartid,x0
    800016ba:	02071613          	slli	x12,x14,0x20
    800016be:	17c2                	c.slli	x15,0x30
    800016c0:	9201                	c.srli	x12,0x20
    800016c2:	93c1                	c.srli	x15,0x30
    800016c4:	00179713          	slli	x14,x15,0x1
    800016c8:	00161693          	slli	x13,x12,0x1
    800016cc:	97ba                	c.add	x15,x14
    800016ce:	00c68733          	add	x14,x13,x12
    800016d2:	0722                	c.slli	x14,0x8
    800016d4:	078e                	c.slli	x15,0x3
    800016d6:	97ba                	c.add	x15,x14
    800016d8:	0001b717          	auipc	x14,0x1b
    800016dc:	b7870713          	addi	x14,x14,-1160 # 8001c250 <fw_event_map>
    800016e0:	97ba                	c.add	x15,x14
    800016e2:	679c                	c.ld	x15,8(x15)
    800016e4:	4501                	c.li	x10,0
    800016e6:	e19c                	c.sd	x15,0(x11)
    800016e8:	8082                	c.jr	x1
    800016ea:	4501                	c.li	x10,0
    800016ec:	8082                	c.jr	x1
    800016ee:	5575                	c.li	x10,-3
    800016f0:	8082                	c.jr	x1

00000000800016f2 <sbi_pmu_add_hw_event_counter_map>:
    800016f2:	02a5e463          	bltu	x11,x10,8000171a <sbi_pmu_add_hw_event_counter_map+0x28>
    800016f6:	000206b7          	lui	x13,0x20
    800016fa:	02d50063          	beq	x10,x13,8000171a <sbi_pmu_add_hw_event_counter_map+0x28>
    800016fe:	00d58e63          	beq	x11,x13,8000171a <sbi_pmu_add_hw_event_counter_map+0x28>
    80001702:	1141                	c.addi	x2,-16
    80001704:	e022                	c.sdsp	x8,0(x2)
    80001706:	e406                	c.sdsp	x1,8(x2)
    80001708:	0800                	c.addi4spn	x8,x2,16
    8000170a:	4701                	c.li	x14,0
    8000170c:	4681                	c.li	x13,0
    8000170e:	c85ff0ef          	jal	x1,80001392 <pmu_add_hw_event_map>
    80001712:	60a2                	c.ldsp	x1,8(x2)
    80001714:	6402                	c.ldsp	x8,0(x2)
    80001716:	0141                	c.addi	x2,16
    80001718:	8082                	c.jr	x1
    8000171a:	5575                	c.li	x10,-3
    8000171c:	8082                	c.jr	x1

000000008000171e <sbi_pmu_add_raw_event_counter_map>:
    8000171e:	1141                	c.addi	x2,-16
    80001720:	e022                	c.sdsp	x8,0(x2)
    80001722:	e406                	c.sdsp	x1,8(x2)
    80001724:	0800                	c.addi4spn	x8,x2,16
    80001726:	86aa                	c.mv	x13,x10
    80001728:	872e                	c.mv	x14,x11
    8000172a:	00020537          	lui	x10,0x20
    8000172e:	000205b7          	lui	x11,0x20
    80001732:	c61ff0ef          	jal	x1,80001392 <pmu_add_hw_event_map>
    80001736:	60a2                	c.ldsp	x1,8(x2)
    80001738:	6402                	c.ldsp	x8,0(x2)
    8000173a:	0141                	c.addi	x2,16
    8000173c:	8082                	c.jr	x1

000000008000173e <sbi_pmu_ctr_start>:
    8000173e:	7175                	c.addi16sp	x2,-144
    80001740:	e122                	c.sdsp	x8,128(x2)
    80001742:	f4ce                	c.sdsp	x19,104(x2)
    80001744:	f0d2                	c.sdsp	x20,96(x2)
    80001746:	0900                	c.addi4spn	x8,x2,144
    80001748:	e506                	c.sdsp	x1,136(x2)
    8000174a:	fca6                	c.sdsp	x9,120(x2)
    8000174c:	f8ca                	c.sdsp	x18,112(x2)
    8000174e:	ecd6                	c.sdsp	x21,88(x2)
    80001750:	e8da                	c.sdsp	x22,80(x2)
    80001752:	e4de                	c.sdsp	x23,72(x2)
    80001754:	e0e2                	c.sdsp	x24,64(x2)
    80001756:	fc66                	c.sdsp	x25,56(x2)
    80001758:	f86a                	c.sdsp	x26,48(x2)
    8000175a:	f46e                	c.sdsp	x27,40(x2)
    8000175c:	87ae                	c.mv	x15,x11
    8000175e:	f8b43423          	sd	x11,-120(x8)
    80001762:	9181                	c.srli	x11,0x20
    80001764:	89aa                	c.mv	x19,x10
    80001766:	8a36                	c.mv	x20,x13
    80001768:	03f00713          	addi	x14,x0,63
    8000176c:	e199                	c.bnez	x11,80001772 <sbi_pmu_ctr_start+0x34>
    8000176e:	1782                	c.slli	x15,0x20
    80001770:	477d                	c.li	x14,31
    80001772:	0307d693          	srli	x13,x15,0x30
    80001776:	e299                	c.bnez	x13,8000177c <sbi_pmu_ctr_start+0x3e>
    80001778:	3741                	c.addiw	x14,-16
    8000177a:	07c2                	c.slli	x15,0x10
    8000177c:	0387d693          	srli	x13,x15,0x38
    80001780:	e299                	c.bnez	x13,80001786 <sbi_pmu_ctr_start+0x48>
    80001782:	3761                	c.addiw	x14,-8
    80001784:	07a2                	c.slli	x15,0x8
    80001786:	03c7d693          	srli	x13,x15,0x3c
    8000178a:	e299                	c.bnez	x13,80001790 <sbi_pmu_ctr_start+0x52>
    8000178c:	3771                	c.addiw	x14,-4
    8000178e:	0792                	c.slli	x15,0x4
    80001790:	03e7d693          	srli	x13,x15,0x3e
    80001794:	e299                	c.bnez	x13,8000179a <sbi_pmu_ctr_start+0x5c>
    80001796:	3779                	c.addiw	x14,-2
    80001798:	078a                	c.slli	x15,0x2
    8000179a:	0007c363          	blt	x15,x0,800017a0 <sbi_pmu_ctr_start+0x62>
    8000179e:	377d                	c.addiw	x14,-1
    800017a0:	0001bd17          	auipc	x26,0x1b
    800017a4:	aa0d0d13          	addi	x26,x26,-1376 # 8001c240 <num_hw_events>
    800017a8:	008d6583          	lwu	x11,8(x26)
    800017ac:	974e                	c.add	x14,x19
    800017ae:	10b77563          	bgeu	x14,x11,800018b8 <sbi_pmu_ctr_start+0x17a>
    800017b2:	f8840a93          	addi	x21,x8,-120
    800017b6:	00167793          	andi	x15,x12,1
    800017ba:	8556                	c.mv	x10,x21
    800017bc:	f8f43023          	sd	x15,-128(x8)
    800017c0:	893e                	c.mv	x18,x15
    800017c2:	388030ef          	jal	x1,80004b4a <find_first_bit>
    800017c6:	008d2783          	lw	x15,8(x26)
    800017ca:	00050d9b          	addiw	x27,x10,0 # 20000 <_fw_start-0x7ffe0000>
    800017ce:	0efdf563          	bgeu	x27,x15,800018b8 <sbi_pmu_ctr_start+0x17a>
    800017d2:	67c1                	c.lui	x15,0x10
    800017d4:	17fd                	c.addi	x15,-1 # ffff <_fw_start-0x7fff0001>
    800017d6:	2981                	c.addiw	x19,0
    800017d8:	54f5                	c.li	x9,-3
    800017da:	00033b97          	auipc	x23,0x33
    800017de:	a76b8b93          	addi	x23,x23,-1418 # 80034250 <active_events>
    800017e2:	5c7d                	c.li	x24,-1
    800017e4:	4cbd                	c.li	x25,15
    800017e6:	f6f43c23          	sd	x15,-136(x8)
    800017ea:	0001bb17          	auipc	x22,0x1b
    800017ee:	a66b0b13          	addi	x22,x22,-1434 # 8001c250 <fw_event_map>
    800017f2:	a88d                	c.j	80001864 <sbi_pmu_ctr_start+0x126>
    800017f4:	f7843703          	ld	x14,-136(x8)
    800017f8:	8ff9                	c.and	x15,x14
    800017fa:	f14028f3          	csrrs	x17,mhartid,x0
    800017fe:	2881                	c.addiw	x17,0
    80001800:	02079513          	slli	x10,x15,0x20
    80001804:	02089593          	slli	x11,x17,0x20
    80001808:	9101                	c.srli	x10,0x20
    8000180a:	9181                	c.srli	x11,0x20
    8000180c:	00151713          	slli	x14,x10,0x1
    80001810:	00159613          	slli	x12,x11,0x1
    80001814:	972a                	c.add	x14,x10
    80001816:	962e                	c.add	x12,x11
    80001818:	f8043683          	ld	x13,-128(x8)
    8000181c:	070e                	c.slli	x14,0x3
    8000181e:	0622                	c.slli	x12,0x8
    80001820:	9732                	c.add	x14,x12
    80001822:	975a                	c.add	x14,x22
    80001824:	c299                	c.beqz	x13,8000182a <sbi_pmu_ctr_start+0xec>
    80001826:	01473423          	sd	x20,8(x14)
    8000182a:	00151793          	slli	x15,x10,0x1
    8000182e:	00159713          	slli	x14,x11,0x1
    80001832:	97aa                	c.add	x15,x10
    80001834:	972e                	c.add	x14,x11
    80001836:	0722                	c.slli	x14,0x8
    80001838:	078e                	c.slli	x15,0x3
    8000183a:	97ba                	c.add	x15,x14
    8000183c:	008d2883          	lw	x17,8(x26)
    80001840:	97da                	c.add	x15,x22
    80001842:	4705                	c.li	x14,1
    80001844:	cb98                	c.sw	x14,16(x15)
    80001846:	4481                	c.li	x9,0
    80001848:	02089593          	slli	x11,x17,0x20
    8000184c:	001d861b          	addiw	x12,x27,1
    80001850:	9181                	c.srli	x11,0x20
    80001852:	8556                	c.mv	x10,x21
    80001854:	4b0030ef          	jal	x1,80004d04 <find_next_bit>
    80001858:	008d2783          	lw	x15,8(x26)
    8000185c:	00050d9b          	addiw	x27,x10,0
    80001860:	04fdfd63          	bgeu	x27,x15,800018ba <sbi_pmu_ctr_start+0x17c>
    80001864:	01b987bb          	addw	x15,x19,x27
    80001868:	0007851b          	addiw	x10,x15,0
    8000186c:	f1402773          	csrrs	x14,mhartid,x0
    80001870:	02079313          	slli	x6,x15,0x20
    80001874:	0007079b          	addiw	x15,x14,0
    80001878:	02079713          	slli	x14,x15,0x20
    8000187c:	9301                	c.srli	x14,0x20
    8000187e:	00171793          	slli	x15,x14,0x1
    80001882:	97ba                	c.add	x15,x14
    80001884:	02035313          	srli	x6,x6,0x20
    80001888:	0792                	c.slli	x15,0x4
    8000188a:	008d2883          	lw	x17,8(x26)
    8000188e:	979a                	c.add	x15,x6
    80001890:	078a                	c.slli	x15,0x2
    80001892:	864a                	c.mv	x12,x18
    80001894:	85d2                	c.mv	x11,x20
    80001896:	97de                	c.add	x15,x23
    80001898:	fb1578e3          	bgeu	x10,x17,80001848 <sbi_pmu_ctr_start+0x10a>
    8000189c:	439c                	c.lw	x15,0(x15)
    8000189e:	0107d71b          	srliw	x14,x15,0x10
    800018a2:	8b3d                	c.andi	x14,15
    800018a4:	fb8782e3          	beq	x15,x24,80001848 <sbi_pmu_ctr_start+0x10a>
    800018a8:	f59706e3          	beq	x14,x25,800017f4 <sbi_pmu_ctr_start+0xb6>
    800018ac:	c1bff0ef          	jal	x1,800014c6 <pmu_ctr_start_hw>
    800018b0:	008d2883          	lw	x17,8(x26)
    800018b4:	84aa                	c.mv	x9,x10
    800018b6:	bf49                	c.j	80001848 <sbi_pmu_ctr_start+0x10a>
    800018b8:	54f5                	c.li	x9,-3
    800018ba:	60aa                	c.ldsp	x1,136(x2)
    800018bc:	640a                	c.ldsp	x8,128(x2)
    800018be:	7946                	c.ldsp	x18,112(x2)
    800018c0:	79a6                	c.ldsp	x19,104(x2)
    800018c2:	7a06                	c.ldsp	x20,96(x2)
    800018c4:	6ae6                	c.ldsp	x21,88(x2)
    800018c6:	6b46                	c.ldsp	x22,80(x2)
    800018c8:	6ba6                	c.ldsp	x23,72(x2)
    800018ca:	6c06                	c.ldsp	x24,64(x2)
    800018cc:	7ce2                	c.ldsp	x25,56(x2)
    800018ce:	7d42                	c.ldsp	x26,48(x2)
    800018d0:	7da2                	c.ldsp	x27,40(x2)
    800018d2:	8526                	c.mv	x10,x9
    800018d4:	74e6                	c.ldsp	x9,120(x2)
    800018d6:	6149                	c.addi16sp	x2,144
    800018d8:	8082                	c.jr	x1

00000000800018da <sbi_pmu_ctr_stop>:
    800018da:	7175                	c.addi16sp	x2,-144
    800018dc:	e122                	c.sdsp	x8,128(x2)
    800018de:	f4ce                	c.sdsp	x19,104(x2)
    800018e0:	ecd6                	c.sdsp	x21,88(x2)
    800018e2:	0900                	c.addi4spn	x8,x2,144
    800018e4:	e506                	c.sdsp	x1,136(x2)
    800018e6:	fca6                	c.sdsp	x9,120(x2)
    800018e8:	f8ca                	c.sdsp	x18,112(x2)
    800018ea:	f0d2                	c.sdsp	x20,96(x2)
    800018ec:	e8da                	c.sdsp	x22,80(x2)
    800018ee:	e4de                	c.sdsp	x23,72(x2)
    800018f0:	e0e2                	c.sdsp	x24,64(x2)
    800018f2:	fc66                	c.sdsp	x25,56(x2)
    800018f4:	f86a                	c.sdsp	x26,48(x2)
    800018f6:	f46e                	c.sdsp	x27,40(x2)
    800018f8:	89aa                	c.mv	x19,x10
    800018fa:	f6b43c23          	sd	x11,-136(x8)
    800018fe:	8ab2                	c.mv	x21,x12
    80001900:	f1402bf3          	csrrs	x23,mhartid,x0
    80001904:	f7843783          	ld	x15,-136(x8)
    80001908:	2b81                	c.addiw	x23,0
    8000190a:	03f00713          	addi	x14,x0,63
    8000190e:	0207d693          	srli	x13,x15,0x20
    80001912:	e299                	c.bnez	x13,80001918 <sbi_pmu_ctr_stop+0x3e>
    80001914:	1782                	c.slli	x15,0x20
    80001916:	477d                	c.li	x14,31
    80001918:	0307d693          	srli	x13,x15,0x30
    8000191c:	e299                	c.bnez	x13,80001922 <sbi_pmu_ctr_stop+0x48>
    8000191e:	3741                	c.addiw	x14,-16
    80001920:	07c2                	c.slli	x15,0x10
    80001922:	0387d693          	srli	x13,x15,0x38
    80001926:	e299                	c.bnez	x13,8000192c <sbi_pmu_ctr_stop+0x52>
    80001928:	3761                	c.addiw	x14,-8
    8000192a:	07a2                	c.slli	x15,0x8
    8000192c:	03c7d693          	srli	x13,x15,0x3c
    80001930:	e299                	c.bnez	x13,80001936 <sbi_pmu_ctr_stop+0x5c>
    80001932:	3771                	c.addiw	x14,-4
    80001934:	0792                	c.slli	x15,0x4
    80001936:	03e7d693          	srli	x13,x15,0x3e
    8000193a:	e299                	c.bnez	x13,80001940 <sbi_pmu_ctr_stop+0x66>
    8000193c:	3779                	c.addiw	x14,-2
    8000193e:	078a                	c.slli	x15,0x2
    80001940:	0007c363          	blt	x15,x0,80001946 <sbi_pmu_ctr_stop+0x6c>
    80001944:	377d                	c.addiw	x14,-1
    80001946:	0001b497          	auipc	x9,0x1b
    8000194a:	8fa48493          	addi	x9,x9,-1798 # 8001c240 <num_hw_events>
    8000194e:	0084e583          	lwu	x11,8(x9)
    80001952:	974e                	c.add	x14,x19
    80001954:	16b77b63          	bgeu	x14,x11,80001aca <sbi_pmu_ctr_stop+0x1f0>
    80001958:	f7840b13          	addi	x22,x8,-136
    8000195c:	855a                	c.mv	x10,x22
    8000195e:	1ec030ef          	jal	x1,80004b4a <find_first_bit>
    80001962:	449c                	c.lw	x15,8(x9)
    80001964:	00050d1b          	addiw	x26,x10,0
    80001968:	16fd7163          	bgeu	x26,x15,80001aca <sbi_pmu_ctr_stop+0x1f0>
    8000196c:	020b9793          	slli	x15,x23,0x20
    80001970:	9381                	c.srli	x15,0x20
    80001972:	00179b93          	slli	x23,x15,0x1
    80001976:	9bbe                	c.add	x23,x15
    80001978:	6c41                	c.lui	x24,0x10
    8000197a:	2981                	c.addiw	x19,0
    8000197c:	5975                	c.li	x18,-3
    8000197e:	00033a17          	auipc	x20,0x33
    80001982:	8d2a0a13          	addi	x20,x20,-1838 # 80034250 <active_events>
    80001986:	001afa93          	andi	x21,x21,1
    8000198a:	0b92                	c.slli	x23,0x4
    8000198c:	1c7d                	c.addi	x24,-1 # ffff <_fw_start-0x7fff0001>
    8000198e:	013d0dbb          	addw	x27,x26,x19
    80001992:	000d8c9b          	addiw	x25,x27,0
    80001996:	f1402773          	csrrs	x14,mhartid,x0
    8000199a:	448c                	c.lw	x11,8(x9)
    8000199c:	2701                	c.addiw	x14,0
    8000199e:	08bcf763          	bgeu	x25,x11,80001a2c <sbi_pmu_ctr_stop+0x152>
    800019a2:	02071793          	slli	x15,x14,0x20
    800019a6:	9381                	c.srli	x15,0x20
    800019a8:	00179713          	slli	x14,x15,0x1
    800019ac:	973e                	c.add	x14,x15
    800019ae:	020d9793          	slli	x15,x27,0x20
    800019b2:	0712                	c.slli	x14,0x4
    800019b4:	9381                	c.srli	x15,0x20
    800019b6:	97ba                	c.add	x15,x14
    800019b8:	078a                	c.slli	x15,0x2
    800019ba:	97d2                	c.add	x15,x20
    800019bc:	439c                	c.lw	x15,0(x15)
    800019be:	56fd                	c.li	x13,-1
    800019c0:	0107d71b          	srliw	x14,x15,0x10
    800019c4:	8b3d                	c.andi	x14,15
    800019c6:	06d78363          	beq	x15,x13,80001a2c <sbi_pmu_ctr_stop+0x152>
    800019ca:	46bd                	c.li	x13,15
    800019cc:	08d71c63          	bne	x14,x13,80001a64 <sbi_pmu_ctr_stop+0x18a>
    800019d0:	f1402773          	csrrs	x14,mhartid,x0
    800019d4:	0187f7b3          	and	x15,x15,x24
    800019d8:	02071613          	slli	x12,x14,0x20
    800019dc:	1782                	c.slli	x15,0x20
    800019de:	9381                	c.srli	x15,0x20
    800019e0:	9201                	c.srli	x12,0x20
    800019e2:	00179713          	slli	x14,x15,0x1
    800019e6:	00161693          	slli	x13,x12,0x1
    800019ea:	97ba                	c.add	x15,x14
    800019ec:	00c68733          	add	x14,x13,x12
    800019f0:	0722                	c.slli	x14,0x8
    800019f2:	078e                	c.slli	x15,0x3
    800019f4:	97ba                	c.add	x15,x14
    800019f6:	0001b717          	auipc	x14,0x1b
    800019fa:	85a70713          	addi	x14,x14,-1958 # 8001c250 <fw_event_map>
    800019fe:	97ba                	c.add	x15,x14
    80001a00:	0007a823          	sw	x0,16(x15)
    80001a04:	4901                	c.li	x18,0
    80001a06:	020a8263          	beq	x21,x0,80001a2a <sbi_pmu_ctr_stop+0x150>
    80001a0a:	9cde                	c.add	x25,x23
    80001a0c:	0c8a                	c.slli	x25,0x2
    80001a0e:	57fd                	c.li	x15,-1
    80001a10:	9cd2                	c.add	x25,x20
    80001a12:	00fca023          	sw	x15,0(x25)
    80001a16:	4771                	c.li	x14,28
    80001a18:	ffdd879b          	addiw	x15,x27,-3
    80001a1c:	00f76763          	bltu	x14,x15,80001a2a <sbi_pmu_ctr_stop+0x150>
    80001a20:	4581                	c.li	x11,0
    80001a22:	320d851b          	addiw	x10,x27,800
    80001a26:	095020ef          	jal	x1,800042ba <csr_write_num>
    80001a2a:	448c                	c.lw	x11,8(x9)
    80001a2c:	1582                	c.slli	x11,0x20
    80001a2e:	001d061b          	addiw	x12,x26,1
    80001a32:	9181                	c.srli	x11,0x20
    80001a34:	855a                	c.mv	x10,x22
    80001a36:	2ce030ef          	jal	x1,80004d04 <find_next_bit>
    80001a3a:	449c                	c.lw	x15,8(x9)
    80001a3c:	00050d1b          	addiw	x26,x10,0
    80001a40:	f4fd67e3          	bltu	x26,x15,8000198e <sbi_pmu_ctr_stop+0xb4>
    80001a44:	60aa                	c.ldsp	x1,136(x2)
    80001a46:	640a                	c.ldsp	x8,128(x2)
    80001a48:	74e6                	c.ldsp	x9,120(x2)
    80001a4a:	79a6                	c.ldsp	x19,104(x2)
    80001a4c:	7a06                	c.ldsp	x20,96(x2)
    80001a4e:	6ae6                	c.ldsp	x21,88(x2)
    80001a50:	6b46                	c.ldsp	x22,80(x2)
    80001a52:	6ba6                	c.ldsp	x23,72(x2)
    80001a54:	6c06                	c.ldsp	x24,64(x2)
    80001a56:	7ce2                	c.ldsp	x25,56(x2)
    80001a58:	7d42                	c.ldsp	x26,48(x2)
    80001a5a:	7da2                	c.ldsp	x27,40(x2)
    80001a5c:	854a                	c.mv	x10,x18
    80001a5e:	7946                	c.ldsp	x18,112(x2)
    80001a60:	6149                	c.addi16sp	x2,144
    80001a62:	8082                	c.jr	x1
    80001a64:	34002573          	csrrs	x10,mscratch,x0
    80001a68:	0c5050ef          	jal	x1,8000732c <sbi_hart_priv_version>
    80001a6c:	4705                	c.li	x14,1
    80001a6e:	4901                	c.li	x18,0
    80001a70:	f8a75be3          	bge	x14,x10,80001a06 <sbi_pmu_ctr_stop+0x12c>
    80001a74:	320026f3          	csrrs	x13,mcountinhibit,x0
    80001a78:	40dc                	c.lw	x15,4(x9)
    80001a7a:	f8d43423          	sd	x13,-120(x8)
    80001a7e:	04fcfa63          	bgeu	x25,x15,80001ad2 <sbi_pmu_ctr_stop+0x1f8>
    80001a82:	04ec8863          	beq	x25,x14,80001ad2 <sbi_pmu_ctr_stop+0x1f8>
    80001a86:	41fdd79b          	sraiw	x15,x27,0x1f
    80001a8a:	01a7d61b          	srliw	x12,x15,0x1a
    80001a8e:	01b607bb          	addw	x15,x12,x27
    80001a92:	4067d69b          	sraiw	x13,x15,0x6
    80001a96:	00369593          	slli	x11,x13,0x3
    80001a9a:	f8840693          	addi	x13,x8,-120
    80001a9e:	96ae                	c.add	x13,x11
    80001aa0:	0006b903          	ld	x18,0(x13) # 20000 <_fw_start-0x7ffe0000>
    80001aa4:	01995933          	srl	x18,x18,x25
    80001aa8:	00197913          	andi	x18,x18,1
    80001aac:	02091163          	bne	x18,x0,80001ace <sbi_pmu_ctr_stop+0x1f4>
    80001ab0:	628c                	c.ld	x11,0(x13)
    80001ab2:	03f7f793          	andi	x15,x15,63
    80001ab6:	9f91                	c.subw	x15,x12
    80001ab8:	00f717b3          	sll	x15,x14,x15
    80001abc:	8fcd                	c.or	x15,x11
    80001abe:	e29c                	c.sd	x15,0(x13)
    80001ac0:	f8843783          	ld	x15,-120(x8)
    80001ac4:	32079073          	csrrw	x0,mcountinhibit,x15
    80001ac8:	bf3d                	c.j	80001a06 <sbi_pmu_ctr_stop+0x12c>
    80001aca:	5975                	c.li	x18,-3
    80001acc:	bfa5                	c.j	80001a44 <sbi_pmu_ctr_stop+0x16a>
    80001ace:	5961                	c.li	x18,-8
    80001ad0:	bf1d                	c.j	80001a06 <sbi_pmu_ctr_stop+0x12c>
    80001ad2:	5975                	c.li	x18,-3
    80001ad4:	bf0d                	c.j	80001a06 <sbi_pmu_ctr_stop+0x12c>

0000000080001ad6 <sbi_pmu_ctr_cfg_match>:
    80001ad6:	7155                	c.addi16sp	x2,-208
    80001ad8:	e1a2                	c.sdsp	x8,192(x2)
    80001ada:	fd26                	c.sdsp	x9,184(x2)
    80001adc:	0980                	c.addi4spn	x8,x2,208
    80001ade:	f94a                	c.sdsp	x18,176(x2)
    80001ae0:	e586                	c.sdsp	x1,200(x2)
    80001ae2:	f54e                	c.sdsp	x19,168(x2)
    80001ae4:	f152                	c.sdsp	x20,160(x2)
    80001ae6:	ed56                	c.sdsp	x21,152(x2)
    80001ae8:	e95a                	c.sdsp	x22,144(x2)
    80001aea:	e55e                	c.sdsp	x23,136(x2)
    80001aec:	e162                	c.sdsp	x24,128(x2)
    80001aee:	fce6                	c.sdsp	x25,120(x2)
    80001af0:	f8ea                	c.sdsp	x26,112(x2)
    80001af2:	f4ee                	c.sdsp	x27,104(x2)
    80001af4:	87aa                	c.mv	x15,x10
    80001af6:	892e                	c.mv	x18,x11
    80001af8:	f6c43c23          	sd	x12,-136(x8)
    80001afc:	84b6                	c.mv	x9,x13
    80001afe:	f4e43823          	sd	x14,-176(x8)
    80001b02:	f1402573          	csrrs	x10,mhartid,x0
    80001b06:	0005069b          	addiw	x13,x10,0
    80001b0a:	0205d713          	srli	x14,x11,0x20
    80001b0e:	f6d43023          	sd	x13,-160(x8)
    80001b12:	14071c63          	bne	x14,x0,80001c6a <sbi_pmu_ctr_cfg_match+0x194>
    80001b16:	02059713          	slli	x14,x11,0x20
    80001b1a:	46fd                	c.li	x13,31
    80001b1c:	03075613          	srli	x12,x14,0x30
    80001b20:	e219                	c.bnez	x12,80001b26 <sbi_pmu_ctr_cfg_match+0x50>
    80001b22:	36c1                	c.addiw	x13,-16
    80001b24:	0742                	c.slli	x14,0x10
    80001b26:	03875613          	srli	x12,x14,0x38
    80001b2a:	e219                	c.bnez	x12,80001b30 <sbi_pmu_ctr_cfg_match+0x5a>
    80001b2c:	36e1                	c.addiw	x13,-8
    80001b2e:	0722                	c.slli	x14,0x8
    80001b30:	03c75613          	srli	x12,x14,0x3c
    80001b34:	e219                	c.bnez	x12,80001b3a <sbi_pmu_ctr_cfg_match+0x64>
    80001b36:	36f1                	c.addiw	x13,-4
    80001b38:	0712                	c.slli	x14,0x4
    80001b3a:	03e75613          	srli	x12,x14,0x3e
    80001b3e:	e219                	c.bnez	x12,80001b44 <sbi_pmu_ctr_cfg_match+0x6e>
    80001b40:	36f9                	c.addiw	x13,-2
    80001b42:	070a                	c.slli	x14,0x2
    80001b44:	00074363          	blt	x14,x0,80001b4a <sbi_pmu_ctr_cfg_match+0x74>
    80001b48:	36fd                	c.addiw	x13,-1
    80001b4a:	0001ac17          	auipc	x24,0x1a
    80001b4e:	6f6c0c13          	addi	x24,x24,1782 # 8001c240 <num_hw_events>
    80001b52:	008c2603          	lw	x12,8(x24)
    80001b56:	96be                	c.add	x13,x15
    80001b58:	02061713          	slli	x14,x12,0x20
    80001b5c:	9301                	c.srli	x14,0x20
    80001b5e:	1ee6f763          	bgeu	x13,x14,80001d4c <sbi_pmu_ctr_cfg_match+0x276>
    80001b62:	0004859b          	addiw	x11,x9,0
    80001b66:	f4b43423          	sd	x11,-184(x8)
    80001b6a:	03049593          	slli	x11,x9,0x30
    80001b6e:	0104d713          	srli	x14,x9,0x10
    80001b72:	91c1                	c.srli	x11,0x30
    80001b74:	8b3d                	c.andi	x14,15
    80001b76:	4689                	c.li	x13,2
    80001b78:	f4b43023          	sd	x11,-192(x8)
    80001b7c:	40d70463          	beq	x14,x13,80001f84 <sbi_pmu_ctr_cfg_match+0x4ae>
    80001b80:	04e6ef63          	bltu	x13,x14,80001bde <sbi_pmu_ctr_cfg_match+0x108>
    80001b84:	1c070663          	beq	x14,x0,80001d50 <sbi_pmu_ctr_cfg_match+0x27a>
    80001b88:	4685                	c.li	x13,1
    80001b8a:	1cd71163          	bne	x14,x13,80001d4c <sbi_pmu_ctr_cfg_match+0x276>
    80001b8e:	03049693          	slli	x13,x9,0x30
    80001b92:	92c1                	c.srli	x13,0x30
    80001b94:	0016d71b          	srliw	x14,x13,0x1
    80001b98:	8b0d                	c.andi	x14,3
    80001b9a:	460d                	c.li	x12,3
    80001b9c:	828d                	c.srli	x13,0x3
    80001b9e:	1ac70763          	beq	x14,x12,80001d4c <sbi_pmu_ctr_cfg_match+0x276>
    80001ba2:	4719                	c.li	x14,6
    80001ba4:	1ad76463          	bltu	x14,x13,80001d4c <sbi_pmu_ctr_cfg_match+0x276>
    80001ba8:	f7843703          	ld	x14,-136(x8)
    80001bac:	8b05                	c.andi	x14,1
    80001bae:	1a070963          	beq	x14,x0,80001d60 <sbi_pmu_ctr_cfg_match+0x28a>
    80001bb2:	f6043703          	ld	x14,-160(x8)
    80001bb6:	1702                	c.slli	x14,0x20
    80001bb8:	9301                	c.srli	x14,0x20
    80001bba:	00171693          	slli	x13,x14,0x1
    80001bbe:	9736                	c.add	x14,x13
    80001bc0:	0712                	c.slli	x14,0x4
    80001bc2:	973e                	c.add	x14,x15
    80001bc4:	00032697          	auipc	x13,0x32
    80001bc8:	68c68693          	addi	x13,x13,1676 # 80034250 <active_events>
    80001bcc:	070a                	c.slli	x14,0x2
    80001bce:	9736                	c.add	x14,x13
    80001bd0:	4314                	c.lw	x13,0(x14)
    80001bd2:	577d                	c.li	x14,-1
    80001bd4:	16e68c63          	beq	x13,x14,80001d4c <sbi_pmu_ctr_cfg_match+0x276>
    80001bd8:	00078d9b          	addiw	x27,x15,0
    80001bdc:	a0bd                	c.j	80001c4a <sbi_pmu_ctr_cfg_match+0x174>
    80001bde:	45bd                	c.li	x11,15
    80001be0:	46d9                	c.li	x13,22
    80001be2:	16b71563          	bne	x14,x11,80001d4c <sbi_pmu_ctr_cfg_match+0x276>
    80001be6:	03049593          	slli	x11,x9,0x30
    80001bea:	91c1                	c.srli	x11,0x30
    80001bec:	16d5f063          	bgeu	x11,x13,80001d4c <sbi_pmu_ctr_cfg_match+0x276>
    80001bf0:	f7843683          	ld	x13,-136(x8)
    80001bf4:	0007059b          	addiw	x11,x14,0
    80001bf8:	f6b43423          	sd	x11,-152(x8)
    80001bfc:	8a85                	c.andi	x13,1
    80001bfe:	cab5                	c.beqz	x13,80001c72 <sbi_pmu_ctr_cfg_match+0x19c>
    80001c00:	f6043703          	ld	x14,-160(x8)
    80001c04:	00032697          	auipc	x13,0x32
    80001c08:	64c68693          	addi	x13,x13,1612 # 80034250 <active_events>
    80001c0c:	02071593          	slli	x11,x14,0x20
    80001c10:	9181                	c.srli	x11,0x20
    80001c12:	00159713          	slli	x14,x11,0x1
    80001c16:	972e                	c.add	x14,x11
    80001c18:	0712                	c.slli	x14,0x4
    80001c1a:	973e                	c.add	x14,x15
    80001c1c:	070a                	c.slli	x14,0x2
    80001c1e:	9736                	c.add	x14,x13
    80001c20:	4314                	c.lw	x13,0(x14)
    80001c22:	577d                	c.li	x14,-1
    80001c24:	12e68463          	beq	x13,x14,80001d4c <sbi_pmu_ctr_cfg_match+0x276>
    80001c28:	00078d9b          	addiw	x27,x15,0
    80001c2c:	f6843783          	ld	x15,-152(x8)
    80001c30:	12079263          	bne	x15,x0,80001d54 <sbi_pmu_ctr_cfg_match+0x27e>
    80001c34:	f7843783          	ld	x15,-136(x8)
    80001c38:	8b89                	c.andi	x15,2
    80001c3a:	34079e63          	bne	x15,x0,80001f96 <sbi_pmu_ctr_cfg_match+0x4c0>
    80001c3e:	f7843783          	ld	x15,-136(x8)
    80001c42:	0047fa13          	andi	x20,x15,4
    80001c46:	340a1163          	bne	x20,x0,80001f88 <sbi_pmu_ctr_cfg_match+0x4b2>
    80001c4a:	60ae                	c.ldsp	x1,200(x2)
    80001c4c:	640e                	c.ldsp	x8,192(x2)
    80001c4e:	74ea                	c.ldsp	x9,184(x2)
    80001c50:	794a                	c.ldsp	x18,176(x2)
    80001c52:	79aa                	c.ldsp	x19,168(x2)
    80001c54:	7a0a                	c.ldsp	x20,160(x2)
    80001c56:	6aea                	c.ldsp	x21,152(x2)
    80001c58:	6b4a                	c.ldsp	x22,144(x2)
    80001c5a:	6baa                	c.ldsp	x23,136(x2)
    80001c5c:	6c0a                	c.ldsp	x24,128(x2)
    80001c5e:	7ce6                	c.ldsp	x25,120(x2)
    80001c60:	7d46                	c.ldsp	x26,112(x2)
    80001c62:	856e                	c.mv	x10,x27
    80001c64:	7da6                	c.ldsp	x27,104(x2)
    80001c66:	6169                	c.addi16sp	x2,208
    80001c68:	8082                	c.jr	x1
    80001c6a:	872e                	c.mv	x14,x11
    80001c6c:	03f00693          	addi	x13,x0,63
    80001c70:	b575                	c.j	80001b1c <sbi_pmu_ctr_cfg_match+0x46>
    80001c72:	46bd                	c.li	x13,15
    80001c74:	0ed71963          	bne	x14,x13,80001d66 <sbi_pmu_ctr_cfg_match+0x290>
    80001c78:	004c2583          	lw	x11,4(x24)
    80001c7c:	0007871b          	addiw	x14,x15,0
    80001c80:	00f91933          	sll	x18,x18,x15
    80001c84:	02059813          	slli	x16,x11,0x20
    80001c88:	02085813          	srli	x16,x16,0x20
    80001c8c:	8dba                	c.mv	x27,x14
    80001c8e:	2707e163          	bltu	x15,x16,80001ef0 <sbi_pmu_ctr_cfg_match+0x41a>
    80001c92:	26c77b63          	bgeu	x14,x12,80001f08 <sbi_pmu_ctr_cfg_match+0x432>
    80001c96:	1502                	c.slli	x10,0x20
    80001c98:	9101                	c.srli	x10,0x20
    80001c9a:	00151793          	slli	x15,x10,0x1
    80001c9e:	97aa                	c.add	x15,x10
    80001ca0:	0792                	c.slli	x15,0x4
    80001ca2:	97ee                	c.add	x15,x27
    80001ca4:	078a                	c.slli	x15,0x2
    80001ca6:	00032817          	auipc	x16,0x32
    80001caa:	5aa80813          	addi	x16,x16,1450 # 80034250 <active_events>
    80001cae:	97c2                	c.add	x15,x16
    80001cb0:	557d                	c.li	x10,-1
    80001cb2:	a021                	c.j	80001cba <sbi_pmu_ctr_cfg_match+0x1e4>
    80001cb4:	2d85                	c.addiw	x27,1
    80001cb6:	24cdf963          	bgeu	x27,x12,80001f08 <sbi_pmu_ctr_cfg_match+0x432>
    80001cba:	4398                	c.lw	x14,0(x15)
    80001cbc:	0791                	c.addi	x15,4
    80001cbe:	fea71be3          	bne	x14,x10,80001cb4 <sbi_pmu_ctr_cfg_match+0x1de>
    80001cc2:	01b95733          	srl	x14,x18,x27
    80001cc6:	8b05                	c.andi	x14,1
    80001cc8:	d775                	c.beqz	x14,80001cb4 <sbi_pmu_ctr_cfg_match+0x1de>
    80001cca:	220dcf63          	blt	x27,x0,80001f08 <sbi_pmu_ctr_cfg_match+0x432>
    80001cce:	f6043783          	ld	x15,-160(x8)
    80001cd2:	02079593          	slli	x11,x15,0x20
    80001cd6:	9181                	c.srli	x11,0x20
    80001cd8:	00159793          	slli	x15,x11,0x1
    80001cdc:	97ae                	c.add	x15,x11
    80001cde:	0792                	c.slli	x15,0x4
    80001ce0:	97ee                	c.add	x15,x27
    80001ce2:	078a                	c.slli	x15,0x2
    80001ce4:	983e                	c.add	x16,x15
    80001ce6:	f4843783          	ld	x15,-184(x8)
    80001cea:	00f82023          	sw	x15,0(x16)
    80001cee:	f7843783          	ld	x15,-136(x8)
    80001cf2:	8b89                	c.andi	x15,2
    80001cf4:	c39d                	c.beqz	x15,80001d1a <sbi_pmu_ctr_cfg_match+0x244>
    80001cf6:	f4043683          	ld	x13,-192(x8)
    80001cfa:	00159713          	slli	x14,x11,0x1
    80001cfe:	972e                	c.add	x14,x11
    80001d00:	00169793          	slli	x15,x13,0x1
    80001d04:	97b6                	c.add	x15,x13
    80001d06:	0722                	c.slli	x14,0x8
    80001d08:	078e                	c.slli	x15,0x3
    80001d0a:	97ba                	c.add	x15,x14
    80001d0c:	0001a717          	auipc	x14,0x1a
    80001d10:	54470713          	addi	x14,x14,1348 # 8001c250 <fw_event_map>
    80001d14:	97ba                	c.add	x15,x14
    80001d16:	0007b423          	sd	x0,8(x15)
    80001d1a:	f7843783          	ld	x15,-136(x8)
    80001d1e:	0047fa13          	andi	x20,x15,4
    80001d22:	f20a04e3          	beq	x20,x0,80001c4a <sbi_pmu_ctr_cfg_match+0x174>
    80001d26:	f4043683          	ld	x13,-192(x8)
    80001d2a:	00159713          	slli	x14,x11,0x1
    80001d2e:	95ba                	c.add	x11,x14
    80001d30:	00169793          	slli	x15,x13,0x1
    80001d34:	97b6                	c.add	x15,x13
    80001d36:	078e                	c.slli	x15,0x3
    80001d38:	05a2                	c.slli	x11,0x8
    80001d3a:	0001a717          	auipc	x14,0x1a
    80001d3e:	51670713          	addi	x14,x14,1302 # 8001c250 <fw_event_map>
    80001d42:	97ae                	c.add	x15,x11
    80001d44:	97ba                	c.add	x15,x14
    80001d46:	4705                	c.li	x14,1
    80001d48:	cb98                	c.sw	x14,16(x15)
    80001d4a:	b701                	c.j	80001c4a <sbi_pmu_ctr_cfg_match+0x174>
    80001d4c:	5df5                	c.li	x27,-3
    80001d4e:	bdf5                	c.j	80001c4a <sbi_pmu_ctr_cfg_match+0x174>
    80001d50:	46ad                	c.li	x13,11
    80001d52:	bd51                	c.j	80001be6 <sbi_pmu_ctr_cfg_match+0x110>
    80001d54:	f6843703          	ld	x14,-152(x8)
    80001d58:	47bd                	c.li	x15,15
    80001d5a:	eef718e3          	bne	x14,x15,80001c4a <sbi_pmu_ctr_cfg_match+0x174>
    80001d5e:	bf41                	c.j	80001cee <sbi_pmu_ctr_cfg_match+0x218>
    80001d60:	4705                	c.li	x14,1
    80001d62:	f6e43423          	sd	x14,-152(x8)
    80001d66:	f8043423          	sd	x0,-120(x8)
    80001d6a:	f14029f3          	csrrs	x19,mhartid,x0
    80001d6e:	34002773          	csrrs	x14,mscratch,x0
    80001d72:	f4e43c23          	sd	x14,-168(x8)
    80001d76:	004c6703          	lwu	x14,4(x24)
    80001d7a:	18e7f763          	bgeu	x15,x14,80001f08 <sbi_pmu_ctr_cfg_match+0x432>
    80001d7e:	4705                	c.li	x14,1
    80001d80:	22e48463          	beq	x9,x14,80001fa8 <sbi_pmu_ctr_cfg_match+0x4d2>
    80001d84:	4709                	c.li	x14,2
    80001d86:	24e49063          	bne	x9,x14,80001fc6 <sbi_pmu_ctr_cfg_match+0x4f0>
    80001d8a:	f5843503          	ld	x10,-168(x8)
    80001d8e:	4581                	c.li	x11,0
    80001d90:	f6f43823          	sd	x15,-144(x8)
    80001d94:	640050ef          	jal	x1,800073d4 <sbi_hart_has_extension>
    80001d98:	4789                	c.li	x15,2
    80001d9a:	f2f43c23          	sd	x15,-200(x8)
    80001d9e:	4d89                	c.li	x27,2
    80001da0:	f7043783          	ld	x15,-144(x8)
    80001da4:	12050263          	beq	x10,x0,80001ec8 <sbi_pmu_ctr_cfg_match+0x3f2>
    80001da8:	f5843503          	ld	x10,-168(x8)
    80001dac:	f6f43823          	sd	x15,-144(x8)
    80001db0:	57c050ef          	jal	x1,8000732c <sbi_hart_priv_version>
    80001db4:	4705                	c.li	x14,1
    80001db6:	f7043783          	ld	x15,-144(x8)
    80001dba:	12a75f63          	bge	x14,x10,80001ef8 <sbi_pmu_ctr_cfg_match+0x422>
    80001dbe:	320026f3          	csrrs	x13,mcountinhibit,x0
    80001dc2:	000c2703          	lw	x14,0(x24)
    80001dc6:	f8d43423          	sd	x13,-120(x8)
    80001dca:	12070b63          	beq	x14,x0,80001f00 <sbi_pmu_ctr_cfg_match+0x42a>
    80001dce:	1982                	c.slli	x19,0x20
    80001dd0:	0209d993          	srli	x19,x19,0x20
    80001dd4:	00199a93          	slli	x21,x19,0x1
    80001dd8:	9ace                	c.add	x21,x19
    80001dda:	5df9                	c.li	x27,-2
    80001ddc:	00038997          	auipc	x19,0x38
    80001de0:	47498993          	addi	x19,x19,1140 # 8003a250 <hw_event_map>
    80001de4:	4b01                	c.li	x22,0
    80001de6:	f8040b93          	addi	x23,x8,-128
    80001dea:	00032a17          	auipc	x20,0x32
    80001dee:	466a0a13          	addi	x20,x20,1126 # 80034250 <active_events>
    80001df2:	0a92                	c.slli	x21,0x4
    80001df4:	0049e703          	lwu	x14,4(x19)
    80001df8:	00e4f663          	bgeu	x9,x14,80001e04 <sbi_pmu_ctr_cfg_match+0x32e>
    80001dfc:	0089e603          	lwu	x12,8(x19)
    80001e00:	02c4e563          	bltu	x9,x12,80001e2a <sbi_pmu_ctr_cfg_match+0x354>
    80001e04:	00977663          	bgeu	x14,x9,80001e10 <sbi_pmu_ctr_cfg_match+0x33a>
    80001e08:	0089e703          	lwu	x14,8(x19)
    80001e0c:	00976f63          	bltu	x14,x9,80001e2a <sbi_pmu_ctr_cfg_match+0x354>
    80001e10:	00020737          	lui	x14,0x20
    80001e14:	0ee49c63          	bne	x9,x14,80001f0c <sbi_pmu_ctr_cfg_match+0x436>
    80001e18:	0189b703          	ld	x14,24(x19)
    80001e1c:	f5043683          	ld	x13,-176(x8)
    80001e20:	0109b603          	ld	x12,16(x19)
    80001e24:	8f75                	c.and	x14,x13
    80001e26:	0ee60363          	beq	x12,x14,80001f0c <sbi_pmu_ctr_cfg_match+0x436>
    80001e2a:	000c2703          	lw	x14,0(x24)
    80001e2e:	2b05                	c.addiw	x22,1
    80001e30:	02098993          	addi	x19,x19,32
    80001e34:	fceb60e3          	bltu	x22,x14,80001df4 <sbi_pmu_ctr_cfg_match+0x31e>
    80001e38:	57f9                	c.li	x15,-2
    80001e3a:	0cfd8363          	beq	x27,x15,80001f00 <sbi_pmu_ctr_cfg_match+0x42a>
    80001e3e:	34002973          	csrrs	x18,mscratch,x0
    80001e42:	03093783          	ld	x15,48(x18)
    80001e46:	c3e9                	c.beqz	x15,80001f08 <sbi_pmu_ctr_cfg_match+0x432>
    80001e48:	6fbc                	c.ld	x15,88(x15)
    80001e4a:	6bbc                	c.ld	x15,80(x15)
    80001e4c:	cfd5                	c.beqz	x15,80001f08 <sbi_pmu_ctr_cfg_match+0x432>
    80001e4e:	f5043583          	ld	x11,-176(x8)
    80001e52:	f4843503          	ld	x10,-184(x8)
    80001e56:	9782                	c.jalr	x15
    80001e58:	84aa                	c.mv	x9,x10
    80001e5a:	c55d                	c.beqz	x10,80001f08 <sbi_pmu_ctr_cfg_match+0x432>
    80001e5c:	ffdd879b          	addiw	x15,x27,-3
    80001e60:	4771                	c.li	x14,28
    80001e62:	0af76363          	bltu	x14,x15,80001f08 <sbi_pmu_ctr_cfg_match+0x432>
    80001e66:	4581                	c.li	x11,0
    80001e68:	854a                	c.mv	x10,x18
    80001e6a:	56a050ef          	jal	x1,800073d4 <sbi_hart_has_extension>
    80001e6e:	c519                	c.beqz	x10,80001e7c <sbi_pmu_ctr_cfg_match+0x3a6>
    80001e70:	57fd                	c.li	x15,-1
    80001e72:	0107d713          	srli	x14,x15,0x10
    80001e76:	8cf9                	c.and	x9,x14
    80001e78:	17fa                	c.slli	x15,0x3e
    80001e7a:	8cdd                	c.or	x9,x15
    80001e7c:	f7843783          	ld	x15,-136(x8)
    80001e80:	8ba1                	c.andi	x15,8
    80001e82:	c781                	c.beqz	x15,80001e8a <sbi_pmu_ctr_cfg_match+0x3b4>
    80001e84:	4785                	c.li	x15,1
    80001e86:	17ea                	c.slli	x15,0x3a
    80001e88:	8cdd                	c.or	x9,x15
    80001e8a:	f7843783          	ld	x15,-136(x8)
    80001e8e:	8bc1                	c.andi	x15,16
    80001e90:	c781                	c.beqz	x15,80001e98 <sbi_pmu_ctr_cfg_match+0x3c2>
    80001e92:	4785                	c.li	x15,1
    80001e94:	17ee                	c.slli	x15,0x3b
    80001e96:	8cdd                	c.or	x9,x15
    80001e98:	f7843783          	ld	x15,-136(x8)
    80001e9c:	0207f793          	andi	x15,x15,32
    80001ea0:	c781                	c.beqz	x15,80001ea8 <sbi_pmu_ctr_cfg_match+0x3d2>
    80001ea2:	4785                	c.li	x15,1
    80001ea4:	17f2                	c.slli	x15,0x3c
    80001ea6:	8cdd                	c.or	x9,x15
    80001ea8:	f7843783          	ld	x15,-136(x8)
    80001eac:	0407f793          	andi	x15,x15,64
    80001eb0:	c781                	c.beqz	x15,80001eb8 <sbi_pmu_ctr_cfg_match+0x3e2>
    80001eb2:	4785                	c.li	x15,1
    80001eb4:	17f6                	c.slli	x15,0x3d
    80001eb6:	8cdd                	c.or	x9,x15
    80001eb8:	85a6                	c.mv	x11,x9
    80001eba:	320d851b          	addiw	x10,x27,800
    80001ebe:	3fc020ef          	jal	x1,800042ba <csr_write_num>
    80001ec2:	57fd                	c.li	x15,-1
    80001ec4:	04fd8263          	beq	x27,x15,80001f08 <sbi_pmu_ctr_cfg_match+0x432>
    80001ec8:	f6043783          	ld	x15,-160(x8)
    80001ecc:	00032717          	auipc	x14,0x32
    80001ed0:	38470713          	addi	x14,x14,900 # 80034250 <active_events>
    80001ed4:	02079593          	slli	x11,x15,0x20
    80001ed8:	9181                	c.srli	x11,0x20
    80001eda:	00159793          	slli	x15,x11,0x1
    80001ede:	97ae                	c.add	x15,x11
    80001ee0:	0792                	c.slli	x15,0x4
    80001ee2:	97ee                	c.add	x15,x27
    80001ee4:	078a                	c.slli	x15,0x2
    80001ee6:	97ba                	c.add	x15,x14
    80001ee8:	f4843703          	ld	x14,-184(x8)
    80001eec:	c398                	c.sw	x14,0(x15)
    80001eee:	bb3d                	c.j	80001c2c <sbi_pmu_ctr_cfg_match+0x156>
    80001ef0:	00058d9b          	addiw	x27,x11,0 # 20000 <_fw_start-0x7ffe0000>
    80001ef4:	872e                	c.mv	x14,x11
    80001ef6:	bb71                	c.j	80001c92 <sbi_pmu_ctr_cfg_match+0x1bc>
    80001ef8:	000c2703          	lw	x14,0(x24)
    80001efc:	ec0719e3          	bne	x14,x0,80001dce <sbi_pmu_ctr_cfg_match+0x2f8>
    80001f00:	f3843d83          	ld	x27,-200(x8)
    80001f04:	fc0dd2e3          	bge	x27,x0,80001ec8 <sbi_pmu_ctr_cfg_match+0x3f2>
    80001f08:	5df9                	c.li	x27,-2
    80001f0a:	b381                	c.j	80001c4a <sbi_pmu_ctr_cfg_match+0x174>
    80001f0c:	0009e703          	lwu	x14,0(x19)
    80001f10:	00f915b3          	sll	x11,x18,x15
    80001f14:	863e                	c.mv	x12,x15
    80001f16:	00b777b3          	and	x15,x14,x11
    80001f1a:	9be1                	c.andi	x15,-8
    80001f1c:	02000593          	addi	x11,x0,32
    80001f20:	855e                	c.mv	x10,x23
    80001f22:	f8f43023          	sd	x15,-128(x8)
    80001f26:	5df020ef          	jal	x1,80004d04 <find_next_bit>
    80001f2a:	477d                	c.li	x14,31
    80001f2c:	87aa                	c.mv	x15,x10
    80001f2e:	eea76ee3          	bltu	x14,x10,80001e2a <sbi_pmu_ctr_cfg_match+0x354>
    80001f32:	5d7d                	c.li	x26,-1
    80001f34:	4cfd                	c.li	x25,31
    80001f36:	a819                	c.j	80001f4c <sbi_pmu_ctr_cfg_match+0x476>
    80001f38:	00178613          	addi	x12,x15,1
    80001f3c:	02000593          	addi	x11,x0,32
    80001f40:	855e                	c.mv	x10,x23
    80001f42:	5c3020ef          	jal	x1,80004d04 <find_next_bit>
    80001f46:	87aa                	c.mv	x15,x10
    80001f48:	eeace1e3          	bltu	x25,x10,80001e2a <sbi_pmu_ctr_cfg_match+0x354>
    80001f4c:	00fa8733          	add	x14,x21,x15
    80001f50:	070a                	c.slli	x14,0x2
    80001f52:	9752                	c.add	x14,x20
    80001f54:	4318                	c.lw	x14,0(x14)
    80001f56:	ffa711e3          	bne	x14,x26,80001f38 <sbi_pmu_ctr_cfg_match+0x462>
    80001f5a:	f5843503          	ld	x10,-168(x8)
    80001f5e:	f6f43823          	sd	x15,-144(x8)
    80001f62:	3ca050ef          	jal	x1,8000732c <sbi_hart_priv_version>
    80001f66:	f7043783          	ld	x15,-144(x8)
    80001f6a:	4705                	c.li	x14,1
    80001f6c:	0007861b          	addiw	x12,x15,0
    80001f70:	00a75863          	bge	x14,x10,80001f80 <sbi_pmu_ctr_cfg_match+0x4aa>
    80001f74:	f8843703          	ld	x14,-120(x8)
    80001f78:	00c75733          	srl	x14,x14,x12
    80001f7c:	8b05                	c.andi	x14,1
    80001f7e:	df4d                	c.beqz	x14,80001f38 <sbi_pmu_ctr_cfg_match+0x462>
    80001f80:	8db2                	c.mv	x27,x12
    80001f82:	bf5d                	c.j	80001f38 <sbi_pmu_ctr_cfg_match+0x462>
    80001f84:	4685                	c.li	x13,1
    80001f86:	b185                	c.j	80001be6 <sbi_pmu_ctr_cfg_match+0x110>
    80001f88:	4601                	c.li	x12,0
    80001f8a:	4581                	c.li	x11,0
    80001f8c:	000d851b          	addiw	x10,x27,0
    80001f90:	d36ff0ef          	jal	x1,800014c6 <pmu_ctr_start_hw>
    80001f94:	b95d                	c.j	80001c4a <sbi_pmu_ctr_cfg_match+0x174>
    80001f96:	6505                	c.lui	x10,0x1
    80001f98:	b005051b          	addiw	x10,x10,-1280 # b00 <_fw_start-0x7ffff500>
    80001f9c:	4581                	c.li	x11,0
    80001f9e:	01b5053b          	addw	x10,x10,x27
    80001fa2:	318020ef          	jal	x1,800042ba <csr_write_num>
    80001fa6:	b961                	c.j	80001c3e <sbi_pmu_ctr_cfg_match+0x168>
    80001fa8:	f5843503          	ld	x10,-168(x8)
    80001fac:	4581                	c.li	x11,0
    80001fae:	f6f43823          	sd	x15,-144(x8)
    80001fb2:	422050ef          	jal	x1,800073d4 <sbi_hart_has_extension>
    80001fb6:	f2043c23          	sd	x0,-200(x8)
    80001fba:	f7043783          	ld	x15,-144(x8)
    80001fbe:	8daa                	c.mv	x27,x10
    80001fc0:	de0514e3          	bne	x10,x0,80001da8 <sbi_pmu_ctr_cfg_match+0x2d2>
    80001fc4:	b711                	c.j	80001ec8 <sbi_pmu_ctr_cfg_match+0x3f2>
    80001fc6:	5775                	c.li	x14,-3
    80001fc8:	f2e43c23          	sd	x14,-200(x8)
    80001fcc:	bbf1                	c.j	80001da8 <sbi_pmu_ctr_cfg_match+0x2d2>

0000000080001fce <sbi_pmu_ctr_incr_fw>:
    80001fce:	1141                	c.addi	x2,-16
    80001fd0:	e422                	c.sdsp	x8,8(x2)
    80001fd2:	0800                	c.addi4spn	x8,x2,16
    80001fd4:	f1402773          	csrrs	x14,mhartid,x0
    80001fd8:	47d5                	c.li	x15,21
    80001fda:	02a7ea63          	bltu	x15,x10,8000200e <sbi_pmu_ctr_incr_fw+0x40>
    80001fde:	2701                	c.addiw	x14,0
    80001fe0:	1502                	c.slli	x10,0x20
    80001fe2:	1702                	c.slli	x14,0x20
    80001fe4:	9101                	c.srli	x10,0x20
    80001fe6:	9301                	c.srli	x14,0x20
    80001fe8:	00151793          	slli	x15,x10,0x1
    80001fec:	00171693          	slli	x13,x14,0x1
    80001ff0:	953e                	c.add	x10,x15
    80001ff2:	9736                	c.add	x14,x13
    80001ff4:	050e                	c.slli	x10,0x3
    80001ff6:	0722                	c.slli	x14,0x8
    80001ff8:	953a                	c.add	x10,x14
    80001ffa:	0001a797          	auipc	x15,0x1a
    80001ffe:	25678793          	addi	x15,x15,598 # 8001c250 <fw_event_map>
    80002002:	97aa                	c.add	x15,x10
    80002004:	4b88                	c.lw	x10,16(x15)
    80002006:	e901                	c.bnez	x10,80002016 <sbi_pmu_ctr_incr_fw+0x48>
    80002008:	6422                	c.ldsp	x8,8(x2)
    8000200a:	0141                	c.addi	x2,16
    8000200c:	8082                	c.jr	x1
    8000200e:	6422                	c.ldsp	x8,8(x2)
    80002010:	5575                	c.li	x10,-3
    80002012:	0141                	c.addi	x2,16
    80002014:	8082                	c.jr	x1
    80002016:	6798                	c.ld	x14,8(x15)
    80002018:	4501                	c.li	x10,0
    8000201a:	0705                	c.addi	x14,1
    8000201c:	e798                	c.sd	x14,8(x15)
    8000201e:	b7ed                	c.j	80002008 <sbi_pmu_ctr_incr_fw+0x3a>

0000000080002020 <sbi_pmu_num_ctr>:
    80002020:	1141                	c.addi	x2,-16
    80002022:	e422                	c.sdsp	x8,8(x2)
    80002024:	0800                	c.addi4spn	x8,x2,16
    80002026:	6422                	c.ldsp	x8,8(x2)
    80002028:	0001a517          	auipc	x10,0x1a
    8000202c:	21c52503          	lw	x10,540(x10) # 8001c244 <num_hw_ctrs>
    80002030:	2541                	c.addiw	x10,16
    80002032:	1502                	c.slli	x10,0x20
    80002034:	9101                	c.srli	x10,0x20
    80002036:	0141                	c.addi	x2,16
    80002038:	8082                	c.jr	x1

000000008000203a <sbi_pmu_ctr_get_info>:
    8000203a:	340026f3          	csrrs	x13,mscratch,x0
    8000203e:	0001a797          	auipc	x15,0x1a
    80002042:	20278793          	addi	x15,x15,514 # 8001c240 <num_hw_events>
    80002046:	4798                	c.lw	x14,8(x15)
    80002048:	06e57c63          	bgeu	x10,x14,800020c0 <sbi_pmu_ctr_get_info+0x86>
    8000204c:	4705                	c.li	x14,1
    8000204e:	06e50963          	beq	x10,x14,800020c0 <sbi_pmu_ctr_get_info+0x86>
    80002052:	43dc                	c.lw	x15,4(x15)
    80002054:	04f57563          	bgeu	x10,x15,8000209e <sbi_pmu_ctr_get_info+0x64>
    80002058:	6705                	c.lui	x14,0x1
    8000205a:	7179                	c.addi16sp	x2,-48
    8000205c:	c007071b          	addiw	x14,x14,-1024 # c00 <_fw_start-0x7ffff400>
    80002060:	f022                	c.sdsp	x8,32(x2)
    80002062:	ec26                	c.sdsp	x9,24(x2)
    80002064:	f406                	c.sdsp	x1,40(x2)
    80002066:	1800                	c.addi4spn	x8,x2,48
    80002068:	9f29                	c.addw	x14,x10
    8000206a:	1752                	c.slli	x14,0x34
    8000206c:	ffd57793          	andi	x15,x10,-3
    80002070:	03475493          	srli	x9,x14,0x34
    80002074:	cf85                	c.beqz	x15,800020ac <sbi_pmu_ctr_get_info+0x72>
    80002076:	8536                	c.mv	x10,x13
    80002078:	fcb43c23          	sd	x11,-40(x8)
    8000207c:	196050ef          	jal	x1,80007212 <sbi_hart_mhpm_bits>
    80002080:	fff5079b          	addiw	x15,x10,-1
    80002084:	fd843583          	ld	x11,-40(x8)
    80002088:	03f7f793          	andi	x15,x15,63
    8000208c:	07b2                	c.slli	x15,0xc
    8000208e:	8fc5                	c.or	x15,x9
    80002090:	e19c                	c.sd	x15,0(x11)
    80002092:	70a2                	c.ldsp	x1,40(x2)
    80002094:	7402                	c.ldsp	x8,32(x2)
    80002096:	64e2                	c.ldsp	x9,24(x2)
    80002098:	4501                	c.li	x10,0
    8000209a:	6145                	c.addi16sp	x2,48
    8000209c:	8082                	c.jr	x1
    8000209e:	00013797          	auipc	x15,0x13
    800020a2:	5627b783          	ld	x15,1378(x15) # 80015600 <__func__.2095+0x58>
    800020a6:	e19c                	c.sd	x15,0(x11)
    800020a8:	4501                	c.li	x10,0
    800020aa:	8082                	c.jr	x1
    800020ac:	0003f7b7          	lui	x15,0x3f
    800020b0:	8fc5                	c.or	x15,x9
    800020b2:	e19c                	c.sd	x15,0(x11)
    800020b4:	70a2                	c.ldsp	x1,40(x2)
    800020b6:	7402                	c.ldsp	x8,32(x2)
    800020b8:	64e2                	c.ldsp	x9,24(x2)
    800020ba:	4501                	c.li	x10,0
    800020bc:	6145                	c.addi16sp	x2,48
    800020be:	8082                	c.jr	x1
    800020c0:	5575                	c.li	x10,-3
    800020c2:	8082                	c.jr	x1

00000000800020c4 <sbi_pmu_exit>:
    800020c4:	1101                	c.addi	x2,-32
    800020c6:	e822                	c.sdsp	x8,16(x2)
    800020c8:	e04a                	c.sdsp	x18,0(x2)
    800020ca:	ec06                	c.sdsp	x1,24(x2)
    800020cc:	e426                	c.sdsp	x9,8(x2)
    800020ce:	1000                	c.addi4spn	x8,x2,32
    800020d0:	892a                	c.mv	x18,x10
    800020d2:	f14024f3          	csrrs	x9,mhartid,x0
    800020d6:	256050ef          	jal	x1,8000732c <sbi_hart_priv_version>
    800020da:	4785                	c.li	x15,1
    800020dc:	2481                	c.addiw	x9,0
    800020de:	00a7d663          	bge	x15,x10,800020ea <sbi_pmu_exit+0x26>
    800020e2:	1782                	c.slli	x15,0x20
    800020e4:	17e1                	c.addi	x15,-8 # 3eff8 <_fw_start-0x7ffc1008>
    800020e6:	32079073          	csrrw	x0,mcountinhibit,x15
    800020ea:	854a                	c.mv	x10,x18
    800020ec:	240050ef          	jal	x1,8000732c <sbi_hart_priv_version>
    800020f0:	00a05563          	bge	x0,x10,800020fa <sbi_pmu_exit+0x36>
    800020f4:	57fd                	c.li	x15,-1
    800020f6:	30679073          	csrrw	x0,mcounteren,x15
    800020fa:	8526                	c.mv	x10,x9
    800020fc:	cc0ff0ef          	jal	x1,800015bc <pmu_reset_event_map>
    80002100:	60e2                	c.ldsp	x1,24(x2)
    80002102:	6442                	c.ldsp	x8,16(x2)
    80002104:	64a2                	c.ldsp	x9,8(x2)
    80002106:	6902                	c.ldsp	x18,0(x2)
    80002108:	6105                	c.addi16sp	x2,32
    8000210a:	8082                	c.jr	x1

000000008000210c <sbi_pmu_init>:
    8000210c:	1101                	c.addi	x2,-32
    8000210e:	e822                	c.sdsp	x8,16(x2)
    80002110:	ec06                	c.sdsp	x1,24(x2)
    80002112:	e426                	c.sdsp	x9,8(x2)
    80002114:	e04a                	c.sdsp	x18,0(x2)
    80002116:	1000                	c.addi4spn	x8,x2,32
    80002118:	f14024f3          	csrrs	x9,mhartid,x0
    8000211c:	2481                	c.addiw	x9,0
    8000211e:	c585                	c.beqz	x11,80002146 <sbi_pmu_init+0x3a>
    80002120:	791c                	c.ld	x15,48(x10)
    80002122:	892a                	c.mv	x18,x10
    80002124:	c789                	c.beqz	x15,8000212e <sbi_pmu_init+0x22>
    80002126:	6fbc                	c.ld	x15,88(x15)
    80002128:	67bc                	c.ld	x15,72(x15)
    8000212a:	c391                	c.beqz	x15,8000212e <sbi_pmu_init+0x22>
    8000212c:	9782                	c.jalr	x15
    8000212e:	854a                	c.mv	x10,x18
    80002130:	082050ef          	jal	x1,800071b2 <sbi_hart_mhpm_count>
    80002134:	0001a797          	auipc	x15,0x1a
    80002138:	10c78793          	addi	x15,x15,268 # 8001c240 <num_hw_events>
    8000213c:	0035071b          	addiw	x14,x10,3
    80002140:	254d                	c.addiw	x10,19
    80002142:	c3d8                	c.sw	x14,4(x15)
    80002144:	c788                	c.sw	x10,8(x15)
    80002146:	8526                	c.mv	x10,x9
    80002148:	1482                	c.slli	x9,0x20
    8000214a:	c72ff0ef          	jal	x1,800015bc <pmu_reset_event_map>
    8000214e:	9081                	c.srli	x9,0x20
    80002150:	00149793          	slli	x15,x9,0x1
    80002154:	94be                	c.add	x9,x15
    80002156:	00649793          	slli	x15,x9,0x6
    8000215a:	00032497          	auipc	x9,0x32
    8000215e:	0f648493          	addi	x9,x9,246 # 80034250 <active_events>
    80002162:	94be                	c.add	x9,x15
    80002164:	4785                	c.li	x15,1
    80002166:	c09c                	c.sw	x15,0(x9)
    80002168:	57fd                	c.li	x15,-1
    8000216a:	c0dc                	c.sw	x15,4(x9)
    8000216c:	4789                	c.li	x15,2
    8000216e:	c49c                	c.sw	x15,8(x9)
    80002170:	60e2                	c.ldsp	x1,24(x2)
    80002172:	6442                	c.ldsp	x8,16(x2)
    80002174:	64a2                	c.ldsp	x9,8(x2)
    80002176:	6902                	c.ldsp	x18,0(x2)
    80002178:	4501                	c.li	x10,0
    8000217a:	6105                	c.addi16sp	x2,32
    8000217c:	8082                	c.jr	x1

000000008000217e <sbi_scratch_init>:
    8000217e:	715d                	c.addi16sp	x2,-80
    80002180:	e0a2                	c.sdsp	x8,64(x2)
    80002182:	fc26                	c.sdsp	x9,56(x2)
    80002184:	f052                	c.sdsp	x20,32(x2)
    80002186:	ec56                	c.sdsp	x21,24(x2)
    80002188:	e85a                	c.sdsp	x22,16(x2)
    8000218a:	e45e                	c.sdsp	x23,8(x2)
    8000218c:	e486                	c.sdsp	x1,72(x2)
    8000218e:	f84a                	c.sdsp	x18,48(x2)
    80002190:	f44e                	c.sdsp	x19,40(x2)
    80002192:	e062                	c.sdsp	x24,0(x2)
    80002194:	0880                	c.addi4spn	x8,x2,80
    80002196:	03053903          	ld	x18,48(x10)
    8000219a:	8aaa                	c.mv	x21,x10
    8000219c:	4481                	c.li	x9,0
    8000219e:	0003ab17          	auipc	x22,0x3a
    800021a2:	0b2b0b13          	addi	x22,x22,178 # 8003c250 <hartid_to_scratch_table>
    800021a6:	00016b97          	auipc	x23,0x16
    800021aa:	e92b8b93          	addi	x23,x23,-366 # 80018038 <last_hartid_having_scratch>
    800021ae:	08000a13          	addi	x20,x0,128
    800021b2:	0004899b          	addiw	x19,x9,0
    800021b6:	854a                	c.mv	x10,x18
    800021b8:	85ce                	c.mv	x11,x19
    800021ba:	02090c63          	beq	x18,x0,800021f2 <sbi_scratch_init+0x74>
    800021be:	05092c03          	lw	x24,80(x18)
    800021c2:	99cff0ef          	jal	x1,8000135e <sbi_platform_hart_index>
    800021c6:	87aa                	c.mv	x15,x10
    800021c8:	2781                	c.addiw	x15,0
    800021ca:	85ce                	c.mv	x11,x19
    800021cc:	854a                	c.mv	x10,x18
    800021ce:	0387f263          	bgeu	x15,x24,800021f2 <sbi_scratch_init+0x74>
    800021d2:	038abc03          	ld	x24,56(x21)
    800021d6:	988ff0ef          	jal	x1,8000135e <sbi_platform_hart_index>
    800021da:	02051593          	slli	x11,x10,0x20
    800021de:	9181                	c.srli	x11,0x20
    800021e0:	8526                	c.mv	x10,x9
    800021e2:	9c02                	c.jalr	x24
    800021e4:	00349793          	slli	x15,x9,0x3
    800021e8:	97da                	c.add	x15,x22
    800021ea:	e388                	c.sd	x10,0(x15)
    800021ec:	c119                	c.beqz	x10,800021f2 <sbi_scratch_init+0x74>
    800021ee:	013ba023          	sw	x19,0(x23)
    800021f2:	0485                	c.addi	x9,1
    800021f4:	fb449fe3          	bne	x9,x20,800021b2 <sbi_scratch_init+0x34>
    800021f8:	60a6                	c.ldsp	x1,72(x2)
    800021fa:	6406                	c.ldsp	x8,64(x2)
    800021fc:	74e2                	c.ldsp	x9,56(x2)
    800021fe:	7942                	c.ldsp	x18,48(x2)
    80002200:	79a2                	c.ldsp	x19,40(x2)
    80002202:	7a02                	c.ldsp	x20,32(x2)
    80002204:	6ae2                	c.ldsp	x21,24(x2)
    80002206:	6b42                	c.ldsp	x22,16(x2)
    80002208:	6ba2                	c.ldsp	x23,8(x2)
    8000220a:	6c02                	c.ldsp	x24,0(x2)
    8000220c:	4501                	c.li	x10,0
    8000220e:	6161                	c.addi16sp	x2,80
    80002210:	8082                	c.jr	x1

0000000080002212 <sbi_scratch_alloc_offset>:
    80002212:	7139                	c.addi16sp	x2,-64
    80002214:	f822                	c.sdsp	x8,48(x2)
    80002216:	fc06                	c.sdsp	x1,56(x2)
    80002218:	f426                	c.sdsp	x9,40(x2)
    8000221a:	f04a                	c.sdsp	x18,32(x2)
    8000221c:	ec4e                	c.sdsp	x19,24(x2)
    8000221e:	e852                	c.sdsp	x20,16(x2)
    80002220:	e456                	c.sdsp	x21,8(x2)
    80002222:	0080                	c.addi4spn	x8,x2,64
    80002224:	c549                	c.beqz	x10,800022ae <sbi_scratch_alloc_offset+0x9c>
    80002226:	00757793          	andi	x15,x10,7
    8000222a:	84aa                	c.mv	x9,x10
    8000222c:	c781                	c.beqz	x15,80002234 <sbi_scratch_alloc_offset+0x22>
    8000222e:	ff857493          	andi	x9,x10,-8
    80002232:	04a1                	c.addi	x9,8
    80002234:	0003a517          	auipc	x10,0x3a
    80002238:	41c50513          	addi	x10,x10,1052 # 8003c650 <extra_lock>
    8000223c:	00016a97          	auipc	x21,0x16
    80002240:	dfca8a93          	addi	x21,x21,-516 # 80018038 <last_hartid_having_scratch>
    80002244:	013020ef          	jal	x1,80004a56 <spin_lock>
    80002248:	008aba03          	ld	x20,8(x21)
    8000224c:	6705                	c.lui	x14,0x1
    8000224e:	0003a517          	auipc	x10,0x3a
    80002252:	40250513          	addi	x10,x10,1026 # 8003c650 <extra_lock>
    80002256:	009a07b3          	add	x15,x20,x9
    8000225a:	04f76663          	bltu	x14,x15,800022a6 <sbi_scratch_alloc_offset+0x94>
    8000225e:	00fab423          	sd	x15,8(x21)
    80002262:	021020ef          	jal	x1,80004a82 <spin_unlock>
    80002266:	040a0463          	beq	x20,x0,800022ae <sbi_scratch_alloc_offset+0x9c>
    8000226a:	0003a997          	auipc	x19,0x3a
    8000226e:	fe698993          	addi	x19,x19,-26 # 8003c250 <hartid_to_scratch_table>
    80002272:	4901                	c.li	x18,0
    80002274:	0009b783          	ld	x15,0(x19)
    80002278:	2905                	c.addiw	x18,1
    8000227a:	8626                	c.mv	x12,x9
    8000227c:	4581                	c.li	x11,0
    8000227e:	01478533          	add	x10,x15,x20
    80002282:	c399                	c.beqz	x15,80002288 <sbi_scratch_alloc_offset+0x76>
    80002284:	1b6000ef          	jal	x1,8000243a <sbi_memset>
    80002288:	000aa783          	lw	x15,0(x21)
    8000228c:	09a1                	c.addi	x19,8
    8000228e:	ff27f3e3          	bgeu	x15,x18,80002274 <sbi_scratch_alloc_offset+0x62>
    80002292:	70e2                	c.ldsp	x1,56(x2)
    80002294:	7442                	c.ldsp	x8,48(x2)
    80002296:	74a2                	c.ldsp	x9,40(x2)
    80002298:	7902                	c.ldsp	x18,32(x2)
    8000229a:	69e2                	c.ldsp	x19,24(x2)
    8000229c:	6aa2                	c.ldsp	x21,8(x2)
    8000229e:	8552                	c.mv	x10,x20
    800022a0:	6a42                	c.ldsp	x20,16(x2)
    800022a2:	6121                	c.addi16sp	x2,64
    800022a4:	8082                	c.jr	x1
    800022a6:	7dc020ef          	jal	x1,80004a82 <spin_unlock>
    800022aa:	4a01                	c.li	x20,0
    800022ac:	b7dd                	c.j	80002292 <sbi_scratch_alloc_offset+0x80>
    800022ae:	4a01                	c.li	x20,0
    800022b0:	b7cd                	c.j	80002292 <sbi_scratch_alloc_offset+0x80>

00000000800022b2 <sbi_scratch_free_offset>:
    800022b2:	1141                	c.addi	x2,-16
    800022b4:	e422                	c.sdsp	x8,8(x2)
    800022b6:	0800                	c.addi4spn	x8,x2,16
    800022b8:	6422                	c.ldsp	x8,8(x2)
    800022ba:	0141                	c.addi	x2,16
    800022bc:	8082                	c.jr	x1

00000000800022be <sbi_strcmp>:
    800022be:	1141                	c.addi	x2,-16
    800022c0:	e422                	c.sdsp	x8,8(x2)
    800022c2:	0800                	c.addi4spn	x8,x2,16
    800022c4:	00054783          	lbu	x15,0(x10)
    800022c8:	0005c703          	lbu	x14,0(x11)
    800022cc:	00f70963          	beq	x14,x15,800022de <sbi_strcmp+0x20>
    800022d0:	a839                	c.j	800022ee <sbi_strcmp+0x30>
    800022d2:	00054783          	lbu	x15,0(x10)
    800022d6:	0005c703          	lbu	x14,0(x11)
    800022da:	00e79a63          	bne	x15,x14,800022ee <sbi_strcmp+0x30>
    800022de:	0505                	c.addi	x10,1
    800022e0:	0585                	c.addi	x11,1
    800022e2:	fbe5                	c.bnez	x15,800022d2 <sbi_strcmp+0x14>
    800022e4:	6422                	c.ldsp	x8,8(x2)
    800022e6:	4501                	c.li	x10,0
    800022e8:	9d19                	c.subw	x10,x14
    800022ea:	0141                	c.addi	x2,16
    800022ec:	8082                	c.jr	x1
    800022ee:	6422                	c.ldsp	x8,8(x2)
    800022f0:	0007851b          	addiw	x10,x15,0
    800022f4:	9d19                	c.subw	x10,x14
    800022f6:	0141                	c.addi	x2,16
    800022f8:	8082                	c.jr	x1

00000000800022fa <sbi_strncmp>:
    800022fa:	1141                	c.addi	x2,-16
    800022fc:	e422                	c.sdsp	x8,8(x2)
    800022fe:	0800                	c.addi4spn	x8,x2,16
    80002300:	c21d                	c.beqz	x12,80002326 <sbi_strncmp+0x2c>
    80002302:	962e                	c.add	x12,x11
    80002304:	a021                	c.j	8000230c <sbi_strncmp+0x12>
    80002306:	cb99                	c.beqz	x15,8000231c <sbi_strncmp+0x22>
    80002308:	00b60f63          	beq	x12,x11,80002326 <sbi_strncmp+0x2c>
    8000230c:	00054783          	lbu	x15,0(x10)
    80002310:	0005c703          	lbu	x14,0(x11)
    80002314:	0505                	c.addi	x10,1
    80002316:	0585                	c.addi	x11,1
    80002318:	fee787e3          	beq	x15,x14,80002306 <sbi_strncmp+0xc>
    8000231c:	6422                	c.ldsp	x8,8(x2)
    8000231e:	40e7853b          	subw	x10,x15,x14
    80002322:	0141                	c.addi	x2,16
    80002324:	8082                	c.jr	x1
    80002326:	6422                	c.ldsp	x8,8(x2)
    80002328:	4501                	c.li	x10,0
    8000232a:	0141                	c.addi	x2,16
    8000232c:	8082                	c.jr	x1

000000008000232e <sbi_strlen>:
    8000232e:	1141                	c.addi	x2,-16
    80002330:	e422                	c.sdsp	x8,8(x2)
    80002332:	0800                	c.addi4spn	x8,x2,16
    80002334:	00054783          	lbu	x15,0(x10)
    80002338:	cf81                	c.beqz	x15,80002350 <sbi_strlen+0x22>
    8000233a:	872a                	c.mv	x14,x10
    8000233c:	4501                	c.li	x10,0
    8000233e:	0505                	c.addi	x10,1
    80002340:	00a707b3          	add	x15,x14,x10
    80002344:	0007c783          	lbu	x15,0(x15)
    80002348:	fbfd                	c.bnez	x15,8000233e <sbi_strlen+0x10>
    8000234a:	6422                	c.ldsp	x8,8(x2)
    8000234c:	0141                	c.addi	x2,16
    8000234e:	8082                	c.jr	x1
    80002350:	6422                	c.ldsp	x8,8(x2)
    80002352:	4501                	c.li	x10,0
    80002354:	0141                	c.addi	x2,16
    80002356:	8082                	c.jr	x1

0000000080002358 <sbi_strnlen>:
    80002358:	1141                	c.addi	x2,-16
    8000235a:	e422                	c.sdsp	x8,8(x2)
    8000235c:	0800                	c.addi4spn	x8,x2,16
    8000235e:	00054783          	lbu	x15,0(x10)
    80002362:	c395                	c.beqz	x15,80002386 <sbi_strnlen+0x2e>
    80002364:	c18d                	c.beqz	x11,80002386 <sbi_strnlen+0x2e>
    80002366:	86aa                	c.mv	x13,x10
    80002368:	4501                	c.li	x10,0
    8000236a:	a019                	c.j	80002370 <sbi_strnlen+0x18>
    8000236c:	00e57a63          	bgeu	x10,x14,80002380 <sbi_strnlen+0x28>
    80002370:	0505                	c.addi	x10,1
    80002372:	00a687b3          	add	x15,x13,x10
    80002376:	0007c783          	lbu	x15,0(x15)
    8000237a:	40a58733          	sub	x14,x11,x10
    8000237e:	f7fd                	c.bnez	x15,8000236c <sbi_strnlen+0x14>
    80002380:	6422                	c.ldsp	x8,8(x2)
    80002382:	0141                	c.addi	x2,16
    80002384:	8082                	c.jr	x1
    80002386:	6422                	c.ldsp	x8,8(x2)
    80002388:	4501                	c.li	x10,0
    8000238a:	0141                	c.addi	x2,16
    8000238c:	8082                	c.jr	x1

000000008000238e <sbi_strcpy>:
    8000238e:	1141                	c.addi	x2,-16
    80002390:	e422                	c.sdsp	x8,8(x2)
    80002392:	0800                	c.addi4spn	x8,x2,16
    80002394:	0005c783          	lbu	x15,0(x11)
    80002398:	cb89                	c.beqz	x15,800023aa <sbi_strcpy+0x1c>
    8000239a:	872a                	c.mv	x14,x10
    8000239c:	00f70023          	sb	x15,0(x14) # 1000 <_fw_start-0x7ffff000>
    800023a0:	0015c783          	lbu	x15,1(x11)
    800023a4:	0585                	c.addi	x11,1
    800023a6:	0705                	c.addi	x14,1
    800023a8:	fbf5                	c.bnez	x15,8000239c <sbi_strcpy+0xe>
    800023aa:	6422                	c.ldsp	x8,8(x2)
    800023ac:	0141                	c.addi	x2,16
    800023ae:	8082                	c.jr	x1

00000000800023b0 <sbi_strncpy>:
    800023b0:	1141                	c.addi	x2,-16
    800023b2:	e422                	c.sdsp	x8,8(x2)
    800023b4:	0800                	c.addi4spn	x8,x2,16
    800023b6:	ce09                	c.beqz	x12,800023d0 <sbi_strncpy+0x20>
    800023b8:	962a                	c.add	x12,x10
    800023ba:	87aa                	c.mv	x15,x10
    800023bc:	a029                	c.j	800023c6 <sbi_strncpy+0x16>
    800023be:	fee78fa3          	sb	x14,-1(x15)
    800023c2:	00c78763          	beq	x15,x12,800023d0 <sbi_strncpy+0x20>
    800023c6:	0005c703          	lbu	x14,0(x11)
    800023ca:	0785                	c.addi	x15,1
    800023cc:	0585                	c.addi	x11,1
    800023ce:	fb65                	c.bnez	x14,800023be <sbi_strncpy+0xe>
    800023d0:	6422                	c.ldsp	x8,8(x2)
    800023d2:	0141                	c.addi	x2,16
    800023d4:	8082                	c.jr	x1

00000000800023d6 <sbi_strchr>:
    800023d6:	1141                	c.addi	x2,-16
    800023d8:	e422                	c.sdsp	x8,8(x2)
    800023da:	0800                	c.addi4spn	x8,x2,16
    800023dc:	00054783          	lbu	x15,0(x10)
    800023e0:	cb89                	c.beqz	x15,800023f2 <sbi_strchr+0x1c>
    800023e2:	0ff5f593          	andi	x11,x11,255
    800023e6:	00f58763          	beq	x11,x15,800023f4 <sbi_strchr+0x1e>
    800023ea:	00154783          	lbu	x15,1(x10)
    800023ee:	0505                	c.addi	x10,1
    800023f0:	fbfd                	c.bnez	x15,800023e6 <sbi_strchr+0x10>
    800023f2:	4501                	c.li	x10,0
    800023f4:	6422                	c.ldsp	x8,8(x2)
    800023f6:	0141                	c.addi	x2,16
    800023f8:	8082                	c.jr	x1

00000000800023fa <sbi_strrchr>:
    800023fa:	1141                	c.addi	x2,-16
    800023fc:	e422                	c.sdsp	x8,8(x2)
    800023fe:	0800                	c.addi4spn	x8,x2,16
    80002400:	00054783          	lbu	x15,0(x10)
    80002404:	872a                	c.mv	x14,x10
    80002406:	0ff5f593          	andi	x11,x11,255
    8000240a:	c395                	c.beqz	x15,8000242e <sbi_strrchr+0x34>
    8000240c:	4781                	c.li	x15,0
    8000240e:	0785                	c.addi	x15,1
    80002410:	00f70533          	add	x10,x14,x15
    80002414:	00054683          	lbu	x13,0(x10)
    80002418:	fafd                	c.bnez	x13,8000240e <sbi_strrchr+0x14>
    8000241a:	87b6                	c.mv	x15,x13
    8000241c:	00a77963          	bgeu	x14,x10,8000242e <sbi_strrchr+0x34>
    80002420:	00f58a63          	beq	x11,x15,80002434 <sbi_strrchr+0x3a>
    80002424:	157d                	c.addi	x10,-1
    80002426:	00054783          	lbu	x15,0(x10)
    8000242a:	fea71be3          	bne	x14,x10,80002420 <sbi_strrchr+0x26>
    8000242e:	00b78363          	beq	x15,x11,80002434 <sbi_strrchr+0x3a>
    80002432:	4501                	c.li	x10,0
    80002434:	6422                	c.ldsp	x8,8(x2)
    80002436:	0141                	c.addi	x2,16
    80002438:	8082                	c.jr	x1

000000008000243a <sbi_memset>:
    8000243a:	1141                	c.addi	x2,-16
    8000243c:	e422                	c.sdsp	x8,8(x2)
    8000243e:	0800                	c.addi4spn	x8,x2,16
    80002440:	00c50733          	add	x14,x10,x12
    80002444:	ca09                	c.beqz	x12,80002456 <sbi_memset+0x1c>
    80002446:	0ff5f593          	andi	x11,x11,255
    8000244a:	87aa                	c.mv	x15,x10
    8000244c:	0785                	c.addi	x15,1
    8000244e:	feb78fa3          	sb	x11,-1(x15)
    80002452:	fee79de3          	bne	x15,x14,8000244c <sbi_memset+0x12>
    80002456:	6422                	c.ldsp	x8,8(x2)
    80002458:	0141                	c.addi	x2,16
    8000245a:	8082                	c.jr	x1

000000008000245c <sbi_memcpy>:
    8000245c:	1141                	c.addi	x2,-16
    8000245e:	e422                	c.sdsp	x8,8(x2)
    80002460:	0800                	c.addi4spn	x8,x2,16
    80002462:	ca19                	c.beqz	x12,80002478 <sbi_memcpy+0x1c>
    80002464:	962a                	c.add	x12,x10
    80002466:	87aa                	c.mv	x15,x10
    80002468:	0005c703          	lbu	x14,0(x11)
    8000246c:	0785                	c.addi	x15,1
    8000246e:	0585                	c.addi	x11,1
    80002470:	fee78fa3          	sb	x14,-1(x15)
    80002474:	fec79ae3          	bne	x15,x12,80002468 <sbi_memcpy+0xc>
    80002478:	6422                	c.ldsp	x8,8(x2)
    8000247a:	0141                	c.addi	x2,16
    8000247c:	8082                	c.jr	x1

000000008000247e <sbi_memmove>:
    8000247e:	1141                	c.addi	x2,-16
    80002480:	e422                	c.sdsp	x8,8(x2)
    80002482:	0800                	c.addi4spn	x8,x2,16
    80002484:	00b50f63          	beq	x10,x11,800024a2 <sbi_memmove+0x24>
    80002488:	02b57063          	bgeu	x10,x11,800024a8 <sbi_memmove+0x2a>
    8000248c:	ca19                	c.beqz	x12,800024a2 <sbi_memmove+0x24>
    8000248e:	962a                	c.add	x12,x10
    80002490:	87aa                	c.mv	x15,x10
    80002492:	0005c703          	lbu	x14,0(x11)
    80002496:	0785                	c.addi	x15,1
    80002498:	0585                	c.addi	x11,1
    8000249a:	fee78fa3          	sb	x14,-1(x15)
    8000249e:	fec79ae3          	bne	x15,x12,80002492 <sbi_memmove+0x14>
    800024a2:	6422                	c.ldsp	x8,8(x2)
    800024a4:	0141                	c.addi	x2,16
    800024a6:	8082                	c.jr	x1
    800024a8:	fff60713          	addi	x14,x12,-1
    800024ac:	00e507b3          	add	x15,x10,x14
    800024b0:	95ba                	c.add	x11,x14
    800024b2:	da65                	c.beqz	x12,800024a2 <sbi_memmove+0x24>
    800024b4:	fff50693          	addi	x13,x10,-1
    800024b8:	0005c703          	lbu	x14,0(x11)
    800024bc:	17fd                	c.addi	x15,-1
    800024be:	15fd                	c.addi	x11,-1
    800024c0:	00e780a3          	sb	x14,1(x15)
    800024c4:	fef69ae3          	bne	x13,x15,800024b8 <sbi_memmove+0x3a>
    800024c8:	6422                	c.ldsp	x8,8(x2)
    800024ca:	0141                	c.addi	x2,16
    800024cc:	8082                	c.jr	x1

00000000800024ce <sbi_memcmp>:
    800024ce:	1141                	c.addi	x2,-16
    800024d0:	e422                	c.sdsp	x8,8(x2)
    800024d2:	0800                	c.addi4spn	x8,x2,16
    800024d4:	c215                	c.beqz	x12,800024f8 <sbi_memcmp+0x2a>
    800024d6:	962e                	c.add	x12,x11
    800024d8:	a019                	c.j	800024de <sbi_memcmp+0x10>
    800024da:	00c58f63          	beq	x11,x12,800024f8 <sbi_memcmp+0x2a>
    800024de:	00054783          	lbu	x15,0(x10)
    800024e2:	0005c703          	lbu	x14,0(x11)
    800024e6:	0505                	c.addi	x10,1
    800024e8:	0585                	c.addi	x11,1
    800024ea:	fee788e3          	beq	x15,x14,800024da <sbi_memcmp+0xc>
    800024ee:	6422                	c.ldsp	x8,8(x2)
    800024f0:	40e7853b          	subw	x10,x15,x14
    800024f4:	0141                	c.addi	x2,16
    800024f6:	8082                	c.jr	x1
    800024f8:	6422                	c.ldsp	x8,8(x2)
    800024fa:	4501                	c.li	x10,0
    800024fc:	0141                	c.addi	x2,16
    800024fe:	8082                	c.jr	x1

0000000080002500 <sbi_memchr>:
    80002500:	1141                	c.addi	x2,-16
    80002502:	e422                	c.sdsp	x8,8(x2)
    80002504:	0800                	c.addi4spn	x8,x2,16
    80002506:	c20d                	c.beqz	x12,80002528 <sbi_memchr+0x28>
    80002508:	87aa                	c.mv	x15,x10
    8000250a:	0ff5f593          	andi	x11,x11,255
    8000250e:	962a                	c.add	x12,x10
    80002510:	a019                	c.j	80002516 <sbi_memchr+0x16>
    80002512:	00f60b63          	beq	x12,x15,80002528 <sbi_memchr+0x28>
    80002516:	0007c703          	lbu	x14,0(x15)
    8000251a:	853e                	c.mv	x10,x15
    8000251c:	0785                	c.addi	x15,1
    8000251e:	feb71ae3          	bne	x14,x11,80002512 <sbi_memchr+0x12>
    80002522:	6422                	c.ldsp	x8,8(x2)
    80002524:	0141                	c.addi	x2,16
    80002526:	8082                	c.jr	x1
    80002528:	6422                	c.ldsp	x8,8(x2)
    8000252a:	4501                	c.li	x10,0
    8000252c:	0141                	c.addi	x2,16
    8000252e:	8082                	c.jr	x1

0000000080002530 <sbi_system_reset_get_device>:
    80002530:	7139                	c.addi16sp	x2,-64
    80002532:	f822                	c.sdsp	x8,48(x2)
    80002534:	f426                	c.sdsp	x9,40(x2)
    80002536:	e852                	c.sdsp	x20,16(x2)
    80002538:	fc06                	c.sdsp	x1,56(x2)
    8000253a:	f04a                	c.sdsp	x18,32(x2)
    8000253c:	ec4e                	c.sdsp	x19,24(x2)
    8000253e:	e456                	c.sdsp	x21,8(x2)
    80002540:	e05a                	c.sdsp	x22,0(x2)
    80002542:	0080                	c.addi4spn	x8,x2,64
    80002544:	00016a17          	auipc	x20,0x16
    80002548:	bfca0a13          	addi	x20,x20,-1028 # 80018140 <reset_devices_list>
    8000254c:	000a3483          	ld	x9,0(x20)
    80002550:	05448063          	beq	x9,x20,80002590 <sbi_system_reset_get_device+0x60>
    80002554:	892a                	c.mv	x18,x10
    80002556:	89ae                	c.mv	x19,x11
    80002558:	4a81                	c.li	x21,0
    8000255a:	4b01                	c.li	x22,0
    8000255c:	ff04b783          	ld	x15,-16(x9)
    80002560:	85ce                	c.mv	x11,x19
    80002562:	854a                	c.mv	x10,x18
    80002564:	cb81                	c.beqz	x15,80002574 <sbi_system_reset_get_device+0x44>
    80002566:	9782                	c.jalr	x15
    80002568:	c511                	c.beqz	x10,80002574 <sbi_system_reset_get_device+0x44>
    8000256a:	00aad563          	bge	x21,x10,80002574 <sbi_system_reset_get_device+0x44>
    8000256e:	fd048b13          	addi	x22,x9,-48
    80002572:	8aaa                	c.mv	x21,x10
    80002574:	6084                	c.ld	x9,0(x9)
    80002576:	ff4493e3          	bne	x9,x20,8000255c <sbi_system_reset_get_device+0x2c>
    8000257a:	70e2                	c.ldsp	x1,56(x2)
    8000257c:	7442                	c.ldsp	x8,48(x2)
    8000257e:	74a2                	c.ldsp	x9,40(x2)
    80002580:	7902                	c.ldsp	x18,32(x2)
    80002582:	69e2                	c.ldsp	x19,24(x2)
    80002584:	6a42                	c.ldsp	x20,16(x2)
    80002586:	6aa2                	c.ldsp	x21,8(x2)
    80002588:	855a                	c.mv	x10,x22
    8000258a:	6b02                	c.ldsp	x22,0(x2)
    8000258c:	6121                	c.addi16sp	x2,64
    8000258e:	8082                	c.jr	x1
    80002590:	4b01                	c.li	x22,0
    80002592:	b7e5                	c.j	8000257a <sbi_system_reset_get_device+0x4a>

0000000080002594 <sbi_system_reset_add_device>:
    80002594:	1141                	c.addi	x2,-16
    80002596:	e422                	c.sdsp	x8,8(x2)
    80002598:	0800                	c.addi4spn	x8,x2,16
    8000259a:	cd11                	c.beqz	x10,800025b6 <sbi_system_reset_add_device+0x22>
    8000259c:	711c                	c.ld	x15,32(x10)
    8000259e:	cf81                	c.beqz	x15,800025b6 <sbi_system_reset_add_device+0x22>
    800025a0:	00016797          	auipc	x15,0x16
    800025a4:	ba078793          	addi	x15,x15,-1120 # 80018140 <reset_devices_list>
    800025a8:	6398                	c.ld	x14,0(x15)
    800025aa:	03050693          	addi	x13,x10,48
    800025ae:	fd1c                	c.sd	x15,56(x10)
    800025b0:	f918                	c.sd	x14,48(x10)
    800025b2:	e394                	c.sd	x13,0(x15)
    800025b4:	e714                	c.sd	x13,8(x14)
    800025b6:	6422                	c.ldsp	x8,8(x2)
    800025b8:	0141                	c.addi	x2,16
    800025ba:	8082                	c.jr	x1

00000000800025bc <sbi_system_reset_supported>:
    800025bc:	7139                	c.addi16sp	x2,-64
    800025be:	f822                	c.sdsp	x8,48(x2)
    800025c0:	f426                	c.sdsp	x9,40(x2)
    800025c2:	e852                	c.sdsp	x20,16(x2)
    800025c4:	fc06                	c.sdsp	x1,56(x2)
    800025c6:	f04a                	c.sdsp	x18,32(x2)
    800025c8:	ec4e                	c.sdsp	x19,24(x2)
    800025ca:	e456                	c.sdsp	x21,8(x2)
    800025cc:	e05a                	c.sdsp	x22,0(x2)
    800025ce:	0080                	c.addi4spn	x8,x2,64
    800025d0:	00016a17          	auipc	x20,0x16
    800025d4:	b70a0a13          	addi	x20,x20,-1168 # 80018140 <reset_devices_list>
    800025d8:	000a3483          	ld	x9,0(x20)
    800025dc:	05448163          	beq	x9,x20,8000261e <sbi_system_reset_supported+0x62>
    800025e0:	892a                	c.mv	x18,x10
    800025e2:	89ae                	c.mv	x19,x11
    800025e4:	4b01                	c.li	x22,0
    800025e6:	4a81                	c.li	x21,0
    800025e8:	ff04b783          	ld	x15,-16(x9)
    800025ec:	85ce                	c.mv	x11,x19
    800025ee:	854a                	c.mv	x10,x18
    800025f0:	cb81                	c.beqz	x15,80002600 <sbi_system_reset_supported+0x44>
    800025f2:	9782                	c.jalr	x15
    800025f4:	c511                	c.beqz	x10,80002600 <sbi_system_reset_supported+0x44>
    800025f6:	00aad563          	bge	x21,x10,80002600 <sbi_system_reset_supported+0x44>
    800025fa:	fd048b13          	addi	x22,x9,-48
    800025fe:	8aaa                	c.mv	x21,x10
    80002600:	6084                	c.ld	x9,0(x9)
    80002602:	ff4493e3          	bne	x9,x20,800025e8 <sbi_system_reset_supported+0x2c>
    80002606:	01603533          	sltu	x10,x0,x22
    8000260a:	70e2                	c.ldsp	x1,56(x2)
    8000260c:	7442                	c.ldsp	x8,48(x2)
    8000260e:	74a2                	c.ldsp	x9,40(x2)
    80002610:	7902                	c.ldsp	x18,32(x2)
    80002612:	69e2                	c.ldsp	x19,24(x2)
    80002614:	6a42                	c.ldsp	x20,16(x2)
    80002616:	6aa2                	c.ldsp	x21,8(x2)
    80002618:	6b02                	c.ldsp	x22,0(x2)
    8000261a:	6121                	c.addi16sp	x2,64
    8000261c:	8082                	c.jr	x1
    8000261e:	4501                	c.li	x10,0
    80002620:	b7ed                	c.j	8000260a <sbi_system_reset_supported+0x4e>

0000000080002622 <sbi_system_reset>:
    80002622:	7159                	c.addi16sp	x2,-112
    80002624:	f0a2                	c.sdsp	x8,96(x2)
    80002626:	fc56                	c.sdsp	x21,56(x2)
    80002628:	f85a                	c.sdsp	x22,48(x2)
    8000262a:	f486                	c.sdsp	x1,104(x2)
    8000262c:	eca6                	c.sdsp	x9,88(x2)
    8000262e:	e8ca                	c.sdsp	x18,80(x2)
    80002630:	e4ce                	c.sdsp	x19,72(x2)
    80002632:	e0d2                	c.sdsp	x20,64(x2)
    80002634:	f45e                	c.sdsp	x23,40(x2)
    80002636:	f062                	c.sdsp	x24,32(x2)
    80002638:	ec66                	c.sdsp	x25,24(x2)
    8000263a:	1880                	c.addi4spn	x8,x2,112
    8000263c:	8aaa                	c.mv	x21,x10
    8000263e:	8b2e                	c.mv	x22,x11
    80002640:	f1402973          	csrrs	x18,mhartid,x0
    80002644:	00090c1b          	addiw	x24,x18,0
    80002648:	f14027f3          	csrrs	x15,mhartid,x0
    8000264c:	1782                	c.slli	x15,0x20
    8000264e:	00017717          	auipc	x14,0x17
    80002652:	cc273703          	ld	x14,-830(x14) # 80019310 <_GLOBAL_OFFSET_TABLE_+0x80>
    80002656:	83f5                	c.srli	x15,0x1d
    80002658:	97ba                	c.add	x15,x14
    8000265a:	0007b983          	ld	x19,0(x15)
    8000265e:	34002cf3          	csrrs	x25,mscratch,x0
    80002662:	4481                	c.li	x9,0
    80002664:	f9840a13          	addi	x20,x8,-104
    80002668:	1902                	c.slli	x18,0x20
    8000266a:	8652                	c.mv	x12,x20
    8000266c:	85a6                	c.mv	x11,x9
    8000266e:	854e                	c.mv	x10,x19
    80002670:	02095913          	srli	x18,x18,0x20
    80002674:	4b85                	c.li	x23,1
    80002676:	174070ef          	jal	x1,800097ea <sbi_hsm_hart_interruptible_mask>
    8000267a:	e51d                	c.bnez	x10,800026a8 <sbi_system_reset+0x86>
    8000267c:	f9843503          	ld	x10,-104(x8)
    80002680:	00996b63          	bltu	x18,x9,80002696 <sbi_system_reset+0x74>
    80002684:	409c07bb          	subw	x15,x24,x9
    80002688:	00fb97b3          	sll	x15,x23,x15
    8000268c:	fff7c793          	xori	x15,x15,-1
    80002690:	8d7d                	c.and	x10,x15
    80002692:	f8a43c23          	sd	x10,-104(x8)
    80002696:	e13d                	c.bnez	x10,800026fc <sbi_system_reset+0xda>
    80002698:	04048493          	addi	x9,x9,64
    8000269c:	8652                	c.mv	x12,x20
    8000269e:	85a6                	c.mv	x11,x9
    800026a0:	854e                	c.mv	x10,x19
    800026a2:	148070ef          	jal	x1,800097ea <sbi_hsm_hart_interruptible_mask>
    800026a6:	d979                	c.beqz	x10,8000267c <sbi_system_reset+0x5a>
    800026a8:	4581                	c.li	x11,0
    800026aa:	8566                	c.mv	x10,x25
    800026ac:	430070ef          	jal	x1,80009adc <sbi_hsm_hart_stop>
    800026b0:	0889a783          	lw	x15,136(x19)
    800026b4:	c3a9                	c.beqz	x15,800026f6 <sbi_system_reset+0xd4>
    800026b6:	00016917          	auipc	x18,0x16
    800026ba:	a8a90913          	addi	x18,x18,-1398 # 80018140 <reset_devices_list>
    800026be:	00093483          	ld	x9,0(x18)
    800026c2:	03248a63          	beq	x9,x18,800026f6 <sbi_system_reset+0xd4>
    800026c6:	4a01                	c.li	x20,0
    800026c8:	4981                	c.li	x19,0
    800026ca:	ff04b783          	ld	x15,-16(x9)
    800026ce:	cb91                	c.beqz	x15,800026e2 <sbi_system_reset+0xc0>
    800026d0:	85da                	c.mv	x11,x22
    800026d2:	8556                	c.mv	x10,x21
    800026d4:	9782                	c.jalr	x15
    800026d6:	c511                	c.beqz	x10,800026e2 <sbi_system_reset+0xc0>
    800026d8:	00a9d563          	bge	x19,x10,800026e2 <sbi_system_reset+0xc0>
    800026dc:	fd048a13          	addi	x20,x9,-48
    800026e0:	89aa                	c.mv	x19,x10
    800026e2:	6084                	c.ld	x9,0(x9)
    800026e4:	ff2493e3          	bne	x9,x18,800026ca <sbi_system_reset+0xa8>
    800026e8:	000a0763          	beq	x20,x0,800026f6 <sbi_system_reset+0xd4>
    800026ec:	028a3783          	ld	x15,40(x20)
    800026f0:	85da                	c.mv	x11,x22
    800026f2:	8556                	c.mv	x10,x21
    800026f4:	9782                	c.jalr	x15
    800026f6:	8566                	c.mv	x10,x25
    800026f8:	e0afe0ef          	jal	x1,80000d02 <sbi_exit>
    800026fc:	85a6                	c.mv	x11,x9
    800026fe:	8e3fe0ef          	jal	x1,80000fe0 <sbi_ipi_send_halt>
    80002702:	04048493          	addi	x9,x9,64
    80002706:	bf59                	c.j	8000269c <sbi_system_reset+0x7a>

0000000080002708 <get_ticks>:
    80002708:	1141                	c.addi	x2,-16
    8000270a:	e422                	c.sdsp	x8,8(x2)
    8000270c:	0800                	c.addi4spn	x8,x2,16
    8000270e:	c0102573          	csrrs	x10,time,x0
    80002712:	6422                	c.ldsp	x8,8(x2)
    80002714:	0141                	c.addi	x2,16
    80002716:	8082                	c.jr	x1

0000000080002718 <nop_delay_fn>:
    80002718:	1141                	c.addi	x2,-16
    8000271a:	e422                	c.sdsp	x8,8(x2)
    8000271c:	0800                	c.addi4spn	x8,x2,16
    8000271e:	6422                	c.ldsp	x8,8(x2)
    80002720:	0141                	c.addi	x2,16
    80002722:	8082                	c.jr	x1

0000000080002724 <sbi_timer_delay_loop>:
    80002724:	7139                	c.addi16sp	x2,-64
    80002726:	f822                	c.sdsp	x8,48(x2)
    80002728:	ec4e                	c.sdsp	x19,24(x2)
    8000272a:	fc06                	c.sdsp	x1,56(x2)
    8000272c:	f426                	c.sdsp	x9,40(x2)
    8000272e:	f04a                	c.sdsp	x18,32(x2)
    80002730:	e852                	c.sdsp	x20,16(x2)
    80002732:	e456                	c.sdsp	x21,8(x2)
    80002734:	e05a                	c.sdsp	x22,0(x2)
    80002736:	0080                	c.addi4spn	x8,x2,64
    80002738:	0003a997          	auipc	x19,0x3a
    8000273c:	f2098993          	addi	x19,x19,-224 # 8003c658 <timer_dev>
    80002740:	0009b783          	ld	x15,0(x19)
    80002744:	c7b9                	c.beqz	x15,80002792 <sbi_timer_delay_loop+0x6e>
    80002746:	0089b783          	ld	x15,8(x19)
    8000274a:	c7a1                	c.beqz	x15,80002792 <sbi_timer_delay_loop+0x6e>
    8000274c:	892a                	c.mv	x18,x10
    8000274e:	84ae                	c.mv	x9,x11
    80002750:	8a32                	c.mv	x20,x12
    80002752:	8ab6                	c.mv	x21,x13
    80002754:	9782                	c.jalr	x15
    80002756:	0009b783          	ld	x15,0(x19)
    8000275a:	8b2a                	c.mv	x22,x10
    8000275c:	7388                	c.ld	x10,32(x15)
    8000275e:	02a90933          	mul	x18,x18,x10
    80002762:	029954b3          	divu	x9,x18,x9
    80002766:	000a1463          	bne	x20,x0,8000276e <sbi_timer_delay_loop+0x4a>
    8000276a:	a83d                	c.j	800027a8 <sbi_timer_delay_loop+0x84>
    8000276c:	9a02                	c.jalr	x20
    8000276e:	0089b783          	ld	x15,8(x19)
    80002772:	9782                	c.jalr	x15
    80002774:	416507b3          	sub	x15,x10,x22
    80002778:	8556                	c.mv	x10,x21
    8000277a:	fe97e9e3          	bltu	x15,x9,8000276c <sbi_timer_delay_loop+0x48>
    8000277e:	70e2                	c.ldsp	x1,56(x2)
    80002780:	7442                	c.ldsp	x8,48(x2)
    80002782:	74a2                	c.ldsp	x9,40(x2)
    80002784:	7902                	c.ldsp	x18,32(x2)
    80002786:	69e2                	c.ldsp	x19,24(x2)
    80002788:	6a42                	c.ldsp	x20,16(x2)
    8000278a:	6aa2                	c.ldsp	x21,8(x2)
    8000278c:	6b02                	c.ldsp	x22,0(x2)
    8000278e:	6121                	c.addi16sp	x2,64
    80002790:	8082                	c.jr	x1
    80002792:	00013597          	auipc	x11,0x13
    80002796:	e9e58593          	addi	x11,x11,-354 # 80015630 <__func__.1667>
    8000279a:	00013517          	auipc	x10,0x13
    8000279e:	e6e50513          	addi	x10,x10,-402 # 80015608 <__func__.2095+0x60>
    800027a2:	5df020ef          	jal	x1,80005580 <sbi_printf>
    800027a6:	bfe1                	c.j	8000277e <sbi_timer_delay_loop+0x5a>
    800027a8:	00000a17          	auipc	x20,0x0
    800027ac:	f70a0a13          	addi	x20,x20,-144 # 80002718 <nop_delay_fn>
    800027b0:	bf7d                	c.j	8000276e <sbi_timer_delay_loop+0x4a>

00000000800027b2 <sbi_timer_waitms_until>:
    800027b2:	7139                	c.addi16sp	x2,-64
    800027b4:	f822                	c.sdsp	x8,48(x2)
    800027b6:	f426                	c.sdsp	x9,40(x2)
    800027b8:	ec4e                	c.sdsp	x19,24(x2)
    800027ba:	e852                	c.sdsp	x20,16(x2)
    800027bc:	e456                	c.sdsp	x21,8(x2)
    800027be:	e05a                	c.sdsp	x22,0(x2)
    800027c0:	fc06                	c.sdsp	x1,56(x2)
    800027c2:	f04a                	c.sdsp	x18,32(x2)
    800027c4:	0080                	c.addi4spn	x8,x2,64
    800027c6:	0003aa97          	auipc	x21,0x3a
    800027ca:	e92a8a93          	addi	x21,x21,-366 # 8003c658 <timer_dev>
    800027ce:	008ab783          	ld	x15,8(x21)
    800027d2:	89aa                	c.mv	x19,x10
    800027d4:	8a2e                	c.mv	x20,x11
    800027d6:	84b2                	c.mv	x9,x12
    800027d8:	4b01                	c.li	x22,0
    800027da:	c399                	c.beqz	x15,800027e0 <sbi_timer_waitms_until+0x2e>
    800027dc:	9782                	c.jalr	x15
    800027de:	8b2a                	c.mv	x22,x10
    800027e0:	000ab783          	ld	x15,0(x21)
    800027e4:	0207b903          	ld	x18,32(x15)
    800027e8:	3e800793          	addi	x15,x0,1000
    800027ec:	02f95933          	divu	x18,x18,x15
    800027f0:	02990933          	mul	x18,x18,x9
    800027f4:	a819                	c.j	8000280a <sbi_timer_waitms_until+0x58>
    800027f6:	008ab703          	ld	x14,8(x21)
    800027fa:	4781                	c.li	x15,0
    800027fc:	c319                	c.beqz	x14,80002802 <sbi_timer_waitms_until+0x50>
    800027fe:	9702                	c.jalr	x14
    80002800:	87aa                	c.mv	x15,x10
    80002802:	416787b3          	sub	x15,x15,x22
    80002806:	0127f763          	bgeu	x15,x18,80002814 <sbi_timer_waitms_until+0x62>
    8000280a:	8552                	c.mv	x10,x20
    8000280c:	9982                	c.jalr	x19
    8000280e:	84aa                	c.mv	x9,x10
    80002810:	d17d                	c.beqz	x10,800027f6 <sbi_timer_waitms_until+0x44>
    80002812:	4485                	c.li	x9,1
    80002814:	70e2                	c.ldsp	x1,56(x2)
    80002816:	7442                	c.ldsp	x8,48(x2)
    80002818:	7902                	c.ldsp	x18,32(x2)
    8000281a:	69e2                	c.ldsp	x19,24(x2)
    8000281c:	6a42                	c.ldsp	x20,16(x2)
    8000281e:	6aa2                	c.ldsp	x21,8(x2)
    80002820:	6b02                	c.ldsp	x22,0(x2)
    80002822:	8526                	c.mv	x10,x9
    80002824:	74a2                	c.ldsp	x9,40(x2)
    80002826:	6121                	c.addi16sp	x2,64
    80002828:	8082                	c.jr	x1

000000008000282a <sbi_timer_value>:
    8000282a:	0003a797          	auipc	x15,0x3a
    8000282e:	e367b783          	ld	x15,-458(x15) # 8003c660 <get_time_val>
    80002832:	cb91                	c.beqz	x15,80002846 <sbi_timer_value+0x1c>
    80002834:	1141                	c.addi	x2,-16
    80002836:	e022                	c.sdsp	x8,0(x2)
    80002838:	e406                	c.sdsp	x1,8(x2)
    8000283a:	0800                	c.addi4spn	x8,x2,16
    8000283c:	9782                	c.jalr	x15
    8000283e:	60a2                	c.ldsp	x1,8(x2)
    80002840:	6402                	c.ldsp	x8,0(x2)
    80002842:	0141                	c.addi	x2,16
    80002844:	8082                	c.jr	x1
    80002846:	4501                	c.li	x10,0
    80002848:	8082                	c.jr	x1

000000008000284a <sbi_timer_virt_value>:
    8000284a:	1101                	c.addi	x2,-32
    8000284c:	e822                	c.sdsp	x8,16(x2)
    8000284e:	ec06                	c.sdsp	x1,24(x2)
    80002850:	e426                	c.sdsp	x9,8(x2)
    80002852:	1000                	c.addi4spn	x8,x2,32
    80002854:	340024f3          	csrrs	x9,mscratch,x0
    80002858:	0003a797          	auipc	x15,0x3a
    8000285c:	e0078793          	addi	x15,x15,-512 # 8003c658 <timer_dev>
    80002860:	6b98                	c.ld	x14,16(x15)
    80002862:	679c                	c.ld	x15,8(x15)
    80002864:	4501                	c.li	x10,0
    80002866:	94ba                	c.add	x9,x14
    80002868:	c391                	c.beqz	x15,8000286c <sbi_timer_virt_value+0x22>
    8000286a:	9782                	c.jalr	x15
    8000286c:	609c                	c.ld	x15,0(x9)
    8000286e:	60e2                	c.ldsp	x1,24(x2)
    80002870:	6442                	c.ldsp	x8,16(x2)
    80002872:	64a2                	c.ldsp	x9,8(x2)
    80002874:	953e                	c.add	x10,x15
    80002876:	6105                	c.addi16sp	x2,32
    80002878:	8082                	c.jr	x1

000000008000287a <sbi_timer_get_delta>:
    8000287a:	1141                	c.addi	x2,-16
    8000287c:	e422                	c.sdsp	x8,8(x2)
    8000287e:	0800                	c.addi4spn	x8,x2,16
    80002880:	34002773          	csrrs	x14,mscratch,x0
    80002884:	6422                	c.ldsp	x8,8(x2)
    80002886:	0003a797          	auipc	x15,0x3a
    8000288a:	de27b783          	ld	x15,-542(x15) # 8003c668 <time_delta_off>
    8000288e:	97ba                	c.add	x15,x14
    80002890:	6388                	c.ld	x10,0(x15)
    80002892:	0141                	c.addi	x2,16
    80002894:	8082                	c.jr	x1

0000000080002896 <sbi_timer_set_delta>:
    80002896:	1141                	c.addi	x2,-16
    80002898:	e422                	c.sdsp	x8,8(x2)
    8000289a:	0800                	c.addi4spn	x8,x2,16
    8000289c:	34002773          	csrrs	x14,mscratch,x0
    800028a0:	0003a797          	auipc	x15,0x3a
    800028a4:	dc87b783          	ld	x15,-568(x15) # 8003c668 <time_delta_off>
    800028a8:	97ba                	c.add	x15,x14
    800028aa:	e388                	c.sd	x10,0(x15)
    800028ac:	6422                	c.ldsp	x8,8(x2)
    800028ae:	0141                	c.addi	x2,16
    800028b0:	8082                	c.jr	x1

00000000800028b2 <sbi_timer_set_delta_upper>:
    800028b2:	1141                	c.addi	x2,-16
    800028b4:	e422                	c.sdsp	x8,8(x2)
    800028b6:	0800                	c.addi4spn	x8,x2,16
    800028b8:	340027f3          	csrrs	x15,mscratch,x0
    800028bc:	0003a717          	auipc	x14,0x3a
    800028c0:	dac73703          	ld	x14,-596(x14) # 8003c668 <time_delta_off>
    800028c4:	97ba                	c.add	x15,x14
    800028c6:	c3c8                	c.sw	x10,4(x15)
    800028c8:	6422                	c.ldsp	x8,8(x2)
    800028ca:	0141                	c.addi	x2,16
    800028cc:	8082                	c.jr	x1

00000000800028ce <sbi_timer_event_start>:
    800028ce:	1101                	c.addi	x2,-32
    800028d0:	e822                	c.sdsp	x8,16(x2)
    800028d2:	e426                	c.sdsp	x9,8(x2)
    800028d4:	ec06                	c.sdsp	x1,24(x2)
    800028d6:	1000                	c.addi4spn	x8,x2,32
    800028d8:	84aa                	c.mv	x9,x10
    800028da:	4515                	c.li	x10,5
    800028dc:	ef2ff0ef          	jal	x1,80001fce <sbi_pmu_ctr_incr_fw>
    800028e0:	34002573          	csrrs	x10,mscratch,x0
    800028e4:	4591                	c.li	x11,4
    800028e6:	2ef040ef          	jal	x1,800073d4 <sbi_hart_has_extension>
    800028ea:	cd01                	c.beqz	x10,80002902 <sbi_timer_event_start+0x34>
    800028ec:	14d49073          	csrrw	x0,stimecmp,x9
    800028f0:	08000793          	addi	x15,x0,128
    800028f4:	3047a073          	csrrs	x0,mie,x15
    800028f8:	60e2                	c.ldsp	x1,24(x2)
    800028fa:	6442                	c.ldsp	x8,16(x2)
    800028fc:	64a2                	c.ldsp	x9,8(x2)
    800028fe:	6105                	c.addi16sp	x2,32
    80002900:	8082                	c.jr	x1
    80002902:	0003a797          	auipc	x15,0x3a
    80002906:	d567b783          	ld	x15,-682(x15) # 8003c658 <timer_dev>
    8000290a:	d3fd                	c.beqz	x15,800028f0 <sbi_timer_event_start+0x22>
    8000290c:	7b9c                	c.ld	x15,48(x15)
    8000290e:	d3ed                	c.beqz	x15,800028f0 <sbi_timer_event_start+0x22>
    80002910:	8526                	c.mv	x10,x9
    80002912:	9782                	c.jalr	x15
    80002914:	02000793          	addi	x15,x0,32
    80002918:	3447b073          	csrrc	x0,mip,x15
    8000291c:	08000793          	addi	x15,x0,128
    80002920:	3047a073          	csrrs	x0,mie,x15
    80002924:	60e2                	c.ldsp	x1,24(x2)
    80002926:	6442                	c.ldsp	x8,16(x2)
    80002928:	64a2                	c.ldsp	x9,8(x2)
    8000292a:	6105                	c.addi16sp	x2,32
    8000292c:	8082                	c.jr	x1

000000008000292e <sbi_timer_process>:
    8000292e:	1141                	c.addi	x2,-16
    80002930:	e022                	c.sdsp	x8,0(x2)
    80002932:	e406                	c.sdsp	x1,8(x2)
    80002934:	0800                	c.addi4spn	x8,x2,16
    80002936:	08000793          	addi	x15,x0,128
    8000293a:	3047b073          	csrrc	x0,mie,x15
    8000293e:	34002573          	csrrs	x10,mscratch,x0
    80002942:	4591                	c.li	x11,4
    80002944:	291040ef          	jal	x1,800073d4 <sbi_hart_has_extension>
    80002948:	e509                	c.bnez	x10,80002952 <sbi_timer_process+0x24>
    8000294a:	02000793          	addi	x15,x0,32
    8000294e:	3447a073          	csrrs	x0,mip,x15
    80002952:	60a2                	c.ldsp	x1,8(x2)
    80002954:	6402                	c.ldsp	x8,0(x2)
    80002956:	0141                	c.addi	x2,16
    80002958:	8082                	c.jr	x1

000000008000295a <sbi_timer_get_device>:
    8000295a:	1141                	c.addi	x2,-16
    8000295c:	e422                	c.sdsp	x8,8(x2)
    8000295e:	0800                	c.addi4spn	x8,x2,16
    80002960:	6422                	c.ldsp	x8,8(x2)
    80002962:	0003a517          	auipc	x10,0x3a
    80002966:	cf653503          	ld	x10,-778(x10) # 8003c658 <timer_dev>
    8000296a:	0141                	c.addi	x2,16
    8000296c:	8082                	c.jr	x1

000000008000296e <sbi_timer_set_device>:
    8000296e:	1141                	c.addi	x2,-16
    80002970:	e422                	c.sdsp	x8,8(x2)
    80002972:	0800                	c.addi4spn	x8,x2,16
    80002974:	c519                	c.beqz	x10,80002982 <sbi_timer_set_device+0x14>
    80002976:	0003a797          	auipc	x15,0x3a
    8000297a:	ce278793          	addi	x15,x15,-798 # 8003c658 <timer_dev>
    8000297e:	6398                	c.ld	x14,0(x15)
    80002980:	c701                	c.beqz	x14,80002988 <sbi_timer_set_device+0x1a>
    80002982:	6422                	c.ldsp	x8,8(x2)
    80002984:	0141                	c.addi	x2,16
    80002986:	8082                	c.jr	x1
    80002988:	6798                	c.ld	x14,8(x15)
    8000298a:	e388                	c.sd	x10,0(x15)
    8000298c:	fb7d                	c.bnez	x14,80002982 <sbi_timer_set_device+0x14>
    8000298e:	7518                	c.ld	x14,40(x10)
    80002990:	db6d                	c.beqz	x14,80002982 <sbi_timer_set_device+0x14>
    80002992:	e798                	c.sd	x14,8(x15)
    80002994:	b7fd                	c.j	80002982 <sbi_timer_set_device+0x14>

0000000080002996 <sbi_timer_init>:
    80002996:	7179                	c.addi16sp	x2,-48
    80002998:	f022                	c.sdsp	x8,32(x2)
    8000299a:	ec26                	c.sdsp	x9,24(x2)
    8000299c:	e84a                	c.sdsp	x18,16(x2)
    8000299e:	f406                	c.sdsp	x1,40(x2)
    800029a0:	e44e                	c.sdsp	x19,8(x2)
    800029a2:	e052                	c.sdsp	x20,0(x2)
    800029a4:	1800                	c.addi4spn	x8,x2,48
    800029a6:	03053983          	ld	x19,48(x10)
    800029aa:	84aa                	c.mv	x9,x10
    800029ac:	892e                	c.mv	x18,x11
    800029ae:	e995                	c.bnez	x11,800029e2 <sbi_timer_init+0x4c>
    800029b0:	0003a517          	auipc	x10,0x3a
    800029b4:	cb853503          	ld	x10,-840(x10) # 8003c668 <time_delta_off>
    800029b8:	c125                	c.beqz	x10,80002a18 <sbi_timer_init+0x82>
    800029ba:	94aa                	c.add	x9,x10
    800029bc:	0004b023          	sd	x0,0(x9)
    800029c0:	4501                	c.li	x10,0
    800029c2:	00098863          	beq	x19,x0,800029d2 <sbi_timer_init+0x3c>
    800029c6:	0589b783          	ld	x15,88(x19)
    800029ca:	67dc                	c.ld	x15,136(x15)
    800029cc:	c399                	c.beqz	x15,800029d2 <sbi_timer_init+0x3c>
    800029ce:	854a                	c.mv	x10,x18
    800029d0:	9782                	c.jalr	x15
    800029d2:	70a2                	c.ldsp	x1,40(x2)
    800029d4:	7402                	c.ldsp	x8,32(x2)
    800029d6:	64e2                	c.ldsp	x9,24(x2)
    800029d8:	6942                	c.ldsp	x18,16(x2)
    800029da:	69a2                	c.ldsp	x19,8(x2)
    800029dc:	6a02                	c.ldsp	x20,0(x2)
    800029de:	6145                	c.addi16sp	x2,48
    800029e0:	8082                	c.jr	x1
    800029e2:	4521                	c.li	x10,8
    800029e4:	82fff0ef          	jal	x1,80002212 <sbi_scratch_alloc_offset>
    800029e8:	0003aa17          	auipc	x20,0x3a
    800029ec:	c70a0a13          	addi	x20,x20,-912 # 8003c658 <timer_dev>
    800029f0:	00aa3823          	sd	x10,16(x20)
    800029f4:	c115                	c.beqz	x10,80002a18 <sbi_timer_init+0x82>
    800029f6:	4585                	c.li	x11,1
    800029f8:	8526                	c.mv	x10,x9
    800029fa:	1db040ef          	jal	x1,800073d4 <sbi_hart_has_extension>
    800029fe:	c911                	c.beqz	x10,80002a12 <sbi_timer_init+0x7c>
    80002a00:	00000797          	auipc	x15,0x0
    80002a04:	d0878793          	addi	x15,x15,-760 # 80002708 <get_ticks>
    80002a08:	010a3503          	ld	x10,16(x20)
    80002a0c:	00fa3423          	sd	x15,8(x20)
    80002a10:	b76d                	c.j	800029ba <sbi_timer_init+0x24>
    80002a12:	010a3503          	ld	x10,16(x20)
    80002a16:	b755                	c.j	800029ba <sbi_timer_init+0x24>
    80002a18:	c1200513          	addi	x10,x0,-1006
    80002a1c:	bf5d                	c.j	800029d2 <sbi_timer_init+0x3c>

0000000080002a1e <sbi_timer_exit>:
    80002a1e:	1101                	c.addi	x2,-32
    80002a20:	e822                	c.sdsp	x8,16(x2)
    80002a22:	e426                	c.sdsp	x9,8(x2)
    80002a24:	ec06                	c.sdsp	x1,24(x2)
    80002a26:	1000                	c.addi4spn	x8,x2,32
    80002a28:	0003a797          	auipc	x15,0x3a
    80002a2c:	c307b783          	ld	x15,-976(x15) # 8003c658 <timer_dev>
    80002a30:	84aa                	c.mv	x9,x10
    80002a32:	c781                	c.beqz	x15,80002a3a <sbi_timer_exit+0x1c>
    80002a34:	7f9c                	c.ld	x15,56(x15)
    80002a36:	c391                	c.beqz	x15,80002a3a <sbi_timer_exit+0x1c>
    80002a38:	9782                	c.jalr	x15
    80002a3a:	02000793          	addi	x15,x0,32
    80002a3e:	3447b073          	csrrc	x0,mip,x15
    80002a42:	08000793          	addi	x15,x0,128
    80002a46:	3047b073          	csrrc	x0,mie,x15
    80002a4a:	789c                	c.ld	x15,48(x9)
    80002a4c:	c789                	c.beqz	x15,80002a56 <sbi_timer_exit+0x38>
    80002a4e:	6fbc                	c.ld	x15,88(x15)
    80002a50:	6bdc                	c.ld	x15,144(x15)
    80002a52:	c391                	c.beqz	x15,80002a56 <sbi_timer_exit+0x38>
    80002a54:	9782                	c.jalr	x15
    80002a56:	60e2                	c.ldsp	x1,24(x2)
    80002a58:	6442                	c.ldsp	x8,16(x2)
    80002a5a:	64a2                	c.ldsp	x9,8(x2)
    80002a5c:	6105                	c.addi16sp	x2,32
    80002a5e:	8082                	c.jr	x1

0000000080002a60 <sbi_tlb_local_sfence_vma>:
    80002a60:	1101                	c.addi	x2,-32
    80002a62:	e822                	c.sdsp	x8,16(x2)
    80002a64:	ec06                	c.sdsp	x1,24(x2)
    80002a66:	e426                	c.sdsp	x9,8(x2)
    80002a68:	e04a                	c.sdsp	x18,0(x2)
    80002a6a:	1000                	c.addi4spn	x8,x2,32
    80002a6c:	00053903          	ld	x18,0(x10)
    80002a70:	6504                	c.ld	x9,8(x10)
    80002a72:	452d                	c.li	x10,11
    80002a74:	d5aff0ef          	jal	x1,80001fce <sbi_pmu_ctr_incr_fw>
    80002a78:	009967b3          	or	x15,x18,x9
    80002a7c:	c785                	c.beqz	x15,80002aa4 <sbi_tlb_local_sfence_vma+0x44>
    80002a7e:	57fd                	c.li	x15,-1
    80002a80:	02f48263          	beq	x9,x15,80002aa4 <sbi_tlb_local_sfence_vma+0x44>
    80002a84:	4781                	c.li	x15,0
    80002a86:	6685                	c.lui	x13,0x1
    80002a88:	c881                	c.beqz	x9,80002a98 <sbi_tlb_local_sfence_vma+0x38>
    80002a8a:	00f90733          	add	x14,x18,x15
    80002a8e:	12070073          	sfence.vma	x14,x0
    80002a92:	97b6                	c.add	x15,x13
    80002a94:	fe97ebe3          	bltu	x15,x9,80002a8a <sbi_tlb_local_sfence_vma+0x2a>
    80002a98:	60e2                	c.ldsp	x1,24(x2)
    80002a9a:	6442                	c.ldsp	x8,16(x2)
    80002a9c:	64a2                	c.ldsp	x9,8(x2)
    80002a9e:	6902                	c.ldsp	x18,0(x2)
    80002aa0:	6105                	c.addi16sp	x2,32
    80002aa2:	8082                	c.jr	x1
    80002aa4:	12000073          	sfence.vma	x0,x0
    80002aa8:	60e2                	c.ldsp	x1,24(x2)
    80002aaa:	6442                	c.ldsp	x8,16(x2)
    80002aac:	64a2                	c.ldsp	x9,8(x2)
    80002aae:	6902                	c.ldsp	x18,0(x2)
    80002ab0:	6105                	c.addi16sp	x2,32
    80002ab2:	8082                	c.jr	x1

0000000080002ab4 <sbi_tlb_local_sfence_vma_asid>:
    80002ab4:	7179                	c.addi16sp	x2,-48
    80002ab6:	f022                	c.sdsp	x8,32(x2)
    80002ab8:	f406                	c.sdsp	x1,40(x2)
    80002aba:	ec26                	c.sdsp	x9,24(x2)
    80002abc:	e84a                	c.sdsp	x18,16(x2)
    80002abe:	e44e                	c.sdsp	x19,8(x2)
    80002ac0:	1800                	c.addi4spn	x8,x2,48
    80002ac2:	00053903          	ld	x18,0(x10)
    80002ac6:	6504                	c.ld	x9,8(x10)
    80002ac8:	87aa                	c.mv	x15,x10
    80002aca:	4535                	c.li	x10,13
    80002acc:	0107b983          	ld	x19,16(x15)
    80002ad0:	cfeff0ef          	jal	x1,80001fce <sbi_pmu_ctr_incr_fw>
    80002ad4:	009967b3          	or	x15,x18,x9
    80002ad8:	c78d                	c.beqz	x15,80002b02 <sbi_tlb_local_sfence_vma_asid+0x4e>
    80002ada:	57fd                	c.li	x15,-1
    80002adc:	02f48c63          	beq	x9,x15,80002b14 <sbi_tlb_local_sfence_vma_asid+0x60>
    80002ae0:	4781                	c.li	x15,0
    80002ae2:	6685                	c.lui	x13,0x1
    80002ae4:	c881                	c.beqz	x9,80002af4 <sbi_tlb_local_sfence_vma_asid+0x40>
    80002ae6:	00f90733          	add	x14,x18,x15
    80002aea:	13370073          	sfence.vma	x14,x19
    80002aee:	97b6                	c.add	x15,x13
    80002af0:	fe97ebe3          	bltu	x15,x9,80002ae6 <sbi_tlb_local_sfence_vma_asid+0x32>
    80002af4:	70a2                	c.ldsp	x1,40(x2)
    80002af6:	7402                	c.ldsp	x8,32(x2)
    80002af8:	64e2                	c.ldsp	x9,24(x2)
    80002afa:	6942                	c.ldsp	x18,16(x2)
    80002afc:	69a2                	c.ldsp	x19,8(x2)
    80002afe:	6145                	c.addi16sp	x2,48
    80002b00:	8082                	c.jr	x1
    80002b02:	12000073          	sfence.vma	x0,x0
    80002b06:	70a2                	c.ldsp	x1,40(x2)
    80002b08:	7402                	c.ldsp	x8,32(x2)
    80002b0a:	64e2                	c.ldsp	x9,24(x2)
    80002b0c:	6942                	c.ldsp	x18,16(x2)
    80002b0e:	69a2                	c.ldsp	x19,8(x2)
    80002b10:	6145                	c.addi16sp	x2,48
    80002b12:	8082                	c.jr	x1
    80002b14:	13300073          	sfence.vma	x0,x19
    80002b18:	70a2                	c.ldsp	x1,40(x2)
    80002b1a:	7402                	c.ldsp	x8,32(x2)
    80002b1c:	64e2                	c.ldsp	x9,24(x2)
    80002b1e:	6942                	c.ldsp	x18,16(x2)
    80002b20:	69a2                	c.ldsp	x19,8(x2)
    80002b22:	6145                	c.addi16sp	x2,48
    80002b24:	8082                	c.jr	x1

0000000080002b26 <sbi_tlb_local_fence_i>:
    80002b26:	1141                	c.addi	x2,-16
    80002b28:	e022                	c.sdsp	x8,0(x2)
    80002b2a:	e406                	c.sdsp	x1,8(x2)
    80002b2c:	0800                	c.addi4spn	x8,x2,16
    80002b2e:	4525                	c.li	x10,9
    80002b30:	c9eff0ef          	jal	x1,80001fce <sbi_pmu_ctr_incr_fw>
    80002b34:	0000100f          	fence.i
    80002b38:	60a2                	c.ldsp	x1,8(x2)
    80002b3a:	6402                	c.ldsp	x8,0(x2)
    80002b3c:	0141                	c.addi	x2,16
    80002b3e:	8082                	c.jr	x1

0000000080002b40 <sbi_tlb_local_hfence_vvma>:
    80002b40:	7139                	c.addi16sp	x2,-64
    80002b42:	f822                	c.sdsp	x8,48(x2)
    80002b44:	fc06                	c.sdsp	x1,56(x2)
    80002b46:	f426                	c.sdsp	x9,40(x2)
    80002b48:	f04a                	c.sdsp	x18,32(x2)
    80002b4a:	ec4e                	c.sdsp	x19,24(x2)
    80002b4c:	e852                	c.sdsp	x20,16(x2)
    80002b4e:	e456                	c.sdsp	x21,8(x2)
    80002b50:	0080                	c.addi4spn	x8,x2,64
    80002b52:	87aa                	c.mv	x15,x10
    80002b54:	01853983          	ld	x19,24(x10)
    80002b58:	454d                	c.li	x10,19
    80002b5a:	0007ba03          	ld	x20,0(x15)
    80002b5e:	0087b903          	ld	x18,8(x15)
    80002b62:	c6cff0ef          	jal	x1,80001fce <sbi_pmu_ctr_incr_fw>
    80002b66:	03fff7b7          	lui	x15,0x3fff
    80002b6a:	1782                	c.slli	x15,0x20
    80002b6c:	19b2                	c.slli	x19,0x2c
    80002b6e:	00f9f9b3          	and	x19,x19,x15
    80002b72:	680999f3          	csrrw	x19,hgatp,x19
    80002b76:	012a67b3          	or	x15,x20,x18
    80002b7a:	cb95                	c.beqz	x15,80002bae <sbi_tlb_local_hfence_vvma+0x6e>
    80002b7c:	57fd                	c.li	x15,-1
    80002b7e:	02f90863          	beq	x18,x15,80002bae <sbi_tlb_local_hfence_vvma+0x6e>
    80002b82:	4481                	c.li	x9,0
    80002b84:	6a85                	c.lui	x21,0x1
    80002b86:	00090963          	beq	x18,x0,80002b98 <sbi_tlb_local_hfence_vvma+0x58>
    80002b8a:	009a0533          	add	x10,x20,x9
    80002b8e:	94d6                	c.add	x9,x21
    80002b90:	409060ef          	jal	x1,80009798 <__sbi_hfence_vvma_va>
    80002b94:	ff24ebe3          	bltu	x9,x18,80002b8a <sbi_tlb_local_hfence_vvma+0x4a>
    80002b98:	68099073          	csrrw	x0,hgatp,x19
    80002b9c:	70e2                	c.ldsp	x1,56(x2)
    80002b9e:	7442                	c.ldsp	x8,48(x2)
    80002ba0:	74a2                	c.ldsp	x9,40(x2)
    80002ba2:	7902                	c.ldsp	x18,32(x2)
    80002ba4:	69e2                	c.ldsp	x19,24(x2)
    80002ba6:	6a42                	c.ldsp	x20,16(x2)
    80002ba8:	6aa2                	c.ldsp	x21,8(x2)
    80002baa:	6121                	c.addi16sp	x2,64
    80002bac:	8082                	c.jr	x1
    80002bae:	3f3060ef          	jal	x1,800097a0 <__sbi_hfence_vvma_all>
    80002bb2:	b7dd                	c.j	80002b98 <sbi_tlb_local_hfence_vvma+0x58>

0000000080002bb4 <sbi_tlb_local_hfence_gvma>:
    80002bb4:	7179                	c.addi16sp	x2,-48
    80002bb6:	f022                	c.sdsp	x8,32(x2)
    80002bb8:	f406                	c.sdsp	x1,40(x2)
    80002bba:	ec26                	c.sdsp	x9,24(x2)
    80002bbc:	e84a                	c.sdsp	x18,16(x2)
    80002bbe:	e44e                	c.sdsp	x19,8(x2)
    80002bc0:	e052                	c.sdsp	x20,0(x2)
    80002bc2:	1800                	c.addi4spn	x8,x2,48
    80002bc4:	00053983          	ld	x19,0(x10)
    80002bc8:	00853903          	ld	x18,8(x10)
    80002bcc:	453d                	c.li	x10,15
    80002bce:	c00ff0ef          	jal	x1,80001fce <sbi_pmu_ctr_incr_fw>
    80002bd2:	0129e7b3          	or	x15,x19,x18
    80002bd6:	cb85                	c.beqz	x15,80002c06 <sbi_tlb_local_hfence_gvma+0x52>
    80002bd8:	57fd                	c.li	x15,-1
    80002bda:	02f90663          	beq	x18,x15,80002c06 <sbi_tlb_local_hfence_gvma+0x52>
    80002bde:	4481                	c.li	x9,0
    80002be0:	6a05                	c.lui	x20,0x1
    80002be2:	00090a63          	beq	x18,x0,80002bf6 <sbi_tlb_local_hfence_gvma+0x42>
    80002be6:	00998533          	add	x10,x19,x9
    80002bea:	8109                	c.srli	x10,0x2
    80002bec:	94d2                	c.add	x9,x20
    80002bee:	38b060ef          	jal	x1,80009778 <__sbi_hfence_gvma_gpa>
    80002bf2:	ff24eae3          	bltu	x9,x18,80002be6 <sbi_tlb_local_hfence_gvma+0x32>
    80002bf6:	70a2                	c.ldsp	x1,40(x2)
    80002bf8:	7402                	c.ldsp	x8,32(x2)
    80002bfa:	64e2                	c.ldsp	x9,24(x2)
    80002bfc:	6942                	c.ldsp	x18,16(x2)
    80002bfe:	69a2                	c.ldsp	x19,8(x2)
    80002c00:	6a02                	c.ldsp	x20,0(x2)
    80002c02:	6145                	c.addi16sp	x2,48
    80002c04:	8082                	c.jr	x1
    80002c06:	37b060ef          	jal	x1,80009780 <__sbi_hfence_gvma_all>
    80002c0a:	70a2                	c.ldsp	x1,40(x2)
    80002c0c:	7402                	c.ldsp	x8,32(x2)
    80002c0e:	64e2                	c.ldsp	x9,24(x2)
    80002c10:	6942                	c.ldsp	x18,16(x2)
    80002c12:	69a2                	c.ldsp	x19,8(x2)
    80002c14:	6a02                	c.ldsp	x20,0(x2)
    80002c16:	6145                	c.addi16sp	x2,48
    80002c18:	8082                	c.jr	x1

0000000080002c1a <sbi_tlb_local_hfence_vvma_asid>:
    80002c1a:	7139                	c.addi16sp	x2,-64
    80002c1c:	f822                	c.sdsp	x8,48(x2)
    80002c1e:	fc06                	c.sdsp	x1,56(x2)
    80002c20:	f426                	c.sdsp	x9,40(x2)
    80002c22:	f04a                	c.sdsp	x18,32(x2)
    80002c24:	ec4e                	c.sdsp	x19,24(x2)
    80002c26:	e852                	c.sdsp	x20,16(x2)
    80002c28:	e456                	c.sdsp	x21,8(x2)
    80002c2a:	e05a                	c.sdsp	x22,0(x2)
    80002c2c:	0080                	c.addi4spn	x8,x2,64
    80002c2e:	87aa                	c.mv	x15,x10
    80002c30:	01853983          	ld	x19,24(x10)
    80002c34:	4555                	c.li	x10,21
    80002c36:	0007ba03          	ld	x20,0(x15) # 3fff000 <_fw_start-0x7c001000>
    80002c3a:	0087b903          	ld	x18,8(x15)
    80002c3e:	0107ba83          	ld	x21,16(x15)
    80002c42:	b8cff0ef          	jal	x1,80001fce <sbi_pmu_ctr_incr_fw>
    80002c46:	03fff7b7          	lui	x15,0x3fff
    80002c4a:	1782                	c.slli	x15,0x20
    80002c4c:	19b2                	c.slli	x19,0x2c
    80002c4e:	00f9f9b3          	and	x19,x19,x15
    80002c52:	680999f3          	csrrw	x19,hgatp,x19
    80002c56:	012a67b3          	or	x15,x20,x18
    80002c5a:	cf85                	c.beqz	x15,80002c92 <sbi_tlb_local_hfence_vvma_asid+0x78>
    80002c5c:	57fd                	c.li	x15,-1
    80002c5e:	02f90d63          	beq	x18,x15,80002c98 <sbi_tlb_local_hfence_vvma_asid+0x7e>
    80002c62:	4481                	c.li	x9,0
    80002c64:	6b05                	c.lui	x22,0x1
    80002c66:	00090a63          	beq	x18,x0,80002c7a <sbi_tlb_local_hfence_vvma_asid+0x60>
    80002c6a:	009a0533          	add	x10,x20,x9
    80002c6e:	85d6                	c.mv	x11,x21
    80002c70:	94da                	c.add	x9,x22
    80002c72:	317060ef          	jal	x1,80009788 <__sbi_hfence_vvma_asid_va>
    80002c76:	ff24eae3          	bltu	x9,x18,80002c6a <sbi_tlb_local_hfence_vvma_asid+0x50>
    80002c7a:	68099073          	csrrw	x0,hgatp,x19
    80002c7e:	70e2                	c.ldsp	x1,56(x2)
    80002c80:	7442                	c.ldsp	x8,48(x2)
    80002c82:	74a2                	c.ldsp	x9,40(x2)
    80002c84:	7902                	c.ldsp	x18,32(x2)
    80002c86:	69e2                	c.ldsp	x19,24(x2)
    80002c88:	6a42                	c.ldsp	x20,16(x2)
    80002c8a:	6aa2                	c.ldsp	x21,8(x2)
    80002c8c:	6b02                	c.ldsp	x22,0(x2)
    80002c8e:	6121                	c.addi16sp	x2,64
    80002c90:	8082                	c.jr	x1
    80002c92:	30f060ef          	jal	x1,800097a0 <__sbi_hfence_vvma_all>
    80002c96:	b7d5                	c.j	80002c7a <sbi_tlb_local_hfence_vvma_asid+0x60>
    80002c98:	8556                	c.mv	x10,x21
    80002c9a:	2f7060ef          	jal	x1,80009790 <__sbi_hfence_vvma_asid>
    80002c9e:	bff1                	c.j	80002c7a <sbi_tlb_local_hfence_vvma_asid+0x60>

0000000080002ca0 <sbi_tlb_local_hfence_gvma_vmid>:
    80002ca0:	7139                	c.addi16sp	x2,-64
    80002ca2:	f822                	c.sdsp	x8,48(x2)
    80002ca4:	fc06                	c.sdsp	x1,56(x2)
    80002ca6:	f426                	c.sdsp	x9,40(x2)
    80002ca8:	f04a                	c.sdsp	x18,32(x2)
    80002caa:	ec4e                	c.sdsp	x19,24(x2)
    80002cac:	e852                	c.sdsp	x20,16(x2)
    80002cae:	e456                	c.sdsp	x21,8(x2)
    80002cb0:	0080                	c.addi4spn	x8,x2,64
    80002cb2:	00053983          	ld	x19,0(x10)
    80002cb6:	00853903          	ld	x18,8(x10)
    80002cba:	87aa                	c.mv	x15,x10
    80002cbc:	4545                	c.li	x10,17
    80002cbe:	0187ba03          	ld	x20,24(x15) # 3fff018 <_fw_start-0x7c000fe8>
    80002cc2:	b0cff0ef          	jal	x1,80001fce <sbi_pmu_ctr_incr_fw>
    80002cc6:	0129e7b3          	or	x15,x19,x18
    80002cca:	cb95                	c.beqz	x15,80002cfe <sbi_tlb_local_hfence_gvma_vmid+0x5e>
    80002ccc:	57fd                	c.li	x15,-1
    80002cce:	02f90b63          	beq	x18,x15,80002d04 <sbi_tlb_local_hfence_gvma_vmid+0x64>
    80002cd2:	4481                	c.li	x9,0
    80002cd4:	6a85                	c.lui	x21,0x1
    80002cd6:	00090b63          	beq	x18,x0,80002cec <sbi_tlb_local_hfence_gvma_vmid+0x4c>
    80002cda:	00998533          	add	x10,x19,x9
    80002cde:	85d2                	c.mv	x11,x20
    80002ce0:	94d6                	c.add	x9,x21
    80002ce2:	8109                	c.srli	x10,0x2
    80002ce4:	285060ef          	jal	x1,80009768 <__sbi_hfence_gvma_vmid_gpa>
    80002ce8:	ff24e9e3          	bltu	x9,x18,80002cda <sbi_tlb_local_hfence_gvma_vmid+0x3a>
    80002cec:	70e2                	c.ldsp	x1,56(x2)
    80002cee:	7442                	c.ldsp	x8,48(x2)
    80002cf0:	74a2                	c.ldsp	x9,40(x2)
    80002cf2:	7902                	c.ldsp	x18,32(x2)
    80002cf4:	69e2                	c.ldsp	x19,24(x2)
    80002cf6:	6a42                	c.ldsp	x20,16(x2)
    80002cf8:	6aa2                	c.ldsp	x21,8(x2)
    80002cfa:	6121                	c.addi16sp	x2,64
    80002cfc:	8082                	c.jr	x1
    80002cfe:	283060ef          	jal	x1,80009780 <__sbi_hfence_gvma_all>
    80002d02:	b7ed                	c.j	80002cec <sbi_tlb_local_hfence_gvma_vmid+0x4c>
    80002d04:	8552                	c.mv	x10,x20
    80002d06:	26b060ef          	jal	x1,80009770 <__sbi_hfence_gvma_vmid>
    80002d0a:	b7cd                	c.j	80002cec <sbi_tlb_local_hfence_gvma_vmid+0x4c>

0000000080002d0c <tlb_entry_process>:
    80002d0c:	7139                	c.addi16sp	x2,-64
    80002d0e:	fc06                	c.sdsp	x1,56(x2)
    80002d10:	f822                	c.sdsp	x8,48(x2)
    80002d12:	f04a                	c.sdsp	x18,32(x2)
    80002d14:	ec4e                	c.sdsp	x19,24(x2)
    80002d16:	f426                	c.sdsp	x9,40(x2)
    80002d18:	e852                	c.sdsp	x20,16(x2)
    80002d1a:	e456                	c.sdsp	x21,8(x2)
    80002d1c:	e05a                	c.sdsp	x22,0(x2)
    80002d1e:	0080                	c.addi4spn	x8,x2,64
    80002d20:	711c                	c.ld	x15,32(x10)
    80002d22:	02850993          	addi	x19,x10,40
    80002d26:	9782                	c.jalr	x15
    80002d28:	08000593          	addi	x11,x0,128
    80002d2c:	854e                	c.mv	x10,x19
    80002d2e:	61d010ef          	jal	x1,80004b4a <find_first_bit>
    80002d32:	0005091b          	addiw	x18,x10,0
    80002d36:	07f00793          	addi	x15,x0,127
    80002d3a:	0527e763          	bltu	x15,x18,80002d88 <tlb_entry_process+0x7c>
    80002d3e:	00016a97          	auipc	x21,0x16
    80002d42:	5daaba83          	ld	x21,1498(x21) # 80019318 <_GLOBAL_OFFSET_TABLE_+0x88>
    80002d46:	0003ab17          	auipc	x22,0x3a
    80002d4a:	92ab0b13          	addi	x22,x22,-1750 # 8003c670 <tlb_sync_off>
    80002d4e:	07f00a13          	addi	x20,x0,127
    80002d52:	02091793          	slli	x15,x18,0x20
    80002d56:	83f5                	c.srli	x15,0x1d
    80002d58:	97d6                	c.add	x15,x21
    80002d5a:	6384                	c.ld	x9,0(x15)
    80002d5c:	c889                	c.beqz	x9,80002d6e <tlb_entry_process+0x62>
    80002d5e:	000b3783          	ld	x15,0(x22)
    80002d62:	94be                	c.add	x9,x15
    80002d64:	4585                	c.li	x11,1
    80002d66:	8526                	c.mv	x10,x9
    80002d68:	3a1010ef          	jal	x1,80004908 <atomic_raw_xchg_ulong>
    80002d6c:	fd65                	c.bnez	x10,80002d64 <tlb_entry_process+0x58>
    80002d6e:	0019061b          	addiw	x12,x18,1
    80002d72:	1602                	c.slli	x12,0x20
    80002d74:	9201                	c.srli	x12,0x20
    80002d76:	08000593          	addi	x11,x0,128
    80002d7a:	854e                	c.mv	x10,x19
    80002d7c:	789010ef          	jal	x1,80004d04 <find_next_bit>
    80002d80:	0005091b          	addiw	x18,x10,0
    80002d84:	fd2a77e3          	bgeu	x20,x18,80002d52 <tlb_entry_process+0x46>
    80002d88:	70e2                	c.ldsp	x1,56(x2)
    80002d8a:	7442                	c.ldsp	x8,48(x2)
    80002d8c:	74a2                	c.ldsp	x9,40(x2)
    80002d8e:	7902                	c.ldsp	x18,32(x2)
    80002d90:	69e2                	c.ldsp	x19,24(x2)
    80002d92:	6a42                	c.ldsp	x20,16(x2)
    80002d94:	6aa2                	c.ldsp	x21,8(x2)
    80002d96:	6b02                	c.ldsp	x22,0(x2)
    80002d98:	6121                	c.addi16sp	x2,64
    80002d9a:	8082                	c.jr	x1

0000000080002d9c <tlb_process>:
    80002d9c:	711d                	c.addi16sp	x2,-96
    80002d9e:	e8a2                	c.sdsp	x8,80(x2)
    80002da0:	e4a6                	c.sdsp	x9,72(x2)
    80002da2:	e0ca                	c.sdsp	x18,64(x2)
    80002da4:	1080                	c.addi4spn	x8,x2,96
    80002da6:	ec86                	c.sdsp	x1,88(x2)
    80002da8:	0003a917          	auipc	x18,0x3a
    80002dac:	8d093903          	ld	x18,-1840(x18) # 8003c678 <tlb_fifo_off>
    80002db0:	992a                	c.add	x18,x10
    80002db2:	fa840493          	addi	x9,x8,-88
    80002db6:	a019                	c.j	80002dbc <tlb_process+0x20>
    80002db8:	f55ff0ef          	jal	x1,80002d0c <tlb_entry_process>
    80002dbc:	85a6                	c.mv	x11,x9
    80002dbe:	854a                	c.mv	x10,x18
    80002dc0:	314040ef          	jal	x1,800070d4 <sbi_fifo_dequeue>
    80002dc4:	87aa                	c.mv	x15,x10
    80002dc6:	8526                	c.mv	x10,x9
    80002dc8:	dbe5                	c.beqz	x15,80002db8 <tlb_process+0x1c>
    80002dca:	60e6                	c.ldsp	x1,88(x2)
    80002dcc:	6446                	c.ldsp	x8,80(x2)
    80002dce:	64a6                	c.ldsp	x9,72(x2)
    80002dd0:	6906                	c.ldsp	x18,64(x2)
    80002dd2:	6125                	c.addi16sp	x2,96
    80002dd4:	8082                	c.jr	x1

0000000080002dd6 <tlb_process_count.constprop.0>:
    80002dd6:	711d                	c.addi16sp	x2,-96
    80002dd8:	e8a2                	c.sdsp	x8,80(x2)
    80002dda:	e4a6                	c.sdsp	x9,72(x2)
    80002ddc:	e0ca                	c.sdsp	x18,64(x2)
    80002dde:	1080                	c.addi4spn	x8,x2,96
    80002de0:	ec86                	c.sdsp	x1,88(x2)
    80002de2:	0003a497          	auipc	x9,0x3a
    80002de6:	8964b483          	ld	x9,-1898(x9) # 8003c678 <tlb_fifo_off>
    80002dea:	94aa                	c.add	x9,x10
    80002dec:	fa840913          	addi	x18,x8,-88
    80002df0:	85ca                	c.mv	x11,x18
    80002df2:	8526                	c.mv	x10,x9
    80002df4:	2e0040ef          	jal	x1,800070d4 <sbi_fifo_dequeue>
    80002df8:	ed01                	c.bnez	x10,80002e10 <tlb_process_count.constprop.0+0x3a>
    80002dfa:	854a                	c.mv	x10,x18
    80002dfc:	f11ff0ef          	jal	x1,80002d0c <tlb_entry_process>
    80002e00:	85ca                	c.mv	x11,x18
    80002e02:	8526                	c.mv	x10,x9
    80002e04:	2d0040ef          	jal	x1,800070d4 <sbi_fifo_dequeue>
    80002e08:	e501                	c.bnez	x10,80002e10 <tlb_process_count.constprop.0+0x3a>
    80002e0a:	854a                	c.mv	x10,x18
    80002e0c:	f01ff0ef          	jal	x1,80002d0c <tlb_entry_process>
    80002e10:	60e6                	c.ldsp	x1,88(x2)
    80002e12:	6446                	c.ldsp	x8,80(x2)
    80002e14:	64a6                	c.ldsp	x9,72(x2)
    80002e16:	6906                	c.ldsp	x18,64(x2)
    80002e18:	6125                	c.addi16sp	x2,96
    80002e1a:	8082                	c.jr	x1

0000000080002e1c <tlb_update>:
    80002e1c:	7139                	c.addi16sp	x2,-64
    80002e1e:	f822                	c.sdsp	x8,48(x2)
    80002e20:	f426                	c.sdsp	x9,40(x2)
    80002e22:	f04a                	c.sdsp	x18,32(x2)
    80002e24:	e852                	c.sdsp	x20,16(x2)
    80002e26:	e456                	c.sdsp	x21,8(x2)
    80002e28:	fc06                	c.sdsp	x1,56(x2)
    80002e2a:	ec4e                	c.sdsp	x19,24(x2)
    80002e2c:	e05a                	c.sdsp	x22,0(x2)
    80002e2e:	0080                	c.addi4spn	x8,x2,64
    80002e30:	8aaa                	c.mv	x21,x10
    80002e32:	892e                	c.mv	x18,x11
    80002e34:	8a32                	c.mv	x20,x12
    80002e36:	84b6                	c.mv	x9,x13
    80002e38:	f14029f3          	csrrs	x19,mhartid,x0
    80002e3c:	0003a797          	auipc	x15,0x3a
    80002e40:	83478793          	addi	x15,x15,-1996 # 8003c670 <tlb_sync_off>
    80002e44:	6694                	c.ld	x13,8(x13)
    80002e46:	6b98                	c.ld	x14,16(x15)
    80002e48:	2981                	c.addiw	x19,0
    80002e4a:	00d77663          	bgeu	x14,x13,80002e56 <tlb_update+0x3a>
    80002e4e:	577d                	c.li	x14,-1
    80002e50:	0004b023          	sd	x0,0(x9)
    80002e54:	e498                	c.sd	x14,8(x9)
    80002e56:	07498063          	beq	x19,x20,80002eb6 <tlb_update+0x9a>
    80002e5a:	679c                	c.ld	x15,8(x15)
    80002e5c:	00000617          	auipc	x12,0x0
    80002e60:	09c60613          	addi	x12,x12,156 # 80002ef8 <tlb_update_cb>
    80002e64:	85a6                	c.mv	x11,x9
    80002e66:	993e                	c.add	x18,x15
    80002e68:	854a                	c.mv	x10,x18
    80002e6a:	14a040ef          	jal	x1,80006fb4 <sbi_fifo_inplace_update>
    80002e6e:	872a                	c.mv	x14,x10
    80002e70:	4789                	c.li	x15,2
    80002e72:	4505                	c.li	x10,1
    80002e74:	00012b17          	auipc	x22,0x12
    80002e78:	7d4b0b13          	addi	x22,x22,2004 # 80015648 <__func__.1667+0x18>
    80002e7c:	02f70363          	beq	x14,x15,80002ea2 <tlb_update+0x86>
    80002e80:	70e2                	c.ldsp	x1,56(x2)
    80002e82:	7442                	c.ldsp	x8,48(x2)
    80002e84:	74a2                	c.ldsp	x9,40(x2)
    80002e86:	7902                	c.ldsp	x18,32(x2)
    80002e88:	69e2                	c.ldsp	x19,24(x2)
    80002e8a:	6a42                	c.ldsp	x20,16(x2)
    80002e8c:	6aa2                	c.ldsp	x21,8(x2)
    80002e8e:	6b02                	c.ldsp	x22,0(x2)
    80002e90:	6121                	c.addi16sp	x2,64
    80002e92:	8082                	c.jr	x1
    80002e94:	f43ff0ef          	jal	x1,80002dd6 <tlb_process_count.constprop.0>
    80002e98:	8652                	c.mv	x12,x20
    80002e9a:	85ce                	c.mv	x11,x19
    80002e9c:	855a                	c.mv	x10,x22
    80002e9e:	738020ef          	jal	x1,800055d6 <sbi_dprintf>
    80002ea2:	85a6                	c.mv	x11,x9
    80002ea4:	854a                	c.mv	x10,x18
    80002ea6:	1aa040ef          	jal	x1,80007050 <sbi_fifo_enqueue>
    80002eaa:	87aa                	c.mv	x15,x10
    80002eac:	8556                	c.mv	x10,x21
    80002eae:	fe07c3e3          	blt	x15,x0,80002e94 <tlb_update+0x78>
    80002eb2:	4501                	c.li	x10,0
    80002eb4:	b7f1                	c.j	80002e80 <tlb_update+0x64>
    80002eb6:	709c                	c.ld	x15,32(x9)
    80002eb8:	8526                	c.mv	x10,x9
    80002eba:	9782                	c.jalr	x15
    80002ebc:	557d                	c.li	x10,-1
    80002ebe:	b7c9                	c.j	80002e80 <tlb_update+0x64>

0000000080002ec0 <tlb_sync>:
    80002ec0:	1101                	c.addi	x2,-32
    80002ec2:	e822                	c.sdsp	x8,16(x2)
    80002ec4:	e426                	c.sdsp	x9,8(x2)
    80002ec6:	e04a                	c.sdsp	x18,0(x2)
    80002ec8:	ec06                	c.sdsp	x1,24(x2)
    80002eca:	1000                	c.addi4spn	x8,x2,32
    80002ecc:	00039917          	auipc	x18,0x39
    80002ed0:	7a493903          	ld	x18,1956(x18) # 8003c670 <tlb_sync_off>
    80002ed4:	84aa                	c.mv	x9,x10
    80002ed6:	992a                	c.add	x18,x10
    80002ed8:	a019                	c.j	80002ede <tlb_sync+0x1e>
    80002eda:	efdff0ef          	jal	x1,80002dd6 <tlb_process_count.constprop.0>
    80002ede:	4581                	c.li	x11,0
    80002ee0:	854a                	c.mv	x10,x18
    80002ee2:	227010ef          	jal	x1,80004908 <atomic_raw_xchg_ulong>
    80002ee6:	87aa                	c.mv	x15,x10
    80002ee8:	8526                	c.mv	x10,x9
    80002eea:	dbe5                	c.beqz	x15,80002eda <tlb_sync+0x1a>
    80002eec:	60e2                	c.ldsp	x1,24(x2)
    80002eee:	6442                	c.ldsp	x8,16(x2)
    80002ef0:	64a2                	c.ldsp	x9,8(x2)
    80002ef2:	6902                	c.ldsp	x18,0(x2)
    80002ef4:	6105                	c.addi16sp	x2,32
    80002ef6:	8082                	c.jr	x1

0000000080002ef8 <tlb_update_cb>:
    80002ef8:	c135                	c.beqz	x10,80002f5c <tlb_update_cb+0x64>
    80002efa:	c1ad                	c.beqz	x11,80002f5c <tlb_update_cb+0x64>
    80002efc:	1141                	c.addi	x2,-16
    80002efe:	e022                	c.sdsp	x8,0(x2)
    80002f00:	e406                	c.sdsp	x1,8(x2)
    80002f02:	0800                	c.addi4spn	x8,x2,16
    80002f04:	711c                	c.ld	x15,32(x10)
    80002f06:	00000717          	auipc	x14,0x0
    80002f0a:	bae70713          	addi	x14,x14,-1106 # 80002ab4 <sbi_tlb_local_sfence_vma_asid>
    80002f0e:	862a                	c.mv	x12,x10
    80002f10:	02e78063          	beq	x15,x14,80002f30 <tlb_update_cb+0x38>
    80002f14:	00000717          	auipc	x14,0x0
    80002f18:	b4c70713          	addi	x14,x14,-1204 # 80002a60 <sbi_tlb_local_sfence_vma>
    80002f1c:	4509                	c.li	x10,2
    80002f1e:	00e79563          	bne	x15,x14,80002f28 <tlb_update_cb+0x30>
    80002f22:	7198                	c.ld	x14,32(x11)
    80002f24:	00f70e63          	beq	x14,x15,80002f40 <tlb_update_cb+0x48>
    80002f28:	60a2                	c.ldsp	x1,8(x2)
    80002f2a:	6402                	c.ldsp	x8,0(x2)
    80002f2c:	0141                	c.addi	x2,16
    80002f2e:	8082                	c.jr	x1
    80002f30:	7198                	c.ld	x14,32(x11)
    80002f32:	4509                	c.li	x10,2
    80002f34:	fef71ae3          	bne	x14,x15,80002f28 <tlb_update_cb+0x30>
    80002f38:	6a18                	c.ld	x14,16(x12)
    80002f3a:	699c                	c.ld	x15,16(x11)
    80002f3c:	fef716e3          	bne	x14,x15,80002f28 <tlb_update_cb+0x30>
    80002f40:	6214                	c.ld	x13,0(x12)
    80002f42:	6618                	c.ld	x14,8(x12)
    80002f44:	0005b803          	ld	x16,0(x11)
    80002f48:	659c                	c.ld	x15,8(x11)
    80002f4a:	9736                	c.add	x14,x13
    80002f4c:	97c2                	c.add	x15,x16
    80002f4e:	00d86963          	bltu	x16,x13,80002f60 <tlb_update_cb+0x68>
    80002f52:	02e7e463          	bltu	x15,x14,80002f7a <tlb_update_cb+0x82>
    80002f56:	fd0699e3          	bne	x13,x16,80002f28 <tlb_update_cb+0x30>
    80002f5a:	a029                	c.j	80002f64 <tlb_update_cb+0x6c>
    80002f5c:	4509                	c.li	x10,2
    80002f5e:	8082                	c.jr	x1
    80002f60:	fce7e4e3          	bltu	x15,x14,80002f28 <tlb_update_cb+0x30>
    80002f64:	02858593          	addi	x11,x11,40
    80002f68:	852e                	c.mv	x10,x11
    80002f6a:	08000693          	addi	x13,x0,128
    80002f6e:	02860613          	addi	x12,x12,40
    80002f72:	365010ef          	jal	x1,80004ad6 <__bitmap_or>
    80002f76:	4501                	c.li	x10,0
    80002f78:	bf45                	c.j	80002f28 <tlb_update_cb+0x30>
    80002f7a:	e194                	c.sd	x13,0(x11)
    80002f7c:	6618                	c.ld	x14,8(x12)
    80002f7e:	02858793          	addi	x15,x11,40
    80002f82:	853e                	c.mv	x10,x15
    80002f84:	e598                	c.sd	x14,8(x11)
    80002f86:	08000693          	addi	x13,x0,128
    80002f8a:	02860613          	addi	x12,x12,40
    80002f8e:	85be                	c.mv	x11,x15
    80002f90:	347010ef          	jal	x1,80004ad6 <__bitmap_or>
    80002f94:	4505                	c.li	x10,1
    80002f96:	bf49                	c.j	80002f28 <tlb_update_cb+0x30>

0000000080002f98 <sbi_tlb_request>:
    80002f98:	721c                	c.ld	x15,32(x12)
    80002f9a:	c3e9                	c.beqz	x15,8000305c <sbi_tlb_request+0xc4>
    80002f9c:	7179                	c.addi16sp	x2,-48
    80002f9e:	f022                	c.sdsp	x8,32(x2)
    80002fa0:	ec26                	c.sdsp	x9,24(x2)
    80002fa2:	e84a                	c.sdsp	x18,16(x2)
    80002fa4:	e44e                	c.sdsp	x19,8(x2)
    80002fa6:	f406                	c.sdsp	x1,40(x2)
    80002fa8:	1800                	c.addi4spn	x8,x2,48
    80002faa:	00000717          	auipc	x14,0x0
    80002fae:	b7c70713          	addi	x14,x14,-1156 # 80002b26 <sbi_tlb_local_fence_i>
    80002fb2:	84b2                	c.mv	x9,x12
    80002fb4:	892a                	c.mv	x18,x10
    80002fb6:	89ae                	c.mv	x19,x11
    80002fb8:	06e78a63          	beq	x15,x14,8000302c <sbi_tlb_request+0x94>
    80002fbc:	00000717          	auipc	x14,0x0
    80002fc0:	aa470713          	addi	x14,x14,-1372 # 80002a60 <sbi_tlb_local_sfence_vma>
    80002fc4:	06e78863          	beq	x15,x14,80003034 <sbi_tlb_request+0x9c>
    80002fc8:	00000717          	auipc	x14,0x0
    80002fcc:	aec70713          	addi	x14,x14,-1300 # 80002ab4 <sbi_tlb_local_sfence_vma_asid>
    80002fd0:	06e78663          	beq	x15,x14,8000303c <sbi_tlb_request+0xa4>
    80002fd4:	00000717          	auipc	x14,0x0
    80002fd8:	be070713          	addi	x14,x14,-1056 # 80002bb4 <sbi_tlb_local_hfence_gvma>
    80002fdc:	04e78463          	beq	x15,x14,80003024 <sbi_tlb_request+0x8c>
    80002fe0:	00000717          	auipc	x14,0x0
    80002fe4:	cc070713          	addi	x14,x14,-832 # 80002ca0 <sbi_tlb_local_hfence_gvma_vmid>
    80002fe8:	04e78e63          	beq	x15,x14,80003044 <sbi_tlb_request+0xac>
    80002fec:	00000717          	auipc	x14,0x0
    80002ff0:	b5470713          	addi	x14,x14,-1196 # 80002b40 <sbi_tlb_local_hfence_vvma>
    80002ff4:	04e78c63          	beq	x15,x14,8000304c <sbi_tlb_request+0xb4>
    80002ff8:	00000717          	auipc	x14,0x0
    80002ffc:	c2270713          	addi	x14,x14,-990 # 80002c1a <sbi_tlb_local_hfence_vvma_asid>
    80003000:	04e78a63          	beq	x15,x14,80003054 <sbi_tlb_request+0xbc>
    80003004:	86a6                	c.mv	x13,x9
    80003006:	85ce                	c.mv	x11,x19
    80003008:	854a                	c.mv	x10,x18
    8000300a:	00015617          	auipc	x12,0x15
    8000300e:	03e62603          	lw	x12,62(x12) # 80018048 <tlb_event>
    80003012:	e6dfd0ef          	jal	x1,80000e7e <sbi_ipi_send_many>
    80003016:	70a2                	c.ldsp	x1,40(x2)
    80003018:	7402                	c.ldsp	x8,32(x2)
    8000301a:	64e2                	c.ldsp	x9,24(x2)
    8000301c:	6942                	c.ldsp	x18,16(x2)
    8000301e:	69a2                	c.ldsp	x19,8(x2)
    80003020:	6145                	c.addi16sp	x2,48
    80003022:	8082                	c.jr	x1
    80003024:	4539                	c.li	x10,14
    80003026:	fa9fe0ef          	jal	x1,80001fce <sbi_pmu_ctr_incr_fw>
    8000302a:	bfe9                	c.j	80003004 <sbi_tlb_request+0x6c>
    8000302c:	4521                	c.li	x10,8
    8000302e:	fa1fe0ef          	jal	x1,80001fce <sbi_pmu_ctr_incr_fw>
    80003032:	bfc9                	c.j	80003004 <sbi_tlb_request+0x6c>
    80003034:	4529                	c.li	x10,10
    80003036:	f99fe0ef          	jal	x1,80001fce <sbi_pmu_ctr_incr_fw>
    8000303a:	b7e9                	c.j	80003004 <sbi_tlb_request+0x6c>
