
./mm.riscv:     file format elf64-littleriscv


Disassembly of section .text.init:

0000000080000000 <_start>:
    80000000:	00000093          	addi	x1,x0,0
    80000004:	00000113          	addi	x2,x0,0
    80000008:	00000193          	addi	x3,x0,0
    8000000c:	00000213          	addi	x4,x0,0
    80000010:	00000293          	addi	x5,x0,0
    80000014:	00000313          	addi	x6,x0,0
    80000018:	00000393          	addi	x7,x0,0
    8000001c:	00000413          	addi	x8,x0,0
    80000020:	00000493          	addi	x9,x0,0
    80000024:	00000513          	addi	x10,x0,0
    80000028:	00000593          	addi	x11,x0,0
    8000002c:	00000613          	addi	x12,x0,0
    80000030:	00000693          	addi	x13,x0,0
    80000034:	00000713          	addi	x14,x0,0
    80000038:	00000793          	addi	x15,x0,0
    8000003c:	00000813          	addi	x16,x0,0
    80000040:	00000893          	addi	x17,x0,0
    80000044:	00000913          	addi	x18,x0,0
    80000048:	00000993          	addi	x19,x0,0
    8000004c:	00000a13          	addi	x20,x0,0
    80000050:	00000a93          	addi	x21,x0,0
    80000054:	00000b13          	addi	x22,x0,0
    80000058:	00000b93          	addi	x23,x0,0
    8000005c:	00000c13          	addi	x24,x0,0
    80000060:	00000c93          	addi	x25,x0,0
    80000064:	00000d13          	addi	x26,x0,0
    80000068:	00000d93          	addi	x27,x0,0
    8000006c:	00000e13          	addi	x28,x0,0
    80000070:	00000e93          	addi	x29,x0,0
    80000074:	00000f13          	addi	x30,x0,0
    80000078:	00000f93          	addi	x31,x0,0
    8000007c:	0001e2b7          	lui	x5,0x1e
    80000080:	3002a073          	csrrs	x0,mstatus,x5
    80000084:	00100293          	addi	x5,x0,1
    80000088:	01f29293          	slli	x5,x5,0x1f
    8000008c:	0002da63          	bge	x5,x0,800000a0 <_start+0xa0>
    80000090:	00100513          	addi	x10,x0,1
    80000094:	00001297          	auipc	x5,0x1
    80000098:	f6a2a623          	sw	x10,-148(x5) # 80001000 <tohost>
    8000009c:	ff5ff06f          	jal	x0,80000090 <_start+0x90>
    800000a0:	00000297          	auipc	x5,0x0
    800000a4:	04028293          	addi	x5,x5,64 # 800000e0 <trap_entry>
    800000a8:	30529073          	csrrw	x0,mtvec,x5
    800000ac:	0000c197          	auipc	x3,0xc
    800000b0:	97418193          	addi	x3,x3,-1676 # 8000ba20 <__global_pointer$>
    800000b4:	1df18213          	addi	x4,x3,479 # 8000bbff <_end+0x3f>
    800000b8:	fc027213          	andi	x4,x4,-64
    800000bc:	f1402573          	csrrs	x10,mhartid,x0
    800000c0:	00100593          	addi	x11,x0,1
    800000c4:	00b57063          	bgeu	x10,x11,800000c4 <_start+0xc4>
    800000c8:	00150113          	addi	x2,x10,1
    800000cc:	01111113          	slli	x2,x2,0x11
    800000d0:	00410133          	add	x2,x2,x4
    800000d4:	01151613          	slli	x12,x10,0x11
    800000d8:	00c20233          	add	x4,x4,x12
    800000dc:	5d80906f          	jal	x0,800096b4 <_init>

00000000800000e0 <trap_entry>:
    800000e0:	ef010113          	addi	x2,x2,-272
    800000e4:	00113423          	sd	x1,8(x2)
    800000e8:	00213823          	sd	x2,16(x2)
    800000ec:	00313c23          	sd	x3,24(x2)
    800000f0:	02413023          	sd	x4,32(x2)
    800000f4:	02513423          	sd	x5,40(x2)
    800000f8:	02613823          	sd	x6,48(x2)
    800000fc:	02713c23          	sd	x7,56(x2)
    80000100:	04813023          	sd	x8,64(x2)
    80000104:	04913423          	sd	x9,72(x2)
    80000108:	04a13823          	sd	x10,80(x2)
    8000010c:	04b13c23          	sd	x11,88(x2)
    80000110:	06c13023          	sd	x12,96(x2)
    80000114:	06d13423          	sd	x13,104(x2)
    80000118:	06e13823          	sd	x14,112(x2)
    8000011c:	06f13c23          	sd	x15,120(x2)
    80000120:	09013023          	sd	x16,128(x2)
    80000124:	09113423          	sd	x17,136(x2)
    80000128:	09213823          	sd	x18,144(x2)
    8000012c:	09313c23          	sd	x19,152(x2)
    80000130:	0b413023          	sd	x20,160(x2)
    80000134:	0b513423          	sd	x21,168(x2)
    80000138:	0b613823          	sd	x22,176(x2)
    8000013c:	0b713c23          	sd	x23,184(x2)
    80000140:	0d813023          	sd	x24,192(x2)
    80000144:	0d913423          	sd	x25,200(x2)
    80000148:	0da13823          	sd	x26,208(x2)
    8000014c:	0db13c23          	sd	x27,216(x2)
    80000150:	0fc13023          	sd	x28,224(x2)
    80000154:	0fd13423          	sd	x29,232(x2)
    80000158:	0fe13823          	sd	x30,240(x2)
    8000015c:	0ff13c23          	sd	x31,248(x2)
    80000160:	34202573          	csrrs	x10,mcause,x0
    80000164:	341025f3          	csrrs	x11,mepc,x0
    80000168:	00010613          	addi	x12,x2,0
    8000016c:	2b0090ef          	jal	x1,8000941c <handle_trap>
    80000170:	34151073          	csrrw	x0,mepc,x10
    80000174:	000022b7          	lui	x5,0x2
    80000178:	8002829b          	addiw	x5,x5,-2048 # 1800 <buflen.1+0x1780>
    8000017c:	3002a073          	csrrs	x0,mstatus,x5
    80000180:	00813083          	ld	x1,8(x2)
    80000184:	01013103          	ld	x2,16(x2)
    80000188:	01813183          	ld	x3,24(x2)
    8000018c:	02013203          	ld	x4,32(x2)
    80000190:	02813283          	ld	x5,40(x2)
    80000194:	03013303          	ld	x6,48(x2)
    80000198:	03813383          	ld	x7,56(x2)
    8000019c:	04013403          	ld	x8,64(x2)
    800001a0:	04813483          	ld	x9,72(x2)
    800001a4:	05013503          	ld	x10,80(x2)
    800001a8:	05813583          	ld	x11,88(x2)
    800001ac:	06013603          	ld	x12,96(x2)
    800001b0:	06813683          	ld	x13,104(x2)
    800001b4:	07013703          	ld	x14,112(x2)
    800001b8:	07813783          	ld	x15,120(x2)
    800001bc:	08013803          	ld	x16,128(x2)
    800001c0:	08813883          	ld	x17,136(x2)
    800001c4:	09013903          	ld	x18,144(x2)
    800001c8:	09813983          	ld	x19,152(x2)
    800001cc:	0a013a03          	ld	x20,160(x2)
    800001d0:	0a813a83          	ld	x21,168(x2)
    800001d4:	0b013b03          	ld	x22,176(x2)
    800001d8:	0b813b83          	ld	x23,184(x2)
    800001dc:	0c013c03          	ld	x24,192(x2)
    800001e0:	0c813c83          	ld	x25,200(x2)
    800001e4:	0d013d03          	ld	x26,208(x2)
    800001e8:	0d813d83          	ld	x27,216(x2)
    800001ec:	0e013e03          	ld	x28,224(x2)
    800001f0:	0e813e83          	ld	x29,232(x2)
    800001f4:	0f013f03          	ld	x30,240(x2)
    800001f8:	0f813f83          	ld	x31,248(x2)
    800001fc:	11010113          	addi	x2,x2,272
    80000200:	30200073          	mret

Disassembly of section .text:

0000000080002000 <mm_naive>:
    80002000:	ef010113          	addi	x2,x2,-272
    80002004:	10113423          	sd	x1,264(x2)
    80002008:	02b13823          	sd	x11,48(x2)
    8000200c:	08f13823          	sd	x15,144(x2)
    80002010:	28050463          	beq	x10,x0,80002298 <mm_naive+0x298>
    80002014:	0f313423          	sd	x19,232(x2)
    80002018:	0f413023          	sd	x20,224(x2)
    8000201c:	00381993          	slli	x19,x16,0x3
    80002020:	ffc67a13          	andi	x20,x12,-4
    80002024:	00060593          	addi	x11,x12,0
    80002028:	0d513c23          	sd	x21,216(x2)
    8000202c:	00361a93          	slli	x21,x12,0x3
    80002030:	03498633          	mul	x12,x19,x20
    80002034:	00070e13          	addi	x28,x14,0
    80002038:	00181713          	slli	x14,x16,0x1
    8000203c:	01070733          	add	x14,x14,x16
    80002040:	00371793          	slli	x15,x14,0x3
    80002044:	0d813023          	sd	x24,192(x2)
    80002048:	0bb13423          	sd	x27,168(x2)
    8000204c:	003e1c13          	slli	x24,x28,0x3
    80002050:	00000713          	addi	x14,x0,0
    80002054:	00000d93          	addi	x27,x0,0
    80002058:	04c13423          	sd	x12,72(x2)
    8000205c:	00000613          	addi	x12,x0,0
    80002060:	0e913c23          	sd	x9,248(x2)
    80002064:	0d613823          	sd	x22,208(x2)
    80002068:	0ba13823          	sd	x26,176(x2)
    8000206c:	07813c23          	sd	x24,120(x2)
    80002070:	02b13023          	sd	x11,32(x2)
    80002074:	10813023          	sd	x8,256(x2)
    80002078:	0f213823          	sd	x18,240(x2)
    8000207c:	0d713423          	sd	x23,200(x2)
    80002080:	0b913c23          	sd	x25,184(x2)
    80002084:	00da8ab3          	add	x21,x21,x13
    80002088:	00581b13          	slli	x22,x16,0x5
    8000208c:	00481493          	slli	x9,x16,0x4
    80002090:	04f13823          	sd	x15,80(x2)
    80002094:	00060c13          	addi	x24,x12,0
    80002098:	00070d13          	addi	x26,x14,0
    8000209c:	08a13023          	sd	x10,128(x2)
    800020a0:	000d8593          	addi	x11,x27,0
    800020a4:	09c13423          	sd	x28,136(x2)
    800020a8:	09113c23          	sd	x17,152(x2)
    800020ac:	03013783          	ld	x15,48(x2)
    800020b0:	18078a63          	beq	x15,x0,80002244 <mm_naive+0x244>
    800020b4:	09813703          	ld	x14,152(x2)
    800020b8:	00359c93          	slli	x25,x11,0x3
    800020bc:	014d07b3          	add	x15,x26,x20
    800020c0:	01970733          	add	x14,x14,x25
    800020c4:	00e13823          	sd	x14,16(x2)
    800020c8:	09013703          	ld	x14,144(x2)
    800020cc:	003d1513          	slli	x10,x26,0x3
    800020d0:	00379793          	slli	x15,x15,0x3
    800020d4:	00e13423          	sd	x14,8(x2)
    800020d8:	00f687b3          	add	x15,x13,x15
    800020dc:	00a68733          	add	x14,x13,x10
    800020e0:	02e13c23          	sd	x14,56(x2)
    800020e4:	04f13023          	sd	x15,64(x2)
    800020e8:	00013c23          	sd	x0,24(x2)
    800020ec:	05813c23          	sd	x24,88(x2)
    800020f0:	07a13023          	sd	x26,96(x2)
    800020f4:	06b13423          	sd	x11,104(x2)
    800020f8:	06d13823          	sd	x13,112(x2)
    800020fc:	01013783          	ld	x15,16(x2)
    80002100:	00300713          	addi	x14,x0,3
    80002104:	0007bd83          	ld	x27,0(x15)
    80002108:	02013783          	ld	x15,32(x2)
    8000210c:	18f77c63          	bgeu	x14,x15,800022a4 <mm_naive+0x2a4>
    80002110:	00000c13          	addi	x24,x0,0
    80002114:	03513423          	sd	x21,40(x2)
    80002118:	00813903          	ld	x18,8(x2)
    8000211c:	000c0a93          	addi	x21,x24,0
    80002120:	03813403          	ld	x8,56(x2)
    80002124:	05013c03          	ld	x24,80(x2)
    80002128:	00000b93          	addi	x23,x0,0
    8000212c:	000b8c93          	addi	x25,x23,0
    80002130:	000b8d13          	addi	x26,x23,0
    80002134:	00093583          	ld	x11,0(x18)
    80002138:	00043503          	ld	x10,0(x8)
    8000213c:	000d8613          	addi	x12,x27,0
    80002140:	004a8a93          	addi	x21,x21,4
    80002144:	798070ef          	jal	x1,800098dc <__fma>
    80002148:	01390733          	add	x14,x18,x19
    8000214c:	00073583          	ld	x11,0(x14)
    80002150:	00050d93          	addi	x27,x10,0
    80002154:	00843503          	ld	x10,8(x8)
    80002158:	000d0613          	addi	x12,x26,0
    8000215c:	02040413          	addi	x8,x8,32
    80002160:	77c070ef          	jal	x1,800098dc <__fma>
    80002164:	00990733          	add	x14,x18,x9
    80002168:	00073583          	ld	x11,0(x14)
    8000216c:	00050d13          	addi	x26,x10,0
    80002170:	ff043503          	ld	x10,-16(x8)
    80002174:	000c8613          	addi	x12,x25,0
    80002178:	764070ef          	jal	x1,800098dc <__fma>
    8000217c:	01890733          	add	x14,x18,x24
    80002180:	00073583          	ld	x11,0(x14)
    80002184:	00050c93          	addi	x25,x10,0
    80002188:	ff843503          	ld	x10,-8(x8)
    8000218c:	000b8613          	addi	x12,x23,0
    80002190:	01690933          	add	x18,x18,x22
    80002194:	748070ef          	jal	x1,800098dc <__fma>
    80002198:	00050b93          	addi	x23,x10,0
    8000219c:	f94aece3          	bltu	x21,x20,80002134 <mm_naive+0x134>
    800021a0:	000c8593          	addi	x11,x25,0
    800021a4:	000d0513          	addi	x10,x26,0
    800021a8:	00c080ef          	jal	x1,8000a1b4 <__adddf3>
    800021ac:	000b8593          	addi	x11,x23,0
    800021b0:	02813a83          	ld	x21,40(x2)
    800021b4:	000080ef          	jal	x1,8000a1b4 <__adddf3>
    800021b8:	00050413          	addi	x8,x10,0
    800021bc:	02013783          	ld	x15,32(x2)
    800021c0:	02fa7c63          	bgeu	x20,x15,800021f8 <mm_naive+0x1f8>
    800021c4:	04813783          	ld	x15,72(x2)
    800021c8:	00813703          	ld	x14,8(x2)
    800021cc:	04013903          	ld	x18,64(x2)
    800021d0:	000d8613          	addi	x12,x27,0
    800021d4:	00e78bb3          	add	x23,x15,x14
    800021d8:	000bb583          	ld	x11,0(x23)
    800021dc:	00093503          	ld	x10,0(x18)
    800021e0:	00890913          	addi	x18,x18,8
    800021e4:	013b8bb3          	add	x23,x23,x19
    800021e8:	6f4070ef          	jal	x1,800098dc <__fma>
    800021ec:	00050613          	addi	x12,x10,0
    800021f0:	ff2a94e3          	bne	x21,x18,800021d8 <mm_naive+0x1d8>
    800021f4:	00050d93          	addi	x27,x10,0
    800021f8:	00040593          	addi	x11,x8,0
    800021fc:	000d8513          	addi	x10,x27,0
    80002200:	7b5070ef          	jal	x1,8000a1b4 <__adddf3>
    80002204:	01013783          	ld	x15,16(x2)
    80002208:	01813703          	ld	x14,24(x2)
    8000220c:	00a7b023          	sd	x10,0(x15)
    80002210:	00878793          	addi	x15,x15,8
    80002214:	00f13823          	sd	x15,16(x2)
    80002218:	00813783          	ld	x15,8(x2)
    8000221c:	00170713          	addi	x14,x14,1
    80002220:	00e13c23          	sd	x14,24(x2)
    80002224:	00878793          	addi	x15,x15,8
    80002228:	00f13423          	sd	x15,8(x2)
    8000222c:	03013783          	ld	x15,48(x2)
    80002230:	ece796e3          	bne	x15,x14,800020fc <mm_naive+0xfc>
    80002234:	05813c03          	ld	x24,88(x2)
    80002238:	06013d03          	ld	x26,96(x2)
    8000223c:	06813583          	ld	x11,104(x2)
    80002240:	07013683          	ld	x13,112(x2)
    80002244:	11013783          	ld	x15,272(x2)
    80002248:	001c0c13          	addi	x24,x24,1
    8000224c:	00f585b3          	add	x11,x11,x15
    80002250:	08813783          	ld	x15,136(x2)
    80002254:	00fd0d33          	add	x26,x26,x15
    80002258:	07813783          	ld	x15,120(x2)
    8000225c:	00fa8ab3          	add	x21,x21,x15
    80002260:	08013783          	ld	x15,128(x2)
    80002264:	e58794e3          	bne	x15,x24,800020ac <mm_naive+0xac>
    80002268:	10013403          	ld	x8,256(x2)
    8000226c:	0f813483          	ld	x9,248(x2)
    80002270:	0f013903          	ld	x18,240(x2)
    80002274:	0e813983          	ld	x19,232(x2)
    80002278:	0e013a03          	ld	x20,224(x2)
    8000227c:	0d813a83          	ld	x21,216(x2)
    80002280:	0d013b03          	ld	x22,208(x2)
    80002284:	0c813b83          	ld	x23,200(x2)
    80002288:	0c013c03          	ld	x24,192(x2)
    8000228c:	0b813c83          	ld	x25,184(x2)
    80002290:	0b013d03          	ld	x26,176(x2)
    80002294:	0a813d83          	ld	x27,168(x2)
    80002298:	10813083          	ld	x1,264(x2)
    8000229c:	11010113          	addi	x2,x2,272
    800022a0:	00008067          	jalr	x0,0(x1)
    800022a4:	00000413          	addi	x8,x0,0
    800022a8:	f15ff06f          	jal	x0,800021bc <mm_naive+0x1bc>

00000000800022ac <mm_cb>:
    800022ac:	c7010113          	addi	x2,x2,-912
    800022b0:	38813023          	sd	x8,896(x2)
    800022b4:	36913c23          	sd	x9,888(x2)
    800022b8:	37213823          	sd	x18,880(x2)
    800022bc:	37313423          	sd	x19,872(x2)
    800022c0:	35613823          	sd	x22,848(x2)
    800022c4:	35813023          	sd	x24,832(x2)
    800022c8:	39010413          	addi	x8,x2,912
    800022cc:	38113423          	sd	x1,904(x2)
    800022d0:	37413023          	sd	x20,864(x2)
    800022d4:	35513c23          	sd	x21,856(x2)
    800022d8:	35713423          	sd	x23,840(x2)
    800022dc:	33913c23          	sd	x25,824(x2)
    800022e0:	33a13823          	sd	x26,816(x2)
    800022e4:	33b13423          	sd	x27,808(x2)
    800022e8:	00058313          	addi	x6,x11,0
    800022ec:	e2b43423          	sd	x11,-472(x8)
    800022f0:	01900593          	addi	x11,x0,25
    800022f4:	02b35333          	divu	x6,x6,x11
    800022f8:	01800f13          	addi	x30,x0,24
    800022fc:	00060f93          	addi	x31,x12,0
    80002300:	e2c43023          	sd	x12,-480(x8)
    80002304:	00070613          	addi	x12,x14,0
    80002308:	00050913          	addi	x18,x10,0
    8000230c:	00078c13          	addi	x24,x15,0
    80002310:	00088b13          	addi	x22,x17,0
    80002314:	00068493          	addi	x9,x13,0
    80002318:	d6d43823          	sd	x13,-656(x8)
    8000231c:	00002eb7          	lui	x29,0x2
    80002320:	fffe8513          	addi	x10,x29,-1 # 1fff <buflen.1+0x1f7f>
    80002324:	ffffee37          	lui	x28,0xffffe
    80002328:	00043583          	ld	x11,0(x8)
    8000232c:	03efd733          	divu	x14,x31,x30
    80002330:	00131793          	slli	x15,x6,0x1
    80002334:	006787b3          	add	x15,x15,x6
    80002338:	00379793          	slli	x15,x15,0x3
    8000233c:	006788b3          	add	x17,x15,x6
    80002340:	e1143423          	sd	x17,-504(x8)
    80002344:	03e97f33          	remu	x30,x18,x30
    80002348:	00171793          	slli	x15,x14,0x1
    8000234c:	00e787b3          	add	x15,x15,x14
    80002350:	00679293          	slli	x5,x15,0x6
    80002354:	00379393          	slli	x7,x15,0x3
    80002358:	0c800793          	addi	x15,x0,200
    8000235c:	d8e43823          	sd	x14,-624(x8)
    80002360:	e6743023          	sd	x7,-416(x8)
    80002364:	02f306b3          	mul	x13,x6,x15
    80002368:	41e909b3          	sub	x19,x18,x30
    8000236c:	02588733          	mul	x14,x17,x5
    80002370:	02d987b3          	mul	x15,x19,x13
    80002374:	00a70733          	add	x14,x14,x10
    80002378:	00f70713          	addi	x14,x14,15
    8000237c:	ff077713          	andi	x14,x14,-16
    80002380:	025988b3          	mul	x17,x19,x5
    80002384:	00a787b3          	add	x15,x15,x10
    80002388:	00f78793          	addi	x15,x15,15
    8000238c:	ff07f793          	andi	x15,x15,-16
    80002390:	01d888b3          	add	x17,x17,x29
    80002394:	41110133          	sub	x2,x2,x17
    80002398:	01010893          	addi	x17,x2,16
    8000239c:	40e10133          	sub	x2,x2,x14
    800023a0:	01010713          	addi	x14,x2,16
    800023a4:	40f10133          	sub	x2,x2,x15
    800023a8:	01010793          	addi	x15,x2,16
    800023ac:	00a888b3          	add	x17,x17,x10
    800023b0:	00a70733          	add	x14,x14,x10
    800023b4:	00a787b3          	add	x15,x15,x10
    800023b8:	01c8f8b3          	and	x17,x17,x28
    800023bc:	01c77733          	and	x14,x14,x28
    800023c0:	01c7f7b3          	and	x15,x15,x28
    800023c4:	d9143423          	sd	x17,-632(x8)
    800023c8:	d8e43023          	sd	x14,-640(x8)
    800023cc:	def43c23          	sd	x15,-520(x8)
    800023d0:	00099463          	bne	x19,x0,800023d8 <mm_cb+0x12c>
    800023d4:	0280506f          	jal	x0,800073fc <mm_cb+0x5150>
    800023d8:	00161513          	slli	x10,x12,0x1
    800023dc:	00c507b3          	add	x15,x10,x12
    800023e0:	00679f93          	slli	x31,x15,0x6
    800023e4:	00361793          	slli	x15,x12,0x3
    800023e8:	f8643423          	sd	x6,-120(x8)
    800023ec:	00048f13          	addi	x30,x9,0
    800023f0:	00068313          	addi	x6,x13,0
    800023f4:	e4f43823          	sd	x15,-432(x8)
    800023f8:	00000713          	addi	x14,x0,0
    800023fc:	01800a13          	addi	x20,x0,24
    80002400:	00060693          	addi	x13,x12,0
    80002404:	0e038263          	beq	x7,x0,800024e8 <mm_cb+0x23c>
    80002408:	034758b3          	divu	x17,x14,x20
    8000240c:	d9043e03          	ld	x28,-624(x8)
    80002410:	f8e43023          	sd	x14,-128(x8)
    80002414:	000f0613          	addi	x12,x30,0
    80002418:	00000793          	addi	x15,x0,0
    8000241c:	000f0713          	addi	x14,x30,0
    80002420:	03c88eb3          	mul	x29,x17,x28
    80002424:	0c060613          	addi	x12,x12,192
    80002428:	00060b93          	addi	x23,x12,0
    8000242c:	00000f13          	addi	x30,x0,0
    80002430:	f7d43c23          	sd	x29,-136(x8)
    80002434:	f7343823          	sd	x19,-144(x8)
    80002438:	f6f43423          	sd	x15,-152(x8)
    8000243c:	f6643023          	sd	x6,-160(x8)
    80002440:	0347d8b3          	divu	x17,x15,x20
    80002444:	01d888b3          	add	x17,x17,x29
    80002448:	00389e13          	slli	x28,x17,0x3
    8000244c:	011e0e33          	add	x28,x28,x17
    80002450:	d8843883          	ld	x17,-632(x8)
    80002454:	009e1e13          	slli	x28,x28,0x9
    80002458:	01c88e33          	add	x28,x17,x28
    8000245c:	f40b8793          	addi	x15,x23,-192
    80002460:	000e0893          	addi	x17,x28,0 # ffffffffffffe000 <_tbss_end+0xffffffff7fff23bc>
    80002464:	0087bd83          	ld	x27,8(x15)
    80002468:	0107bd03          	ld	x26,16(x15)
    8000246c:	0187ba83          	ld	x21,24(x15)
    80002470:	0207b983          	ld	x19,32(x15)
    80002474:	0287b483          	ld	x9,40(x15)
    80002478:	0307be83          	ld	x29,48(x15)
    8000247c:	0387b303          	ld	x6,56(x15)
    80002480:	0007bc83          	ld	x25,0(x15)
    80002484:	01b8b423          	sd	x27,8(x17)
    80002488:	01a8b823          	sd	x26,16(x17)
    8000248c:	0198b023          	sd	x25,0(x17)
    80002490:	0158bc23          	sd	x21,24(x17)
    80002494:	0338b023          	sd	x19,32(x17)
    80002498:	0298b423          	sd	x9,40(x17)
    8000249c:	03d8b823          	sd	x29,48(x17)
    800024a0:	0268bc23          	sd	x6,56(x17)
    800024a4:	04078793          	addi	x15,x15,64
    800024a8:	04088893          	addi	x17,x17,64
    800024ac:	fafb9ce3          	bne	x23,x15,80002464 <mm_cb+0x1b8>
    800024b0:	e5043783          	ld	x15,-432(x8)
    800024b4:	018f0f13          	addi	x30,x30,24
    800024b8:	0c0e0e13          	addi	x28,x28,192
    800024bc:	00fb8bb3          	add	x23,x23,x15
    800024c0:	24000793          	addi	x15,x0,576
    800024c4:	f8ff1ce3          	bne	x30,x15,8000245c <mm_cb+0x1b0>
    800024c8:	f6843783          	ld	x15,-152(x8)
    800024cc:	f7843e83          	ld	x29,-136(x8)
    800024d0:	f7043983          	ld	x19,-144(x8)
    800024d4:	01878793          	addi	x15,x15,24
    800024d8:	f6043303          	ld	x6,-160(x8)
    800024dc:	f477e4e3          	bltu	x15,x7,80002424 <mm_cb+0x178>
    800024e0:	00070f13          	addi	x30,x14,0
    800024e4:	f8043703          	ld	x14,-128(x8)
    800024e8:	01870713          	addi	x14,x14,24
    800024ec:	01ff0f33          	add	x30,x30,x31
    800024f0:	f1376ae3          	bltu	x14,x19,80002404 <mm_cb+0x158>
    800024f4:	e6043783          	ld	x15,-416(x8)
    800024f8:	00068613          	addi	x12,x13,0
    800024fc:	00030693          	addi	x13,x6,0
    80002500:	f8843303          	ld	x6,-120(x8)
    80002504:	00079463          	bne	x15,x0,8000250c <mm_cb+0x260>
    80002508:	7a10406f          	jal	x0,800074a8 <mm_cb+0x51fc>
    8000250c:	00181493          	slli	x9,x16,0x1
    80002510:	010487b3          	add	x15,x9,x16
    80002514:	00001f37          	lui	x30,0x1
    80002518:	00679f93          	slli	x31,x15,0x6
    8000251c:	00381793          	slli	x15,x16,0x3
    80002520:	f8d43423          	sd	x13,-120(x8)
    80002524:	000c0e93          	addi	x29,x24,0
    80002528:	eaf43423          	sd	x15,-344(x8)
    8000252c:	00000713          	addi	x14,x0,0
    80002530:	01800a13          	addi	x20,x0,24
    80002534:	2c0f0f13          	addi	x30,x30,704 # 12c0 <buflen.1+0x1240>
    80002538:	25800d13          	addi	x26,x0,600
    8000253c:	00060693          	addi	x13,x12,0
    80002540:	e2843783          	ld	x15,-472(x8)
    80002544:	0efa7663          	bgeu	x20,x15,80002630 <mm_cb+0x384>
    80002548:	03475533          	divu	x10,x14,x20
    8000254c:	f6e43c23          	sd	x14,-136(x8)
    80002550:	000e8613          	addi	x12,x29,0
    80002554:	00000793          	addi	x15,x0,0
    80002558:	f8643023          	sd	x6,-128(x8)
    8000255c:	00068713          	addi	x14,x13,0
    80002560:	02650e33          	mul	x28,x10,x6
    80002564:	01900693          	addi	x13,x0,25
    80002568:	0c060b93          	addi	x23,x12,192
    8000256c:	00000313          	addi	x6,x0,0
    80002570:	f7c43823          	sd	x28,-144(x8)
    80002574:	f7343423          	sd	x19,-152(x8)
    80002578:	f6f43023          	sd	x15,-160(x8)
    8000257c:	02d7d8b3          	divu	x17,x15,x13
    80002580:	d8043683          	ld	x13,-640(x8)
    80002584:	01c888b3          	add	x17,x17,x28
    80002588:	03e888b3          	mul	x17,x17,x30
    8000258c:	011688b3          	add	x17,x13,x17
    80002590:	f40b8793          	addi	x15,x23,-192
    80002594:	00088693          	addi	x13,x17,0
    80002598:	f5d43c23          	sd	x29,-168(x8)
    8000259c:	0087bd83          	ld	x27,8(x15)
    800025a0:	0107bc83          	ld	x25,16(x15)
    800025a4:	0187b983          	ld	x19,24(x15)
    800025a8:	0207b383          	ld	x7,32(x15)
    800025ac:	0287be83          	ld	x29,40(x15)
    800025b0:	0307be03          	ld	x28,48(x15)
    800025b4:	0387b503          	ld	x10,56(x15)
    800025b8:	0007ba83          	ld	x21,0(x15)
    800025bc:	01b6b423          	sd	x27,8(x13)
    800025c0:	0196b823          	sd	x25,16(x13)
    800025c4:	0156b023          	sd	x21,0(x13)
    800025c8:	0136bc23          	sd	x19,24(x13)
    800025cc:	0276b023          	sd	x7,32(x13)
    800025d0:	03d6b423          	sd	x29,40(x13)
    800025d4:	03c6b823          	sd	x28,48(x13)
    800025d8:	02a6bc23          	sd	x10,56(x13)
    800025dc:	04078793          	addi	x15,x15,64
    800025e0:	04068693          	addi	x13,x13,64
    800025e4:	fafb9ce3          	bne	x23,x15,8000259c <mm_cb+0x2f0>
    800025e8:	000bb783          	ld	x15,0(x23)
    800025ec:	01930313          	addi	x6,x6,25
    800025f0:	0c888893          	addi	x17,x17,200
    800025f4:	fef8bc23          	sd	x15,-8(x17)
    800025f8:	ea843783          	ld	x15,-344(x8)
    800025fc:	f5843e83          	ld	x29,-168(x8)
    80002600:	00fb8bb3          	add	x23,x23,x15
    80002604:	f9a316e3          	bne	x6,x26,80002590 <mm_cb+0x2e4>
    80002608:	f6043783          	ld	x15,-160(x8)
    8000260c:	e0843683          	ld	x13,-504(x8)
    80002610:	f7043e03          	ld	x28,-144(x8)
    80002614:	01978793          	addi	x15,x15,25
    80002618:	f6843983          	ld	x19,-152(x8)
    8000261c:	0c860613          	addi	x12,x12,200
    80002620:	f4d7e2e3          	bltu	x15,x13,80002564 <mm_cb+0x2b8>
    80002624:	00070693          	addi	x13,x14,0
    80002628:	f8043303          	ld	x6,-128(x8)
    8000262c:	f7843703          	ld	x14,-136(x8)
    80002630:	e6043783          	ld	x15,-416(x8)
    80002634:	01870713          	addi	x14,x14,24
    80002638:	01fe8eb3          	add	x29,x29,x31
    8000263c:	f0f762e3          	bltu	x14,x15,80002540 <mm_cb+0x294>
    80002640:	00068613          	addi	x12,x13,0
    80002644:	f8843683          	ld	x13,-120(x8)
    80002648:	00099463          	bne	x19,x0,80002650 <mm_cb+0x3a4>
    8000264c:	5bd0406f          	jal	x0,80007408 <mm_cb+0x515c>
    80002650:	00361793          	slli	x15,x12,0x3
    80002654:	00161513          	slli	x10,x12,0x1
    80002658:	e4f43823          	sd	x15,-432(x8)
    8000265c:	00159a13          	slli	x20,x11,0x1
    80002660:	00ba07b3          	add	x15,x20,x11
    80002664:	000013b7          	lui	x7,0x1
    80002668:	f8d43423          	sd	x13,-120(x8)
    8000266c:	00679c93          	slli	x25,x15,0x6
    80002670:	000b0f13          	addi	x30,x22,0
    80002674:	00359f93          	slli	x31,x11,0x3
    80002678:	00000713          	addi	x14,x0,0
    8000267c:	01800893          	addi	x17,x0,24
    80002680:	01900d93          	addi	x27,x0,25
    80002684:	2c038393          	addi	x7,x7,704 # 12c0 <buflen.1+0x1240>
    80002688:	00060e13          	addi	x28,x12,0
    8000268c:	00058693          	addi	x13,x11,0
    80002690:	e2843783          	ld	x15,-472(x8)
    80002694:	10f8f463          	bgeu	x17,x15,8000279c <mm_cb+0x4f0>
    80002698:	031755b3          	divu	x11,x14,x17
    8000269c:	f6e43823          	sd	x14,-144(x8)
    800026a0:	000f0613          	addi	x12,x30,0
    800026a4:	00000793          	addi	x15,x0,0
    800026a8:	f8643023          	sd	x6,-128(x8)
    800026ac:	f7343c23          	sd	x19,-136(x8)
    800026b0:	000e0e93          	addi	x29,x28,0
    800026b4:	000b0713          	addi	x14,x22,0
    800026b8:	02658ab3          	mul	x21,x11,x6
    800026bc:	df843583          	ld	x11,-520(x8)
    800026c0:	0c060b13          	addi	x22,x12,192
    800026c4:	00000e13          	addi	x28,x0,0
    800026c8:	f7543423          	sd	x21,-152(x8)
    800026cc:	f6f43023          	sd	x15,-160(x8)
    800026d0:	f5e43c23          	sd	x30,-168(x8)
    800026d4:	f4c43823          	sd	x12,-176(x8)
    800026d8:	03b7d333          	divu	x6,x15,x27
    800026dc:	01530333          	add	x6,x6,x21
    800026e0:	02730333          	mul	x6,x6,x7
    800026e4:	00658333          	add	x6,x11,x6
    800026e8:	f40b0793          	addi	x15,x22,-192
    800026ec:	00030613          	addi	x12,x6,0
    800026f0:	f5c43423          	sd	x28,-184(x8)
    800026f4:	f4643023          	sd	x6,-192(x8)
    800026f8:	0087bd03          	ld	x26,8(x15)
    800026fc:	0107ba83          	ld	x21,16(x15)
    80002700:	0187b983          	ld	x19,24(x15)
    80002704:	0207bf03          	ld	x30,32(x15)
    80002708:	0287be03          	ld	x28,40(x15)
    8000270c:	0307b303          	ld	x6,48(x15)
    80002710:	0387b583          	ld	x11,56(x15)
    80002714:	0007bb83          	ld	x23,0(x15)
    80002718:	01a63423          	sd	x26,8(x12)
    8000271c:	01563823          	sd	x21,16(x12)
    80002720:	01763023          	sd	x23,0(x12)
    80002724:	01363c23          	sd	x19,24(x12)
    80002728:	03e63023          	sd	x30,32(x12)
    8000272c:	03c63423          	sd	x28,40(x12)
    80002730:	02663823          	sd	x6,48(x12)
    80002734:	02b63c23          	sd	x11,56(x12)
    80002738:	04078793          	addi	x15,x15,64
    8000273c:	04060613          	addi	x12,x12,64
    80002740:	fafb1ce3          	bne	x22,x15,800026f8 <mm_cb+0x44c>
    80002744:	000b3783          	ld	x15,0(x22)
    80002748:	f4043303          	ld	x6,-192(x8)
    8000274c:	f4843e03          	ld	x28,-184(x8)
    80002750:	01fb0b33          	add	x22,x22,x31
    80002754:	0cf33023          	sd	x15,192(x6)
    80002758:	019e0e13          	addi	x28,x28,25
    8000275c:	25800793          	addi	x15,x0,600
    80002760:	0c830313          	addi	x6,x6,200
    80002764:	f8fe12e3          	bne	x28,x15,800026e8 <mm_cb+0x43c>
    80002768:	f6043783          	ld	x15,-160(x8)
    8000276c:	f5043603          	ld	x12,-176(x8)
    80002770:	e0843583          	ld	x11,-504(x8)
    80002774:	01978793          	addi	x15,x15,25
    80002778:	f6843a83          	ld	x21,-152(x8)
    8000277c:	f5843f03          	ld	x30,-168(x8)
    80002780:	0c860613          	addi	x12,x12,200
    80002784:	f2b7ece3          	bltu	x15,x11,800026bc <mm_cb+0x410>
    80002788:	00070b13          	addi	x22,x14,0
    8000278c:	f8043303          	ld	x6,-128(x8)
    80002790:	f7843983          	ld	x19,-136(x8)
    80002794:	f7043703          	ld	x14,-144(x8)
    80002798:	000e8e13          	addi	x28,x29,0
    8000279c:	01870713          	addi	x14,x14,24
    800027a0:	019f0f33          	add	x30,x30,x25
    800027a4:	ef3766e3          	bltu	x14,x19,80002690 <mm_cb+0x3e4>
    800027a8:	e2043703          	ld	x14,-480(x8)
    800027ac:	01800793          	addi	x15,x0,24
    800027b0:	000e0613          	addi	x12,x28,0
    800027b4:	02f77e33          	remu	x28,x14,x15
    800027b8:	010487b3          	add	x15,x9,x16
    800027bc:	00068593          	addi	x11,x13,0
    800027c0:	00c50733          	add	x14,x10,x12
    800027c4:	f8843683          	ld	x13,-120(x8)
    800027c8:	00078513          	addi	x10,x15,0
    800027cc:	00479793          	slli	x15,x15,0x4
    800027d0:	00371e93          	slli	x29,x14,0x3
    800027d4:	e5043f03          	ld	x30,-432(x8)
    800027d8:	eaf43023          	sd	x15,-352(x8)
    800027dc:	e6f43c23          	sd	x15,-392(x8)
    800027e0:	00671793          	slli	x15,x14,0x6
    800027e4:	00561713          	slli	x14,x12,0x5
    800027e8:	dee43423          	sd	x14,-536(x8)
    800027ec:	00651713          	slli	x14,x10,0x6
    800027f0:	d0e43823          	sd	x14,-752(x8)
    800027f4:	00dc0733          	add	x14,x24,x13
    800027f8:	e9e43c23          	sd	x30,-360(x8)
    800027fc:	d2e43423          	sd	x14,-728(x8)
    80002800:	00461f13          	slli	x30,x12,0x4
    80002804:	00559713          	slli	x14,x11,0x5
    80002808:	00001bb7          	lui	x23,0x1
    8000280c:	00001d37          	lui	x26,0x1
    80002810:	efe43023          	sd	x30,-288(x8)
    80002814:	dae43023          	sd	x14,-608(x8)
    80002818:	00db0f33          	add	x30,x22,x13
    8000281c:	2c0b8713          	addi	x14,x23,704 # 12c0 <buflen.1+0x1240>
    80002820:	e2843683          	ld	x13,-472(x8)
    80002824:	dee43823          	sd	x14,-528(x8)
    80002828:	200d0713          	addi	x14,x26,512 # 1200 <buflen.1+0x1180>
    8000282c:	d0e43023          	sd	x14,-768(x8)
    80002830:	01900713          	addi	x14,x0,25
    80002834:	d1d43c23          	sd	x29,-744(x8)
    80002838:	e9d43423          	sd	x29,-376(x8)
    8000283c:	ea843e83          	ld	x29,-344(x8)
    80002840:	00500893          	addi	x17,x0,5
    80002844:	daf43c23          	sd	x15,-584(x8)
    80002848:	ebd43823          	sd	x29,-336(x8)
    8000284c:	00581e93          	slli	x29,x16,0x5
    80002850:	ebd43c23          	sd	x29,-328(x8)
    80002854:	00459793          	slli	x15,x11,0x4
    80002858:	e0f43023          	sd	x15,-512(x8)
    8000285c:	d7043783          	ld	x15,-656(x8)
    80002860:	00481a93          	slli	x21,x16,0x4
    80002864:	e9543023          	sd	x21,-384(x8)
    80002868:	005787b3          	add	x15,x15,x5
    8000286c:	00000393          	addi	x7,x0,0
    80002870:	d8643c23          	sd	x6,-616(x8)
    80002874:	000c8d93          	addi	x27,x25,0
    80002878:	02e6fd33          	remu	x26,x13,x14
    8000287c:	003e1713          	slli	x14,x28,0x3
    80002880:	d4e43423          	sd	x14,-696(x8)
    80002884:	00600713          	addi	x14,x0,6
    80002888:	02ee5733          	divu	x14,x28,x14
    8000288c:	031d5eb3          	divu	x29,x26,x17
    80002890:	00171513          	slli	x10,x14,0x1
    80002894:	00e50533          	add	x10,x10,x14
    80002898:	00451693          	slli	x13,x10,0x4
    8000289c:	d2d43023          	sd	x13,-736(x8)
    800028a0:	02e80533          	mul	x10,x16,x14
    800028a4:	002e9713          	slli	x14,x29,0x2
    800028a8:	01d70733          	add	x14,x14,x29
    800028ac:	dce43c23          	sd	x14,-552(x8)
    800028b0:	00371713          	slli	x14,x14,0x3
    800028b4:	d6e43423          	sd	x14,-664(x8)
    800028b8:	e6043703          	ld	x14,-416(x8)
    800028bc:	00151e93          	slli	x29,x10,0x1
    800028c0:	00ae8eb3          	add	x29,x29,x10
    800028c4:	004e9693          	slli	x13,x29,0x4
    800028c8:	dcd43023          	sd	x13,-576(x8)
    800028cc:	031d76b3          	remu	x13,x26,x17
    800028d0:	03070733          	mul	x14,x14,x16
    800028d4:	d4d43023          	sd	x13,-704(x8)
    800028d8:	00371713          	slli	x14,x14,0x3
    800028dc:	00ec0733          	add	x14,x24,x14
    800028e0:	d6e43c23          	sd	x14,-648(x8)
    800028e4:	d7343023          	sd	x19,-672(x8)
    800028e8:	d5c43c23          	sd	x28,-680(x8)
    800028ec:	cf243c23          	sd	x18,-776(x8)
    800028f0:	000a8e13          	addi	x28,x21,0
    800028f4:	cf843823          	sd	x24,-784(x8)
    800028f8:	cf643423          	sd	x22,-792(x8)
    800028fc:	00078a93          	addi	x21,x15,0
    80002900:	00038913          	addi	x18,x7,0
    80002904:	e4c43423          	sd	x12,-440(x8)
    80002908:	000d0c13          	addi	x24,x26,0
    8000290c:	e5043c23          	sd	x16,-424(x8)
    80002910:	000f0b13          	addi	x22,x30,0
    80002914:	00b43023          	sd	x11,0(x8)
    80002918:	ce543023          	sd	x5,-800(x8)
    8000291c:	cc943c23          	sd	x9,-808(x8)
    80002920:	cd443823          	sd	x20,-816(x8)
    80002924:	d5f43823          	sd	x31,-688(x8)
    80002928:	e2843783          	ld	x15,-472(x8)
    8000292c:	01800713          	addi	x14,x0,24
    80002930:	00f76463          	bltu	x14,x15,80002938 <mm_cb+0x68c>
    80002934:	7900306f          	jal	x0,800060c4 <mm_cb+0x3e18>
    80002938:	02e95733          	divu	x14,x18,x14
    8000293c:	000016b7          	lui	x13,0x1
    80002940:	38868693          	addi	x13,x13,904 # 1388 <buflen.1+0x1308>
    80002944:	d0d43423          	sd	x13,-760(x8)
    80002948:	d9043683          	ld	x13,-624(x8)
    8000294c:	db843783          	ld	x15,-584(x8)
    80002950:	00000b93          	addi	x23,x0,0
    80002954:	cd243423          	sd	x18,-824(x8)
    80002958:	015787b3          	add	x15,x15,x21
    8000295c:	daf43423          	sd	x15,-600(x8)
    80002960:	d2043783          	ld	x15,-736(x8)
    80002964:	000b8493          	addi	x9,x23,0
    80002968:	cd843023          	sd	x24,-832(x8)
    8000296c:	015787b3          	add	x15,x15,x21
    80002970:	d2f43c23          	sd	x15,-712(x8)
    80002974:	d4843783          	ld	x15,-696(x8)
    80002978:	dd543823          	sd	x21,-560(x8)
    8000297c:	cb643c23          	sd	x22,-840(x8)
    80002980:	015787b3          	add	x15,x15,x21
    80002984:	daf43823          	sd	x15,-592(x8)
    80002988:	d7843783          	ld	x15,-648(x8)
    8000298c:	00078993          	addi	x19,x15,0
    80002990:	02d706b3          	mul	x13,x14,x13
    80002994:	dcd43423          	sd	x13,-568(x8)
    80002998:	d9843683          	ld	x13,-616(x8)
    8000299c:	02d70733          	mul	x14,x14,x13
    800029a0:	dee43023          	sd	x14,-544(x8)
    800029a4:	e6043783          	ld	x15,-416(x8)
    800029a8:	00079463          	bne	x15,x0,800029b0 <mm_cb+0x704>
    800029ac:	6ed0006f          	jal	x0,80003898 <mm_cb+0x15ec>
    800029b0:	01900793          	addi	x15,x0,25
    800029b4:	02f4d0b3          	divu	x1,x9,x15
    800029b8:	de043783          	ld	x15,-544(x8)
    800029bc:	df043703          	ld	x14,-528(x8)
    800029c0:	df843683          	ld	x13,-520(x8)
    800029c4:	00000a13          	addi	x20,x0,0
    800029c8:	e4943023          	sd	x9,-448(x8)
    800029cc:	e3c43c23          	sd	x28,-456(x8)
    800029d0:	00f087b3          	add	x15,x1,x15
    800029d4:	02e787b3          	mul	x15,x15,x14
    800029d8:	00008913          	addi	x18,x1,0
    800029dc:	00f687b3          	add	x15,x13,x15
    800029e0:	00e78cb3          	add	x25,x15,x14
    800029e4:	d0843703          	ld	x14,-760(x8)
    800029e8:	0c878d13          	addi	x26,x15,200
    800029ec:	00e78c33          	add	x24,x15,x14
    800029f0:	01800793          	addi	x15,x0,24
    800029f4:	02fa57b3          	divu	x15,x20,x15
    800029f8:	d9843703          	ld	x14,-616(x8)
    800029fc:	dc843683          	ld	x13,-568(x8)
    80002a00:	000d0493          	addi	x9,x26,0
    80002a04:	e1243c23          	sd	x18,-488(x8)
    80002a08:	e1443823          	sd	x20,-496(x8)
    80002a0c:	d3943823          	sd	x25,-720(x8)
    80002a10:	cb343823          	sd	x19,-848(x8)
    80002a14:	e7843423          	sd	x24,-408(x8)
    80002a18:	cbb43423          	sd	x27,-856(x8)
    80002a1c:	cba43023          	sd	x26,-864(x8)
    80002a20:	02e78733          	mul	x14,x15,x14
    80002a24:	00f687b3          	add	x15,x13,x15
    80002a28:	00379693          	slli	x13,x15,0x3
    80002a2c:	00f687b3          	add	x15,x13,x15
    80002a30:	d8843683          	ld	x13,-632(x8)
    80002a34:	00979793          	slli	x15,x15,0x9
    80002a38:	00f686b3          	add	x13,x13,x15
    80002a3c:	0c068793          	addi	x15,x13,192
    80002a40:	eef43423          	sd	x15,-280(x8)
    80002a44:	012707b3          	add	x15,x14,x18
    80002a48:	df043703          	ld	x14,-528(x8)
    80002a4c:	e2d43823          	sd	x13,-464(x8)
    80002a50:	02e787b3          	mul	x15,x15,x14
    80002a54:	d8043703          	ld	x14,-640(x8)
    80002a58:	00f70ab3          	add	x21,x14,x15
    80002a5c:	0c8a8b93          	addi	x23,x21,200
    80002a60:	e7543823          	sd	x21,-400(x8)
    80002a64:	ed743023          	sd	x23,-320(x8)
    80002a68:	ee843783          	ld	x15,-280(x8)
    80002a6c:	e7043a03          	ld	x20,-400(x8)
    80002a70:	f3848913          	addi	x18,x9,-200
    80002a74:	f4078a93          	addi	x21,x15,-192
    80002a78:	e8943823          	sd	x9,-368(x8)
    80002a7c:	ed543423          	sd	x21,-312(x8)
    80002a80:	00090493          	addi	x9,x18,0
    80002a84:	2684b503          	ld	x10,616(x9)
    80002a88:	1b04b783          	ld	x15,432(x9)
    80002a8c:	0004bc03          	ld	x24,0(x9)
    80002a90:	f8a43023          	sd	x10,-128(x8)
    80002a94:	2704b503          	ld	x10,624(x9)
    80002a98:	0084b083          	ld	x1,8(x9)
    80002a9c:	0104b383          	ld	x7,16(x9)
    80002aa0:	0c84bf03          	ld	x30,200(x9)
    80002aa4:	0d04be83          	ld	x29,208(x9)
    80002aa8:	0d84be03          	ld	x28,216(x9)
    80002aac:	0e04b303          	ld	x6,224(x9)
    80002ab0:	f6a43c23          	sd	x10,-136(x8)
    80002ab4:	2784b503          	ld	x10,632(x9)
    80002ab8:	0184b283          	ld	x5,24(x9)
    80002abc:	0204bf83          	ld	x31,32(x9)
    80002ac0:	0e84b883          	ld	x17,232(x9)
    80002ac4:	1984b583          	ld	x11,408(x9)
    80002ac8:	1a04b683          	ld	x13,416(x9)
    80002acc:	1a84b703          	ld	x14,424(x9)
    80002ad0:	2604b603          	ld	x12,608(x9)
    80002ad4:	f8f43423          	sd	x15,-120(x8)
    80002ad8:	1904b803          	ld	x16,400(x9)
    80002adc:	2584b783          	ld	x15,600(x9)
    80002ae0:	f7843423          	sd	x24,-152(x8)
    80002ae4:	f6a43823          	sd	x10,-144(x8)
    80002ae8:	f6143023          	sd	x1,-160(x8)
    80002aec:	f4743c23          	sd	x7,-168(x8)
    80002af0:	f5e43823          	sd	x30,-176(x8)
    80002af4:	f5d43423          	sd	x29,-184(x8)
    80002af8:	f5c43023          	sd	x28,-192(x8)
    80002afc:	f2643c23          	sd	x6,-200(x8)
    80002b00:	ec843c83          	ld	x25,-312(x8)
    80002b04:	000a0d13          	addi	x26,x20,0
    80002b08:	f3043823          	sd	x16,-208(x8)
    80002b0c:	00028b93          	addi	x23,x5,0
    80002b10:	ed443c23          	sd	x20,-296(x8)
    80002b14:	000f8c13          	addi	x24,x31,0
    80002b18:	00088d93          	addi	x27,x17,0
    80002b1c:	f2b43423          	sd	x11,-216(x8)
    80002b20:	f2d43023          	sd	x13,-224(x8)
    80002b24:	f0e43c23          	sd	x14,-232(x8)
    80002b28:	f0f43823          	sd	x15,-240(x8)
    80002b2c:	00060a13          	addi	x20,x12,0
    80002b30:	ec943823          	sd	x9,-304(x8)
    80002b34:	000cb483          	ld	x9,0(x25)
    80002b38:	000d3983          	ld	x19,0(x26)
    80002b3c:	f6843603          	ld	x12,-152(x8)
    80002b40:	00048513          	addi	x10,x9,0
    80002b44:	00098593          	addi	x11,x19,0
    80002b48:	595060ef          	jal	x1,800098dc <__fma>
    80002b4c:	008d3903          	ld	x18,8(x26)
    80002b50:	f6043603          	ld	x12,-160(x8)
    80002b54:	00050793          	addi	x15,x10,0
    80002b58:	00090593          	addi	x11,x18,0
    80002b5c:	00048513          	addi	x10,x9,0
    80002b60:	f6f43423          	sd	x15,-152(x8)
    80002b64:	579060ef          	jal	x1,800098dc <__fma>
    80002b68:	010d3a83          	ld	x21,16(x26)
    80002b6c:	f5843603          	ld	x12,-168(x8)
    80002b70:	00050793          	addi	x15,x10,0
    80002b74:	000a8593          	addi	x11,x21,0
    80002b78:	00048513          	addi	x10,x9,0
    80002b7c:	f6f43023          	sd	x15,-160(x8)
    80002b80:	55d060ef          	jal	x1,800098dc <__fma>
    80002b84:	018d3b03          	ld	x22,24(x26)
    80002b88:	00050793          	addi	x15,x10,0
    80002b8c:	000b8613          	addi	x12,x23,0
    80002b90:	000b0593          	addi	x11,x22,0
    80002b94:	00048513          	addi	x10,x9,0
    80002b98:	f4f43c23          	sd	x15,-168(x8)
    80002b9c:	541060ef          	jal	x1,800098dc <__fma>
    80002ba0:	020d3b83          	ld	x23,32(x26)
    80002ba4:	00050793          	addi	x15,x10,0
    80002ba8:	000c0613          	addi	x12,x24,0
    80002bac:	000b8593          	addi	x11,x23,0
    80002bb0:	00048513          	addi	x10,x9,0
    80002bb4:	00078c13          	addi	x24,x15,0
    80002bb8:	525060ef          	jal	x1,800098dc <__fma>
    80002bbc:	0c0cb483          	ld	x9,192(x25)
    80002bc0:	f5043603          	ld	x12,-176(x8)
    80002bc4:	00050793          	addi	x15,x10,0
    80002bc8:	00048593          	addi	x11,x9,0
    80002bcc:	00098513          	addi	x10,x19,0
    80002bd0:	f4f43823          	sd	x15,-176(x8)
    80002bd4:	509060ef          	jal	x1,800098dc <__fma>
    80002bd8:	f4843603          	ld	x12,-184(x8)
    80002bdc:	00050793          	addi	x15,x10,0
    80002be0:	00048593          	addi	x11,x9,0
    80002be4:	00090513          	addi	x10,x18,0
    80002be8:	f4f43423          	sd	x15,-184(x8)
    80002bec:	4f1060ef          	jal	x1,800098dc <__fma>
    80002bf0:	f4043603          	ld	x12,-192(x8)
    80002bf4:	00050793          	addi	x15,x10,0
    80002bf8:	00048593          	addi	x11,x9,0
    80002bfc:	000a8513          	addi	x10,x21,0
    80002c00:	f4f43023          	sd	x15,-192(x8)
    80002c04:	4d9060ef          	jal	x1,800098dc <__fma>
    80002c08:	f3843603          	ld	x12,-200(x8)
    80002c0c:	00050793          	addi	x15,x10,0
    80002c10:	00048593          	addi	x11,x9,0
    80002c14:	000b0513          	addi	x10,x22,0
    80002c18:	f2f43c23          	sd	x15,-200(x8)
    80002c1c:	4c1060ef          	jal	x1,800098dc <__fma>
    80002c20:	00050793          	addi	x15,x10,0
    80002c24:	000d8613          	addi	x12,x27,0
    80002c28:	00048593          	addi	x11,x9,0
    80002c2c:	000b8513          	addi	x10,x23,0
    80002c30:	00078d93          	addi	x27,x15,0
    80002c34:	4a9060ef          	jal	x1,800098dc <__fma>
    80002c38:	180cb483          	ld	x9,384(x25)
    80002c3c:	f3043603          	ld	x12,-208(x8)
    80002c40:	00050793          	addi	x15,x10,0
    80002c44:	00048593          	addi	x11,x9,0
    80002c48:	00098513          	addi	x10,x19,0
    80002c4c:	f2f43823          	sd	x15,-208(x8)
    80002c50:	48d060ef          	jal	x1,800098dc <__fma>
    80002c54:	f2843603          	ld	x12,-216(x8)
    80002c58:	00050793          	addi	x15,x10,0
    80002c5c:	00048593          	addi	x11,x9,0
    80002c60:	00090513          	addi	x10,x18,0
    80002c64:	f2f43423          	sd	x15,-216(x8)
    80002c68:	475060ef          	jal	x1,800098dc <__fma>
    80002c6c:	f2043603          	ld	x12,-224(x8)
    80002c70:	00050793          	addi	x15,x10,0
    80002c74:	00048593          	addi	x11,x9,0
    80002c78:	000a8513          	addi	x10,x21,0
    80002c7c:	f2f43023          	sd	x15,-224(x8)
    80002c80:	45d060ef          	jal	x1,800098dc <__fma>
    80002c84:	f1843603          	ld	x12,-232(x8)
    80002c88:	00050793          	addi	x15,x10,0
    80002c8c:	00048593          	addi	x11,x9,0
    80002c90:	000b0513          	addi	x10,x22,0
    80002c94:	f0f43c23          	sd	x15,-232(x8)
    80002c98:	445060ef          	jal	x1,800098dc <__fma>
    80002c9c:	f8843603          	ld	x12,-120(x8)
    80002ca0:	00050793          	addi	x15,x10,0
    80002ca4:	00048593          	addi	x11,x9,0
    80002ca8:	000b8513          	addi	x10,x23,0
    80002cac:	f8f43423          	sd	x15,-120(x8)
    80002cb0:	42d060ef          	jal	x1,800098dc <__fma>
    80002cb4:	240cb483          	ld	x9,576(x25)
    80002cb8:	f1043603          	ld	x12,-240(x8)
    80002cbc:	00050793          	addi	x15,x10,0
    80002cc0:	00048593          	addi	x11,x9,0
    80002cc4:	00098513          	addi	x10,x19,0
    80002cc8:	f0f43823          	sd	x15,-240(x8)
    80002ccc:	411060ef          	jal	x1,800098dc <__fma>
    80002cd0:	00050793          	addi	x15,x10,0
    80002cd4:	000a0613          	addi	x12,x20,0
    80002cd8:	00048593          	addi	x11,x9,0
    80002cdc:	00090513          	addi	x10,x18,0
    80002ce0:	f0f43423          	sd	x15,-248(x8)
    80002ce4:	3f9060ef          	jal	x1,800098dc <__fma>
    80002ce8:	f8043603          	ld	x12,-128(x8)
    80002cec:	00050793          	addi	x15,x10,0
    80002cf0:	00048593          	addi	x11,x9,0
    80002cf4:	000a8513          	addi	x10,x21,0
    80002cf8:	f8f43023          	sd	x15,-128(x8)
    80002cfc:	3e1060ef          	jal	x1,800098dc <__fma>
    80002d00:	f7843603          	ld	x12,-136(x8)
    80002d04:	00050793          	addi	x15,x10,0
    80002d08:	00048593          	addi	x11,x9,0
    80002d0c:	000b0513          	addi	x10,x22,0
    80002d10:	f6f43c23          	sd	x15,-136(x8)
    80002d14:	3c9060ef          	jal	x1,800098dc <__fma>
    80002d18:	f7043603          	ld	x12,-144(x8)
    80002d1c:	00050793          	addi	x15,x10,0
    80002d20:	00048593          	addi	x11,x9,0
    80002d24:	000b8513          	addi	x10,x23,0
    80002d28:	f6f43823          	sd	x15,-144(x8)
    80002d2c:	3b1060ef          	jal	x1,800098dc <__fma>
    80002d30:	008cb483          	ld	x9,8(x25)
    80002d34:	0c8d3983          	ld	x19,200(x26)
    80002d38:	f6843603          	ld	x12,-152(x8)
    80002d3c:	00050a13          	addi	x20,x10,0
    80002d40:	00098593          	addi	x11,x19,0
    80002d44:	00048513          	addi	x10,x9,0
    80002d48:	395060ef          	jal	x1,800098dc <__fma>
    80002d4c:	0d0d3903          	ld	x18,208(x26)
    80002d50:	f6043603          	ld	x12,-160(x8)
    80002d54:	00050793          	addi	x15,x10,0
    80002d58:	00090593          	addi	x11,x18,0
    80002d5c:	00048513          	addi	x10,x9,0
    80002d60:	f6f43423          	sd	x15,-152(x8)
    80002d64:	379060ef          	jal	x1,800098dc <__fma>
    80002d68:	0d8d3a83          	ld	x21,216(x26)
    80002d6c:	f5843603          	ld	x12,-168(x8)
    80002d70:	00050793          	addi	x15,x10,0
    80002d74:	000a8593          	addi	x11,x21,0
    80002d78:	00048513          	addi	x10,x9,0
    80002d7c:	f6f43023          	sd	x15,-160(x8)
    80002d80:	35d060ef          	jal	x1,800098dc <__fma>
    80002d84:	0e0d3b03          	ld	x22,224(x26)
    80002d88:	00050793          	addi	x15,x10,0
    80002d8c:	000c0613          	addi	x12,x24,0
    80002d90:	000b0593          	addi	x11,x22,0
    80002d94:	00048513          	addi	x10,x9,0
    80002d98:	00078c13          	addi	x24,x15,0
    80002d9c:	341060ef          	jal	x1,800098dc <__fma>
    80002da0:	0e8d3b83          	ld	x23,232(x26)
    80002da4:	f5043603          	ld	x12,-176(x8)
    80002da8:	00050793          	addi	x15,x10,0
    80002dac:	000b8593          	addi	x11,x23,0
    80002db0:	00048513          	addi	x10,x9,0
    80002db4:	f4f43c23          	sd	x15,-168(x8)
    80002db8:	325060ef          	jal	x1,800098dc <__fma>
    80002dbc:	0c8cb483          	ld	x9,200(x25)
    80002dc0:	f4843603          	ld	x12,-184(x8)
    80002dc4:	00050793          	addi	x15,x10,0
    80002dc8:	00048593          	addi	x11,x9,0
    80002dcc:	00098513          	addi	x10,x19,0
    80002dd0:	f4f43823          	sd	x15,-176(x8)
    80002dd4:	309060ef          	jal	x1,800098dc <__fma>
    80002dd8:	f4043603          	ld	x12,-192(x8)
    80002ddc:	00050793          	addi	x15,x10,0
    80002de0:	00048593          	addi	x11,x9,0
    80002de4:	00090513          	addi	x10,x18,0
    80002de8:	f4f43423          	sd	x15,-184(x8)
    80002dec:	2f1060ef          	jal	x1,800098dc <__fma>
    80002df0:	f3843603          	ld	x12,-200(x8)
    80002df4:	00050793          	addi	x15,x10,0
    80002df8:	00048593          	addi	x11,x9,0
    80002dfc:	000a8513          	addi	x10,x21,0
    80002e00:	f4f43023          	sd	x15,-192(x8)
    80002e04:	2d9060ef          	jal	x1,800098dc <__fma>
    80002e08:	00050793          	addi	x15,x10,0
    80002e0c:	000d8613          	addi	x12,x27,0
    80002e10:	00048593          	addi	x11,x9,0
    80002e14:	000b0513          	addi	x10,x22,0
    80002e18:	00078d93          	addi	x27,x15,0
    80002e1c:	2c1060ef          	jal	x1,800098dc <__fma>
    80002e20:	f3043603          	ld	x12,-208(x8)
    80002e24:	00050793          	addi	x15,x10,0
    80002e28:	00048593          	addi	x11,x9,0
    80002e2c:	000b8513          	addi	x10,x23,0
    80002e30:	f2f43c23          	sd	x15,-200(x8)
    80002e34:	2a9060ef          	jal	x1,800098dc <__fma>
    80002e38:	188cb483          	ld	x9,392(x25)
    80002e3c:	f2843603          	ld	x12,-216(x8)
    80002e40:	00050793          	addi	x15,x10,0
    80002e44:	00048593          	addi	x11,x9,0
    80002e48:	00098513          	addi	x10,x19,0
    80002e4c:	f2f43823          	sd	x15,-208(x8)
    80002e50:	28d060ef          	jal	x1,800098dc <__fma>
    80002e54:	f2043603          	ld	x12,-224(x8)
    80002e58:	00050793          	addi	x15,x10,0
    80002e5c:	00048593          	addi	x11,x9,0
    80002e60:	00090513          	addi	x10,x18,0
    80002e64:	f2f43423          	sd	x15,-216(x8)
    80002e68:	275060ef          	jal	x1,800098dc <__fma>
    80002e6c:	f1843603          	ld	x12,-232(x8)
    80002e70:	00050793          	addi	x15,x10,0
    80002e74:	00048593          	addi	x11,x9,0
    80002e78:	000a8513          	addi	x10,x21,0
    80002e7c:	f2f43023          	sd	x15,-224(x8)
    80002e80:	25d060ef          	jal	x1,800098dc <__fma>
    80002e84:	f8843603          	ld	x12,-120(x8)
    80002e88:	00050793          	addi	x15,x10,0
    80002e8c:	00048593          	addi	x11,x9,0
    80002e90:	000b0513          	addi	x10,x22,0
    80002e94:	f8f43423          	sd	x15,-120(x8)
    80002e98:	245060ef          	jal	x1,800098dc <__fma>
    80002e9c:	f1043603          	ld	x12,-240(x8)
    80002ea0:	00050793          	addi	x15,x10,0
    80002ea4:	00048593          	addi	x11,x9,0
    80002ea8:	000b8513          	addi	x10,x23,0
    80002eac:	f0f43c23          	sd	x15,-232(x8)
    80002eb0:	22d060ef          	jal	x1,800098dc <__fma>
    80002eb4:	248cb483          	ld	x9,584(x25)
    80002eb8:	f0843603          	ld	x12,-248(x8)
    80002ebc:	00050793          	addi	x15,x10,0
    80002ec0:	00048593          	addi	x11,x9,0
    80002ec4:	00098513          	addi	x10,x19,0
    80002ec8:	f0f43823          	sd	x15,-240(x8)
    80002ecc:	211060ef          	jal	x1,800098dc <__fma>
    80002ed0:	f8043603          	ld	x12,-128(x8)
    80002ed4:	00050793          	addi	x15,x10,0
    80002ed8:	00048593          	addi	x11,x9,0
    80002edc:	00090513          	addi	x10,x18,0
    80002ee0:	f8f43023          	sd	x15,-128(x8)
    80002ee4:	1f9060ef          	jal	x1,800098dc <__fma>
    80002ee8:	f7843603          	ld	x12,-136(x8)
    80002eec:	00050793          	addi	x15,x10,0
    80002ef0:	00048593          	addi	x11,x9,0
    80002ef4:	000a8513          	addi	x10,x21,0
    80002ef8:	f6f43c23          	sd	x15,-136(x8)
    80002efc:	1e1060ef          	jal	x1,800098dc <__fma>
    80002f00:	f7043603          	ld	x12,-144(x8)
    80002f04:	00050793          	addi	x15,x10,0
    80002f08:	00048593          	addi	x11,x9,0
    80002f0c:	000b0513          	addi	x10,x22,0
    80002f10:	f6f43823          	sd	x15,-144(x8)
    80002f14:	1c9060ef          	jal	x1,800098dc <__fma>
    80002f18:	00050793          	addi	x15,x10,0
    80002f1c:	000a0613          	addi	x12,x20,0
    80002f20:	00048593          	addi	x11,x9,0
    80002f24:	000b8513          	addi	x10,x23,0
    80002f28:	f0f43423          	sd	x15,-248(x8)
    80002f2c:	1b1060ef          	jal	x1,800098dc <__fma>
    80002f30:	010cb483          	ld	x9,16(x25)
    80002f34:	190d3983          	ld	x19,400(x26)
    80002f38:	f6843603          	ld	x12,-152(x8)
    80002f3c:	00050a13          	addi	x20,x10,0
    80002f40:	00098593          	addi	x11,x19,0
    80002f44:	00048513          	addi	x10,x9,0
    80002f48:	195060ef          	jal	x1,800098dc <__fma>
    80002f4c:	198d3903          	ld	x18,408(x26)
    80002f50:	f6043603          	ld	x12,-160(x8)
    80002f54:	00050793          	addi	x15,x10,0
    80002f58:	00090593          	addi	x11,x18,0
    80002f5c:	00048513          	addi	x10,x9,0
    80002f60:	f6f43423          	sd	x15,-152(x8)
    80002f64:	179060ef          	jal	x1,800098dc <__fma>
    80002f68:	1a0d3a83          	ld	x21,416(x26)
    80002f6c:	00050793          	addi	x15,x10,0
    80002f70:	000c0613          	addi	x12,x24,0
    80002f74:	000a8593          	addi	x11,x21,0
    80002f78:	00048513          	addi	x10,x9,0
    80002f7c:	00078c13          	addi	x24,x15,0
    80002f80:	15d060ef          	jal	x1,800098dc <__fma>
    80002f84:	1a8d3b03          	ld	x22,424(x26)
    80002f88:	f5843603          	ld	x12,-168(x8)
    80002f8c:	00050793          	addi	x15,x10,0
    80002f90:	000b0593          	addi	x11,x22,0
    80002f94:	00048513          	addi	x10,x9,0
    80002f98:	f6f43023          	sd	x15,-160(x8)
    80002f9c:	141060ef          	jal	x1,800098dc <__fma>
    80002fa0:	1b0d3b83          	ld	x23,432(x26)
    80002fa4:	f5043603          	ld	x12,-176(x8)
    80002fa8:	00050793          	addi	x15,x10,0
    80002fac:	000b8593          	addi	x11,x23,0
    80002fb0:	00048513          	addi	x10,x9,0
    80002fb4:	f4f43c23          	sd	x15,-168(x8)
    80002fb8:	125060ef          	jal	x1,800098dc <__fma>
    80002fbc:	0d0cb483          	ld	x9,208(x25)
    80002fc0:	f4843603          	ld	x12,-184(x8)
    80002fc4:	00050793          	addi	x15,x10,0
    80002fc8:	00048593          	addi	x11,x9,0
    80002fcc:	00098513          	addi	x10,x19,0
    80002fd0:	f4f43823          	sd	x15,-176(x8)
    80002fd4:	109060ef          	jal	x1,800098dc <__fma>
    80002fd8:	f4043603          	ld	x12,-192(x8)
    80002fdc:	00050793          	addi	x15,x10,0
    80002fe0:	00048593          	addi	x11,x9,0
    80002fe4:	00090513          	addi	x10,x18,0
    80002fe8:	f4f43423          	sd	x15,-184(x8)
    80002fec:	0f1060ef          	jal	x1,800098dc <__fma>
    80002ff0:	00050793          	addi	x15,x10,0
    80002ff4:	000d8613          	addi	x12,x27,0
    80002ff8:	00048593          	addi	x11,x9,0
    80002ffc:	000a8513          	addi	x10,x21,0
    80003000:	00078d93          	addi	x27,x15,0
    80003004:	0d9060ef          	jal	x1,800098dc <__fma>
    80003008:	f3843603          	ld	x12,-200(x8)
    8000300c:	00050793          	addi	x15,x10,0
    80003010:	00048593          	addi	x11,x9,0
    80003014:	000b0513          	addi	x10,x22,0
    80003018:	f4f43023          	sd	x15,-192(x8)
    8000301c:	0c1060ef          	jal	x1,800098dc <__fma>
    80003020:	f3043603          	ld	x12,-208(x8)
    80003024:	00050793          	addi	x15,x10,0
    80003028:	00048593          	addi	x11,x9,0
    8000302c:	000b8513          	addi	x10,x23,0
    80003030:	f2f43c23          	sd	x15,-200(x8)
    80003034:	0a9060ef          	jal	x1,800098dc <__fma>
    80003038:	190cb483          	ld	x9,400(x25)
    8000303c:	f2843603          	ld	x12,-216(x8)
    80003040:	00050793          	addi	x15,x10,0
    80003044:	00048593          	addi	x11,x9,0
    80003048:	00098513          	addi	x10,x19,0
    8000304c:	f2f43823          	sd	x15,-208(x8)
    80003050:	08d060ef          	jal	x1,800098dc <__fma>
    80003054:	f2043603          	ld	x12,-224(x8)
    80003058:	00050793          	addi	x15,x10,0
    8000305c:	00048593          	addi	x11,x9,0
    80003060:	00090513          	addi	x10,x18,0
    80003064:	f2f43423          	sd	x15,-216(x8)
    80003068:	075060ef          	jal	x1,800098dc <__fma>
    8000306c:	f8843603          	ld	x12,-120(x8)
    80003070:	00050793          	addi	x15,x10,0
    80003074:	00048593          	addi	x11,x9,0
    80003078:	000a8513          	addi	x10,x21,0
    8000307c:	f8f43423          	sd	x15,-120(x8)
    80003080:	05d060ef          	jal	x1,800098dc <__fma>
    80003084:	f1843603          	ld	x12,-232(x8)
    80003088:	00050793          	addi	x15,x10,0
    8000308c:	00048593          	addi	x11,x9,0
    80003090:	000b0513          	addi	x10,x22,0
    80003094:	f2f43023          	sd	x15,-224(x8)
    80003098:	045060ef          	jal	x1,800098dc <__fma>
    8000309c:	f1043603          	ld	x12,-240(x8)
    800030a0:	00050793          	addi	x15,x10,0
    800030a4:	00048593          	addi	x11,x9,0
    800030a8:	000b8513          	addi	x10,x23,0
    800030ac:	f0f43c23          	sd	x15,-232(x8)
    800030b0:	02d060ef          	jal	x1,800098dc <__fma>
    800030b4:	250cb483          	ld	x9,592(x25)
    800030b8:	f8043603          	ld	x12,-128(x8)
    800030bc:	00050793          	addi	x15,x10,0
    800030c0:	00048593          	addi	x11,x9,0
    800030c4:	00098513          	addi	x10,x19,0
    800030c8:	f8f43023          	sd	x15,-128(x8)
    800030cc:	011060ef          	jal	x1,800098dc <__fma>
    800030d0:	f7843603          	ld	x12,-136(x8)
    800030d4:	00050793          	addi	x15,x10,0
    800030d8:	00048593          	addi	x11,x9,0
    800030dc:	00090513          	addi	x10,x18,0
    800030e0:	f6f43c23          	sd	x15,-136(x8)
    800030e4:	7f8060ef          	jal	x1,800098dc <__fma>
    800030e8:	f7043603          	ld	x12,-144(x8)
    800030ec:	00050793          	addi	x15,x10,0
    800030f0:	00048593          	addi	x11,x9,0
    800030f4:	000a8513          	addi	x10,x21,0
    800030f8:	f6f43823          	sd	x15,-144(x8)
    800030fc:	7e0060ef          	jal	x1,800098dc <__fma>
    80003100:	f0843603          	ld	x12,-248(x8)
    80003104:	00050793          	addi	x15,x10,0
    80003108:	00048593          	addi	x11,x9,0
    8000310c:	000b0513          	addi	x10,x22,0
    80003110:	f0f43823          	sd	x15,-240(x8)
    80003114:	7c8060ef          	jal	x1,800098dc <__fma>
    80003118:	00050793          	addi	x15,x10,0
    8000311c:	000a0613          	addi	x12,x20,0
    80003120:	00048593          	addi	x11,x9,0
    80003124:	000b8513          	addi	x10,x23,0
    80003128:	f0f43423          	sd	x15,-248(x8)
    8000312c:	7b0060ef          	jal	x1,800098dc <__fma>
    80003130:	018cb483          	ld	x9,24(x25)
    80003134:	258d3983          	ld	x19,600(x26)
    80003138:	f6843603          	ld	x12,-152(x8)
    8000313c:	00050a13          	addi	x20,x10,0
    80003140:	00098593          	addi	x11,x19,0
    80003144:	00048513          	addi	x10,x9,0
    80003148:	794060ef          	jal	x1,800098dc <__fma>
    8000314c:	260d3903          	ld	x18,608(x26)
    80003150:	00050793          	addi	x15,x10,0
    80003154:	000c0613          	addi	x12,x24,0
    80003158:	00090593          	addi	x11,x18,0
    8000315c:	00048513          	addi	x10,x9,0
    80003160:	00078c13          	addi	x24,x15,0
    80003164:	778060ef          	jal	x1,800098dc <__fma>
    80003168:	268d3a83          	ld	x21,616(x26)
    8000316c:	f6043603          	ld	x12,-160(x8)
    80003170:	00050793          	addi	x15,x10,0
    80003174:	000a8593          	addi	x11,x21,0
    80003178:	00048513          	addi	x10,x9,0
    8000317c:	f6f43423          	sd	x15,-152(x8)
    80003180:	75c060ef          	jal	x1,800098dc <__fma>
    80003184:	270d3b03          	ld	x22,624(x26)
    80003188:	f5843603          	ld	x12,-168(x8)
    8000318c:	00050793          	addi	x15,x10,0
    80003190:	000b0593          	addi	x11,x22,0
    80003194:	00048513          	addi	x10,x9,0
    80003198:	f6f43023          	sd	x15,-160(x8)
    8000319c:	740060ef          	jal	x1,800098dc <__fma>
    800031a0:	278d3b83          	ld	x23,632(x26)
    800031a4:	f5043603          	ld	x12,-176(x8)
    800031a8:	00050793          	addi	x15,x10,0
    800031ac:	000b8593          	addi	x11,x23,0
    800031b0:	00048513          	addi	x10,x9,0
    800031b4:	f4f43c23          	sd	x15,-168(x8)
    800031b8:	724060ef          	jal	x1,800098dc <__fma>
    800031bc:	0d8cb483          	ld	x9,216(x25)
    800031c0:	f4843603          	ld	x12,-184(x8)
    800031c4:	00050793          	addi	x15,x10,0
    800031c8:	00048593          	addi	x11,x9,0
    800031cc:	00098513          	addi	x10,x19,0
    800031d0:	f4f43823          	sd	x15,-176(x8)
    800031d4:	708060ef          	jal	x1,800098dc <__fma>
    800031d8:	00050793          	addi	x15,x10,0
    800031dc:	000d8613          	addi	x12,x27,0
    800031e0:	00048593          	addi	x11,x9,0
    800031e4:	00090513          	addi	x10,x18,0
    800031e8:	00078d93          	addi	x27,x15,0
    800031ec:	6f0060ef          	jal	x1,800098dc <__fma>
    800031f0:	f4043603          	ld	x12,-192(x8)
    800031f4:	00050793          	addi	x15,x10,0
    800031f8:	00048593          	addi	x11,x9,0
    800031fc:	000a8513          	addi	x10,x21,0
    80003200:	f4f43423          	sd	x15,-184(x8)
    80003204:	6d8060ef          	jal	x1,800098dc <__fma>
    80003208:	f3843603          	ld	x12,-200(x8)
    8000320c:	00050793          	addi	x15,x10,0
    80003210:	00048593          	addi	x11,x9,0
    80003214:	000b0513          	addi	x10,x22,0
    80003218:	f4f43023          	sd	x15,-192(x8)
    8000321c:	6c0060ef          	jal	x1,800098dc <__fma>
    80003220:	f3043603          	ld	x12,-208(x8)
    80003224:	00050793          	addi	x15,x10,0
    80003228:	00048593          	addi	x11,x9,0
    8000322c:	000b8513          	addi	x10,x23,0
    80003230:	f2f43c23          	sd	x15,-200(x8)
    80003234:	6a8060ef          	jal	x1,800098dc <__fma>
    80003238:	198cb483          	ld	x9,408(x25)
    8000323c:	f2843603          	ld	x12,-216(x8)
    80003240:	00050793          	addi	x15,x10,0
    80003244:	00048593          	addi	x11,x9,0
    80003248:	00098513          	addi	x10,x19,0
    8000324c:	f2f43823          	sd	x15,-208(x8)
    80003250:	68c060ef          	jal	x1,800098dc <__fma>
    80003254:	f8843603          	ld	x12,-120(x8)
    80003258:	00050793          	addi	x15,x10,0
    8000325c:	00048593          	addi	x11,x9,0
    80003260:	00090513          	addi	x10,x18,0
    80003264:	f8f43423          	sd	x15,-120(x8)
    80003268:	674060ef          	jal	x1,800098dc <__fma>
    8000326c:	f2043603          	ld	x12,-224(x8)
    80003270:	00050793          	addi	x15,x10,0
    80003274:	00048593          	addi	x11,x9,0
    80003278:	000a8513          	addi	x10,x21,0
    8000327c:	f2f43423          	sd	x15,-216(x8)
    80003280:	65c060ef          	jal	x1,800098dc <__fma>
    80003284:	f1843603          	ld	x12,-232(x8)
    80003288:	00050793          	addi	x15,x10,0
    8000328c:	00048593          	addi	x11,x9,0
    80003290:	000b0513          	addi	x10,x22,0
    80003294:	f2f43023          	sd	x15,-224(x8)
    80003298:	644060ef          	jal	x1,800098dc <__fma>
    8000329c:	f8043603          	ld	x12,-128(x8)
    800032a0:	00050793          	addi	x15,x10,0
    800032a4:	00048593          	addi	x11,x9,0
    800032a8:	000b8513          	addi	x10,x23,0
    800032ac:	f8f43023          	sd	x15,-128(x8)
    800032b0:	62c060ef          	jal	x1,800098dc <__fma>
    800032b4:	258cb483          	ld	x9,600(x25)
    800032b8:	f7843603          	ld	x12,-136(x8)
    800032bc:	00050793          	addi	x15,x10,0
    800032c0:	00048593          	addi	x11,x9,0
    800032c4:	00098513          	addi	x10,x19,0
    800032c8:	f6f43c23          	sd	x15,-136(x8)
    800032cc:	610060ef          	jal	x1,800098dc <__fma>
    800032d0:	f7043603          	ld	x12,-144(x8)
    800032d4:	00050793          	addi	x15,x10,0
    800032d8:	00048593          	addi	x11,x9,0
    800032dc:	00090513          	addi	x10,x18,0
    800032e0:	f6f43823          	sd	x15,-144(x8)
    800032e4:	5f8060ef          	jal	x1,800098dc <__fma>
    800032e8:	f1043603          	ld	x12,-240(x8)
    800032ec:	00050793          	addi	x15,x10,0
    800032f0:	00048593          	addi	x11,x9,0
    800032f4:	000a8513          	addi	x10,x21,0
    800032f8:	f0f43c23          	sd	x15,-232(x8)
    800032fc:	5e0060ef          	jal	x1,800098dc <__fma>
    80003300:	f0843603          	ld	x12,-248(x8)
    80003304:	00050793          	addi	x15,x10,0
    80003308:	00048593          	addi	x11,x9,0
    8000330c:	000b0513          	addi	x10,x22,0
    80003310:	f0f43823          	sd	x15,-240(x8)
    80003314:	5c8060ef          	jal	x1,800098dc <__fma>
    80003318:	00050793          	addi	x15,x10,0
    8000331c:	000a0613          	addi	x12,x20,0
    80003320:	00048593          	addi	x11,x9,0
    80003324:	000b8513          	addi	x10,x23,0
    80003328:	f0f43423          	sd	x15,-248(x8)
    8000332c:	5b0060ef          	jal	x1,800098dc <__fma>
    80003330:	020cb483          	ld	x9,32(x25)
    80003334:	320d3983          	ld	x19,800(x26)
    80003338:	00050a13          	addi	x20,x10,0
    8000333c:	000c0613          	addi	x12,x24,0
    80003340:	00098593          	addi	x11,x19,0
    80003344:	00048513          	addi	x10,x9,0
    80003348:	594060ef          	jal	x1,800098dc <__fma>
    8000334c:	328d3903          	ld	x18,808(x26)
    80003350:	f6843603          	ld	x12,-152(x8)
    80003354:	00050c13          	addi	x24,x10,0
    80003358:	00090593          	addi	x11,x18,0
    8000335c:	00048513          	addi	x10,x9,0
    80003360:	57c060ef          	jal	x1,800098dc <__fma>
    80003364:	330d3a83          	ld	x21,816(x26)
    80003368:	f6043603          	ld	x12,-160(x8)
    8000336c:	00050793          	addi	x15,x10,0
    80003370:	000a8593          	addi	x11,x21,0
    80003374:	00048513          	addi	x10,x9,0
    80003378:	f6f43423          	sd	x15,-152(x8)
    8000337c:	560060ef          	jal	x1,800098dc <__fma>
    80003380:	338d3b03          	ld	x22,824(x26)
    80003384:	f5843603          	ld	x12,-168(x8)
    80003388:	00050793          	addi	x15,x10,0
    8000338c:	000b0593          	addi	x11,x22,0
    80003390:	00048513          	addi	x10,x9,0
    80003394:	f6f43023          	sd	x15,-160(x8)
    80003398:	544060ef          	jal	x1,800098dc <__fma>
    8000339c:	340d3b83          	ld	x23,832(x26)
    800033a0:	f5043603          	ld	x12,-176(x8)
    800033a4:	00050793          	addi	x15,x10,0
    800033a8:	000b8593          	addi	x11,x23,0
    800033ac:	00048513          	addi	x10,x9,0
    800033b0:	f4f43c23          	sd	x15,-168(x8)
    800033b4:	528060ef          	jal	x1,800098dc <__fma>
    800033b8:	0e0cb483          	ld	x9,224(x25)
    800033bc:	00050793          	addi	x15,x10,0
    800033c0:	000d8613          	addi	x12,x27,0
    800033c4:	00048593          	addi	x11,x9,0
    800033c8:	00098513          	addi	x10,x19,0
    800033cc:	00078d93          	addi	x27,x15,0
    800033d0:	50c060ef          	jal	x1,800098dc <__fma>
    800033d4:	f4843603          	ld	x12,-184(x8)
    800033d8:	00050793          	addi	x15,x10,0
    800033dc:	00048593          	addi	x11,x9,0
    800033e0:	00090513          	addi	x10,x18,0
    800033e4:	f4f43823          	sd	x15,-176(x8)
    800033e8:	4f4060ef          	jal	x1,800098dc <__fma>
    800033ec:	f4043603          	ld	x12,-192(x8)
    800033f0:	00050793          	addi	x15,x10,0
    800033f4:	00048593          	addi	x11,x9,0
    800033f8:	000a8513          	addi	x10,x21,0
    800033fc:	f4f43423          	sd	x15,-184(x8)
    80003400:	4dc060ef          	jal	x1,800098dc <__fma>
    80003404:	f3843603          	ld	x12,-200(x8)
    80003408:	00050793          	addi	x15,x10,0
    8000340c:	00048593          	addi	x11,x9,0
    80003410:	000b0513          	addi	x10,x22,0
    80003414:	f4f43023          	sd	x15,-192(x8)
    80003418:	4c4060ef          	jal	x1,800098dc <__fma>
    8000341c:	f3043603          	ld	x12,-208(x8)
    80003420:	00050793          	addi	x15,x10,0
    80003424:	00048593          	addi	x11,x9,0
    80003428:	000b8513          	addi	x10,x23,0
    8000342c:	f2f43c23          	sd	x15,-200(x8)
    80003430:	4ac060ef          	jal	x1,800098dc <__fma>
    80003434:	1a0cb483          	ld	x9,416(x25)
    80003438:	f8843603          	ld	x12,-120(x8)
    8000343c:	00050793          	addi	x15,x10,0
    80003440:	00048593          	addi	x11,x9,0
    80003444:	00098513          	addi	x10,x19,0
    80003448:	f8f43423          	sd	x15,-120(x8)
    8000344c:	490060ef          	jal	x1,800098dc <__fma>
    80003450:	f2843603          	ld	x12,-216(x8)
    80003454:	00050793          	addi	x15,x10,0
    80003458:	00048593          	addi	x11,x9,0
    8000345c:	00090513          	addi	x10,x18,0
    80003460:	f2f43823          	sd	x15,-208(x8)
    80003464:	478060ef          	jal	x1,800098dc <__fma>
    80003468:	f2043603          	ld	x12,-224(x8)
    8000346c:	00050793          	addi	x15,x10,0
    80003470:	00048593          	addi	x11,x9,0
    80003474:	000a8513          	addi	x10,x21,0
    80003478:	f2f43423          	sd	x15,-216(x8)
    8000347c:	460060ef          	jal	x1,800098dc <__fma>
    80003480:	f8043603          	ld	x12,-128(x8)
    80003484:	00050793          	addi	x15,x10,0
    80003488:	00048593          	addi	x11,x9,0
    8000348c:	000b0513          	addi	x10,x22,0
    80003490:	f8f43023          	sd	x15,-128(x8)
    80003494:	448060ef          	jal	x1,800098dc <__fma>
    80003498:	f7843603          	ld	x12,-136(x8)
    8000349c:	00050793          	addi	x15,x10,0
    800034a0:	00048593          	addi	x11,x9,0
    800034a4:	000b8513          	addi	x10,x23,0
    800034a8:	f6f43c23          	sd	x15,-136(x8)
    800034ac:	430060ef          	jal	x1,800098dc <__fma>
    800034b0:	260cb483          	ld	x9,608(x25)
    800034b4:	f7043603          	ld	x12,-144(x8)
    800034b8:	00050793          	addi	x15,x10,0
    800034bc:	00048593          	addi	x11,x9,0
    800034c0:	00098513          	addi	x10,x19,0
    800034c4:	f6f43823          	sd	x15,-144(x8)
    800034c8:	414060ef          	jal	x1,800098dc <__fma>
    800034cc:	f1843603          	ld	x12,-232(x8)
    800034d0:	00050793          	addi	x15,x10,0
    800034d4:	00048593          	addi	x11,x9,0
    800034d8:	00090513          	addi	x10,x18,0
    800034dc:	f0f43023          	sd	x15,-256(x8)
    800034e0:	3fc060ef          	jal	x1,800098dc <__fma>
    800034e4:	f1043603          	ld	x12,-240(x8)
    800034e8:	00050793          	addi	x15,x10,0
    800034ec:	00048593          	addi	x11,x9,0
    800034f0:	000a8513          	addi	x10,x21,0
    800034f4:	f0f43823          	sd	x15,-240(x8)
    800034f8:	3e4060ef          	jal	x1,800098dc <__fma>
    800034fc:	f0843603          	ld	x12,-248(x8)
    80003500:	00050793          	addi	x15,x10,0
    80003504:	00048593          	addi	x11,x9,0
    80003508:	000b0513          	addi	x10,x22,0
    8000350c:	f0f43423          	sd	x15,-248(x8)
    80003510:	3cc060ef          	jal	x1,800098dc <__fma>
    80003514:	00050793          	addi	x15,x10,0
    80003518:	000a0613          	addi	x12,x20,0
    8000351c:	00048593          	addi	x11,x9,0
    80003520:	000b8513          	addi	x10,x23,0
    80003524:	eef43c23          	sd	x15,-264(x8)
    80003528:	3b4060ef          	jal	x1,800098dc <__fma>
    8000352c:	028cb483          	ld	x9,40(x25)
    80003530:	3e8d3b03          	ld	x22,1000(x26)
    80003534:	00050793          	addi	x15,x10,0
    80003538:	000c0613          	addi	x12,x24,0
    8000353c:	00048513          	addi	x10,x9,0
    80003540:	000b0593          	addi	x11,x22,0
    80003544:	eef43823          	sd	x15,-272(x8)
    80003548:	394060ef          	jal	x1,800098dc <__fma>
    8000354c:	3f0d3a83          	ld	x21,1008(x26)
    80003550:	f6843603          	ld	x12,-152(x8)
    80003554:	00050793          	addi	x15,x10,0
    80003558:	000a8593          	addi	x11,x21,0
    8000355c:	00048513          	addi	x10,x9,0
    80003560:	f6f43423          	sd	x15,-152(x8)
    80003564:	378060ef          	jal	x1,800098dc <__fma>
    80003568:	3f8d3a03          	ld	x20,1016(x26)
    8000356c:	f6043603          	ld	x12,-160(x8)
    80003570:	00050793          	addi	x15,x10,0
    80003574:	000a0593          	addi	x11,x20,0
    80003578:	00048513          	addi	x10,x9,0
    8000357c:	f6f43023          	sd	x15,-160(x8)
    80003580:	35c060ef          	jal	x1,800098dc <__fma>
    80003584:	400d3983          	ld	x19,1024(x26)
    80003588:	f5843603          	ld	x12,-168(x8)
    8000358c:	00050793          	addi	x15,x10,0
    80003590:	00098593          	addi	x11,x19,0
    80003594:	00048513          	addi	x10,x9,0
    80003598:	f4f43c23          	sd	x15,-168(x8)
    8000359c:	340060ef          	jal	x1,800098dc <__fma>
    800035a0:	408d3903          	ld	x18,1032(x26)
    800035a4:	000d8613          	addi	x12,x27,0
    800035a8:	00050b93          	addi	x23,x10,0
    800035ac:	00090593          	addi	x11,x18,0
    800035b0:	00048513          	addi	x10,x9,0
    800035b4:	328060ef          	jal	x1,800098dc <__fma>
    800035b8:	0e8cb483          	ld	x9,232(x25)
    800035bc:	f5043603          	ld	x12,-176(x8)
    800035c0:	00050c13          	addi	x24,x10,0
    800035c4:	00048593          	addi	x11,x9,0
    800035c8:	000b0513          	addi	x10,x22,0
    800035cc:	310060ef          	jal	x1,800098dc <__fma>
    800035d0:	f4843603          	ld	x12,-184(x8)
    800035d4:	00050793          	addi	x15,x10,0
    800035d8:	00048593          	addi	x11,x9,0
    800035dc:	000a8513          	addi	x10,x21,0
    800035e0:	f4f43823          	sd	x15,-176(x8)
    800035e4:	2f8060ef          	jal	x1,800098dc <__fma>
    800035e8:	f4043603          	ld	x12,-192(x8)
    800035ec:	00050793          	addi	x15,x10,0
    800035f0:	00048593          	addi	x11,x9,0
    800035f4:	000a0513          	addi	x10,x20,0
    800035f8:	f4f43423          	sd	x15,-184(x8)
    800035fc:	2e0060ef          	jal	x1,800098dc <__fma>
    80003600:	f3843603          	ld	x12,-200(x8)
    80003604:	00050793          	addi	x15,x10,0
    80003608:	00048593          	addi	x11,x9,0
    8000360c:	00098513          	addi	x10,x19,0
    80003610:	f4f43023          	sd	x15,-192(x8)
    80003614:	2c8060ef          	jal	x1,800098dc <__fma>
    80003618:	f8843603          	ld	x12,-120(x8)
    8000361c:	00050793          	addi	x15,x10,0
    80003620:	00048593          	addi	x11,x9,0
    80003624:	00090513          	addi	x10,x18,0
    80003628:	f2f43c23          	sd	x15,-200(x8)
    8000362c:	2b0060ef          	jal	x1,800098dc <__fma>
    80003630:	1a8cb483          	ld	x9,424(x25)
    80003634:	f3043603          	ld	x12,-208(x8)
    80003638:	00050d93          	addi	x27,x10,0
    8000363c:	00048593          	addi	x11,x9,0
    80003640:	000b0513          	addi	x10,x22,0
    80003644:	298060ef          	jal	x1,800098dc <__fma>
    80003648:	f2843603          	ld	x12,-216(x8)
    8000364c:	00050793          	addi	x15,x10,0
    80003650:	00048593          	addi	x11,x9,0
    80003654:	000a8513          	addi	x10,x21,0
    80003658:	f2f43823          	sd	x15,-208(x8)
    8000365c:	280060ef          	jal	x1,800098dc <__fma>
    80003660:	f8043603          	ld	x12,-128(x8)
    80003664:	00050793          	addi	x15,x10,0
    80003668:	00048593          	addi	x11,x9,0
    8000366c:	000a0513          	addi	x10,x20,0
    80003670:	f2f43423          	sd	x15,-216(x8)
    80003674:	268060ef          	jal	x1,800098dc <__fma>
    80003678:	f7843603          	ld	x12,-136(x8)
    8000367c:	00050793          	addi	x15,x10,0
    80003680:	00048593          	addi	x11,x9,0
    80003684:	00098513          	addi	x10,x19,0
    80003688:	f2f43023          	sd	x15,-224(x8)
    8000368c:	250060ef          	jal	x1,800098dc <__fma>
    80003690:	f7043603          	ld	x12,-144(x8)
    80003694:	00050793          	addi	x15,x10,0
    80003698:	00048593          	addi	x11,x9,0
    8000369c:	00090513          	addi	x10,x18,0
    800036a0:	f0f43c23          	sd	x15,-232(x8)
    800036a4:	238060ef          	jal	x1,800098dc <__fma>
    800036a8:	268cb483          	ld	x9,616(x25)
    800036ac:	f0043603          	ld	x12,-256(x8)
    800036b0:	00050793          	addi	x15,x10,0
    800036b4:	00048593          	addi	x11,x9,0
    800036b8:	000b0513          	addi	x10,x22,0
    800036bc:	f8f43423          	sd	x15,-120(x8)
    800036c0:	21c060ef          	jal	x1,800098dc <__fma>
    800036c4:	f1043603          	ld	x12,-240(x8)
    800036c8:	00050793          	addi	x15,x10,0
    800036cc:	00048593          	addi	x11,x9,0
    800036d0:	000a8513          	addi	x10,x21,0
    800036d4:	f0f43823          	sd	x15,-240(x8)
    800036d8:	204060ef          	jal	x1,800098dc <__fma>
    800036dc:	f0843603          	ld	x12,-248(x8)
    800036e0:	00050793          	addi	x15,x10,0
    800036e4:	00048593          	addi	x11,x9,0
    800036e8:	000a0513          	addi	x10,x20,0
    800036ec:	00078a13          	addi	x20,x15,0
    800036f0:	1ec060ef          	jal	x1,800098dc <__fma>
    800036f4:	ef843603          	ld	x12,-264(x8)
    800036f8:	00050793          	addi	x15,x10,0
    800036fc:	00048593          	addi	x11,x9,0
    80003700:	00098513          	addi	x10,x19,0
    80003704:	f8f43023          	sd	x15,-128(x8)
    80003708:	1d4060ef          	jal	x1,800098dc <__fma>
    8000370c:	ef043603          	ld	x12,-272(x8)
    80003710:	00050793          	addi	x15,x10,0
    80003714:	00048593          	addi	x11,x9,0
    80003718:	00090513          	addi	x10,x18,0
    8000371c:	f6f43c23          	sd	x15,-136(x8)
    80003720:	1bc060ef          	jal	x1,800098dc <__fma>
    80003724:	ee843783          	ld	x15,-280(x8)
    80003728:	030c8c93          	addi	x25,x25,48
    8000372c:	f6a43823          	sd	x10,-144(x8)
    80003730:	4b0d0d13          	addi	x26,x26,1200
    80003734:	c0fc9063          	bne	x25,x15,80002b34 <mm_cb+0x888>
    80003738:	ed043483          	ld	x9,-304(x8)
    8000373c:	f1843703          	ld	x14,-232(x8)
    80003740:	f6043083          	ld	x1,-160(x8)
    80003744:	f5843383          	ld	x7,-168(x8)
    80003748:	1ae4b423          	sd	x14,424(x9)
    8000374c:	f5043f03          	ld	x30,-176(x8)
    80003750:	f4843e83          	ld	x29,-184(x8)
    80003754:	f4043e03          	ld	x28,-192(x8)
    80003758:	f3843303          	ld	x6,-200(x8)
    8000375c:	f3043803          	ld	x16,-208(x8)
    80003760:	f2843583          	ld	x11,-216(x8)
    80003764:	f2043683          	ld	x13,-224(x8)
    80003768:	f1043783          	ld	x15,-240(x8)
    8000376c:	f8843703          	ld	x14,-120(x8)
    80003770:	000c0f93          	addi	x31,x24,0
    80003774:	f6843c03          	ld	x24,-152(x8)
    80003778:	000a0613          	addi	x12,x20,0
    8000377c:	0014b423          	sd	x1,8(x9)
    80003780:	ed843a03          	ld	x20,-296(x8)
    80003784:	0184b023          	sd	x24,0(x9)
    80003788:	0074b823          	sd	x7,16(x9)
    8000378c:	0174bc23          	sd	x23,24(x9)
    80003790:	03f4b023          	sd	x31,32(x9)
    80003794:	0de4b423          	sd	x30,200(x9)
    80003798:	0dd4b823          	sd	x29,208(x9)
    8000379c:	0dc4bc23          	sd	x28,216(x9)
    800037a0:	0e64b023          	sd	x6,224(x9)
    800037a4:	0fb4b423          	sd	x27,232(x9)
    800037a8:	1904b823          	sd	x16,400(x9)
    800037ac:	18b4bc23          	sd	x11,408(x9)
    800037b0:	1ad4b023          	sd	x13,416(x9)
    800037b4:	1ae4b823          	sd	x14,432(x9)
    800037b8:	24f4bc23          	sd	x15,600(x9)
    800037bc:	26c4b023          	sd	x12,608(x9)
    800037c0:	f8043783          	ld	x15,-128(x8)
    800037c4:	028a0a13          	addi	x20,x20,40
    800037c8:	26a4bc23          	sd	x10,632(x9)
    800037cc:	26f4b423          	sd	x15,616(x9)
    800037d0:	f7843783          	ld	x15,-136(x8)
    800037d4:	02848493          	addi	x9,x9,40
    800037d8:	24f4b423          	sd	x15,584(x9)
    800037dc:	ec043783          	ld	x15,-320(x8)
    800037e0:	ab479263          	bne	x15,x20,80002a84 <mm_cb+0x7d8>
    800037e4:	01900793          	addi	x15,x0,25
    800037e8:	e9043483          	ld	x9,-368(x8)
    800037ec:	ec843a83          	ld	x21,-312(x8)
    800037f0:	00f13023          	sd	x15,0(x2)
    800037f4:	ec043783          	ld	x15,-320(x8)
    800037f8:	00048893          	addi	x17,x9,0
    800037fc:	01900813          	addi	x16,x0,25
    80003800:	01800713          	addi	x14,x0,24
    80003804:	000a8693          	addi	x13,x21,0
    80003808:	01800613          	addi	x12,x0,24
    8000380c:	00000593          	addi	x11,x0,0
    80003810:	00400513          	addi	x10,x0,4
    80003814:	fecfe0ef          	jal	x1,80002000 <mm_naive>
    80003818:	300c8793          	addi	x15,x25,768
    8000381c:	eef43423          	sd	x15,-280(x8)
    80003820:	e6843783          	ld	x15,-408(x8)
    80003824:	32048493          	addi	x9,x9,800
    80003828:	a4979063          	bne	x15,x9,80002a68 <mm_cb+0x7bc>
    8000382c:	01900793          	addi	x15,x0,25
    80003830:	e3043683          	ld	x13,-464(x8)
    80003834:	e7043a83          	ld	x21,-400(x8)
    80003838:	e1043a03          	ld	x20,-496(x8)
    8000383c:	d3043c83          	ld	x25,-720(x8)
    80003840:	e1843903          	ld	x18,-488(x8)
    80003844:	cb043983          	ld	x19,-848(x8)
    80003848:	e6843c03          	ld	x24,-408(x8)
    8000384c:	ca843d83          	ld	x27,-856(x8)
    80003850:	ca043d03          	ld	x26,-864(x8)
    80003854:	00f13023          	sd	x15,0(x2)
    80003858:	d0043603          	ld	x12,-768(x8)
    8000385c:	000a8793          	addi	x15,x21,0
    80003860:	000c8893          	addi	x17,x25,0
    80003864:	00c686b3          	add	x13,x13,x12
    80003868:	01900813          	addi	x16,x0,25
    8000386c:	01800713          	addi	x14,x0,24
    80003870:	01800613          	addi	x12,x0,24
    80003874:	01900593          	addi	x11,x0,25
    80003878:	00000513          	addi	x10,x0,0
    8000387c:	f84fe0ef          	jal	x1,80002000 <mm_naive>
    80003880:	e6043783          	ld	x15,-416(x8)
    80003884:	018a0a13          	addi	x20,x20,24
    80003888:	00fa7463          	bgeu	x20,x15,80003890 <mm_cb+0x15e4>
    8000388c:	964ff06f          	jal	x0,800029f0 <mm_cb+0x744>
    80003890:	e4043483          	ld	x9,-448(x8)
    80003894:	e3843e03          	ld	x28,-456(x8)
    80003898:	0c898793          	addi	x15,x19,200
    8000389c:	e6f43423          	sd	x15,-408(x8)
    800038a0:	e6043703          	ld	x14,-416(x8)
    800038a4:	e2043783          	ld	x15,-480(x8)
    800038a8:	00f77463          	bgeu	x14,x15,800038b0 <mm_cb+0x1604>
    800038ac:	6080106f          	jal	x0,80004eb4 <mm_cb+0x2c08>
    800038b0:	e0843783          	ld	x15,-504(x8)
    800038b4:	01948493          	addi	x9,x9,25
    800038b8:	e6843983          	ld	x19,-408(x8)
    800038bc:	00f4f463          	bgeu	x9,x15,800038c4 <mm_cb+0x1618>
    800038c0:	8e4ff06f          	jal	x0,800029a4 <mm_cb+0x6f8>
    800038c4:	e2843783          	ld	x15,-472(x8)
    800038c8:	e0843703          	ld	x14,-504(x8)
    800038cc:	cc843903          	ld	x18,-824(x8)
    800038d0:	cc043c03          	ld	x24,-832(x8)
    800038d4:	dd043a83          	ld	x21,-560(x8)
    800038d8:	cb843b03          	ld	x22,-840(x8)
    800038dc:	00f77463          	bgeu	x14,x15,800038e4 <mm_cb+0x1638>
    800038e0:	0010206f          	jal	x0,800060e0 <mm_cb+0x3e34>
    800038e4:	01bb08b3          	add	x17,x22,x27
    800038e8:	d6043783          	ld	x15,-672(x8)
    800038ec:	01890913          	addi	x18,x18,24
    800038f0:	da843a83          	ld	x21,-600(x8)
    800038f4:	00088b13          	addi	x22,x17,0
    800038f8:	00f97463          	bgeu	x18,x15,80003900 <mm_cb+0x1654>
    800038fc:	82cff06f          	jal	x0,80002928 <mm_cb+0x67c>
    80003900:	d6043983          	ld	x19,-672(x8)
    80003904:	cf843903          	ld	x18,-776(x8)
    80003908:	d9843303          	ld	x6,-616(x8)
    8000390c:	e4843603          	ld	x12,-440(x8)
    80003910:	cf043c03          	ld	x24,-784(x8)
    80003914:	e5843803          	ld	x16,-424(x8)
    80003918:	ce843b03          	ld	x22,-792(x8)
    8000391c:	00043583          	ld	x11,0(x8)
    80003920:	cd843483          	ld	x9,-808(x8)
    80003924:	cd043a03          	ld	x20,-816(x8)
    80003928:	d5043f83          	ld	x31,-688(x8)
    8000392c:	0129e463          	bltu	x19,x18,80003934 <mm_cb+0x1688>
    80003930:	4640106f          	jal	x0,80004d94 <mm_cb+0x2ae8>
    80003934:	e2843783          	ld	x15,-472(x8)
    80003938:	00079463          	bne	x15,x0,80003940 <mm_cb+0x1694>
    8000393c:	4580106f          	jal	x0,80004d94 <mm_cb+0x2ae8>
    80003940:	00ba07b3          	add	x15,x20,x11
    80003944:	00281713          	slli	x14,x16,0x2
    80003948:	010486b3          	add	x13,x9,x16
    8000394c:	01070733          	add	x14,x14,x16
    80003950:	00379e93          	slli	x29,x15,0x3
    80003954:	00369793          	slli	x15,x13,0x3
    80003958:	e6f43823          	sd	x15,-400(x8)
    8000395c:	00371793          	slli	x15,x14,0x3
    80003960:	e6f43423          	sd	x15,-408(x8)
    80003964:	01800793          	addi	x15,x0,24
    80003968:	02f977b3          	remu	x15,x18,x15
    8000396c:	010484b3          	add	x9,x9,x16
    80003970:	00649713          	slli	x14,x9,0x6
    80003974:	d6e43c23          	sd	x14,-648(x8)
    80003978:	000c0c93          	addi	x25,x24,0
    8000397c:	00000913          	addi	x18,x0,0
    80003980:	dcc43423          	sd	x12,-568(x8)
    80003984:	df043023          	sd	x16,-544(x8)
    80003988:	00058693          	addi	x13,x11,0
    8000398c:	ffc7f893          	andi	x17,x15,-4
    80003990:	03160733          	mul	x14,x12,x17
    80003994:	0037f793          	andi	x15,x15,3
    80003998:	d8f43823          	sd	x15,-624(x8)
    8000399c:	031587b3          	mul	x15,x11,x17
    800039a0:	00371713          	slli	x14,x14,0x3
    800039a4:	d8e43423          	sd	x14,-632(x8)
    800039a8:	00379d13          	slli	x26,x15,0x3
    800039ac:	03f98733          	mul	x14,x19,x31
    800039b0:	e9843783          	ld	x15,-360(x8)
    800039b4:	02f987b3          	mul	x15,x19,x15
    800039b8:	00eb0db3          	add	x27,x22,x14
    800039bc:	d7043703          	ld	x14,-656(x8)
    800039c0:	000d8f13          	addi	x30,x27,0
    800039c4:	d7643823          	sd	x22,-656(x8)
    800039c8:	00f70c33          	add	x24,x14,x15
    800039cc:	e2043783          	ld	x15,-480(x8)
    800039d0:	00079463          	bne	x15,x0,800039d8 <mm_cb+0x172c>
    800039d4:	39c0106f          	jal	x0,80004d70 <mm_cb+0x2ac4>
    800039d8:	e2843783          	ld	x15,-472(x8)
    800039dc:	41278533          	sub	x10,x15,x18
    800039e0:	01900793          	addi	x15,x0,25
    800039e4:	00050b13          	addi	x22,x10,0
    800039e8:	00a7f463          	bgeu	x15,x10,800039f0 <mm_cb+0x1744>
    800039ec:	01900b13          	addi	x22,x0,25
    800039f0:	00500713          	addi	x14,x0,5
    800039f4:	02eb57b3          	divu	x15,x22,x14
    800039f8:	01ed0633          	add	x12,x26,x30
    800039fc:	d3443823          	sd	x20,-720(x8)
    80003a00:	d8c43023          	sd	x12,-640(x8)
    80003a04:	000c0493          	addi	x9,x24,0
    80003a08:	df943823          	sd	x25,-528(x8)
    80003a0c:	00000a93          	addi	x21,x0,0
    80003a10:	d6a43423          	sd	x10,-664(x8)
    80003a14:	d6643023          	sd	x6,-672(x8)
    80003a18:	d5343c23          	sd	x19,-680(x8)
    80003a1c:	d5243823          	sd	x18,-688(x8)
    80003a20:	dd143c23          	sd	x17,-552(x8)
    80003a24:	d5a43423          	sd	x26,-696(x8)
    80003a28:	000f0b93          	addi	x23,x30,0
    80003a2c:	d5943023          	sd	x25,-704(x8)
    80003a30:	d3843c23          	sd	x24,-712(x8)
    80003a34:	ddd43023          	sd	x29,-576(x8)
    80003a38:	00068a13          	addi	x20,x13,0
    80003a3c:	dbf43c23          	sd	x31,-584(x8)
    80003a40:	02eb7733          	remu	x14,x22,x14
    80003a44:	dae43423          	sd	x14,-600(x8)
    80003a48:	00279713          	slli	x14,x15,0x2
    80003a4c:	00f700b3          	add	x1,x14,x15
    80003a50:	00309793          	slli	x15,x1,0x3
    80003a54:	dcf43823          	sd	x15,-560(x8)
    80003a58:	e0143823          	sd	x1,-496(x8)
    80003a5c:	e2043783          	ld	x15,-480(x8)
    80003a60:	415789b3          	sub	x19,x15,x21
    80003a64:	01800793          	addi	x15,x0,24
    80003a68:	0137f463          	bgeu	x15,x19,80003a70 <mm_cb+0x17c4>
    80003a6c:	01800993          	addi	x19,x0,24
    80003a70:	dd843783          	ld	x15,-552(x8)
    80003a74:	00079463          	bne	x15,x0,80003a7c <mm_cb+0x17d0>
    80003a78:	2780106f          	jal	x0,80004cf0 <mm_cb+0x2a44>
    80003a7c:	df043683          	ld	x13,-528(x8)
    80003a80:	dd043703          	ld	x14,-560(x8)
    80003a84:	00399793          	slli	x15,x19,0x3
    80003a88:	00f487b3          	add	x15,x9,x15
    80003a8c:	00d70733          	add	x14,x14,x13
    80003a90:	e8f43823          	sd	x15,-368(x8)
    80003a94:	00600793          	addi	x15,x0,6
    80003a98:	d8e43c23          	sd	x14,-616(x8)
    80003a9c:	02f9d733          	divu	x14,x19,x15
    80003aa0:	de043783          	ld	x15,-544(x8)
    80003aa4:	00000313          	addi	x6,x0,0
    80003aa8:	db343823          	sd	x19,-592(x8)
    80003aac:	000b8913          	addi	x18,x23,0
    80003ab0:	00048693          	addi	x13,x9,0
    80003ab4:	d3643423          	sd	x22,-728(x8)
    80003ab8:	d3543023          	sd	x21,-736(x8)
    80003abc:	00030993          	addi	x19,x6,0
    80003ac0:	d1743c23          	sd	x23,-744(x8)
    80003ac4:	d0943823          	sd	x9,-752(x8)
    80003ac8:	02e78633          	mul	x12,x15,x14
    80003acc:	00171793          	slli	x15,x14,0x1
    80003ad0:	00e787b3          	add	x15,x15,x14
    80003ad4:	00479793          	slli	x15,x15,0x4
    80003ad8:	00f487b3          	add	x15,x9,x15
    80003adc:	eaf43023          	sd	x15,-352(x8)
    80003ae0:	00161793          	slli	x15,x12,0x1
    80003ae4:	00c787b3          	add	x15,x15,x12
    80003ae8:	00479793          	slli	x15,x15,0x4
    80003aec:	e0f43c23          	sd	x15,-488(x8)
    80003af0:	d6843783          	ld	x15,-664(x8)
    80003af4:	00400713          	addi	x14,x0,4
    80003af8:	00f76463          	bltu	x14,x15,80003b00 <mm_cb+0x1854>
    80003afc:	1780106f          	jal	x0,80004c74 <mm_cb+0x29c8>
    80003b00:	db843783          	ld	x15,-584(x8)
    80003b04:	df043703          	ld	x14,-528(x8)
    80003b08:	d1343423          	sd	x19,-760(x8)
    80003b0c:	00f90ab3          	add	x21,x18,x15
    80003b10:	e0043783          	ld	x15,-512(x8)
    80003b14:	01443023          	sd	x20,0(x8)
    80003b18:	00090c13          	addi	x24,x18,0
    80003b1c:	00f90b33          	add	x22,x18,x15
    80003b20:	dc043783          	ld	x15,-576(x8)
    80003b24:	e6043023          	sd	x0,-416(x8)
    80003b28:	d1243023          	sd	x18,-768(x8)
    80003b2c:	00f90bb3          	add	x23,x18,x15
    80003b30:	00068993          	addi	x19,x13,0
    80003b34:	00070a13          	addi	x20,x14,0
    80003b38:	010c3783          	ld	x15,16(x24)
    80003b3c:	000c3d03          	ld	x26,0(x24)
    80003b40:	008c3c83          	ld	x25,8(x24)
    80003b44:	f6f43423          	sd	x15,-152(x8)
    80003b48:	018c3783          	ld	x15,24(x24)
    80003b4c:	f6f43023          	sd	x15,-160(x8)
    80003b50:	020c3783          	ld	x15,32(x24)
    80003b54:	f4f43c23          	sd	x15,-168(x8)
    80003b58:	000ab783          	ld	x15,0(x21)
    80003b5c:	f4f43823          	sd	x15,-176(x8)
    80003b60:	008ab783          	ld	x15,8(x21)
    80003b64:	f4f43423          	sd	x15,-184(x8)
    80003b68:	010ab783          	ld	x15,16(x21)
    80003b6c:	f4f43023          	sd	x15,-192(x8)
    80003b70:	018ab783          	ld	x15,24(x21)
    80003b74:	f2f43c23          	sd	x15,-200(x8)
    80003b78:	020ab783          	ld	x15,32(x21)
    80003b7c:	f2f43823          	sd	x15,-208(x8)
    80003b80:	000b3783          	ld	x15,0(x22)
    80003b84:	f2f43423          	sd	x15,-216(x8)
    80003b88:	008b3783          	ld	x15,8(x22)
    80003b8c:	f2f43023          	sd	x15,-224(x8)
    80003b90:	010b3783          	ld	x15,16(x22)
    80003b94:	f0f43c23          	sd	x15,-232(x8)
    80003b98:	018b3783          	ld	x15,24(x22)
    80003b9c:	f0f43823          	sd	x15,-240(x8)
    80003ba0:	020b3783          	ld	x15,32(x22)
    80003ba4:	f0f43423          	sd	x15,-248(x8)
    80003ba8:	000bb783          	ld	x15,0(x23)
    80003bac:	f0f43023          	sd	x15,-256(x8)
    80003bb0:	008bb783          	ld	x15,8(x23)
    80003bb4:	eef43c23          	sd	x15,-264(x8)
    80003bb8:	010bb783          	ld	x15,16(x23)
    80003bbc:	eef43823          	sd	x15,-272(x8)
    80003bc0:	018bb783          	ld	x15,24(x23)
    80003bc4:	eef43423          	sd	x15,-280(x8)
    80003bc8:	020bb783          	ld	x15,32(x23)
    80003bcc:	ecf43c23          	sd	x15,-296(x8)
    80003bd0:	ea043783          	ld	x15,-352(x8)
    80003bd4:	54f9fce3          	bgeu	x19,x15,8000492c <mm_cb+0x2680>
    80003bd8:	e9843783          	ld	x15,-360(x8)
    80003bdc:	f9343423          	sd	x19,-120(x8)
    80003be0:	e5343c23          	sd	x19,-424(x8)
    80003be4:	00f987b3          	add	x15,x19,x15
    80003be8:	f8f43023          	sd	x15,-128(x8)
    80003bec:	ee043783          	ld	x15,-288(x8)
    80003bf0:	e5443823          	sd	x20,-432(x8)
    80003bf4:	e5743423          	sd	x23,-440(x8)
    80003bf8:	00f987b3          	add	x15,x19,x15
    80003bfc:	f6f43c23          	sd	x15,-136(x8)
    80003c00:	e8843783          	ld	x15,-376(x8)
    80003c04:	e5643023          	sd	x22,-448(x8)
    80003c08:	e3543c23          	sd	x21,-456(x8)
    80003c0c:	00f987b3          	add	x15,x19,x15
    80003c10:	f6f43823          	sd	x15,-144(x8)
    80003c14:	e3843823          	sd	x24,-464(x8)
    80003c18:	000a0793          	addi	x15,x20,0
    80003c1c:	eb043683          	ld	x13,-336(x8)
    80003c20:	f8843703          	ld	x14,-120(x8)
    80003c24:	0007bd83          	ld	x27,0(x15)
    80003c28:	00d789b3          	add	x19,x15,x13
    80003c2c:	e8043683          	ld	x13,-384(x8)
    80003c30:	00073a03          	ld	x20,0(x14)
    80003c34:	e6843803          	ld	x16,-408(x8)
    80003c38:	00d78933          	add	x18,x15,x13
    80003c3c:	e7043683          	ld	x13,-400(x8)
    80003c40:	01078833          	add	x16,x15,x16
    80003c44:	000d0613          	addi	x12,x26,0
    80003c48:	00d78bb3          	add	x23,x15,x13
    80003c4c:	eb843683          	ld	x13,-328(x8)
    80003c50:	000d8593          	addi	x11,x27,0
    80003c54:	000a0513          	addi	x10,x20,0
    80003c58:	00d786b3          	add	x13,x15,x13
    80003c5c:	ed043023          	sd	x16,-320(x8)
    80003c60:	ecd43423          	sd	x13,-312(x8)
    80003c64:	ed743823          	sd	x23,-304(x8)
    80003c68:	eaf43423          	sd	x15,-344(x8)
    80003c6c:	471050ef          	jal	x1,800098dc <__fma>
    80003c70:	ea843783          	ld	x15,-344(x8)
    80003c74:	00050493          	addi	x9,x10,0
    80003c78:	000c8613          	addi	x12,x25,0
    80003c7c:	0087bc03          	ld	x24,8(x15)
    80003c80:	000a0513          	addi	x10,x20,0
    80003c84:	000c0593          	addi	x11,x24,0
    80003c88:	455050ef          	jal	x1,800098dc <__fma>
    80003c8c:	ea843783          	ld	x15,-344(x8)
    80003c90:	f6843603          	ld	x12,-152(x8)
    80003c94:	00050d13          	addi	x26,x10,0
    80003c98:	0107bb83          	ld	x23,16(x15)
    80003c9c:	000a0513          	addi	x10,x20,0
    80003ca0:	000b8593          	addi	x11,x23,0
    80003ca4:	439050ef          	jal	x1,800098dc <__fma>
    80003ca8:	ea843783          	ld	x15,-344(x8)
    80003cac:	f6043603          	ld	x12,-160(x8)
    80003cb0:	00050c93          	addi	x25,x10,0
    80003cb4:	0187bb03          	ld	x22,24(x15)
    80003cb8:	000a0513          	addi	x10,x20,0
    80003cbc:	f6f43423          	sd	x15,-152(x8)
    80003cc0:	000b0593          	addi	x11,x22,0
    80003cc4:	419050ef          	jal	x1,800098dc <__fma>
    80003cc8:	f6843783          	ld	x15,-152(x8)
    80003ccc:	f5843603          	ld	x12,-168(x8)
    80003cd0:	00050713          	addi	x14,x10,0
    80003cd4:	0207ba83          	ld	x21,32(x15)
    80003cd8:	000a0513          	addi	x10,x20,0
    80003cdc:	f6e43423          	sd	x14,-152(x8)
    80003ce0:	000a8593          	addi	x11,x21,0
    80003ce4:	3f9050ef          	jal	x1,800098dc <__fma>
    80003ce8:	f8043683          	ld	x13,-128(x8)
    80003cec:	f5043603          	ld	x12,-176(x8)
    80003cf0:	00050713          	addi	x14,x10,0
    80003cf4:	0006ba03          	ld	x20,0(x13)
    80003cf8:	000d8513          	addi	x10,x27,0
    80003cfc:	f6e43023          	sd	x14,-160(x8)
    80003d00:	000a0593          	addi	x11,x20,0
    80003d04:	3d9050ef          	jal	x1,800098dc <__fma>
    80003d08:	f4843603          	ld	x12,-184(x8)
    80003d0c:	00050713          	addi	x14,x10,0
    80003d10:	000a0593          	addi	x11,x20,0
    80003d14:	000c0513          	addi	x10,x24,0
    80003d18:	f4e43c23          	sd	x14,-168(x8)
    80003d1c:	3c1050ef          	jal	x1,800098dc <__fma>
    80003d20:	f4043603          	ld	x12,-192(x8)
    80003d24:	00050713          	addi	x14,x10,0
    80003d28:	000a0593          	addi	x11,x20,0
    80003d2c:	000b8513          	addi	x10,x23,0
    80003d30:	f4e43823          	sd	x14,-176(x8)
    80003d34:	3a9050ef          	jal	x1,800098dc <__fma>
    80003d38:	f3843603          	ld	x12,-200(x8)
    80003d3c:	00050713          	addi	x14,x10,0
    80003d40:	000a0593          	addi	x11,x20,0
    80003d44:	000b0513          	addi	x10,x22,0
    80003d48:	f4e43423          	sd	x14,-184(x8)
    80003d4c:	391050ef          	jal	x1,800098dc <__fma>
    80003d50:	f3043603          	ld	x12,-208(x8)
    80003d54:	00050713          	addi	x14,x10,0
    80003d58:	000a0593          	addi	x11,x20,0
    80003d5c:	000a8513          	addi	x10,x21,0
    80003d60:	f4e43023          	sd	x14,-192(x8)
    80003d64:	379050ef          	jal	x1,800098dc <__fma>
    80003d68:	f7843583          	ld	x11,-136(x8)
    80003d6c:	f2843603          	ld	x12,-216(x8)
    80003d70:	00050713          	addi	x14,x10,0
    80003d74:	0005ba03          	ld	x20,0(x11)
    80003d78:	000d8513          	addi	x10,x27,0
    80003d7c:	f2e43c23          	sd	x14,-200(x8)
    80003d80:	000a0593          	addi	x11,x20,0
    80003d84:	359050ef          	jal	x1,800098dc <__fma>
    80003d88:	f2043603          	ld	x12,-224(x8)
    80003d8c:	00050713          	addi	x14,x10,0
    80003d90:	000a0593          	addi	x11,x20,0
    80003d94:	000c0513          	addi	x10,x24,0
    80003d98:	f2e43823          	sd	x14,-208(x8)
    80003d9c:	341050ef          	jal	x1,800098dc <__fma>
    80003da0:	f1843603          	ld	x12,-232(x8)
    80003da4:	00050713          	addi	x14,x10,0
    80003da8:	000a0593          	addi	x11,x20,0
    80003dac:	000b8513          	addi	x10,x23,0
    80003db0:	f2e43423          	sd	x14,-216(x8)
    80003db4:	329050ef          	jal	x1,800098dc <__fma>
    80003db8:	f1043603          	ld	x12,-240(x8)
    80003dbc:	00050713          	addi	x14,x10,0
    80003dc0:	000a0593          	addi	x11,x20,0
    80003dc4:	000b0513          	addi	x10,x22,0
    80003dc8:	f2e43023          	sd	x14,-224(x8)
    80003dcc:	311050ef          	jal	x1,800098dc <__fma>
    80003dd0:	f0843603          	ld	x12,-248(x8)
    80003dd4:	00050713          	addi	x14,x10,0
    80003dd8:	000a0593          	addi	x11,x20,0
    80003ddc:	000a8513          	addi	x10,x21,0
    80003de0:	f0e43c23          	sd	x14,-232(x8)
    80003de4:	2f9050ef          	jal	x1,800098dc <__fma>
    80003de8:	00050713          	addi	x14,x10,0
    80003dec:	f7043503          	ld	x10,-144(x8)
    80003df0:	f0043603          	ld	x12,-256(x8)
    80003df4:	00053a03          	ld	x20,0(x10)
    80003df8:	000d8513          	addi	x10,x27,0
    80003dfc:	00070d93          	addi	x27,x14,0
    80003e00:	000a0593          	addi	x11,x20,0
    80003e04:	2d9050ef          	jal	x1,800098dc <__fma>
    80003e08:	ef843603          	ld	x12,-264(x8)
    80003e0c:	00050713          	addi	x14,x10,0
    80003e10:	000a0593          	addi	x11,x20,0
    80003e14:	000c0513          	addi	x10,x24,0
    80003e18:	f0e43823          	sd	x14,-240(x8)
    80003e1c:	2c1050ef          	jal	x1,800098dc <__fma>
    80003e20:	ef043603          	ld	x12,-272(x8)
    80003e24:	00050713          	addi	x14,x10,0
    80003e28:	000a0593          	addi	x11,x20,0
    80003e2c:	000b8513          	addi	x10,x23,0
    80003e30:	f0e43423          	sd	x14,-248(x8)
    80003e34:	2a9050ef          	jal	x1,800098dc <__fma>
    80003e38:	ee843603          	ld	x12,-280(x8)
    80003e3c:	00050713          	addi	x14,x10,0
    80003e40:	000a0593          	addi	x11,x20,0
    80003e44:	000b0513          	addi	x10,x22,0
    80003e48:	f0e43023          	sd	x14,-256(x8)
    80003e4c:	291050ef          	jal	x1,800098dc <__fma>
    80003e50:	ed843603          	ld	x12,-296(x8)
    80003e54:	00050713          	addi	x14,x10,0
    80003e58:	000a0593          	addi	x11,x20,0
    80003e5c:	000a8513          	addi	x10,x21,0
    80003e60:	eee43c23          	sd	x14,-264(x8)
    80003e64:	279050ef          	jal	x1,800098dc <__fma>
    80003e68:	f8843783          	ld	x15,-120(x8)
    80003e6c:	0009ba83          	ld	x21,0(x19)
    80003e70:	00050713          	addi	x14,x10,0
    80003e74:	0087ba03          	ld	x20,8(x15)
    80003e78:	00048613          	addi	x12,x9,0
    80003e7c:	000a8593          	addi	x11,x21,0
    80003e80:	000a0513          	addi	x10,x20,0
    80003e84:	00070493          	addi	x9,x14,0
    80003e88:	255050ef          	jal	x1,800098dc <__fma>
    80003e8c:	0089bb03          	ld	x22,8(x19)
    80003e90:	00050713          	addi	x14,x10,0
    80003e94:	000d0613          	addi	x12,x26,0
    80003e98:	000b0593          	addi	x11,x22,0
    80003e9c:	000a0513          	addi	x10,x20,0
    80003ea0:	00070d13          	addi	x26,x14,0
    80003ea4:	239050ef          	jal	x1,800098dc <__fma>
    80003ea8:	0109bb83          	ld	x23,16(x19)
    80003eac:	00050713          	addi	x14,x10,0
    80003eb0:	000c8613          	addi	x12,x25,0
    80003eb4:	000b8593          	addi	x11,x23,0
    80003eb8:	000a0513          	addi	x10,x20,0
    80003ebc:	00070c93          	addi	x25,x14,0
    80003ec0:	21d050ef          	jal	x1,800098dc <__fma>
    80003ec4:	0189bc03          	ld	x24,24(x19)
    80003ec8:	f6843603          	ld	x12,-152(x8)
    80003ecc:	00050713          	addi	x14,x10,0
    80003ed0:	000c0593          	addi	x11,x24,0
    80003ed4:	000a0513          	addi	x10,x20,0
    80003ed8:	f6e43423          	sd	x14,-152(x8)
    80003edc:	201050ef          	jal	x1,800098dc <__fma>
    80003ee0:	0209b983          	ld	x19,32(x19)
    80003ee4:	f6043603          	ld	x12,-160(x8)
    80003ee8:	00050713          	addi	x14,x10,0
    80003eec:	00098593          	addi	x11,x19,0
    80003ef0:	000a0513          	addi	x10,x20,0
    80003ef4:	f6e43023          	sd	x14,-160(x8)
    80003ef8:	1e5050ef          	jal	x1,800098dc <__fma>
    80003efc:	f8043683          	ld	x13,-128(x8)
    80003f00:	f5843603          	ld	x12,-168(x8)
    80003f04:	00050713          	addi	x14,x10,0
    80003f08:	0086ba03          	ld	x20,8(x13)
    80003f0c:	000a8513          	addi	x10,x21,0
    80003f10:	f4e43c23          	sd	x14,-168(x8)
    80003f14:	000a0593          	addi	x11,x20,0
    80003f18:	1c5050ef          	jal	x1,800098dc <__fma>
    80003f1c:	f5043603          	ld	x12,-176(x8)
    80003f20:	00050713          	addi	x14,x10,0
    80003f24:	000a0593          	addi	x11,x20,0
    80003f28:	000b0513          	addi	x10,x22,0
    80003f2c:	f4e43823          	sd	x14,-176(x8)
    80003f30:	1ad050ef          	jal	x1,800098dc <__fma>
    80003f34:	f4843603          	ld	x12,-184(x8)
    80003f38:	00050713          	addi	x14,x10,0
    80003f3c:	000a0593          	addi	x11,x20,0
    80003f40:	000b8513          	addi	x10,x23,0
    80003f44:	f4e43423          	sd	x14,-184(x8)
    80003f48:	195050ef          	jal	x1,800098dc <__fma>
    80003f4c:	f4043603          	ld	x12,-192(x8)
    80003f50:	00050713          	addi	x14,x10,0
    80003f54:	000a0593          	addi	x11,x20,0
    80003f58:	000c0513          	addi	x10,x24,0
    80003f5c:	f4e43023          	sd	x14,-192(x8)
    80003f60:	17d050ef          	jal	x1,800098dc <__fma>
    80003f64:	f3843603          	ld	x12,-200(x8)
    80003f68:	00050713          	addi	x14,x10,0
    80003f6c:	000a0593          	addi	x11,x20,0
    80003f70:	00098513          	addi	x10,x19,0
    80003f74:	f2e43c23          	sd	x14,-200(x8)
    80003f78:	165050ef          	jal	x1,800098dc <__fma>
    80003f7c:	f7843583          	ld	x11,-136(x8)
    80003f80:	f3043603          	ld	x12,-208(x8)
    80003f84:	00050713          	addi	x14,x10,0
    80003f88:	0085ba03          	ld	x20,8(x11)
    80003f8c:	000a8513          	addi	x10,x21,0
    80003f90:	f2e43823          	sd	x14,-208(x8)
    80003f94:	000a0593          	addi	x11,x20,0
    80003f98:	145050ef          	jal	x1,800098dc <__fma>
    80003f9c:	f2843603          	ld	x12,-216(x8)
    80003fa0:	00050713          	addi	x14,x10,0
    80003fa4:	000a0593          	addi	x11,x20,0
    80003fa8:	000b0513          	addi	x10,x22,0
    80003fac:	f2e43423          	sd	x14,-216(x8)
    80003fb0:	12d050ef          	jal	x1,800098dc <__fma>
    80003fb4:	f2043603          	ld	x12,-224(x8)
    80003fb8:	00050713          	addi	x14,x10,0
    80003fbc:	000a0593          	addi	x11,x20,0
    80003fc0:	000b8513          	addi	x10,x23,0
    80003fc4:	f2e43023          	sd	x14,-224(x8)
    80003fc8:	115050ef          	jal	x1,800098dc <__fma>
    80003fcc:	f1843603          	ld	x12,-232(x8)
    80003fd0:	00050713          	addi	x14,x10,0
    80003fd4:	000a0593          	addi	x11,x20,0
    80003fd8:	000c0513          	addi	x10,x24,0
    80003fdc:	f0e43c23          	sd	x14,-232(x8)
    80003fe0:	0fd050ef          	jal	x1,800098dc <__fma>
    80003fe4:	00050713          	addi	x14,x10,0
    80003fe8:	000d8613          	addi	x12,x27,0
    80003fec:	000a0593          	addi	x11,x20,0
    80003ff0:	00098513          	addi	x10,x19,0
    80003ff4:	00070d93          	addi	x27,x14,0
    80003ff8:	0e5050ef          	jal	x1,800098dc <__fma>
    80003ffc:	00050713          	addi	x14,x10,0
    80004000:	f7043503          	ld	x10,-144(x8)
    80004004:	f1043603          	ld	x12,-240(x8)
    80004008:	f0e43823          	sd	x14,-240(x8)
    8000400c:	00853a03          	ld	x20,8(x10)
    80004010:	000a8513          	addi	x10,x21,0
    80004014:	000a0593          	addi	x11,x20,0
    80004018:	0c5050ef          	jal	x1,800098dc <__fma>
    8000401c:	f0843603          	ld	x12,-248(x8)
    80004020:	00050713          	addi	x14,x10,0
    80004024:	000a0593          	addi	x11,x20,0
    80004028:	000b0513          	addi	x10,x22,0
    8000402c:	f0e43423          	sd	x14,-248(x8)
    80004030:	0ad050ef          	jal	x1,800098dc <__fma>
    80004034:	f0043603          	ld	x12,-256(x8)
    80004038:	00050713          	addi	x14,x10,0
    8000403c:	000a0593          	addi	x11,x20,0
    80004040:	000b8513          	addi	x10,x23,0
    80004044:	f0e43023          	sd	x14,-256(x8)
    80004048:	095050ef          	jal	x1,800098dc <__fma>
    8000404c:	ef843603          	ld	x12,-264(x8)
    80004050:	00050713          	addi	x14,x10,0
    80004054:	000a0593          	addi	x11,x20,0
    80004058:	000c0513          	addi	x10,x24,0
    8000405c:	00070c13          	addi	x24,x14,0
    80004060:	07d050ef          	jal	x1,800098dc <__fma>
    80004064:	00050713          	addi	x14,x10,0
    80004068:	00048613          	addi	x12,x9,0
    8000406c:	000a0593          	addi	x11,x20,0
    80004070:	00098513          	addi	x10,x19,0
    80004074:	00070493          	addi	x9,x14,0
    80004078:	065050ef          	jal	x1,800098dc <__fma>
    8000407c:	f8843783          	ld	x15,-120(x8)
    80004080:	00093a03          	ld	x20,0(x18)
    80004084:	00050713          	addi	x14,x10,0
    80004088:	0107b983          	ld	x19,16(x15)
    8000408c:	000d0613          	addi	x12,x26,0
    80004090:	000a0593          	addi	x11,x20,0
    80004094:	00098513          	addi	x10,x19,0
    80004098:	00070d13          	addi	x26,x14,0
    8000409c:	041050ef          	jal	x1,800098dc <__fma>
    800040a0:	00893a83          	ld	x21,8(x18)
    800040a4:	00050713          	addi	x14,x10,0
    800040a8:	000c8613          	addi	x12,x25,0
    800040ac:	000a8593          	addi	x11,x21,0
    800040b0:	00098513          	addi	x10,x19,0
    800040b4:	00070c93          	addi	x25,x14,0
    800040b8:	025050ef          	jal	x1,800098dc <__fma>
    800040bc:	01093b03          	ld	x22,16(x18)
    800040c0:	f6843603          	ld	x12,-152(x8)
    800040c4:	00050713          	addi	x14,x10,0
    800040c8:	000b0593          	addi	x11,x22,0
    800040cc:	00098513          	addi	x10,x19,0
    800040d0:	f6e43423          	sd	x14,-152(x8)
    800040d4:	009050ef          	jal	x1,800098dc <__fma>
    800040d8:	01893b83          	ld	x23,24(x18)
    800040dc:	f6043603          	ld	x12,-160(x8)
    800040e0:	00050713          	addi	x14,x10,0
    800040e4:	000b8593          	addi	x11,x23,0
    800040e8:	00098513          	addi	x10,x19,0
    800040ec:	f6e43023          	sd	x14,-160(x8)
    800040f0:	7ec050ef          	jal	x1,800098dc <__fma>
    800040f4:	02093903          	ld	x18,32(x18)
    800040f8:	f5843603          	ld	x12,-168(x8)
    800040fc:	00050713          	addi	x14,x10,0
    80004100:	00090593          	addi	x11,x18,0
    80004104:	00098513          	addi	x10,x19,0
    80004108:	f4e43c23          	sd	x14,-168(x8)
    8000410c:	7d0050ef          	jal	x1,800098dc <__fma>
    80004110:	f8043683          	ld	x13,-128(x8)
    80004114:	f5043603          	ld	x12,-176(x8)
    80004118:	00050713          	addi	x14,x10,0
    8000411c:	0106b983          	ld	x19,16(x13)
    80004120:	000a0513          	addi	x10,x20,0
    80004124:	f4e43823          	sd	x14,-176(x8)
    80004128:	00098593          	addi	x11,x19,0
    8000412c:	7b0050ef          	jal	x1,800098dc <__fma>
    80004130:	f4843603          	ld	x12,-184(x8)
    80004134:	00050713          	addi	x14,x10,0
    80004138:	00098593          	addi	x11,x19,0
    8000413c:	000a8513          	addi	x10,x21,0
    80004140:	f4e43423          	sd	x14,-184(x8)
    80004144:	798050ef          	jal	x1,800098dc <__fma>
    80004148:	f4043603          	ld	x12,-192(x8)
    8000414c:	00050713          	addi	x14,x10,0
    80004150:	00098593          	addi	x11,x19,0
    80004154:	000b0513          	addi	x10,x22,0
    80004158:	f4e43023          	sd	x14,-192(x8)
    8000415c:	780050ef          	jal	x1,800098dc <__fma>
    80004160:	f3843603          	ld	x12,-200(x8)
    80004164:	00050713          	addi	x14,x10,0
    80004168:	00098593          	addi	x11,x19,0
    8000416c:	000b8513          	addi	x10,x23,0
    80004170:	f2e43c23          	sd	x14,-200(x8)
    80004174:	768050ef          	jal	x1,800098dc <__fma>
    80004178:	f3043603          	ld	x12,-208(x8)
    8000417c:	00050713          	addi	x14,x10,0
    80004180:	00098593          	addi	x11,x19,0
    80004184:	00090513          	addi	x10,x18,0
    80004188:	f2e43823          	sd	x14,-208(x8)
    8000418c:	750050ef          	jal	x1,800098dc <__fma>
    80004190:	f7843583          	ld	x11,-136(x8)
    80004194:	f2843603          	ld	x12,-216(x8)
    80004198:	00050713          	addi	x14,x10,0
    8000419c:	0105b983          	ld	x19,16(x11)
    800041a0:	000a0513          	addi	x10,x20,0
    800041a4:	f2e43423          	sd	x14,-216(x8)
    800041a8:	00098593          	addi	x11,x19,0
    800041ac:	730050ef          	jal	x1,800098dc <__fma>
    800041b0:	f2043603          	ld	x12,-224(x8)
    800041b4:	00050713          	addi	x14,x10,0
    800041b8:	00098593          	addi	x11,x19,0
    800041bc:	000a8513          	addi	x10,x21,0
    800041c0:	f2e43023          	sd	x14,-224(x8)
    800041c4:	718050ef          	jal	x1,800098dc <__fma>
    800041c8:	f1843603          	ld	x12,-232(x8)
    800041cc:	00050713          	addi	x14,x10,0
    800041d0:	00098593          	addi	x11,x19,0
    800041d4:	000b0513          	addi	x10,x22,0
    800041d8:	f0e43c23          	sd	x14,-232(x8)
    800041dc:	700050ef          	jal	x1,800098dc <__fma>
    800041e0:	00050713          	addi	x14,x10,0
    800041e4:	000d8613          	addi	x12,x27,0
    800041e8:	00098593          	addi	x11,x19,0
    800041ec:	000b8513          	addi	x10,x23,0
    800041f0:	00070d93          	addi	x27,x14,0
    800041f4:	6e8050ef          	jal	x1,800098dc <__fma>
    800041f8:	f1043603          	ld	x12,-240(x8)
    800041fc:	00050713          	addi	x14,x10,0
    80004200:	00098593          	addi	x11,x19,0
    80004204:	00090513          	addi	x10,x18,0
    80004208:	f0e43823          	sd	x14,-240(x8)
    8000420c:	6d0050ef          	jal	x1,800098dc <__fma>
    80004210:	00050713          	addi	x14,x10,0
    80004214:	f7043503          	ld	x10,-144(x8)
    80004218:	f0843603          	ld	x12,-248(x8)
    8000421c:	f0e43423          	sd	x14,-248(x8)
    80004220:	01053983          	ld	x19,16(x10)
    80004224:	000a0513          	addi	x10,x20,0
    80004228:	00098593          	addi	x11,x19,0
    8000422c:	6b0050ef          	jal	x1,800098dc <__fma>
    80004230:	f0043603          	ld	x12,-256(x8)
    80004234:	00050713          	addi	x14,x10,0
    80004238:	00098593          	addi	x11,x19,0
    8000423c:	000a8513          	addi	x10,x21,0
    80004240:	f0e43023          	sd	x14,-256(x8)
    80004244:	698050ef          	jal	x1,800098dc <__fma>
    80004248:	00050713          	addi	x14,x10,0
    8000424c:	000c0613          	addi	x12,x24,0
    80004250:	00098593          	addi	x11,x19,0
    80004254:	000b0513          	addi	x10,x22,0
    80004258:	00070c13          	addi	x24,x14,0
    8000425c:	680050ef          	jal	x1,800098dc <__fma>
    80004260:	00050713          	addi	x14,x10,0
    80004264:	00048613          	addi	x12,x9,0
    80004268:	00098593          	addi	x11,x19,0
    8000426c:	000b8513          	addi	x10,x23,0
    80004270:	00070493          	addi	x9,x14,0
    80004274:	668050ef          	jal	x1,800098dc <__fma>
    80004278:	00050713          	addi	x14,x10,0
    8000427c:	000d0613          	addi	x12,x26,0
    80004280:	00098593          	addi	x11,x19,0
    80004284:	00090513          	addi	x10,x18,0
    80004288:	00070d13          	addi	x26,x14,0
    8000428c:	650050ef          	jal	x1,800098dc <__fma>
    80004290:	f8843783          	ld	x15,-120(x8)
    80004294:	ed043b83          	ld	x23,-304(x8)
    80004298:	00050713          	addi	x14,x10,0
    8000429c:	0187b903          	ld	x18,24(x15)
    800042a0:	000bb983          	ld	x19,0(x23)
    800042a4:	000c8613          	addi	x12,x25,0
    800042a8:	00090513          	addi	x10,x18,0
    800042ac:	00098593          	addi	x11,x19,0
    800042b0:	00070c93          	addi	x25,x14,0
    800042b4:	628050ef          	jal	x1,800098dc <__fma>
    800042b8:	008bba03          	ld	x20,8(x23)
    800042bc:	f6843603          	ld	x12,-152(x8)
    800042c0:	00050713          	addi	x14,x10,0
    800042c4:	000a0593          	addi	x11,x20,0
    800042c8:	00090513          	addi	x10,x18,0
    800042cc:	f6e43423          	sd	x14,-152(x8)
    800042d0:	60c050ef          	jal	x1,800098dc <__fma>
    800042d4:	010bba83          	ld	x21,16(x23)
    800042d8:	f6043603          	ld	x12,-160(x8)
    800042dc:	00050713          	addi	x14,x10,0
    800042e0:	000a8593          	addi	x11,x21,0
    800042e4:	00090513          	addi	x10,x18,0
    800042e8:	f6e43023          	sd	x14,-160(x8)
    800042ec:	5f0050ef          	jal	x1,800098dc <__fma>
    800042f0:	018bbb03          	ld	x22,24(x23)
    800042f4:	f5843603          	ld	x12,-168(x8)
    800042f8:	00050713          	addi	x14,x10,0
    800042fc:	000b0593          	addi	x11,x22,0
    80004300:	00090513          	addi	x10,x18,0
    80004304:	f4e43c23          	sd	x14,-168(x8)
    80004308:	5d4050ef          	jal	x1,800098dc <__fma>
    8000430c:	020bbb83          	ld	x23,32(x23)
    80004310:	f5043603          	ld	x12,-176(x8)
    80004314:	00050713          	addi	x14,x10,0
    80004318:	000b8593          	addi	x11,x23,0
    8000431c:	00090513          	addi	x10,x18,0
    80004320:	f4e43823          	sd	x14,-176(x8)
    80004324:	5b8050ef          	jal	x1,800098dc <__fma>
    80004328:	f8043683          	ld	x13,-128(x8)
    8000432c:	f4843603          	ld	x12,-184(x8)
    80004330:	00050713          	addi	x14,x10,0
    80004334:	0186b903          	ld	x18,24(x13)
    80004338:	00098513          	addi	x10,x19,0
    8000433c:	f4e43423          	sd	x14,-184(x8)
    80004340:	00090593          	addi	x11,x18,0
    80004344:	598050ef          	jal	x1,800098dc <__fma>
    80004348:	f4043603          	ld	x12,-192(x8)
    8000434c:	00050713          	addi	x14,x10,0
    80004350:	00090593          	addi	x11,x18,0
    80004354:	000a0513          	addi	x10,x20,0
    80004358:	f4e43023          	sd	x14,-192(x8)
    8000435c:	580050ef          	jal	x1,800098dc <__fma>
    80004360:	f3843603          	ld	x12,-200(x8)
    80004364:	00050713          	addi	x14,x10,0
    80004368:	00090593          	addi	x11,x18,0
    8000436c:	000a8513          	addi	x10,x21,0
    80004370:	f2e43c23          	sd	x14,-200(x8)
    80004374:	568050ef          	jal	x1,800098dc <__fma>
    80004378:	f3043603          	ld	x12,-208(x8)
    8000437c:	00050713          	addi	x14,x10,0
    80004380:	00090593          	addi	x11,x18,0
    80004384:	000b0513          	addi	x10,x22,0
    80004388:	f2e43823          	sd	x14,-208(x8)
    8000438c:	550050ef          	jal	x1,800098dc <__fma>
    80004390:	f2843603          	ld	x12,-216(x8)
    80004394:	00050713          	addi	x14,x10,0
    80004398:	00090593          	addi	x11,x18,0
    8000439c:	000b8513          	addi	x10,x23,0
    800043a0:	f2e43423          	sd	x14,-216(x8)
    800043a4:	538050ef          	jal	x1,800098dc <__fma>
    800043a8:	f7843583          	ld	x11,-136(x8)
    800043ac:	f2043603          	ld	x12,-224(x8)
    800043b0:	00050713          	addi	x14,x10,0
    800043b4:	0185b903          	ld	x18,24(x11)
    800043b8:	00098513          	addi	x10,x19,0
    800043bc:	f2e43023          	sd	x14,-224(x8)
    800043c0:	00090593          	addi	x11,x18,0
    800043c4:	518050ef          	jal	x1,800098dc <__fma>
    800043c8:	f1843603          	ld	x12,-232(x8)
    800043cc:	00050713          	addi	x14,x10,0
    800043d0:	00090593          	addi	x11,x18,0
    800043d4:	000a0513          	addi	x10,x20,0
    800043d8:	f0e43c23          	sd	x14,-232(x8)
    800043dc:	500050ef          	jal	x1,800098dc <__fma>
    800043e0:	00050713          	addi	x14,x10,0
    800043e4:	000d8613          	addi	x12,x27,0
    800043e8:	00090593          	addi	x11,x18,0
    800043ec:	000a8513          	addi	x10,x21,0
    800043f0:	00070d93          	addi	x27,x14,0
    800043f4:	4e8050ef          	jal	x1,800098dc <__fma>
    800043f8:	f1043603          	ld	x12,-240(x8)
    800043fc:	00050713          	addi	x14,x10,0
    80004400:	00090593          	addi	x11,x18,0
    80004404:	000b0513          	addi	x10,x22,0
    80004408:	f0e43823          	sd	x14,-240(x8)
    8000440c:	4d0050ef          	jal	x1,800098dc <__fma>
    80004410:	f0843603          	ld	x12,-248(x8)
    80004414:	00050713          	addi	x14,x10,0
    80004418:	00090593          	addi	x11,x18,0
    8000441c:	000b8513          	addi	x10,x23,0
    80004420:	f0e43423          	sd	x14,-248(x8)
    80004424:	4b8050ef          	jal	x1,800098dc <__fma>
    80004428:	00050713          	addi	x14,x10,0
    8000442c:	f7043503          	ld	x10,-144(x8)
    80004430:	f0043603          	ld	x12,-256(x8)
    80004434:	f0e43023          	sd	x14,-256(x8)
    80004438:	01853903          	ld	x18,24(x10)
    8000443c:	00098513          	addi	x10,x19,0
    80004440:	00090593          	addi	x11,x18,0
    80004444:	498050ef          	jal	x1,800098dc <__fma>
    80004448:	00050713          	addi	x14,x10,0
    8000444c:	000c0613          	addi	x12,x24,0
    80004450:	00090593          	addi	x11,x18,0
    80004454:	000a0513          	addi	x10,x20,0
    80004458:	00070c13          	addi	x24,x14,0
    8000445c:	480050ef          	jal	x1,800098dc <__fma>
    80004460:	00050713          	addi	x14,x10,0
    80004464:	00048613          	addi	x12,x9,0
    80004468:	00090593          	addi	x11,x18,0
    8000446c:	000a8513          	addi	x10,x21,0
    80004470:	00070493          	addi	x9,x14,0
    80004474:	468050ef          	jal	x1,800098dc <__fma>
    80004478:	00050713          	addi	x14,x10,0
    8000447c:	000d0613          	addi	x12,x26,0
    80004480:	00090593          	addi	x11,x18,0
    80004484:	000b0513          	addi	x10,x22,0
    80004488:	00070d13          	addi	x26,x14,0
    8000448c:	450050ef          	jal	x1,800098dc <__fma>
    80004490:	00050713          	addi	x14,x10,0
    80004494:	000c8613          	addi	x12,x25,0
    80004498:	00090593          	addi	x11,x18,0
    8000449c:	000b8513          	addi	x10,x23,0
    800044a0:	00070c93          	addi	x25,x14,0
    800044a4:	438050ef          	jal	x1,800098dc <__fma>
    800044a8:	f8843783          	ld	x15,-120(x8)
    800044ac:	ec843b83          	ld	x23,-312(x8)
    800044b0:	f6843603          	ld	x12,-152(x8)
    800044b4:	0207b903          	ld	x18,32(x15)
    800044b8:	000bb983          	ld	x19,0(x23)
    800044bc:	00050713          	addi	x14,x10,0
    800044c0:	00090513          	addi	x10,x18,0
    800044c4:	00098593          	addi	x11,x19,0
    800044c8:	f6e43423          	sd	x14,-152(x8)
    800044cc:	410050ef          	jal	x1,800098dc <__fma>
    800044d0:	008bba03          	ld	x20,8(x23)
    800044d4:	f6043603          	ld	x12,-160(x8)
    800044d8:	00050713          	addi	x14,x10,0
    800044dc:	000a0593          	addi	x11,x20,0
    800044e0:	00090513          	addi	x10,x18,0
    800044e4:	f6e43023          	sd	x14,-160(x8)
    800044e8:	3f4050ef          	jal	x1,800098dc <__fma>
    800044ec:	010bba83          	ld	x21,16(x23)
    800044f0:	f5843603          	ld	x12,-168(x8)
    800044f4:	00050713          	addi	x14,x10,0
    800044f8:	000a8593          	addi	x11,x21,0
    800044fc:	00090513          	addi	x10,x18,0
    80004500:	f4e43c23          	sd	x14,-168(x8)
    80004504:	3d8050ef          	jal	x1,800098dc <__fma>
    80004508:	018bbb03          	ld	x22,24(x23)
    8000450c:	f5043603          	ld	x12,-176(x8)
    80004510:	00050713          	addi	x14,x10,0
    80004514:	000b0593          	addi	x11,x22,0
    80004518:	00090513          	addi	x10,x18,0
    8000451c:	f4e43823          	sd	x14,-176(x8)
    80004520:	3bc050ef          	jal	x1,800098dc <__fma>
    80004524:	020bbb83          	ld	x23,32(x23)
    80004528:	f4843603          	ld	x12,-184(x8)
    8000452c:	00050713          	addi	x14,x10,0
    80004530:	000b8593          	addi	x11,x23,0
    80004534:	00090513          	addi	x10,x18,0
    80004538:	f4e43423          	sd	x14,-184(x8)
    8000453c:	3a0050ef          	jal	x1,800098dc <__fma>
    80004540:	f8043683          	ld	x13,-128(x8)
    80004544:	f4043603          	ld	x12,-192(x8)
    80004548:	00050713          	addi	x14,x10,0
    8000454c:	0206b903          	ld	x18,32(x13)
    80004550:	00098513          	addi	x10,x19,0
    80004554:	f4e43023          	sd	x14,-192(x8)
    80004558:	00090593          	addi	x11,x18,0
    8000455c:	380050ef          	jal	x1,800098dc <__fma>
    80004560:	f3843603          	ld	x12,-200(x8)
    80004564:	00050713          	addi	x14,x10,0
    80004568:	00090593          	addi	x11,x18,0
    8000456c:	000a0513          	addi	x10,x20,0
    80004570:	f2e43c23          	sd	x14,-200(x8)
    80004574:	368050ef          	jal	x1,800098dc <__fma>
    80004578:	f3043603          	ld	x12,-208(x8)
    8000457c:	00050713          	addi	x14,x10,0
    80004580:	00090593          	addi	x11,x18,0
    80004584:	000a8513          	addi	x10,x21,0
    80004588:	f2e43823          	sd	x14,-208(x8)
    8000458c:	350050ef          	jal	x1,800098dc <__fma>
    80004590:	f2843603          	ld	x12,-216(x8)
    80004594:	00050713          	addi	x14,x10,0
    80004598:	00090593          	addi	x11,x18,0
    8000459c:	000b0513          	addi	x10,x22,0
    800045a0:	f2e43423          	sd	x14,-216(x8)
    800045a4:	338050ef          	jal	x1,800098dc <__fma>
    800045a8:	f2043603          	ld	x12,-224(x8)
    800045ac:	00050713          	addi	x14,x10,0
    800045b0:	00090593          	addi	x11,x18,0
    800045b4:	000b8513          	addi	x10,x23,0
    800045b8:	f2e43023          	sd	x14,-224(x8)
    800045bc:	320050ef          	jal	x1,800098dc <__fma>
    800045c0:	f7843583          	ld	x11,-136(x8)
    800045c4:	f1843603          	ld	x12,-232(x8)
    800045c8:	00050713          	addi	x14,x10,0
    800045cc:	0205b903          	ld	x18,32(x11)
    800045d0:	00098513          	addi	x10,x19,0
    800045d4:	f0e43c23          	sd	x14,-232(x8)
    800045d8:	00090593          	addi	x11,x18,0
    800045dc:	300050ef          	jal	x1,800098dc <__fma>
    800045e0:	00050713          	addi	x14,x10,0
    800045e4:	000d8613          	addi	x12,x27,0
    800045e8:	00090593          	addi	x11,x18,0
    800045ec:	000a0513          	addi	x10,x20,0
    800045f0:	00070d93          	addi	x27,x14,0
    800045f4:	2e8050ef          	jal	x1,800098dc <__fma>
    800045f8:	f1043603          	ld	x12,-240(x8)
    800045fc:	00050713          	addi	x14,x10,0
    80004600:	00090593          	addi	x11,x18,0
    80004604:	000a8513          	addi	x10,x21,0
    80004608:	f0e43823          	sd	x14,-240(x8)
    8000460c:	2d0050ef          	jal	x1,800098dc <__fma>
    80004610:	f0843603          	ld	x12,-248(x8)
    80004614:	00050713          	addi	x14,x10,0
    80004618:	00090593          	addi	x11,x18,0
    8000461c:	000b0513          	addi	x10,x22,0
    80004620:	f0e43423          	sd	x14,-248(x8)
    80004624:	2b8050ef          	jal	x1,800098dc <__fma>
    80004628:	f0043603          	ld	x12,-256(x8)
    8000462c:	00050713          	addi	x14,x10,0
    80004630:	00090593          	addi	x11,x18,0
    80004634:	000b8513          	addi	x10,x23,0
    80004638:	f0e43023          	sd	x14,-256(x8)
    8000463c:	2a0050ef          	jal	x1,800098dc <__fma>
    80004640:	00050713          	addi	x14,x10,0
    80004644:	f7043503          	ld	x10,-144(x8)
    80004648:	000c0613          	addi	x12,x24,0
    8000464c:	00070c13          	addi	x24,x14,0
    80004650:	02053903          	ld	x18,32(x10)
    80004654:	00098513          	addi	x10,x19,0
    80004658:	00090593          	addi	x11,x18,0
    8000465c:	280050ef          	jal	x1,800098dc <__fma>
    80004660:	00050713          	addi	x14,x10,0
    80004664:	00048613          	addi	x12,x9,0
    80004668:	00090593          	addi	x11,x18,0
    8000466c:	000a0513          	addi	x10,x20,0
    80004670:	00070493          	addi	x9,x14,0
    80004674:	268050ef          	jal	x1,800098dc <__fma>
    80004678:	00050713          	addi	x14,x10,0
    8000467c:	000d0613          	addi	x12,x26,0
    80004680:	00090593          	addi	x11,x18,0
    80004684:	000a8513          	addi	x10,x21,0
    80004688:	eee43c23          	sd	x14,-264(x8)
    8000468c:	250050ef          	jal	x1,800098dc <__fma>
    80004690:	00050713          	addi	x14,x10,0
    80004694:	000c8613          	addi	x12,x25,0
    80004698:	00090593          	addi	x11,x18,0
    8000469c:	000b0513          	addi	x10,x22,0
    800046a0:	eee43823          	sd	x14,-272(x8)
    800046a4:	238050ef          	jal	x1,800098dc <__fma>
    800046a8:	f6843603          	ld	x12,-152(x8)
    800046ac:	00050713          	addi	x14,x10,0
    800046b0:	00090593          	addi	x11,x18,0
    800046b4:	000b8513          	addi	x10,x23,0
    800046b8:	eee43423          	sd	x14,-280(x8)
    800046bc:	220050ef          	jal	x1,800098dc <__fma>
    800046c0:	f8843783          	ld	x15,-120(x8)
    800046c4:	ec043b83          	ld	x23,-320(x8)
    800046c8:	f6043603          	ld	x12,-160(x8)
    800046cc:	0287b903          	ld	x18,40(x15)
    800046d0:	000bb983          	ld	x19,0(x23)
    800046d4:	00050713          	addi	x14,x10,0
    800046d8:	00090513          	addi	x10,x18,0
    800046dc:	00098593          	addi	x11,x19,0
    800046e0:	ece43c23          	sd	x14,-296(x8)
    800046e4:	1f8050ef          	jal	x1,800098dc <__fma>
    800046e8:	008bba03          	ld	x20,8(x23)
    800046ec:	f5843603          	ld	x12,-168(x8)
    800046f0:	00050d13          	addi	x26,x10,0
    800046f4:	000a0593          	addi	x11,x20,0
    800046f8:	00090513          	addi	x10,x18,0
    800046fc:	1e0050ef          	jal	x1,800098dc <__fma>
    80004700:	010bba83          	ld	x21,16(x23)
    80004704:	f5043603          	ld	x12,-176(x8)
    80004708:	00050c93          	addi	x25,x10,0
    8000470c:	000a8593          	addi	x11,x21,0
    80004710:	00090513          	addi	x10,x18,0
    80004714:	1c8050ef          	jal	x1,800098dc <__fma>
    80004718:	018bbb03          	ld	x22,24(x23)
    8000471c:	f4843603          	ld	x12,-184(x8)
    80004720:	00050713          	addi	x14,x10,0
    80004724:	000b0593          	addi	x11,x22,0
    80004728:	00090513          	addi	x10,x18,0
    8000472c:	f6e43423          	sd	x14,-152(x8)
    80004730:	1ac050ef          	jal	x1,800098dc <__fma>
    80004734:	020bbb83          	ld	x23,32(x23)
    80004738:	f4043603          	ld	x12,-192(x8)
    8000473c:	00050713          	addi	x14,x10,0
    80004740:	000b8593          	addi	x11,x23,0
    80004744:	00090513          	addi	x10,x18,0
    80004748:	f6e43023          	sd	x14,-160(x8)
    8000474c:	190050ef          	jal	x1,800098dc <__fma>
    80004750:	f8043683          	ld	x13,-128(x8)
    80004754:	f3843603          	ld	x12,-200(x8)
    80004758:	00050713          	addi	x14,x10,0
    8000475c:	0286b903          	ld	x18,40(x13)
    80004760:	00098513          	addi	x10,x19,0
    80004764:	f4e43c23          	sd	x14,-168(x8)
    80004768:	00090593          	addi	x11,x18,0
    8000476c:	170050ef          	jal	x1,800098dc <__fma>
    80004770:	f3043603          	ld	x12,-208(x8)
    80004774:	00050713          	addi	x14,x10,0
    80004778:	00090593          	addi	x11,x18,0
    8000477c:	000a0513          	addi	x10,x20,0
    80004780:	f4e43823          	sd	x14,-176(x8)
    80004784:	158050ef          	jal	x1,800098dc <__fma>
    80004788:	f2843603          	ld	x12,-216(x8)
    8000478c:	00050713          	addi	x14,x10,0
    80004790:	00090593          	addi	x11,x18,0
    80004794:	000a8513          	addi	x10,x21,0
    80004798:	f4e43423          	sd	x14,-184(x8)
    8000479c:	140050ef          	jal	x1,800098dc <__fma>
    800047a0:	f2043603          	ld	x12,-224(x8)
    800047a4:	00050713          	addi	x14,x10,0
    800047a8:	00090593          	addi	x11,x18,0
    800047ac:	000b0513          	addi	x10,x22,0
    800047b0:	f4e43023          	sd	x14,-192(x8)
    800047b4:	128050ef          	jal	x1,800098dc <__fma>
    800047b8:	f1843603          	ld	x12,-232(x8)
    800047bc:	00050713          	addi	x14,x10,0
    800047c0:	00090593          	addi	x11,x18,0
    800047c4:	000b8513          	addi	x10,x23,0
    800047c8:	f2e43c23          	sd	x14,-200(x8)
    800047cc:	110050ef          	jal	x1,800098dc <__fma>
    800047d0:	f7843583          	ld	x11,-136(x8)
    800047d4:	00050713          	addi	x14,x10,0
    800047d8:	000d8613          	addi	x12,x27,0
    800047dc:	0285b903          	ld	x18,40(x11)
    800047e0:	00098513          	addi	x10,x19,0
    800047e4:	f2e43823          	sd	x14,-208(x8)
    800047e8:	00090593          	addi	x11,x18,0
    800047ec:	0f0050ef          	jal	x1,800098dc <__fma>
    800047f0:	f1043603          	ld	x12,-240(x8)
    800047f4:	00050713          	addi	x14,x10,0
    800047f8:	00090593          	addi	x11,x18,0
    800047fc:	000a0513          	addi	x10,x20,0
    80004800:	f2e43423          	sd	x14,-216(x8)
    80004804:	0d8050ef          	jal	x1,800098dc <__fma>
    80004808:	f0843603          	ld	x12,-248(x8)
    8000480c:	00050713          	addi	x14,x10,0
    80004810:	00090593          	addi	x11,x18,0
    80004814:	000a8513          	addi	x10,x21,0
    80004818:	f2e43023          	sd	x14,-224(x8)
    8000481c:	0c0050ef          	jal	x1,800098dc <__fma>
    80004820:	f0043603          	ld	x12,-256(x8)
    80004824:	00050713          	addi	x14,x10,0
    80004828:	00090593          	addi	x11,x18,0
    8000482c:	000b0513          	addi	x10,x22,0
    80004830:	f0e43c23          	sd	x14,-232(x8)
    80004834:	0a8050ef          	jal	x1,800098dc <__fma>
    80004838:	00050713          	addi	x14,x10,0
    8000483c:	000c0613          	addi	x12,x24,0
    80004840:	00090593          	addi	x11,x18,0
    80004844:	000b8513          	addi	x10,x23,0
    80004848:	f0e43823          	sd	x14,-240(x8)
    8000484c:	090050ef          	jal	x1,800098dc <__fma>
    80004850:	f7043c03          	ld	x24,-144(x8)
    80004854:	00050713          	addi	x14,x10,0
    80004858:	00048613          	addi	x12,x9,0
    8000485c:	028c3903          	ld	x18,40(x24)
    80004860:	00098513          	addi	x10,x19,0
    80004864:	f0e43423          	sd	x14,-248(x8)
    80004868:	00090593          	addi	x11,x18,0
    8000486c:	070050ef          	jal	x1,800098dc <__fma>
    80004870:	ef843603          	ld	x12,-264(x8)
    80004874:	00050713          	addi	x14,x10,0
    80004878:	00090593          	addi	x11,x18,0
    8000487c:	000a0513          	addi	x10,x20,0
    80004880:	f0e43023          	sd	x14,-256(x8)
    80004884:	058050ef          	jal	x1,800098dc <__fma>
    80004888:	ef043603          	ld	x12,-272(x8)
    8000488c:	00050713          	addi	x14,x10,0
    80004890:	00090593          	addi	x11,x18,0
    80004894:	000a8513          	addi	x10,x21,0
    80004898:	eee43c23          	sd	x14,-264(x8)
    8000489c:	040050ef          	jal	x1,800098dc <__fma>
    800048a0:	ee843603          	ld	x12,-280(x8)
    800048a4:	00050713          	addi	x14,x10,0
    800048a8:	00090593          	addi	x11,x18,0
    800048ac:	000b0513          	addi	x10,x22,0
    800048b0:	eee43823          	sd	x14,-272(x8)
    800048b4:	028050ef          	jal	x1,800098dc <__fma>
    800048b8:	ed843603          	ld	x12,-296(x8)
    800048bc:	00050713          	addi	x14,x10,0
    800048c0:	00090593          	addi	x11,x18,0
    800048c4:	000b8513          	addi	x10,x23,0
    800048c8:	eee43423          	sd	x14,-280(x8)
    800048cc:	010050ef          	jal	x1,800098dc <__fma>
    800048d0:	f8043683          	ld	x13,-128(x8)
    800048d4:	f7843583          	ld	x11,-136(x8)
    800048d8:	f8843783          	ld	x15,-120(x8)
    800048dc:	03068693          	addi	x13,x13,48
    800048e0:	f8d43023          	sd	x13,-128(x8)
    800048e4:	03058693          	addi	x13,x11,48
    800048e8:	f6d43c23          	sd	x13,-136(x8)
    800048ec:	030c0693          	addi	x13,x24,48
    800048f0:	03078713          	addi	x14,x15,48
    800048f4:	e7843603          	ld	x12,-392(x8)
    800048f8:	ea843783          	ld	x15,-344(x8)
    800048fc:	f6d43823          	sd	x13,-144(x8)
    80004900:	ea043683          	ld	x13,-352(x8)
    80004904:	f8e43423          	sd	x14,-120(x8)
    80004908:	eca43c23          	sd	x10,-296(x8)
    8000490c:	00c787b3          	add	x15,x15,x12
    80004910:	b0d76663          	bltu	x14,x13,80003c1c <mm_cb+0x1970>
    80004914:	e5843983          	ld	x19,-424(x8)
    80004918:	e5043a03          	ld	x20,-432(x8)
    8000491c:	e4843b83          	ld	x23,-440(x8)
    80004920:	e4043b03          	ld	x22,-448(x8)
    80004924:	e3843a83          	ld	x21,-456(x8)
    80004928:	e3043c03          	ld	x24,-464(x8)
    8000492c:	e1843783          	ld	x15,-488(x8)
    80004930:	e9043703          	ld	x14,-368(x8)
    80004934:	01478933          	add	x18,x15,x20
    80004938:	ea043783          	ld	x15,-352(x8)
    8000493c:	26e7f263          	bgeu	x15,x14,80004ba0 <mm_cb+0x28f4>
    80004940:	ed843d83          	ld	x27,-296(x8)
    80004944:	00078493          	addi	x9,x15,0
    80004948:	f9343423          	sd	x19,-120(x8)
    8000494c:	f9443023          	sd	x20,-128(x8)
    80004950:	f7743c23          	sd	x23,-136(x8)
    80004954:	f7643823          	sd	x22,-144(x8)
    80004958:	ed543823          	sd	x21,-304(x8)
    8000495c:	ed843423          	sd	x24,-312(x8)
    80004960:	0004b983          	ld	x19,0(x9)
    80004964:	00093c03          	ld	x24,0(x18)
    80004968:	000d0613          	addi	x12,x26,0
    8000496c:	00098513          	addi	x10,x19,0
    80004970:	000c0593          	addi	x11,x24,0
    80004974:	769040ef          	jal	x1,800098dc <__fma>
    80004978:	00893b83          	ld	x23,8(x18)
    8000497c:	000c8613          	addi	x12,x25,0
    80004980:	00050d13          	addi	x26,x10,0
    80004984:	000b8593          	addi	x11,x23,0
    80004988:	00098513          	addi	x10,x19,0
    8000498c:	751040ef          	jal	x1,800098dc <__fma>
    80004990:	01093b03          	ld	x22,16(x18)
    80004994:	f6843603          	ld	x12,-152(x8)
    80004998:	00050c93          	addi	x25,x10,0
    8000499c:	000b0593          	addi	x11,x22,0
    800049a0:	00098513          	addi	x10,x19,0
    800049a4:	739040ef          	jal	x1,800098dc <__fma>
    800049a8:	01893a83          	ld	x21,24(x18)
    800049ac:	f6043603          	ld	x12,-160(x8)
    800049b0:	00050793          	addi	x15,x10,0
    800049b4:	000a8593          	addi	x11,x21,0
    800049b8:	00098513          	addi	x10,x19,0
    800049bc:	f6f43423          	sd	x15,-152(x8)
    800049c0:	71d040ef          	jal	x1,800098dc <__fma>
    800049c4:	02093a03          	ld	x20,32(x18)
    800049c8:	f5843603          	ld	x12,-168(x8)
    800049cc:	00050793          	addi	x15,x10,0
    800049d0:	000a0593          	addi	x11,x20,0
    800049d4:	00098513          	addi	x10,x19,0
    800049d8:	f6f43023          	sd	x15,-160(x8)
    800049dc:	701040ef          	jal	x1,800098dc <__fma>
    800049e0:	e9843703          	ld	x14,-360(x8)
    800049e4:	f5043603          	ld	x12,-176(x8)
    800049e8:	00050793          	addi	x15,x10,0
    800049ec:	00e48733          	add	x14,x9,x14
    800049f0:	00073983          	ld	x19,0(x14)
    800049f4:	000c0513          	addi	x10,x24,0
    800049f8:	f4f43c23          	sd	x15,-168(x8)
    800049fc:	00098593          	addi	x11,x19,0
    80004a00:	6dd040ef          	jal	x1,800098dc <__fma>
    80004a04:	f4843603          	ld	x12,-184(x8)
    80004a08:	00050793          	addi	x15,x10,0
    80004a0c:	00098593          	addi	x11,x19,0
    80004a10:	000b8513          	addi	x10,x23,0
    80004a14:	f4f43823          	sd	x15,-176(x8)
    80004a18:	6c5040ef          	jal	x1,800098dc <__fma>
    80004a1c:	f4043603          	ld	x12,-192(x8)
    80004a20:	00050793          	addi	x15,x10,0
    80004a24:	00098593          	addi	x11,x19,0
    80004a28:	000b0513          	addi	x10,x22,0
    80004a2c:	f4f43423          	sd	x15,-184(x8)
    80004a30:	6ad040ef          	jal	x1,800098dc <__fma>
    80004a34:	f3843603          	ld	x12,-200(x8)
    80004a38:	00050793          	addi	x15,x10,0
    80004a3c:	00098593          	addi	x11,x19,0
    80004a40:	000a8513          	addi	x10,x21,0
    80004a44:	f4f43023          	sd	x15,-192(x8)
    80004a48:	695040ef          	jal	x1,800098dc <__fma>
    80004a4c:	f3043603          	ld	x12,-208(x8)
    80004a50:	00050793          	addi	x15,x10,0
    80004a54:	00098593          	addi	x11,x19,0
    80004a58:	000a0513          	addi	x10,x20,0
    80004a5c:	f2f43c23          	sd	x15,-200(x8)
    80004a60:	67d040ef          	jal	x1,800098dc <__fma>
    80004a64:	ee043703          	ld	x14,-288(x8)
    80004a68:	f2843603          	ld	x12,-216(x8)
    80004a6c:	00050793          	addi	x15,x10,0
    80004a70:	00e48733          	add	x14,x9,x14
    80004a74:	00073983          	ld	x19,0(x14)
    80004a78:	000c0513          	addi	x10,x24,0
    80004a7c:	f2f43823          	sd	x15,-208(x8)
    80004a80:	00098593          	addi	x11,x19,0
    80004a84:	659040ef          	jal	x1,800098dc <__fma>
    80004a88:	f2043603          	ld	x12,-224(x8)
    80004a8c:	00050793          	addi	x15,x10,0
    80004a90:	00098593          	addi	x11,x19,0
    80004a94:	000b8513          	addi	x10,x23,0
    80004a98:	f2f43423          	sd	x15,-216(x8)
    80004a9c:	641040ef          	jal	x1,800098dc <__fma>
    80004aa0:	f1843603          	ld	x12,-232(x8)
    80004aa4:	00050793          	addi	x15,x10,0
    80004aa8:	00098593          	addi	x11,x19,0
    80004aac:	000b0513          	addi	x10,x22,0
    80004ab0:	f2f43023          	sd	x15,-224(x8)
    80004ab4:	629040ef          	jal	x1,800098dc <__fma>
    80004ab8:	f1043603          	ld	x12,-240(x8)
    80004abc:	00050793          	addi	x15,x10,0
    80004ac0:	00098593          	addi	x11,x19,0
    80004ac4:	000a8513          	addi	x10,x21,0
    80004ac8:	f0f43c23          	sd	x15,-232(x8)
    80004acc:	611040ef          	jal	x1,800098dc <__fma>
    80004ad0:	f0843603          	ld	x12,-248(x8)
    80004ad4:	00050793          	addi	x15,x10,0
    80004ad8:	00098593          	addi	x11,x19,0
    80004adc:	000a0513          	addi	x10,x20,0
    80004ae0:	f0f43823          	sd	x15,-240(x8)
    80004ae4:	5f9040ef          	jal	x1,800098dc <__fma>
    80004ae8:	e8843703          	ld	x14,-376(x8)
    80004aec:	f0043603          	ld	x12,-256(x8)
    80004af0:	00050793          	addi	x15,x10,0
    80004af4:	00e48733          	add	x14,x9,x14
    80004af8:	00073983          	ld	x19,0(x14)
    80004afc:	000c0513          	addi	x10,x24,0
    80004b00:	f0f43423          	sd	x15,-248(x8)
    80004b04:	00098593          	addi	x11,x19,0
    80004b08:	5d5040ef          	jal	x1,800098dc <__fma>
    80004b0c:	ef843603          	ld	x12,-264(x8)
    80004b10:	00050793          	addi	x15,x10,0
    80004b14:	00098593          	addi	x11,x19,0
    80004b18:	000b8513          	addi	x10,x23,0
    80004b1c:	f0f43023          	sd	x15,-256(x8)
    80004b20:	5bd040ef          	jal	x1,800098dc <__fma>
    80004b24:	ef043603          	ld	x12,-272(x8)
    80004b28:	00050793          	addi	x15,x10,0
    80004b2c:	00098593          	addi	x11,x19,0
    80004b30:	000b0513          	addi	x10,x22,0
    80004b34:	eef43c23          	sd	x15,-264(x8)
    80004b38:	5a5040ef          	jal	x1,800098dc <__fma>
    80004b3c:	ee843603          	ld	x12,-280(x8)
    80004b40:	00050793          	addi	x15,x10,0
    80004b44:	00098593          	addi	x11,x19,0
    80004b48:	000a8513          	addi	x10,x21,0
    80004b4c:	eef43823          	sd	x15,-272(x8)
    80004b50:	58d040ef          	jal	x1,800098dc <__fma>
    80004b54:	00050793          	addi	x15,x10,0
    80004b58:	000d8613          	addi	x12,x27,0
    80004b5c:	00098593          	addi	x11,x19,0
    80004b60:	000a0513          	addi	x10,x20,0
    80004b64:	eef43423          	sd	x15,-280(x8)
    80004b68:	575040ef          	jal	x1,800098dc <__fma>
    80004b6c:	eb043783          	ld	x15,-336(x8)
    80004b70:	00848493          	addi	x9,x9,8
    80004b74:	00050d93          	addi	x27,x10,0
    80004b78:	00f90933          	add	x18,x18,x15
    80004b7c:	e9043783          	ld	x15,-368(x8)
    80004b80:	def4e0e3          	bltu	x9,x15,80004960 <mm_cb+0x26b4>
    80004b84:	f8843983          	ld	x19,-120(x8)
    80004b88:	f8043a03          	ld	x20,-128(x8)
    80004b8c:	f7843b83          	ld	x23,-136(x8)
    80004b90:	f7043b03          	ld	x22,-144(x8)
    80004b94:	ed043a83          	ld	x21,-304(x8)
    80004b98:	ec843c03          	ld	x24,-312(x8)
    80004b9c:	eca43c23          	sd	x10,-296(x8)
    80004ba0:	f6843783          	ld	x15,-152(x8)
    80004ba4:	01ac3023          	sd	x26,0(x24)
    80004ba8:	019c3423          	sd	x25,8(x24)
    80004bac:	00fc3823          	sd	x15,16(x24)
    80004bb0:	f6043783          	ld	x15,-160(x8)
    80004bb4:	028c0c13          	addi	x24,x24,40
    80004bb8:	028a8a93          	addi	x21,x21,40
    80004bbc:	fefc3823          	sd	x15,-16(x24)
    80004bc0:	f5843783          	ld	x15,-168(x8)
    80004bc4:	028b0b13          	addi	x22,x22,40
    80004bc8:	028b8b93          	addi	x23,x23,40
    80004bcc:	fefc3c23          	sd	x15,-8(x24)
    80004bd0:	f5043783          	ld	x15,-176(x8)
    80004bd4:	028a0a13          	addi	x20,x20,40
    80004bd8:	fcfabc23          	sd	x15,-40(x21)
    80004bdc:	f4843783          	ld	x15,-184(x8)
    80004be0:	fefab023          	sd	x15,-32(x21)
    80004be4:	f4043783          	ld	x15,-192(x8)
    80004be8:	fefab423          	sd	x15,-24(x21)
    80004bec:	f3843783          	ld	x15,-200(x8)
    80004bf0:	fefab823          	sd	x15,-16(x21)
    80004bf4:	f3043783          	ld	x15,-208(x8)
    80004bf8:	fefabc23          	sd	x15,-8(x21)
    80004bfc:	f2843783          	ld	x15,-216(x8)
    80004c00:	fcfb3c23          	sd	x15,-40(x22)
    80004c04:	f2043783          	ld	x15,-224(x8)
    80004c08:	fefb3023          	sd	x15,-32(x22)
    80004c0c:	f1843783          	ld	x15,-232(x8)
    80004c10:	fefb3423          	sd	x15,-24(x22)
    80004c14:	f1043783          	ld	x15,-240(x8)
    80004c18:	fefb3823          	sd	x15,-16(x22)
    80004c1c:	f0843783          	ld	x15,-248(x8)
    80004c20:	fefb3c23          	sd	x15,-8(x22)
    80004c24:	f0043783          	ld	x15,-256(x8)
    80004c28:	fcfbbc23          	sd	x15,-40(x23)
    80004c2c:	ef843783          	ld	x15,-264(x8)
    80004c30:	fefbb023          	sd	x15,-32(x23)
    80004c34:	ef043783          	ld	x15,-272(x8)
    80004c38:	e1043703          	ld	x14,-496(x8)
    80004c3c:	fefbb423          	sd	x15,-24(x23)
    80004c40:	ee843783          	ld	x15,-280(x8)
    80004c44:	fefbb823          	sd	x15,-16(x23)
    80004c48:	ed843783          	ld	x15,-296(x8)
    80004c4c:	fefbbc23          	sd	x15,-8(x23)
    80004c50:	e6043783          	ld	x15,-416(x8)
    80004c54:	00578793          	addi	x15,x15,5
    80004c58:	e6f43023          	sd	x15,-416(x8)
    80004c5c:	00e7f463          	bgeu	x15,x14,80004c64 <mm_cb+0x29b8>
    80004c60:	ed9fe06f          	jal	x0,80003b38 <mm_cb+0x188c>
    80004c64:	00098693          	addi	x13,x19,0
    80004c68:	d0043903          	ld	x18,-768(x8)
    80004c6c:	d0843983          	ld	x19,-760(x8)
    80004c70:	00043a03          	ld	x20,0(x8)
    80004c74:	01413023          	sd	x20,0(x2)
    80004c78:	dd043783          	ld	x15,-560(x8)
    80004c7c:	dc843703          	ld	x14,-568(x8)
    80004c80:	de043803          	ld	x16,-544(x8)
    80004c84:	012788b3          	add	x17,x15,x18
    80004c88:	db043603          	ld	x12,-592(x8)
    80004c8c:	d9843783          	ld	x15,-616(x8)
    80004c90:	da843583          	ld	x11,-600(x8)
    80004c94:	f8d43423          	sd	x13,-120(x8)
    80004c98:	00400513          	addi	x10,x0,4
    80004c9c:	b64fd0ef          	jal	x1,80002000 <mm_naive>
    80004ca0:	de843783          	ld	x15,-536(x8)
    80004ca4:	ea043703          	ld	x14,-352(x8)
    80004ca8:	f8843683          	ld	x13,-120(x8)
    80004cac:	00498993          	addi	x19,x19,4
    80004cb0:	00f70733          	add	x14,x14,x15
    80004cb4:	eae43023          	sd	x14,-352(x8)
    80004cb8:	e9043703          	ld	x14,-368(x8)
    80004cbc:	00f686b3          	add	x13,x13,x15
    80004cc0:	00f707b3          	add	x15,x14,x15
    80004cc4:	e8f43823          	sd	x15,-368(x8)
    80004cc8:	da043783          	ld	x15,-608(x8)
    80004ccc:	00f90933          	add	x18,x18,x15
    80004cd0:	dd843783          	ld	x15,-552(x8)
    80004cd4:	00f9f463          	bgeu	x19,x15,80004cdc <mm_cb+0x2a30>
    80004cd8:	e19fe06f          	jal	x0,80003af0 <mm_cb+0x1844>
    80004cdc:	d2843b03          	ld	x22,-728(x8)
    80004ce0:	db043983          	ld	x19,-592(x8)
    80004ce4:	d2043a83          	ld	x21,-736(x8)
    80004ce8:	d1843b83          	ld	x23,-744(x8)
    80004cec:	d1043483          	ld	x9,-752(x8)
    80004cf0:	01413023          	sd	x20,0(x2)
    80004cf4:	df043903          	ld	x18,-528(x8)
    80004cf8:	d8843683          	ld	x13,-632(x8)
    80004cfc:	dc843703          	ld	x14,-568(x8)
    80004d00:	d8043883          	ld	x17,-640(x8)
    80004d04:	de043803          	ld	x16,-544(x8)
    80004d08:	d9043503          	ld	x10,-624(x8)
    80004d0c:	00090793          	addi	x15,x18,0
    80004d10:	009686b3          	add	x13,x13,x9
    80004d14:	00098613          	addi	x12,x19,0
    80004d18:	000b0593          	addi	x11,x22,0
    80004d1c:	ae4fd0ef          	jal	x1,80002000 <mm_naive>
    80004d20:	d7843703          	ld	x14,-648(x8)
    80004d24:	018a8a93          	addi	x21,x21,24
    80004d28:	0c048493          	addi	x9,x9,192
    80004d2c:	00e907b3          	add	x15,x18,x14
    80004d30:	def43823          	sd	x15,-528(x8)
    80004d34:	e2043783          	ld	x15,-480(x8)
    80004d38:	00faf463          	bgeu	x21,x15,80004d40 <mm_cb+0x2a94>
    80004d3c:	d21fe06f          	jal	x0,80003a5c <mm_cb+0x17b0>
    80004d40:	000a0693          	addi	x13,x20,0
    80004d44:	d6043303          	ld	x6,-672(x8)
    80004d48:	d5843983          	ld	x19,-680(x8)
    80004d4c:	d5043903          	ld	x18,-688(x8)
    80004d50:	dd843883          	ld	x17,-552(x8)
    80004d54:	d4843d03          	ld	x26,-696(x8)
    80004d58:	d4043c83          	ld	x25,-704(x8)
    80004d5c:	d3843c03          	ld	x24,-712(x8)
    80004d60:	dc043e83          	ld	x29,-576(x8)
    80004d64:	d3043a03          	ld	x20,-720(x8)
    80004d68:	db843f83          	ld	x31,-584(x8)
    80004d6c:	000b8f13          	addi	x30,x23,0
    80004d70:	e2843783          	ld	x15,-472(x8)
    80004d74:	01990913          	addi	x18,x18,25
    80004d78:	0c8c8c93          	addi	x25,x25,200
    80004d7c:	0c8f0f13          	addi	x30,x30,200
    80004d80:	00f97463          	bgeu	x18,x15,80004d88 <mm_cb+0x2adc>
    80004d84:	c49fe06f          	jal	x0,800039cc <mm_cb+0x1720>
    80004d88:	d7043b03          	ld	x22,-656(x8)
    80004d8c:	00068593          	addi	x11,x13,0
    80004d90:	0e098263          	beq	x19,x0,80004e74 <mm_cb+0x2bc8>
    80004d94:	00ba07b3          	add	x15,x20,x11
    80004d98:	00001837          	lui	x16,0x1
    80004d9c:	00679793          	slli	x15,x15,0x6
    80004da0:	000b0713          	addi	x14,x22,0
    80004da4:	00000593          	addi	x11,x0,0
    80004da8:	01800f13          	addi	x30,x0,24
    80004dac:	01900393          	addi	x7,x0,25
    80004db0:	2c080813          	addi	x16,x16,704 # 12c0 <buflen.1+0x1240>
    80004db4:	25800293          	addi	x5,x0,600
    80004db8:	e2843683          	ld	x13,-472(x8)
    80004dbc:	0adf7663          	bgeu	x30,x13,80004e68 <mm_cb+0x2bbc>
    80004dc0:	03e5d6b3          	divu	x13,x11,x30
    80004dc4:	00070e13          	addi	x28,x14,0
    80004dc8:	00000513          	addi	x10,x0,0
    80004dcc:	026686b3          	mul	x13,x13,x6
    80004dd0:	df843603          	ld	x12,-520(x8)
    80004dd4:	0c0e0c93          	addi	x25,x28,192
    80004dd8:	00000913          	addi	x18,x0,0
    80004ddc:	027554b3          	divu	x9,x10,x7
    80004de0:	00d484b3          	add	x9,x9,x13
    80004de4:	030484b3          	mul	x9,x9,x16
    80004de8:	009604b3          	add	x9,x12,x9
    80004dec:	f40c8613          	addi	x12,x25,-192
    80004df0:	00048893          	addi	x17,x9,0
    80004df4:	0008bd83          	ld	x27,0(x17)
    80004df8:	0088bd03          	ld	x26,8(x17)
    80004dfc:	0108bc03          	ld	x24,16(x17)
    80004e00:	0188bb83          	ld	x23,24(x17)
    80004e04:	0208bb03          	ld	x22,32(x17)
    80004e08:	0288ba83          	ld	x21,40(x17)
    80004e0c:	0308ba03          	ld	x20,48(x17)
    80004e10:	0388be83          	ld	x29,56(x17)
    80004e14:	04060613          	addi	x12,x12,64
    80004e18:	fdb63023          	sd	x27,-64(x12)
    80004e1c:	fda63423          	sd	x26,-56(x12)
    80004e20:	fd863823          	sd	x24,-48(x12)
    80004e24:	fd763c23          	sd	x23,-40(x12)
    80004e28:	ff663023          	sd	x22,-32(x12)
    80004e2c:	ff563423          	sd	x21,-24(x12)
    80004e30:	ff463823          	sd	x20,-16(x12)
    80004e34:	ffd63c23          	sd	x29,-8(x12)
    80004e38:	04088893          	addi	x17,x17,64
    80004e3c:	fb961ce3          	bne	x12,x25,80004df4 <mm_cb+0x2b48>
    80004e40:	0c04b883          	ld	x17,192(x9)
    80004e44:	01990913          	addi	x18,x18,25
    80004e48:	0c848493          	addi	x9,x9,200
    80004e4c:	01163023          	sd	x17,0(x12)
    80004e50:	01f60cb3          	add	x25,x12,x31
    80004e54:	f8591ce3          	bne	x18,x5,80004dec <mm_cb+0x2b40>
    80004e58:	e0843603          	ld	x12,-504(x8)
    80004e5c:	01950513          	addi	x10,x10,25
    80004e60:	0c8e0e13          	addi	x28,x28,200
    80004e64:	f6c566e3          	bltu	x10,x12,80004dd0 <mm_cb+0x2b24>
    80004e68:	01858593          	addi	x11,x11,24
    80004e6c:	00f70733          	add	x14,x14,x15
    80004e70:	f535e4e3          	bltu	x11,x19,80004db8 <mm_cb+0x2b0c>
    80004e74:	c7040113          	addi	x2,x8,-912
    80004e78:	38813083          	ld	x1,904(x2)
    80004e7c:	38013403          	ld	x8,896(x2)
    80004e80:	37813483          	ld	x9,888(x2)
    80004e84:	37013903          	ld	x18,880(x2)
    80004e88:	36813983          	ld	x19,872(x2)
    80004e8c:	36013a03          	ld	x20,864(x2)
    80004e90:	35813a83          	ld	x21,856(x2)
    80004e94:	35013b03          	ld	x22,848(x2)
    80004e98:	34813b83          	ld	x23,840(x2)
    80004e9c:	34013c03          	ld	x24,832(x2)
    80004ea0:	33813c83          	ld	x25,824(x2)
    80004ea4:	33013d03          	ld	x26,816(x2)
    80004ea8:	32813d83          	ld	x27,808(x2)
    80004eac:	39010113          	addi	x2,x2,912
    80004eb0:	00008067          	jalr	x0,0(x1)
    80004eb4:	01900793          	addi	x15,x0,25
    80004eb8:	02f4d7b3          	divu	x15,x9,x15
    80004ebc:	d7843683          	ld	x13,-648(x8)
    80004ec0:	00349713          	slli	x14,x9,0x3
    80004ec4:	dd043a83          	ld	x21,-560(x8)
    80004ec8:	00d70733          	add	x14,x14,x13
    80004ecc:	de043683          	ld	x13,-544(x8)
    80004ed0:	d2e43823          	sd	x14,-720(x8)
    80004ed4:	db043703          	ld	x14,-592(x8)
    80004ed8:	00000a13          	addi	x20,x0,0
    80004edc:	ca943423          	sd	x9,-856(x8)
    80004ee0:	e6e43823          	sd	x14,-400(x8)
    80004ee4:	d3843703          	ld	x14,-712(x8)
    80004ee8:	cb343023          	sd	x19,-864(x8)
    80004eec:	c9b43c23          	sd	x27,-872(x8)
    80004ef0:	00d787b3          	add	x15,x15,x13
    80004ef4:	df043683          	ld	x13,-528(x8)
    80004ef8:	02d787b3          	mul	x15,x15,x13
    80004efc:	df843683          	ld	x13,-520(x8)
    80004f00:	00f68c33          	add	x24,x13,x15
    80004f04:	0c8c0913          	addi	x18,x24,200
    80004f08:	cb843823          	sd	x24,-848(x8)
    80004f0c:	e5043783          	ld	x15,-432(x8)
    80004f10:	d3043b83          	ld	x23,-720(x8)
    80004f14:	f3890b13          	addi	x22,x18,-200
    80004f18:	015786b3          	add	x13,x15,x21
    80004f1c:	00e787b3          	add	x15,x15,x14
    80004f20:	e0d43c23          	sd	x13,-488(x8)
    80004f24:	e2f43823          	sd	x15,-464(x8)
    80004f28:	c9443823          	sd	x20,-880(x8)
    80004f2c:	e8e43823          	sd	x14,-368(x8)
    80004f30:	c9243423          	sd	x18,-888(x8)
    80004f34:	e1543823          	sd	x21,-496(x8)
    80004f38:	010b3783          	ld	x15,16(x22)
    80004f3c:	000b3d03          	ld	x26,0(x22)
    80004f40:	008b3603          	ld	x12,8(x22)
    80004f44:	f6f43423          	sd	x15,-152(x8)
    80004f48:	018b3783          	ld	x15,24(x22)
    80004f4c:	f6f43023          	sd	x15,-160(x8)
    80004f50:	020b3783          	ld	x15,32(x22)
    80004f54:	f4f43c23          	sd	x15,-168(x8)
    80004f58:	0c8b3783          	ld	x15,200(x22)
    80004f5c:	f4f43823          	sd	x15,-176(x8)
    80004f60:	0d0b3783          	ld	x15,208(x22)
    80004f64:	f4f43423          	sd	x15,-184(x8)
    80004f68:	0d8b3783          	ld	x15,216(x22)
    80004f6c:	f4f43023          	sd	x15,-192(x8)
    80004f70:	0e0b3783          	ld	x15,224(x22)
    80004f74:	f2f43c23          	sd	x15,-200(x8)
    80004f78:	0e8b3783          	ld	x15,232(x22)
    80004f7c:	f6f43823          	sd	x15,-144(x8)
    80004f80:	190b3783          	ld	x15,400(x22)
    80004f84:	f2f43823          	sd	x15,-208(x8)
    80004f88:	198b3783          	ld	x15,408(x22)
    80004f8c:	f2f43423          	sd	x15,-216(x8)
    80004f90:	1a0b3783          	ld	x15,416(x22)
    80004f94:	f2f43023          	sd	x15,-224(x8)
    80004f98:	1a8b3783          	ld	x15,424(x22)
    80004f9c:	f0f43c23          	sd	x15,-232(x8)
    80004fa0:	1b0b3783          	ld	x15,432(x22)
    80004fa4:	f6f43c23          	sd	x15,-136(x8)
    80004fa8:	258b3783          	ld	x15,600(x22)
    80004fac:	f0f43823          	sd	x15,-240(x8)
    80004fb0:	260b3783          	ld	x15,608(x22)
    80004fb4:	f0f43423          	sd	x15,-248(x8)
    80004fb8:	268b3783          	ld	x15,616(x22)
    80004fbc:	e1043483          	ld	x9,-496(x8)
    80004fc0:	ef743423          	sd	x23,-280(x8)
    80004fc4:	f0f43023          	sd	x15,-256(x8)
    80004fc8:	270b3783          	ld	x15,624(x22)
    80004fcc:	eef43c23          	sd	x15,-264(x8)
    80004fd0:	278b3783          	ld	x15,632(x22)
    80004fd4:	eef43823          	sd	x15,-272(x8)
    80004fd8:	e9043783          	ld	x15,-368(x8)
    80004fdc:	50f4fae3          	bgeu	x9,x15,80005cf0 <mm_cb+0x3a44>
    80004fe0:	ea843783          	ld	x15,-344(x8)
    80004fe4:	00060a13          	addi	x20,x12,0
    80004fe8:	f8943023          	sd	x9,-128(x8)
    80004fec:	01778ab3          	add	x21,x15,x23
    80004ff0:	e1843783          	ld	x15,-488(x8)
    80004ff4:	e5743023          	sd	x23,-448(x8)
    80004ff8:	e3643c23          	sd	x22,-456(x8)
    80004ffc:	f8f43423          	sd	x15,-120(x8)
    80005000:	ee843b03          	ld	x22,-280(x8)
    80005004:	f8043783          	ld	x15,-128(x8)
    80005008:	eb843683          	ld	x13,-328(x8)
    8000500c:	000b3c83          	ld	x25,0(x22)
    80005010:	0007b983          	ld	x19,0(x15)
    80005014:	015e04b3          	add	x9,x28,x21
    80005018:	009e0bb3          	add	x23,x28,x9
    8000501c:	016686b3          	add	x13,x13,x22
    80005020:	000d0613          	addi	x12,x26,0
    80005024:	000c8593          	addi	x11,x25,0
    80005028:	00098513          	addi	x10,x19,0
    8000502c:	016e0933          	add	x18,x28,x22
    80005030:	edc43023          	sd	x28,-320(x8)
    80005034:	ecd43823          	sd	x13,-304(x8)
    80005038:	ed743c23          	sd	x23,-296(x8)
    8000503c:	0a1040ef          	jal	x1,800098dc <__fma>
    80005040:	008b3c03          	ld	x24,8(x22)
    80005044:	00050d93          	addi	x27,x10,0
    80005048:	000a0613          	addi	x12,x20,0
    8000504c:	000c0593          	addi	x11,x24,0
    80005050:	00098513          	addi	x10,x19,0
    80005054:	089040ef          	jal	x1,800098dc <__fma>
    80005058:	010b3b83          	ld	x23,16(x22)
    8000505c:	f6843603          	ld	x12,-152(x8)
    80005060:	00050d13          	addi	x26,x10,0
    80005064:	000b8593          	addi	x11,x23,0
    80005068:	00098513          	addi	x10,x19,0
    8000506c:	071040ef          	jal	x1,800098dc <__fma>
    80005070:	000b0a13          	addi	x20,x22,0
    80005074:	018b3b03          	ld	x22,24(x22)
    80005078:	f6043603          	ld	x12,-160(x8)
    8000507c:	00050793          	addi	x15,x10,0
    80005080:	000b0593          	addi	x11,x22,0
    80005084:	00098513          	addi	x10,x19,0
    80005088:	f6f43423          	sd	x15,-152(x8)
    8000508c:	051040ef          	jal	x1,800098dc <__fma>
    80005090:	020a3a03          	ld	x20,32(x20)
    80005094:	f5843603          	ld	x12,-168(x8)
    80005098:	00050793          	addi	x15,x10,0
    8000509c:	000a0593          	addi	x11,x20,0
    800050a0:	00098513          	addi	x10,x19,0
    800050a4:	f6f43023          	sd	x15,-160(x8)
    800050a8:	035040ef          	jal	x1,800098dc <__fma>
    800050ac:	f8843683          	ld	x13,-120(x8)
    800050b0:	f5043603          	ld	x12,-176(x8)
    800050b4:	00050793          	addi	x15,x10,0
    800050b8:	0006b983          	ld	x19,0(x13)
    800050bc:	000c8513          	addi	x10,x25,0
    800050c0:	f4f43c23          	sd	x15,-168(x8)
    800050c4:	00098593          	addi	x11,x19,0
    800050c8:	015040ef          	jal	x1,800098dc <__fma>
    800050cc:	f4843603          	ld	x12,-184(x8)
    800050d0:	00050793          	addi	x15,x10,0
    800050d4:	00098593          	addi	x11,x19,0
    800050d8:	000c0513          	addi	x10,x24,0
    800050dc:	f4f43823          	sd	x15,-176(x8)
    800050e0:	7fc040ef          	jal	x1,800098dc <__fma>
    800050e4:	f4043603          	ld	x12,-192(x8)
    800050e8:	00050793          	addi	x15,x10,0
    800050ec:	00098593          	addi	x11,x19,0
    800050f0:	000b8513          	addi	x10,x23,0
    800050f4:	f4f43423          	sd	x15,-184(x8)
    800050f8:	7e4040ef          	jal	x1,800098dc <__fma>
    800050fc:	f3843603          	ld	x12,-200(x8)
    80005100:	00050793          	addi	x15,x10,0
    80005104:	00098593          	addi	x11,x19,0
    80005108:	000b0513          	addi	x10,x22,0
    8000510c:	f4f43023          	sd	x15,-192(x8)
    80005110:	7cc040ef          	jal	x1,800098dc <__fma>
    80005114:	f7043603          	ld	x12,-144(x8)
    80005118:	00050793          	addi	x15,x10,0
    8000511c:	00098593          	addi	x11,x19,0
    80005120:	000a0513          	addi	x10,x20,0
    80005124:	f2f43c23          	sd	x15,-200(x8)
    80005128:	7b4040ef          	jal	x1,800098dc <__fma>
    8000512c:	f8043703          	ld	x14,-128(x8)
    80005130:	ee043583          	ld	x11,-288(x8)
    80005134:	00050793          	addi	x15,x10,0
    80005138:	000c8513          	addi	x10,x25,0
    8000513c:	00b705b3          	add	x11,x14,x11
    80005140:	f6b43823          	sd	x11,-144(x8)
    80005144:	0005b983          	ld	x19,0(x11)
    80005148:	f3043603          	ld	x12,-208(x8)
    8000514c:	f2f43823          	sd	x15,-208(x8)
    80005150:	00098593          	addi	x11,x19,0
    80005154:	788040ef          	jal	x1,800098dc <__fma>
    80005158:	f2843603          	ld	x12,-216(x8)
    8000515c:	00050793          	addi	x15,x10,0
    80005160:	00098593          	addi	x11,x19,0
    80005164:	000c0513          	addi	x10,x24,0
    80005168:	f2f43423          	sd	x15,-216(x8)
    8000516c:	770040ef          	jal	x1,800098dc <__fma>
    80005170:	f2043603          	ld	x12,-224(x8)
    80005174:	00050793          	addi	x15,x10,0
    80005178:	00098593          	addi	x11,x19,0
    8000517c:	000b8513          	addi	x10,x23,0
    80005180:	f2f43023          	sd	x15,-224(x8)
    80005184:	758040ef          	jal	x1,800098dc <__fma>
    80005188:	f1843603          	ld	x12,-232(x8)
    8000518c:	00050793          	addi	x15,x10,0
    80005190:	00098593          	addi	x11,x19,0
    80005194:	000b0513          	addi	x10,x22,0
    80005198:	f0f43c23          	sd	x15,-232(x8)
    8000519c:	740040ef          	jal	x1,800098dc <__fma>
    800051a0:	f7843603          	ld	x12,-136(x8)
    800051a4:	00050793          	addi	x15,x10,0
    800051a8:	00098593          	addi	x11,x19,0
    800051ac:	000a0513          	addi	x10,x20,0
    800051b0:	ecf43423          	sd	x15,-312(x8)
    800051b4:	728040ef          	jal	x1,800098dc <__fma>
    800051b8:	f8843683          	ld	x13,-120(x8)
    800051bc:	00050793          	addi	x15,x10,0
    800051c0:	ee043503          	ld	x10,-288(x8)
    800051c4:	f1043603          	ld	x12,-240(x8)
    800051c8:	00a68533          	add	x10,x13,x10
    800051cc:	00053983          	ld	x19,0(x10)
    800051d0:	f6a43c23          	sd	x10,-136(x8)
    800051d4:	000c8513          	addi	x10,x25,0
    800051d8:	00098593          	addi	x11,x19,0
    800051dc:	00078c93          	addi	x25,x15,0
    800051e0:	6fc040ef          	jal	x1,800098dc <__fma>
    800051e4:	f0843603          	ld	x12,-248(x8)
    800051e8:	00050793          	addi	x15,x10,0
    800051ec:	00098593          	addi	x11,x19,0
    800051f0:	000c0513          	addi	x10,x24,0
    800051f4:	f0f43823          	sd	x15,-240(x8)
    800051f8:	6e4040ef          	jal	x1,800098dc <__fma>
    800051fc:	f0043603          	ld	x12,-256(x8)
    80005200:	00050793          	addi	x15,x10,0
    80005204:	00098593          	addi	x11,x19,0
    80005208:	000b8513          	addi	x10,x23,0
    8000520c:	f0f43423          	sd	x15,-248(x8)
    80005210:	6cc040ef          	jal	x1,800098dc <__fma>
    80005214:	ef843603          	ld	x12,-264(x8)
    80005218:	00050793          	addi	x15,x10,0
    8000521c:	00098593          	addi	x11,x19,0
    80005220:	000b0513          	addi	x10,x22,0
    80005224:	f0f43023          	sd	x15,-256(x8)
    80005228:	6b4040ef          	jal	x1,800098dc <__fma>
    8000522c:	ef043603          	ld	x12,-272(x8)
    80005230:	00050793          	addi	x15,x10,0
    80005234:	00098593          	addi	x11,x19,0
    80005238:	000a0513          	addi	x10,x20,0
    8000523c:	eef43c23          	sd	x15,-264(x8)
    80005240:	69c040ef          	jal	x1,800098dc <__fma>
    80005244:	f8043703          	ld	x14,-128(x8)
    80005248:	000aba03          	ld	x20,0(x21)
    8000524c:	00050793          	addi	x15,x10,0
    80005250:	00873983          	ld	x19,8(x14)
    80005254:	000d8613          	addi	x12,x27,0
    80005258:	000a0593          	addi	x11,x20,0
    8000525c:	00098513          	addi	x10,x19,0
    80005260:	00078d93          	addi	x27,x15,0
    80005264:	678040ef          	jal	x1,800098dc <__fma>
    80005268:	008abb03          	ld	x22,8(x21)
    8000526c:	00050793          	addi	x15,x10,0
    80005270:	000d0613          	addi	x12,x26,0
    80005274:	000b0593          	addi	x11,x22,0
    80005278:	00098513          	addi	x10,x19,0
    8000527c:	00078d13          	addi	x26,x15,0
    80005280:	65c040ef          	jal	x1,800098dc <__fma>
    80005284:	010abb83          	ld	x23,16(x21)
    80005288:	f6843603          	ld	x12,-152(x8)
    8000528c:	00050793          	addi	x15,x10,0
    80005290:	000b8593          	addi	x11,x23,0
    80005294:	00098513          	addi	x10,x19,0
    80005298:	f6f43423          	sd	x15,-152(x8)
    8000529c:	640040ef          	jal	x1,800098dc <__fma>
    800052a0:	018abc03          	ld	x24,24(x21)
    800052a4:	f6043603          	ld	x12,-160(x8)
    800052a8:	00050793          	addi	x15,x10,0
    800052ac:	000c0593          	addi	x11,x24,0
    800052b0:	00098513          	addi	x10,x19,0
    800052b4:	f6f43023          	sd	x15,-160(x8)
    800052b8:	624040ef          	jal	x1,800098dc <__fma>
    800052bc:	020aba83          	ld	x21,32(x21)
    800052c0:	f5843603          	ld	x12,-168(x8)
    800052c4:	00050793          	addi	x15,x10,0
    800052c8:	000a8593          	addi	x11,x21,0
    800052cc:	00098513          	addi	x10,x19,0
    800052d0:	f4f43c23          	sd	x15,-168(x8)
    800052d4:	608040ef          	jal	x1,800098dc <__fma>
    800052d8:	f8843683          	ld	x13,-120(x8)
    800052dc:	f5043603          	ld	x12,-176(x8)
    800052e0:	00050793          	addi	x15,x10,0
    800052e4:	0086b983          	ld	x19,8(x13)
    800052e8:	000a0513          	addi	x10,x20,0
    800052ec:	f4f43823          	sd	x15,-176(x8)
    800052f0:	00098593          	addi	x11,x19,0
    800052f4:	5e8040ef          	jal	x1,800098dc <__fma>
    800052f8:	f4843603          	ld	x12,-184(x8)
    800052fc:	00050793          	addi	x15,x10,0
    80005300:	00098593          	addi	x11,x19,0
    80005304:	000b0513          	addi	x10,x22,0
    80005308:	f4f43423          	sd	x15,-184(x8)
    8000530c:	5d0040ef          	jal	x1,800098dc <__fma>
    80005310:	f4043603          	ld	x12,-192(x8)
    80005314:	00050793          	addi	x15,x10,0
    80005318:	00098593          	addi	x11,x19,0
    8000531c:	000b8513          	addi	x10,x23,0
    80005320:	f4f43023          	sd	x15,-192(x8)
    80005324:	5b8040ef          	jal	x1,800098dc <__fma>
    80005328:	f3843603          	ld	x12,-200(x8)
    8000532c:	00050793          	addi	x15,x10,0
    80005330:	00098593          	addi	x11,x19,0
    80005334:	000c0513          	addi	x10,x24,0
    80005338:	f2f43c23          	sd	x15,-200(x8)
    8000533c:	5a0040ef          	jal	x1,800098dc <__fma>
    80005340:	f3043603          	ld	x12,-208(x8)
    80005344:	00050793          	addi	x15,x10,0
    80005348:	00098593          	addi	x11,x19,0
    8000534c:	000a8513          	addi	x10,x21,0
    80005350:	f2f43823          	sd	x15,-208(x8)
    80005354:	588040ef          	jal	x1,800098dc <__fma>
    80005358:	f7043583          	ld	x11,-144(x8)
    8000535c:	f2843603          	ld	x12,-216(x8)
    80005360:	00050793          	addi	x15,x10,0
    80005364:	0085b983          	ld	x19,8(x11)
    80005368:	000a0513          	addi	x10,x20,0
    8000536c:	f2f43423          	sd	x15,-216(x8)
    80005370:	00098593          	addi	x11,x19,0
    80005374:	568040ef          	jal	x1,800098dc <__fma>
    80005378:	f2043603          	ld	x12,-224(x8)
    8000537c:	00050793          	addi	x15,x10,0
    80005380:	00098593          	addi	x11,x19,0
    80005384:	000b0513          	addi	x10,x22,0
    80005388:	f2f43023          	sd	x15,-224(x8)
    8000538c:	550040ef          	jal	x1,800098dc <__fma>
    80005390:	f1843603          	ld	x12,-232(x8)
    80005394:	00050793          	addi	x15,x10,0
    80005398:	00098593          	addi	x11,x19,0
    8000539c:	000b8513          	addi	x10,x23,0
    800053a0:	f0f43c23          	sd	x15,-232(x8)
    800053a4:	538040ef          	jal	x1,800098dc <__fma>
    800053a8:	ec843603          	ld	x12,-312(x8)
    800053ac:	00050793          	addi	x15,x10,0
    800053b0:	00098593          	addi	x11,x19,0
    800053b4:	000c0513          	addi	x10,x24,0
    800053b8:	eef43823          	sd	x15,-272(x8)
    800053bc:	520040ef          	jal	x1,800098dc <__fma>
    800053c0:	00050793          	addi	x15,x10,0
    800053c4:	000c8613          	addi	x12,x25,0
    800053c8:	00098593          	addi	x11,x19,0
    800053cc:	000a8513          	addi	x10,x21,0
    800053d0:	00078c93          	addi	x25,x15,0
    800053d4:	508040ef          	jal	x1,800098dc <__fma>
    800053d8:	00050793          	addi	x15,x10,0
    800053dc:	f7843503          	ld	x10,-136(x8)
    800053e0:	00853983          	ld	x19,8(x10)
    800053e4:	f1043603          	ld	x12,-240(x8)
    800053e8:	000a0513          	addi	x10,x20,0
    800053ec:	00098593          	addi	x11,x19,0
    800053f0:	f0f43823          	sd	x15,-240(x8)
    800053f4:	4e8040ef          	jal	x1,800098dc <__fma>
    800053f8:	f0843603          	ld	x12,-248(x8)
    800053fc:	00050793          	addi	x15,x10,0
    80005400:	00098593          	addi	x11,x19,0
    80005404:	000b0513          	addi	x10,x22,0
    80005408:	f0f43423          	sd	x15,-248(x8)
    8000540c:	4d0040ef          	jal	x1,800098dc <__fma>
    80005410:	f0043603          	ld	x12,-256(x8)
    80005414:	00050793          	addi	x15,x10,0
    80005418:	00098593          	addi	x11,x19,0
    8000541c:	000b8513          	addi	x10,x23,0
    80005420:	f0f43023          	sd	x15,-256(x8)
    80005424:	4b8040ef          	jal	x1,800098dc <__fma>
    80005428:	ef843603          	ld	x12,-264(x8)
    8000542c:	00050793          	addi	x15,x10,0
    80005430:	00098593          	addi	x11,x19,0
    80005434:	000c0513          	addi	x10,x24,0
    80005438:	00078c13          	addi	x24,x15,0
    8000543c:	4a0040ef          	jal	x1,800098dc <__fma>
    80005440:	00050793          	addi	x15,x10,0
    80005444:	000d8613          	addi	x12,x27,0
    80005448:	00098593          	addi	x11,x19,0
    8000544c:	000a8513          	addi	x10,x21,0
    80005450:	00078d93          	addi	x27,x15,0
    80005454:	488040ef          	jal	x1,800098dc <__fma>
    80005458:	f8043703          	ld	x14,-128(x8)
    8000545c:	00093a03          	ld	x20,0(x18)
    80005460:	00050793          	addi	x15,x10,0
    80005464:	01073983          	ld	x19,16(x14)
    80005468:	000d0613          	addi	x12,x26,0
    8000546c:	000a0593          	addi	x11,x20,0
    80005470:	00098513          	addi	x10,x19,0
    80005474:	00078d13          	addi	x26,x15,0
    80005478:	464040ef          	jal	x1,800098dc <__fma>
    8000547c:	00893a83          	ld	x21,8(x18)
    80005480:	f6843603          	ld	x12,-152(x8)
    80005484:	00050793          	addi	x15,x10,0
    80005488:	000a8593          	addi	x11,x21,0
    8000548c:	00098513          	addi	x10,x19,0
    80005490:	f6f43423          	sd	x15,-152(x8)
    80005494:	448040ef          	jal	x1,800098dc <__fma>
    80005498:	01093b03          	ld	x22,16(x18)
    8000549c:	f6043603          	ld	x12,-160(x8)
    800054a0:	00050793          	addi	x15,x10,0
    800054a4:	000b0593          	addi	x11,x22,0
    800054a8:	00098513          	addi	x10,x19,0
    800054ac:	f6f43023          	sd	x15,-160(x8)
    800054b0:	42c040ef          	jal	x1,800098dc <__fma>
    800054b4:	01893b83          	ld	x23,24(x18)
    800054b8:	f5843603          	ld	x12,-168(x8)
    800054bc:	00050793          	addi	x15,x10,0
    800054c0:	000b8593          	addi	x11,x23,0
    800054c4:	00098513          	addi	x10,x19,0
    800054c8:	f4f43c23          	sd	x15,-168(x8)
    800054cc:	410040ef          	jal	x1,800098dc <__fma>
    800054d0:	02093903          	ld	x18,32(x18)
    800054d4:	f5043603          	ld	x12,-176(x8)
    800054d8:	00050793          	addi	x15,x10,0
    800054dc:	00090593          	addi	x11,x18,0
    800054e0:	00098513          	addi	x10,x19,0
    800054e4:	f4f43823          	sd	x15,-176(x8)
    800054e8:	3f4040ef          	jal	x1,800098dc <__fma>
    800054ec:	f8843683          	ld	x13,-120(x8)
    800054f0:	f4843603          	ld	x12,-184(x8)
    800054f4:	00050793          	addi	x15,x10,0
    800054f8:	0106b983          	ld	x19,16(x13)
    800054fc:	000a0513          	addi	x10,x20,0
    80005500:	f4f43423          	sd	x15,-184(x8)
    80005504:	00098593          	addi	x11,x19,0
    80005508:	3d4040ef          	jal	x1,800098dc <__fma>
    8000550c:	f4043603          	ld	x12,-192(x8)
    80005510:	00050793          	addi	x15,x10,0
    80005514:	00098593          	addi	x11,x19,0
    80005518:	000a8513          	addi	x10,x21,0
    8000551c:	f4f43023          	sd	x15,-192(x8)
    80005520:	3bc040ef          	jal	x1,800098dc <__fma>
    80005524:	f3843603          	ld	x12,-200(x8)
    80005528:	00050793          	addi	x15,x10,0
    8000552c:	00098593          	addi	x11,x19,0
    80005530:	000b0513          	addi	x10,x22,0
    80005534:	f2f43c23          	sd	x15,-200(x8)
    80005538:	3a4040ef          	jal	x1,800098dc <__fma>
    8000553c:	f3043603          	ld	x12,-208(x8)
    80005540:	00050793          	addi	x15,x10,0
    80005544:	00098593          	addi	x11,x19,0
    80005548:	000b8513          	addi	x10,x23,0
    8000554c:	f2f43823          	sd	x15,-208(x8)
    80005550:	38c040ef          	jal	x1,800098dc <__fma>
    80005554:	f2843603          	ld	x12,-216(x8)
    80005558:	00050793          	addi	x15,x10,0
    8000555c:	00098593          	addi	x11,x19,0
    80005560:	00090513          	addi	x10,x18,0
    80005564:	f2f43423          	sd	x15,-216(x8)
    80005568:	374040ef          	jal	x1,800098dc <__fma>
    8000556c:	f7043583          	ld	x11,-144(x8)
    80005570:	f2043603          	ld	x12,-224(x8)
    80005574:	00050793          	addi	x15,x10,0
    80005578:	0105b983          	ld	x19,16(x11)
    8000557c:	000a0513          	addi	x10,x20,0
    80005580:	f2f43023          	sd	x15,-224(x8)
    80005584:	00098593          	addi	x11,x19,0
    80005588:	354040ef          	jal	x1,800098dc <__fma>
    8000558c:	f1843603          	ld	x12,-232(x8)
    80005590:	00050793          	addi	x15,x10,0
    80005594:	00098593          	addi	x11,x19,0
    80005598:	000a8513          	addi	x10,x21,0
    8000559c:	f0f43c23          	sd	x15,-232(x8)
    800055a0:	33c040ef          	jal	x1,800098dc <__fma>
    800055a4:	ef043603          	ld	x12,-272(x8)
    800055a8:	00050793          	addi	x15,x10,0
    800055ac:	00098593          	addi	x11,x19,0
    800055b0:	000b0513          	addi	x10,x22,0
    800055b4:	eef43c23          	sd	x15,-264(x8)
    800055b8:	324040ef          	jal	x1,800098dc <__fma>
    800055bc:	00050793          	addi	x15,x10,0
    800055c0:	000c8613          	addi	x12,x25,0
    800055c4:	00098593          	addi	x11,x19,0
    800055c8:	000b8513          	addi	x10,x23,0
    800055cc:	00078c93          	addi	x25,x15,0
    800055d0:	30c040ef          	jal	x1,800098dc <__fma>
    800055d4:	f1043603          	ld	x12,-240(x8)
    800055d8:	00050793          	addi	x15,x10,0
    800055dc:	00098593          	addi	x11,x19,0
    800055e0:	00090513          	addi	x10,x18,0
    800055e4:	f0f43823          	sd	x15,-240(x8)
    800055e8:	2f4040ef          	jal	x1,800098dc <__fma>
    800055ec:	00050793          	addi	x15,x10,0
    800055f0:	f7843503          	ld	x10,-136(x8)
    800055f4:	f0843603          	ld	x12,-248(x8)
    800055f8:	f0f43423          	sd	x15,-248(x8)
    800055fc:	01053983          	ld	x19,16(x10)
    80005600:	000a0513          	addi	x10,x20,0
    80005604:	00098593          	addi	x11,x19,0
    80005608:	2d4040ef          	jal	x1,800098dc <__fma>
    8000560c:	f0043603          	ld	x12,-256(x8)
    80005610:	00050793          	addi	x15,x10,0
    80005614:	00098593          	addi	x11,x19,0
    80005618:	000a8513          	addi	x10,x21,0
    8000561c:	f0f43023          	sd	x15,-256(x8)
    80005620:	2bc040ef          	jal	x1,800098dc <__fma>
    80005624:	00050793          	addi	x15,x10,0
    80005628:	000c0613          	addi	x12,x24,0
    8000562c:	00098593          	addi	x11,x19,0
    80005630:	000b0513          	addi	x10,x22,0
    80005634:	00078c13          	addi	x24,x15,0
    80005638:	2a4040ef          	jal	x1,800098dc <__fma>
    8000563c:	00050793          	addi	x15,x10,0
    80005640:	000d8613          	addi	x12,x27,0
    80005644:	00098593          	addi	x11,x19,0
    80005648:	000b8513          	addi	x10,x23,0
    8000564c:	00078b93          	addi	x23,x15,0
    80005650:	28c040ef          	jal	x1,800098dc <__fma>
    80005654:	00050793          	addi	x15,x10,0
    80005658:	000d0613          	addi	x12,x26,0
    8000565c:	00098593          	addi	x11,x19,0
    80005660:	00090513          	addi	x10,x18,0
    80005664:	00078d13          	addi	x26,x15,0
    80005668:	274040ef          	jal	x1,800098dc <__fma>
    8000566c:	f8043703          	ld	x14,-128(x8)
    80005670:	0004b983          	ld	x19,0(x9)
    80005674:	f6843603          	ld	x12,-152(x8)
    80005678:	01873903          	ld	x18,24(x14)
    8000567c:	00050d93          	addi	x27,x10,0
    80005680:	00098593          	addi	x11,x19,0
    80005684:	00090513          	addi	x10,x18,0
    80005688:	254040ef          	jal	x1,800098dc <__fma>
    8000568c:	0084ba03          	ld	x20,8(x9)
    80005690:	f6043603          	ld	x12,-160(x8)
    80005694:	00050793          	addi	x15,x10,0
    80005698:	000a0593          	addi	x11,x20,0
    8000569c:	00090513          	addi	x10,x18,0
    800056a0:	f6f43423          	sd	x15,-152(x8)
    800056a4:	238040ef          	jal	x1,800098dc <__fma>
    800056a8:	0104ba83          	ld	x21,16(x9)
    800056ac:	f5843603          	ld	x12,-168(x8)
    800056b0:	00050793          	addi	x15,x10,0
    800056b4:	000a8593          	addi	x11,x21,0
    800056b8:	00090513          	addi	x10,x18,0
    800056bc:	f6f43023          	sd	x15,-160(x8)
    800056c0:	21c040ef          	jal	x1,800098dc <__fma>
    800056c4:	0184bb03          	ld	x22,24(x9)
    800056c8:	f5043603          	ld	x12,-176(x8)
    800056cc:	00050793          	addi	x15,x10,0
    800056d0:	000b0593          	addi	x11,x22,0
    800056d4:	00090513          	addi	x10,x18,0
    800056d8:	f4f43c23          	sd	x15,-168(x8)
    800056dc:	200040ef          	jal	x1,800098dc <__fma>
    800056e0:	0204b483          	ld	x9,32(x9)
    800056e4:	f4843603          	ld	x12,-184(x8)
    800056e8:	00050793          	addi	x15,x10,0
    800056ec:	00048593          	addi	x11,x9,0
    800056f0:	00090513          	addi	x10,x18,0
    800056f4:	f4f43823          	sd	x15,-176(x8)
    800056f8:	1e4040ef          	jal	x1,800098dc <__fma>
    800056fc:	f8843683          	ld	x13,-120(x8)
    80005700:	f4043603          	ld	x12,-192(x8)
    80005704:	00050793          	addi	x15,x10,0
    80005708:	0186b903          	ld	x18,24(x13)
    8000570c:	00098513          	addi	x10,x19,0
    80005710:	f4f43423          	sd	x15,-184(x8)
    80005714:	00090593          	addi	x11,x18,0
    80005718:	1c4040ef          	jal	x1,800098dc <__fma>
    8000571c:	f3843603          	ld	x12,-200(x8)
    80005720:	00050793          	addi	x15,x10,0
    80005724:	00090593          	addi	x11,x18,0
    80005728:	000a0513          	addi	x10,x20,0
    8000572c:	f4f43023          	sd	x15,-192(x8)
    80005730:	1ac040ef          	jal	x1,800098dc <__fma>
    80005734:	f3043603          	ld	x12,-208(x8)
    80005738:	00050793          	addi	x15,x10,0
    8000573c:	00090593          	addi	x11,x18,0
    80005740:	000a8513          	addi	x10,x21,0
    80005744:	f2f43c23          	sd	x15,-200(x8)
    80005748:	194040ef          	jal	x1,800098dc <__fma>
    8000574c:	f2843603          	ld	x12,-216(x8)
    80005750:	00050793          	addi	x15,x10,0
    80005754:	00090593          	addi	x11,x18,0
    80005758:	000b0513          	addi	x10,x22,0
    8000575c:	f2f43823          	sd	x15,-208(x8)
    80005760:	17c040ef          	jal	x1,800098dc <__fma>
    80005764:	f2043603          	ld	x12,-224(x8)
    80005768:	00050793          	addi	x15,x10,0
    8000576c:	00090593          	addi	x11,x18,0
    80005770:	00048513          	addi	x10,x9,0
    80005774:	f2f43423          	sd	x15,-216(x8)
    80005778:	164040ef          	jal	x1,800098dc <__fma>
    8000577c:	f7043583          	ld	x11,-144(x8)
    80005780:	f1843603          	ld	x12,-232(x8)
    80005784:	00050793          	addi	x15,x10,0
    80005788:	0185b903          	ld	x18,24(x11)
    8000578c:	00098513          	addi	x10,x19,0
    80005790:	f2f43023          	sd	x15,-224(x8)
    80005794:	00090593          	addi	x11,x18,0
    80005798:	144040ef          	jal	x1,800098dc <__fma>
    8000579c:	ef843603          	ld	x12,-264(x8)
    800057a0:	00050793          	addi	x15,x10,0
    800057a4:	00090593          	addi	x11,x18,0
    800057a8:	000a0513          	addi	x10,x20,0
    800057ac:	f0f43c23          	sd	x15,-232(x8)
    800057b0:	12c040ef          	jal	x1,800098dc <__fma>
    800057b4:	00050793          	addi	x15,x10,0
    800057b8:	000c8613          	addi	x12,x25,0
    800057bc:	00090593          	addi	x11,x18,0
    800057c0:	000a8513          	addi	x10,x21,0
    800057c4:	00078c93          	addi	x25,x15,0
    800057c8:	114040ef          	jal	x1,800098dc <__fma>
    800057cc:	f1043603          	ld	x12,-240(x8)
    800057d0:	00050793          	addi	x15,x10,0
    800057d4:	00090593          	addi	x11,x18,0
    800057d8:	000b0513          	addi	x10,x22,0
    800057dc:	f0f43823          	sd	x15,-240(x8)
    800057e0:	0fc040ef          	jal	x1,800098dc <__fma>
    800057e4:	f0843603          	ld	x12,-248(x8)
    800057e8:	00050793          	addi	x15,x10,0
    800057ec:	00090593          	addi	x11,x18,0
    800057f0:	00048513          	addi	x10,x9,0
    800057f4:	f0f43423          	sd	x15,-248(x8)
    800057f8:	0e4040ef          	jal	x1,800098dc <__fma>
    800057fc:	00050793          	addi	x15,x10,0
    80005800:	f7843503          	ld	x10,-136(x8)
    80005804:	f0043603          	ld	x12,-256(x8)
    80005808:	f0f43023          	sd	x15,-256(x8)
    8000580c:	01853903          	ld	x18,24(x10)
    80005810:	00098513          	addi	x10,x19,0
    80005814:	00090593          	addi	x11,x18,0
    80005818:	0c4040ef          	jal	x1,800098dc <__fma>
    8000581c:	00050793          	addi	x15,x10,0
    80005820:	000c0613          	addi	x12,x24,0
    80005824:	00090593          	addi	x11,x18,0
    80005828:	000a0513          	addi	x10,x20,0
    8000582c:	00078c13          	addi	x24,x15,0
    80005830:	0ac040ef          	jal	x1,800098dc <__fma>
    80005834:	00050793          	addi	x15,x10,0
    80005838:	000b8613          	addi	x12,x23,0
    8000583c:	00090593          	addi	x11,x18,0
    80005840:	000a8513          	addi	x10,x21,0
    80005844:	00078b93          	addi	x23,x15,0
    80005848:	094040ef          	jal	x1,800098dc <__fma>
    8000584c:	00050793          	addi	x15,x10,0
    80005850:	000d0613          	addi	x12,x26,0
    80005854:	00090593          	addi	x11,x18,0
    80005858:	000b0513          	addi	x10,x22,0
    8000585c:	00078d13          	addi	x26,x15,0
    80005860:	07c040ef          	jal	x1,800098dc <__fma>
    80005864:	00050793          	addi	x15,x10,0
    80005868:	000d8613          	addi	x12,x27,0
    8000586c:	00090593          	addi	x11,x18,0
    80005870:	00048513          	addi	x10,x9,0
    80005874:	00078d93          	addi	x27,x15,0
    80005878:	064040ef          	jal	x1,800098dc <__fma>
    8000587c:	f8043703          	ld	x14,-128(x8)
    80005880:	ed043b03          	ld	x22,-304(x8)
    80005884:	f6843603          	ld	x12,-152(x8)
    80005888:	02073483          	ld	x9,32(x14)
    8000588c:	000b3903          	ld	x18,0(x22)
    80005890:	00050793          	addi	x15,x10,0
    80005894:	00048513          	addi	x10,x9,0
    80005898:	00090593          	addi	x11,x18,0
    8000589c:	f6f43423          	sd	x15,-152(x8)
    800058a0:	03c040ef          	jal	x1,800098dc <__fma>
    800058a4:	008b3983          	ld	x19,8(x22)
    800058a8:	f6043603          	ld	x12,-160(x8)
    800058ac:	00050793          	addi	x15,x10,0
    800058b0:	00098593          	addi	x11,x19,0
    800058b4:	00048513          	addi	x10,x9,0
    800058b8:	f6f43023          	sd	x15,-160(x8)
    800058bc:	020040ef          	jal	x1,800098dc <__fma>
    800058c0:	010b3a03          	ld	x20,16(x22)
    800058c4:	f5843603          	ld	x12,-168(x8)
    800058c8:	00050793          	addi	x15,x10,0
    800058cc:	000a0593          	addi	x11,x20,0
    800058d0:	00048513          	addi	x10,x9,0
    800058d4:	f4f43c23          	sd	x15,-168(x8)
    800058d8:	004040ef          	jal	x1,800098dc <__fma>
    800058dc:	018b3a83          	ld	x21,24(x22)
    800058e0:	f5043603          	ld	x12,-176(x8)
    800058e4:	00050793          	addi	x15,x10,0
    800058e8:	000a8593          	addi	x11,x21,0
    800058ec:	00048513          	addi	x10,x9,0
    800058f0:	f4f43823          	sd	x15,-176(x8)
    800058f4:	7e9030ef          	jal	x1,800098dc <__fma>
    800058f8:	020b3b03          	ld	x22,32(x22)
    800058fc:	f4843603          	ld	x12,-184(x8)
    80005900:	00050793          	addi	x15,x10,0
    80005904:	000b0593          	addi	x11,x22,0
    80005908:	00048513          	addi	x10,x9,0
    8000590c:	f4f43423          	sd	x15,-184(x8)
    80005910:	7cd030ef          	jal	x1,800098dc <__fma>
    80005914:	f8843683          	ld	x13,-120(x8)
    80005918:	f4043603          	ld	x12,-192(x8)
    8000591c:	00050793          	addi	x15,x10,0
    80005920:	0206b483          	ld	x9,32(x13)
    80005924:	00090513          	addi	x10,x18,0
    80005928:	f4f43023          	sd	x15,-192(x8)
    8000592c:	00048593          	addi	x11,x9,0
    80005930:	7ad030ef          	jal	x1,800098dc <__fma>
    80005934:	f3843603          	ld	x12,-200(x8)
    80005938:	00050793          	addi	x15,x10,0
    8000593c:	00048593          	addi	x11,x9,0
    80005940:	00098513          	addi	x10,x19,0
    80005944:	f2f43c23          	sd	x15,-200(x8)
    80005948:	795030ef          	jal	x1,800098dc <__fma>
    8000594c:	f3043603          	ld	x12,-208(x8)
    80005950:	00050793          	addi	x15,x10,0
    80005954:	00048593          	addi	x11,x9,0
    80005958:	000a0513          	addi	x10,x20,0
    8000595c:	f2f43823          	sd	x15,-208(x8)
    80005960:	77d030ef          	jal	x1,800098dc <__fma>
    80005964:	f2843603          	ld	x12,-216(x8)
    80005968:	00050793          	addi	x15,x10,0
    8000596c:	00048593          	addi	x11,x9,0
    80005970:	000a8513          	addi	x10,x21,0
    80005974:	f2f43423          	sd	x15,-216(x8)
    80005978:	765030ef          	jal	x1,800098dc <__fma>
    8000597c:	f2043603          	ld	x12,-224(x8)
    80005980:	00050793          	addi	x15,x10,0
    80005984:	00048593          	addi	x11,x9,0
    80005988:	000b0513          	addi	x10,x22,0
    8000598c:	f2f43023          	sd	x15,-224(x8)
    80005990:	74d030ef          	jal	x1,800098dc <__fma>
    80005994:	f7043583          	ld	x11,-144(x8)
    80005998:	f1843603          	ld	x12,-232(x8)
    8000599c:	00050793          	addi	x15,x10,0
    800059a0:	0205b483          	ld	x9,32(x11)
    800059a4:	00090513          	addi	x10,x18,0
    800059a8:	f0f43c23          	sd	x15,-232(x8)
    800059ac:	00048593          	addi	x11,x9,0
    800059b0:	72d030ef          	jal	x1,800098dc <__fma>
    800059b4:	00050793          	addi	x15,x10,0
    800059b8:	000c8613          	addi	x12,x25,0
    800059bc:	00048593          	addi	x11,x9,0
    800059c0:	00098513          	addi	x10,x19,0
    800059c4:	00078c93          	addi	x25,x15,0
    800059c8:	715030ef          	jal	x1,800098dc <__fma>
    800059cc:	f1043603          	ld	x12,-240(x8)
    800059d0:	00050793          	addi	x15,x10,0
    800059d4:	00048593          	addi	x11,x9,0
    800059d8:	000a0513          	addi	x10,x20,0
    800059dc:	f0f43823          	sd	x15,-240(x8)
    800059e0:	6fd030ef          	jal	x1,800098dc <__fma>
    800059e4:	f0843603          	ld	x12,-248(x8)
    800059e8:	00050793          	addi	x15,x10,0
    800059ec:	00048593          	addi	x11,x9,0
    800059f0:	000a8513          	addi	x10,x21,0
    800059f4:	f0f43423          	sd	x15,-248(x8)
    800059f8:	6e5030ef          	jal	x1,800098dc <__fma>
    800059fc:	f0043603          	ld	x12,-256(x8)
    80005a00:	00050793          	addi	x15,x10,0
    80005a04:	00048593          	addi	x11,x9,0
    80005a08:	000b0513          	addi	x10,x22,0
    80005a0c:	f0f43023          	sd	x15,-256(x8)
    80005a10:	6cd030ef          	jal	x1,800098dc <__fma>
    80005a14:	00050793          	addi	x15,x10,0
    80005a18:	f7843503          	ld	x10,-136(x8)
    80005a1c:	000c0613          	addi	x12,x24,0
    80005a20:	00078c13          	addi	x24,x15,0
    80005a24:	02053483          	ld	x9,32(x10)
    80005a28:	00090513          	addi	x10,x18,0
    80005a2c:	00048593          	addi	x11,x9,0
    80005a30:	6ad030ef          	jal	x1,800098dc <__fma>
    80005a34:	00050793          	addi	x15,x10,0
    80005a38:	000b8613          	addi	x12,x23,0
    80005a3c:	00048593          	addi	x11,x9,0
    80005a40:	00098513          	addi	x10,x19,0
    80005a44:	eef43c23          	sd	x15,-264(x8)
    80005a48:	695030ef          	jal	x1,800098dc <__fma>
    80005a4c:	00050793          	addi	x15,x10,0
    80005a50:	000d0613          	addi	x12,x26,0
    80005a54:	00048593          	addi	x11,x9,0
    80005a58:	000a0513          	addi	x10,x20,0
    80005a5c:	eef43823          	sd	x15,-272(x8)
    80005a60:	67d030ef          	jal	x1,800098dc <__fma>
    80005a64:	00050793          	addi	x15,x10,0
    80005a68:	000d8613          	addi	x12,x27,0
    80005a6c:	00048593          	addi	x11,x9,0
    80005a70:	000a8513          	addi	x10,x21,0
    80005a74:	00078d93          	addi	x27,x15,0
    80005a78:	665030ef          	jal	x1,800098dc <__fma>
    80005a7c:	f6843603          	ld	x12,-152(x8)
    80005a80:	00050793          	addi	x15,x10,0
    80005a84:	00048593          	addi	x11,x9,0
    80005a88:	000b0513          	addi	x10,x22,0
    80005a8c:	ecf43823          	sd	x15,-304(x8)
    80005a90:	64d030ef          	jal	x1,800098dc <__fma>
    80005a94:	f8043703          	ld	x14,-128(x8)
    80005a98:	ed843b83          	ld	x23,-296(x8)
    80005a9c:	f6043603          	ld	x12,-160(x8)
    80005aa0:	02873483          	ld	x9,40(x14)
    80005aa4:	000bb903          	ld	x18,0(x23)
    80005aa8:	00050793          	addi	x15,x10,0
    80005aac:	00048513          	addi	x10,x9,0
    80005ab0:	00090593          	addi	x11,x18,0
    80005ab4:	ecf43423          	sd	x15,-312(x8)
    80005ab8:	625030ef          	jal	x1,800098dc <__fma>
    80005abc:	008bb983          	ld	x19,8(x23)
    80005ac0:	f5843603          	ld	x12,-168(x8)
    80005ac4:	00050d13          	addi	x26,x10,0
    80005ac8:	00098593          	addi	x11,x19,0
    80005acc:	00048513          	addi	x10,x9,0
    80005ad0:	60d030ef          	jal	x1,800098dc <__fma>
    80005ad4:	010bba83          	ld	x21,16(x23)
    80005ad8:	f5043603          	ld	x12,-176(x8)
    80005adc:	00050a13          	addi	x20,x10,0
    80005ae0:	000a8593          	addi	x11,x21,0
    80005ae4:	00048513          	addi	x10,x9,0
    80005ae8:	5f5030ef          	jal	x1,800098dc <__fma>
    80005aec:	018bbb03          	ld	x22,24(x23)
    80005af0:	f4843603          	ld	x12,-184(x8)
    80005af4:	00050793          	addi	x15,x10,0
    80005af8:	000b0593          	addi	x11,x22,0
    80005afc:	00048513          	addi	x10,x9,0
    80005b00:	f6f43423          	sd	x15,-152(x8)
    80005b04:	5d9030ef          	jal	x1,800098dc <__fma>
    80005b08:	020bbb83          	ld	x23,32(x23)
    80005b0c:	f4043603          	ld	x12,-192(x8)
    80005b10:	00050793          	addi	x15,x10,0
    80005b14:	000b8593          	addi	x11,x23,0
    80005b18:	00048513          	addi	x10,x9,0
    80005b1c:	f6f43023          	sd	x15,-160(x8)
    80005b20:	5bd030ef          	jal	x1,800098dc <__fma>
    80005b24:	f8843683          	ld	x13,-120(x8)
    80005b28:	f3843603          	ld	x12,-200(x8)
    80005b2c:	00050793          	addi	x15,x10,0
    80005b30:	0286b483          	ld	x9,40(x13)
    80005b34:	00090513          	addi	x10,x18,0
    80005b38:	f4f43c23          	sd	x15,-168(x8)
    80005b3c:	00048593          	addi	x11,x9,0
    80005b40:	59d030ef          	jal	x1,800098dc <__fma>
    80005b44:	f3043603          	ld	x12,-208(x8)
    80005b48:	00050793          	addi	x15,x10,0
    80005b4c:	00048593          	addi	x11,x9,0
    80005b50:	00098513          	addi	x10,x19,0
    80005b54:	f4f43823          	sd	x15,-176(x8)
    80005b58:	585030ef          	jal	x1,800098dc <__fma>
    80005b5c:	f2843603          	ld	x12,-216(x8)
    80005b60:	00050793          	addi	x15,x10,0
    80005b64:	00048593          	addi	x11,x9,0
    80005b68:	000a8513          	addi	x10,x21,0
    80005b6c:	f4f43423          	sd	x15,-184(x8)
    80005b70:	56d030ef          	jal	x1,800098dc <__fma>
    80005b74:	f2043603          	ld	x12,-224(x8)
    80005b78:	00050793          	addi	x15,x10,0
    80005b7c:	00048593          	addi	x11,x9,0
    80005b80:	000b0513          	addi	x10,x22,0
    80005b84:	f4f43023          	sd	x15,-192(x8)
    80005b88:	555030ef          	jal	x1,800098dc <__fma>
    80005b8c:	f1843603          	ld	x12,-232(x8)
    80005b90:	00050793          	addi	x15,x10,0
    80005b94:	00048593          	addi	x11,x9,0
    80005b98:	000b8513          	addi	x10,x23,0
    80005b9c:	f2f43c23          	sd	x15,-200(x8)
    80005ba0:	53d030ef          	jal	x1,800098dc <__fma>
    80005ba4:	f7043583          	ld	x11,-144(x8)
    80005ba8:	00050793          	addi	x15,x10,0
    80005bac:	000c8613          	addi	x12,x25,0
    80005bb0:	0285b483          	ld	x9,40(x11)
    80005bb4:	00090513          	addi	x10,x18,0
    80005bb8:	f6f43823          	sd	x15,-144(x8)
    80005bbc:	00048593          	addi	x11,x9,0
    80005bc0:	51d030ef          	jal	x1,800098dc <__fma>
    80005bc4:	f1043603          	ld	x12,-240(x8)
    80005bc8:	00050793          	addi	x15,x10,0
    80005bcc:	00048593          	addi	x11,x9,0
    80005bd0:	00098513          	addi	x10,x19,0
    80005bd4:	f2f43823          	sd	x15,-208(x8)
    80005bd8:	505030ef          	jal	x1,800098dc <__fma>
    80005bdc:	f0843603          	ld	x12,-248(x8)
    80005be0:	00050793          	addi	x15,x10,0
    80005be4:	00048593          	addi	x11,x9,0
    80005be8:	000a8513          	addi	x10,x21,0
    80005bec:	f2f43423          	sd	x15,-216(x8)
    80005bf0:	4ed030ef          	jal	x1,800098dc <__fma>
    80005bf4:	f0043603          	ld	x12,-256(x8)
    80005bf8:	00050793          	addi	x15,x10,0
    80005bfc:	00048593          	addi	x11,x9,0
    80005c00:	000b0513          	addi	x10,x22,0
    80005c04:	f2f43023          	sd	x15,-224(x8)
    80005c08:	4d5030ef          	jal	x1,800098dc <__fma>
    80005c0c:	00050793          	addi	x15,x10,0
    80005c10:	00048593          	addi	x11,x9,0
    80005c14:	000c0613          	addi	x12,x24,0
    80005c18:	000b8513          	addi	x10,x23,0
    80005c1c:	f0f43c23          	sd	x15,-232(x8)
    80005c20:	4bd030ef          	jal	x1,800098dc <__fma>
    80005c24:	00050793          	addi	x15,x10,0
    80005c28:	f7843503          	ld	x10,-136(x8)
    80005c2c:	ef843603          	ld	x12,-264(x8)
    80005c30:	f6f43c23          	sd	x15,-136(x8)
    80005c34:	02853483          	ld	x9,40(x10)
    80005c38:	00090513          	addi	x10,x18,0
    80005c3c:	00048593          	addi	x11,x9,0
    80005c40:	49d030ef          	jal	x1,800098dc <__fma>
    80005c44:	ef043603          	ld	x12,-272(x8)
    80005c48:	00050793          	addi	x15,x10,0
    80005c4c:	00048593          	addi	x11,x9,0
    80005c50:	00098513          	addi	x10,x19,0
    80005c54:	f0f43823          	sd	x15,-240(x8)
    80005c58:	485030ef          	jal	x1,800098dc <__fma>
    80005c5c:	00050793          	addi	x15,x10,0
    80005c60:	000d8613          	addi	x12,x27,0
    80005c64:	00048593          	addi	x11,x9,0
    80005c68:	000a8513          	addi	x10,x21,0
    80005c6c:	f0f43423          	sd	x15,-248(x8)
    80005c70:	46d030ef          	jal	x1,800098dc <__fma>
    80005c74:	ed043603          	ld	x12,-304(x8)
    80005c78:	00050793          	addi	x15,x10,0
    80005c7c:	00048593          	addi	x11,x9,0
    80005c80:	000b0513          	addi	x10,x22,0
    80005c84:	f0f43023          	sd	x15,-256(x8)
    80005c88:	455030ef          	jal	x1,800098dc <__fma>
    80005c8c:	ec843603          	ld	x12,-312(x8)
    80005c90:	00050793          	addi	x15,x10,0
    80005c94:	00048593          	addi	x11,x9,0
    80005c98:	000b8513          	addi	x10,x23,0
    80005c9c:	eef43c23          	sd	x15,-264(x8)
    80005ca0:	43d030ef          	jal	x1,800098dc <__fma>
    80005ca4:	f8043703          	ld	x14,-128(x8)
    80005ca8:	ee843b03          	ld	x22,-280(x8)
    80005cac:	f8843683          	ld	x13,-120(x8)
    80005cb0:	03070793          	addi	x15,x14,48
    80005cb4:	ea043703          	ld	x14,-352(x8)
    80005cb8:	ed843b83          	ld	x23,-296(x8)
    80005cbc:	ec043e03          	ld	x28,-320(x8)
    80005cc0:	00eb0733          	add	x14,x22,x14
    80005cc4:	eee43423          	sd	x14,-280(x8)
    80005cc8:	03068713          	addi	x14,x13,48
    80005ccc:	f8e43423          	sd	x14,-120(x8)
    80005cd0:	e9043703          	ld	x14,-368(x8)
    80005cd4:	f8f43023          	sd	x15,-128(x8)
    80005cd8:	eea43823          	sd	x10,-272(x8)
    80005cdc:	017e0ab3          	add	x21,x28,x23
    80005ce0:	b2e7e063          	bltu	x15,x14,80005000 <mm_cb+0x2d54>
    80005ce4:	e4043b83          	ld	x23,-448(x8)
    80005ce8:	e3843b03          	ld	x22,-456(x8)
    80005cec:	000a0613          	addi	x12,x20,0
    80005cf0:	dc043783          	ld	x15,-576(x8)
    80005cf4:	e9043c83          	ld	x25,-368(x8)
    80005cf8:	017784b3          	add	x9,x15,x23
    80005cfc:	e7043783          	ld	x15,-400(x8)
    80005d00:	24fcfa63          	bgeu	x25,x15,80005f54 <mm_cb+0x3ca8>
    80005d04:	e3043c03          	ld	x24,-464(x8)
    80005d08:	f9c43423          	sd	x28,-120(x8)
    80005d0c:	00060d93          	addi	x27,x12,0
    80005d10:	000c0793          	addi	x15,x24,0
    80005d14:	f9743023          	sd	x23,-128(x8)
    80005d18:	000c8c13          	addi	x24,x25,0
    80005d1c:	ef643423          	sd	x22,-280(x8)
    80005d20:	00078c93          	addi	x25,x15,0
    80005d24:	000c3903          	ld	x18,0(x24)
    80005d28:	0004bb83          	ld	x23,0(x9)
    80005d2c:	000d0613          	addi	x12,x26,0
    80005d30:	00090513          	addi	x10,x18,0
    80005d34:	000b8593          	addi	x11,x23,0
    80005d38:	3a5030ef          	jal	x1,800098dc <__fma>
    80005d3c:	0084bb03          	ld	x22,8(x9)
    80005d40:	000d8613          	addi	x12,x27,0
    80005d44:	00050d13          	addi	x26,x10,0
    80005d48:	000b0593          	addi	x11,x22,0
    80005d4c:	00090513          	addi	x10,x18,0
    80005d50:	38d030ef          	jal	x1,800098dc <__fma>
    80005d54:	0104ba83          	ld	x21,16(x9)
    80005d58:	f6843603          	ld	x12,-152(x8)
    80005d5c:	00050d93          	addi	x27,x10,0
    80005d60:	000a8593          	addi	x11,x21,0
    80005d64:	00090513          	addi	x10,x18,0
    80005d68:	375030ef          	jal	x1,800098dc <__fma>
    80005d6c:	0184ba03          	ld	x20,24(x9)
    80005d70:	f6043603          	ld	x12,-160(x8)
    80005d74:	00050713          	addi	x14,x10,0
    80005d78:	000a0593          	addi	x11,x20,0
    80005d7c:	00090513          	addi	x10,x18,0
    80005d80:	f6e43423          	sd	x14,-152(x8)
    80005d84:	359030ef          	jal	x1,800098dc <__fma>
    80005d88:	0204b983          	ld	x19,32(x9)
    80005d8c:	f5843603          	ld	x12,-168(x8)
    80005d90:	00050713          	addi	x14,x10,0
    80005d94:	00098593          	addi	x11,x19,0
    80005d98:	00090513          	addi	x10,x18,0
    80005d9c:	f6e43023          	sd	x14,-160(x8)
    80005da0:	33d030ef          	jal	x1,800098dc <__fma>
    80005da4:	000cb903          	ld	x18,0(x25)
    80005da8:	f5043603          	ld	x12,-176(x8)
    80005dac:	00050713          	addi	x14,x10,0
    80005db0:	00090593          	addi	x11,x18,0
    80005db4:	000b8513          	addi	x10,x23,0
    80005db8:	f4e43c23          	sd	x14,-168(x8)
    80005dbc:	321030ef          	jal	x1,800098dc <__fma>
    80005dc0:	f4843603          	ld	x12,-184(x8)
    80005dc4:	00050713          	addi	x14,x10,0
    80005dc8:	00090593          	addi	x11,x18,0
    80005dcc:	000b0513          	addi	x10,x22,0
    80005dd0:	f4e43823          	sd	x14,-176(x8)
    80005dd4:	309030ef          	jal	x1,800098dc <__fma>
    80005dd8:	f4043603          	ld	x12,-192(x8)
    80005ddc:	00050713          	addi	x14,x10,0
    80005de0:	00090593          	addi	x11,x18,0
    80005de4:	000a8513          	addi	x10,x21,0
    80005de8:	f4e43423          	sd	x14,-184(x8)
    80005dec:	2f1030ef          	jal	x1,800098dc <__fma>
    80005df0:	f3843603          	ld	x12,-200(x8)
    80005df4:	00050713          	addi	x14,x10,0
    80005df8:	00090593          	addi	x11,x18,0
    80005dfc:	000a0513          	addi	x10,x20,0
    80005e00:	f4e43023          	sd	x14,-192(x8)
    80005e04:	2d9030ef          	jal	x1,800098dc <__fma>
    80005e08:	f7043603          	ld	x12,-144(x8)
    80005e0c:	00050713          	addi	x14,x10,0
    80005e10:	00090593          	addi	x11,x18,0
    80005e14:	00098513          	addi	x10,x19,0
    80005e18:	f2e43c23          	sd	x14,-200(x8)
    80005e1c:	2c1030ef          	jal	x1,800098dc <__fma>
    80005e20:	ee043783          	ld	x15,-288(x8)
    80005e24:	f3043603          	ld	x12,-208(x8)
    80005e28:	00050713          	addi	x14,x10,0
    80005e2c:	00fc06b3          	add	x13,x24,x15
    80005e30:	0006b903          	ld	x18,0(x13)
    80005e34:	000b8513          	addi	x10,x23,0
    80005e38:	f6e43823          	sd	x14,-144(x8)
    80005e3c:	00090593          	addi	x11,x18,0
    80005e40:	29d030ef          	jal	x1,800098dc <__fma>
    80005e44:	f2843603          	ld	x12,-216(x8)
    80005e48:	00050713          	addi	x14,x10,0
    80005e4c:	00090593          	addi	x11,x18,0
    80005e50:	000b0513          	addi	x10,x22,0
    80005e54:	f2e43823          	sd	x14,-208(x8)
    80005e58:	285030ef          	jal	x1,800098dc <__fma>
    80005e5c:	f2043603          	ld	x12,-224(x8)
    80005e60:	00050713          	addi	x14,x10,0
    80005e64:	00090593          	addi	x11,x18,0
    80005e68:	000a8513          	addi	x10,x21,0
    80005e6c:	f2e43423          	sd	x14,-216(x8)
    80005e70:	26d030ef          	jal	x1,800098dc <__fma>
    80005e74:	f1843603          	ld	x12,-232(x8)
    80005e78:	00050713          	addi	x14,x10,0
    80005e7c:	00090593          	addi	x11,x18,0
    80005e80:	000a0513          	addi	x10,x20,0
    80005e84:	f2e43023          	sd	x14,-224(x8)
    80005e88:	255030ef          	jal	x1,800098dc <__fma>
    80005e8c:	f7843603          	ld	x12,-136(x8)
    80005e90:	00050713          	addi	x14,x10,0
    80005e94:	00090593          	addi	x11,x18,0
    80005e98:	00098513          	addi	x10,x19,0
    80005e9c:	f0e43c23          	sd	x14,-232(x8)
    80005ea0:	23d030ef          	jal	x1,800098dc <__fma>
    80005ea4:	ee043783          	ld	x15,-288(x8)
    80005ea8:	f1043603          	ld	x12,-240(x8)
    80005eac:	00050713          	addi	x14,x10,0
    80005eb0:	00fc86b3          	add	x13,x25,x15
    80005eb4:	0006b903          	ld	x18,0(x13)
    80005eb8:	000b8513          	addi	x10,x23,0
    80005ebc:	f6e43c23          	sd	x14,-136(x8)
    80005ec0:	00090593          	addi	x11,x18,0
    80005ec4:	219030ef          	jal	x1,800098dc <__fma>
    80005ec8:	f0843603          	ld	x12,-248(x8)
    80005ecc:	00050713          	addi	x14,x10,0
    80005ed0:	00090593          	addi	x11,x18,0
    80005ed4:	000b0513          	addi	x10,x22,0
    80005ed8:	f0e43823          	sd	x14,-240(x8)
    80005edc:	201030ef          	jal	x1,800098dc <__fma>
    80005ee0:	f0043603          	ld	x12,-256(x8)
    80005ee4:	00050713          	addi	x14,x10,0
    80005ee8:	00090593          	addi	x11,x18,0
    80005eec:	000a8513          	addi	x10,x21,0
    80005ef0:	f0e43423          	sd	x14,-248(x8)
    80005ef4:	1e9030ef          	jal	x1,800098dc <__fma>
    80005ef8:	ef843603          	ld	x12,-264(x8)
    80005efc:	00050713          	addi	x14,x10,0
    80005f00:	00090593          	addi	x11,x18,0
    80005f04:	000a0513          	addi	x10,x20,0
    80005f08:	f0e43023          	sd	x14,-256(x8)
    80005f0c:	1d1030ef          	jal	x1,800098dc <__fma>
    80005f10:	ef043603          	ld	x12,-272(x8)
    80005f14:	00050713          	addi	x14,x10,0
    80005f18:	00090593          	addi	x11,x18,0
    80005f1c:	00098513          	addi	x10,x19,0
    80005f20:	eee43c23          	sd	x14,-264(x8)
    80005f24:	1b9030ef          	jal	x1,800098dc <__fma>
    80005f28:	ea843783          	ld	x15,-344(x8)
    80005f2c:	008c0c13          	addi	x24,x24,8
    80005f30:	eea43823          	sd	x10,-272(x8)
    80005f34:	00f484b3          	add	x9,x9,x15
    80005f38:	e7043783          	ld	x15,-400(x8)
    80005f3c:	008c8c93          	addi	x25,x25,8
    80005f40:	defc62e3          	bltu	x24,x15,80005d24 <mm_cb+0x3a78>
    80005f44:	f8843e03          	ld	x28,-120(x8)
    80005f48:	f8043b83          	ld	x23,-128(x8)
    80005f4c:	ee843b03          	ld	x22,-280(x8)
    80005f50:	000d8613          	addi	x12,x27,0
    80005f54:	f6843783          	ld	x15,-152(x8)
    80005f58:	01ab3023          	sd	x26,0(x22)
    80005f5c:	00cb3423          	sd	x12,8(x22)
    80005f60:	00fb3823          	sd	x15,16(x22)
    80005f64:	f6043783          	ld	x15,-160(x8)
    80005f68:	028b8b93          	addi	x23,x23,40
    80005f6c:	028b0b13          	addi	x22,x22,40
    80005f70:	fefb3823          	sd	x15,-16(x22)
    80005f74:	f5843783          	ld	x15,-168(x8)
    80005f78:	fefb3c23          	sd	x15,-8(x22)
    80005f7c:	f5043783          	ld	x15,-176(x8)
    80005f80:	0afb3023          	sd	x15,160(x22)
    80005f84:	f4843783          	ld	x15,-184(x8)
    80005f88:	0afb3423          	sd	x15,168(x22)
    80005f8c:	f4043783          	ld	x15,-192(x8)
    80005f90:	0afb3823          	sd	x15,176(x22)
    80005f94:	f3843783          	ld	x15,-200(x8)
    80005f98:	0afb3c23          	sd	x15,184(x22)
    80005f9c:	f7043783          	ld	x15,-144(x8)
    80005fa0:	0cfb3023          	sd	x15,192(x22)
    80005fa4:	f3043783          	ld	x15,-208(x8)
    80005fa8:	16fb3423          	sd	x15,360(x22)
    80005fac:	f2843783          	ld	x15,-216(x8)
    80005fb0:	16fb3823          	sd	x15,368(x22)
    80005fb4:	f2043783          	ld	x15,-224(x8)
    80005fb8:	16fb3c23          	sd	x15,376(x22)
    80005fbc:	f1843783          	ld	x15,-232(x8)
    80005fc0:	18fb3023          	sd	x15,384(x22)
    80005fc4:	f7843783          	ld	x15,-136(x8)
    80005fc8:	18fb3423          	sd	x15,392(x22)
    80005fcc:	f1043783          	ld	x15,-240(x8)
    80005fd0:	22fb3823          	sd	x15,560(x22)
    80005fd4:	f0843783          	ld	x15,-248(x8)
    80005fd8:	22fb3c23          	sd	x15,568(x22)
    80005fdc:	f0043783          	ld	x15,-256(x8)
    80005fe0:	24fb3023          	sd	x15,576(x22)
    80005fe4:	ef843783          	ld	x15,-264(x8)
    80005fe8:	24fb3423          	sd	x15,584(x22)
    80005fec:	ef043783          	ld	x15,-272(x8)
    80005ff0:	24fb3823          	sd	x15,592(x22)
    80005ff4:	e6843783          	ld	x15,-408(x8)
    80005ff8:	01778463          	beq	x15,x23,80006000 <mm_cb+0x3d54>
    80005ffc:	f3dfe06f          	jal	x0,80004f38 <mm_cb+0x2c8c>
    80006000:	f9c43423          	sd	x28,-120(x8)
    80006004:	01900793          	addi	x15,x0,25
    80006008:	c8843903          	ld	x18,-888(x8)
    8000600c:	e1043a83          	ld	x21,-496(x8)
    80006010:	c9043a03          	ld	x20,-880(x8)
    80006014:	00f13023          	sd	x15,0(x2)
    80006018:	e6843783          	ld	x15,-408(x8)
    8000601c:	e4843703          	ld	x14,-440(x8)
    80006020:	e5843803          	ld	x16,-424(x8)
    80006024:	d5843603          	ld	x12,-680(x8)
    80006028:	000a8693          	addi	x13,x21,0
    8000602c:	00090893          	addi	x17,x18,0
    80006030:	00000593          	addi	x11,x0,0
    80006034:	00400513          	addi	x10,x0,4
    80006038:	fc9fb0ef          	jal	x1,80002000 <mm_naive>
    8000603c:	d1843783          	ld	x15,-744(x8)
    80006040:	e1843703          	ld	x14,-488(x8)
    80006044:	de843683          	ld	x13,-536(x8)
    80006048:	064a0a13          	addi	x20,x20,100
    8000604c:	00e78ab3          	add	x21,x15,x14
    80006050:	e3043703          	ld	x14,-464(x8)
    80006054:	f8843e03          	ld	x28,-120(x8)
    80006058:	32090913          	addi	x18,x18,800
    8000605c:	00e78733          	add	x14,x15,x14
    80006060:	e7043783          	ld	x15,-400(x8)
    80006064:	00d787b3          	add	x15,x15,x13
    80006068:	e6f43823          	sd	x15,-400(x8)
    8000606c:	25800793          	addi	x15,x0,600
    80006070:	00fa0463          	beq	x20,x15,80006078 <mm_cb+0x3dcc>
    80006074:	e99fe06f          	jal	x0,80004f0c <mm_cb+0x2c60>
    80006078:	f9c43423          	sd	x28,-120(x8)
    8000607c:	01900793          	addi	x15,x0,25
    80006080:	cb043c03          	ld	x24,-848(x8)
    80006084:	ca043983          	ld	x19,-864(x8)
    80006088:	ca843483          	ld	x9,-856(x8)
    8000608c:	c9843d83          	ld	x27,-872(x8)
    80006090:	00f13023          	sd	x15,0(x2)
    80006094:	df043783          	ld	x15,-528(x8)
    80006098:	e5843803          	ld	x16,-424(x8)
    8000609c:	e4843703          	ld	x14,-440(x8)
    800060a0:	da843683          	ld	x13,-600(x8)
    800060a4:	d5843603          	ld	x12,-680(x8)
    800060a8:	00fc08b3          	add	x17,x24,x15
    800060ac:	01900593          	addi	x11,x0,25
    800060b0:	00098793          	addi	x15,x19,0
    800060b4:	00000513          	addi	x10,x0,0
    800060b8:	f49fb0ef          	jal	x1,80002000 <mm_naive>
    800060bc:	f8843e03          	ld	x28,-120(x8)
    800060c0:	ff0fd06f          	jal	x0,800038b0 <mm_cb+0x1604>
    800060c4:	db843783          	ld	x15,-584(x8)
    800060c8:	e0843703          	ld	x14,-504(x8)
    800060cc:	00fa87b3          	add	x15,x21,x15
    800060d0:	daf43423          	sd	x15,-600(x8)
    800060d4:	e2843783          	ld	x15,-472(x8)
    800060d8:	00f76463          	bltu	x14,x15,800060e0 <mm_cb+0x3e34>
    800060dc:	809fd06f          	jal	x0,800038e4 <mm_cb+0x1638>
    800060e0:	e2043783          	ld	x15,-480(x8)
    800060e4:	00079463          	bne	x15,x0,800060ec <mm_cb+0x3e40>
    800060e8:	ffcfd06f          	jal	x0,800038e4 <mm_cb+0x1638>
    800060ec:	ce043783          	ld	x15,-800(x8)
    800060f0:	d2843c83          	ld	x25,-728(x8)
    800060f4:	016d88b3          	add	x17,x27,x22
    800060f8:	00000b93          	addi	x23,x0,0
    800060fc:	000c0a13          	addi	x20,x24,0
    80006100:	40fa8ab3          	sub	x21,x21,x15
    80006104:	000b8493          	addi	x9,x23,0
    80006108:	d3243823          	sd	x18,-720(x8)
    8000610c:	d1b43423          	sd	x27,-760(x8)
    80006110:	00088c13          	addi	x24,x17,0
    80006114:	e2043783          	ld	x15,-480(x8)
    80006118:	40978933          	sub	x18,x15,x9
    8000611c:	01800793          	addi	x15,x0,24
    80006120:	0127f463          	bgeu	x15,x18,80006128 <mm_cb+0x3e7c>
    80006124:	01800913          	addi	x18,x0,24
    80006128:	00600793          	addi	x15,x0,6
    8000612c:	02f95733          	divu	x14,x18,x15
    80006130:	00391793          	slli	x15,x18,0x3
    80006134:	00fa87b3          	add	x15,x21,x15
    80006138:	e6f43823          	sd	x15,-400(x8)
    8000613c:	e5843783          	ld	x15,-424(x8)
    80006140:	d6843683          	ld	x13,-664(x8)
    80006144:	00600313          	addi	x6,x0,6
    80006148:	cc943423          	sd	x9,-824(x8)
    8000614c:	019686b3          	add	x13,x13,x25
    80006150:	d2d43c23          	sd	x13,-712(x8)
    80006154:	000b0993          	addi	x19,x22,0
    80006158:	000a8693          	addi	x13,x21,0
    8000615c:	cd643023          	sd	x22,-832(x8)
    80006160:	cb543c23          	sd	x21,-840(x8)
    80006164:	00030493          	addi	x9,x6,0
    80006168:	02e78633          	mul	x12,x15,x14
    8000616c:	00171793          	slli	x15,x14,0x1
    80006170:	00e787b3          	add	x15,x15,x14
    80006174:	00479793          	slli	x15,x15,0x4
    80006178:	00fa8eb3          	add	x29,x21,x15
    8000617c:	00161793          	slli	x15,x12,0x1
    80006180:	00c787b3          	add	x15,x15,x12
    80006184:	00479793          	slli	x15,x15,0x4
    80006188:	daf43823          	sd	x15,-592(x8)
    8000618c:	00400793          	addi	x15,x0,4
    80006190:	0147e463          	bltu	x15,x20,80006198 <mm_cb+0x3eec>
    80006194:	1840106f          	jal	x0,80007318 <mm_cb+0x506c>
    80006198:	d5043783          	ld	x15,-688(x8)
    8000619c:	000c8a93          	addi	x21,x25,0
    800061a0:	e6043423          	sd	x0,-408(x8)
    800061a4:	01378d33          	add	x26,x15,x19
    800061a8:	e5043783          	ld	x15,-432(x8)
    800061ac:	cb243823          	sd	x18,-848(x8)
    800061b0:	cb443423          	sd	x20,-856(x8)
    800061b4:	00d78733          	add	x14,x15,x13
    800061b8:	01d787b3          	add	x15,x15,x29
    800061bc:	dce43423          	sd	x14,-568(x8)
    800061c0:	dcf43823          	sd	x15,-560(x8)
    800061c4:	cb943023          	sd	x25,-864(x8)
    800061c8:	c9343c23          	sd	x19,-872(x8)
    800061cc:	e9d43823          	sd	x29,-368(x8)
    800061d0:	ded43023          	sd	x13,-544(x8)
    800061d4:	000d0793          	addi	x15,x26,0
    800061d8:	00098713          	addi	x14,x19,0
    800061dc:	c8943823          	sd	x9,-880(x8)
    800061e0:	c9843423          	sd	x24,-888(x8)
    800061e4:	e0043683          	ld	x13,-512(x8)
    800061e8:	00073d03          	ld	x26,0(x14)
    800061ec:	00873603          	ld	x12,8(x14)
    800061f0:	00d70933          	add	x18,x14,x13
    800061f4:	00d789b3          	add	x19,x15,x13
    800061f8:	01073683          	ld	x13,16(x14)
    800061fc:	f6d43423          	sd	x13,-152(x8)
    80006200:	01873683          	ld	x13,24(x14)
    80006204:	f6d43023          	sd	x13,-160(x8)
    80006208:	02073683          	ld	x13,32(x14)
    8000620c:	f4d43c23          	sd	x13,-168(x8)
    80006210:	0007b683          	ld	x13,0(x15)
    80006214:	f4d43823          	sd	x13,-176(x8)
    80006218:	0087b683          	ld	x13,8(x15)
    8000621c:	f4d43423          	sd	x13,-184(x8)
    80006220:	0107b683          	ld	x13,16(x15)
    80006224:	f4d43023          	sd	x13,-192(x8)
    80006228:	0187b683          	ld	x13,24(x15)
    8000622c:	f2d43c23          	sd	x13,-200(x8)
    80006230:	0207b683          	ld	x13,32(x15)
    80006234:	f6d43823          	sd	x13,-144(x8)
    80006238:	00093683          	ld	x13,0(x18)
    8000623c:	f2d43823          	sd	x13,-208(x8)
    80006240:	00893683          	ld	x13,8(x18)
    80006244:	f2d43423          	sd	x13,-216(x8)
    80006248:	01093683          	ld	x13,16(x18)
    8000624c:	f2d43023          	sd	x13,-224(x8)
    80006250:	01893683          	ld	x13,24(x18)
    80006254:	f0d43c23          	sd	x13,-232(x8)
    80006258:	02093683          	ld	x13,32(x18)
    8000625c:	f6d43c23          	sd	x13,-136(x8)
    80006260:	0009b683          	ld	x13,0(x19)
    80006264:	f0d43823          	sd	x13,-240(x8)
    80006268:	0089b683          	ld	x13,8(x19)
    8000626c:	f0d43423          	sd	x13,-248(x8)
    80006270:	0109b683          	ld	x13,16(x19)
    80006274:	de043b83          	ld	x23,-544(x8)
    80006278:	ef543423          	sd	x21,-280(x8)
    8000627c:	f0d43023          	sd	x13,-256(x8)
    80006280:	0189b683          	ld	x13,24(x19)
    80006284:	eed43c23          	sd	x13,-264(x8)
    80006288:	0209b683          	ld	x13,32(x19)
    8000628c:	eed43823          	sd	x13,-272(x8)
    80006290:	e9043683          	ld	x13,-368(x8)
    80006294:	52dbf6e3          	bgeu	x23,x13,80006fc0 <mm_cb+0x4d14>
    80006298:	ea843683          	ld	x13,-344(x8)
    8000629c:	dc843483          	ld	x9,-568(x8)
    800062a0:	00060a13          	addi	x20,x12,0
    800062a4:	01568b33          	add	x22,x13,x21
    800062a8:	f9743423          	sd	x23,-120(x8)
    800062ac:	e5343023          	sd	x19,-448(x8)
    800062b0:	e3243c23          	sd	x18,-456(x8)
    800062b4:	e3543823          	sd	x21,-464(x8)
    800062b8:	e0f43c23          	sd	x15,-488(x8)
    800062bc:	e0e43823          	sd	x14,-496(x8)
    800062c0:	f8943023          	sd	x9,-128(x8)
    800062c4:	ee843a83          	ld	x21,-280(x8)
    800062c8:	f8843783          	ld	x15,-120(x8)
    800062cc:	eb843683          	ld	x13,-328(x8)
    800062d0:	000abc83          	ld	x25,0(x21)
    800062d4:	0007b983          	ld	x19,0(x15)
    800062d8:	016e04b3          	add	x9,x28,x22
    800062dc:	009e0bb3          	add	x23,x28,x9
    800062e0:	015686b3          	add	x13,x13,x21
    800062e4:	000d0613          	addi	x12,x26,0
    800062e8:	000c8593          	addi	x11,x25,0
    800062ec:	00098513          	addi	x10,x19,0
    800062f0:	015e0933          	add	x18,x28,x21
    800062f4:	edc43023          	sd	x28,-320(x8)
    800062f8:	ecd43823          	sd	x13,-304(x8)
    800062fc:	ed743c23          	sd	x23,-296(x8)
    80006300:	5dc030ef          	jal	x1,800098dc <__fma>
    80006304:	008abc03          	ld	x24,8(x21)
    80006308:	00050d93          	addi	x27,x10,0
    8000630c:	000a0613          	addi	x12,x20,0
    80006310:	000c0593          	addi	x11,x24,0
    80006314:	00098513          	addi	x10,x19,0
    80006318:	5c4030ef          	jal	x1,800098dc <__fma>
    8000631c:	010abb83          	ld	x23,16(x21)
    80006320:	f6843603          	ld	x12,-152(x8)
    80006324:	00050d13          	addi	x26,x10,0
    80006328:	000b8593          	addi	x11,x23,0
    8000632c:	00098513          	addi	x10,x19,0
    80006330:	5ac030ef          	jal	x1,800098dc <__fma>
    80006334:	000a8a13          	addi	x20,x21,0
    80006338:	018aba83          	ld	x21,24(x21)
    8000633c:	f6043603          	ld	x12,-160(x8)
    80006340:	00050793          	addi	x15,x10,0
    80006344:	000a8593          	addi	x11,x21,0
    80006348:	00098513          	addi	x10,x19,0
    8000634c:	f6f43423          	sd	x15,-152(x8)
    80006350:	58c030ef          	jal	x1,800098dc <__fma>
    80006354:	020a3a03          	ld	x20,32(x20)
    80006358:	f5843603          	ld	x12,-168(x8)
    8000635c:	00050793          	addi	x15,x10,0
    80006360:	000a0593          	addi	x11,x20,0
    80006364:	00098513          	addi	x10,x19,0
    80006368:	f6f43023          	sd	x15,-160(x8)
    8000636c:	570030ef          	jal	x1,800098dc <__fma>
    80006370:	f8043683          	ld	x13,-128(x8)
    80006374:	f5043603          	ld	x12,-176(x8)
    80006378:	00050793          	addi	x15,x10,0
    8000637c:	0006b983          	ld	x19,0(x13)
    80006380:	000c8513          	addi	x10,x25,0
    80006384:	f4f43c23          	sd	x15,-168(x8)
    80006388:	00098593          	addi	x11,x19,0
    8000638c:	550030ef          	jal	x1,800098dc <__fma>
    80006390:	f4843603          	ld	x12,-184(x8)
    80006394:	00050793          	addi	x15,x10,0
    80006398:	00098593          	addi	x11,x19,0
    8000639c:	000c0513          	addi	x10,x24,0
    800063a0:	f4f43823          	sd	x15,-176(x8)
    800063a4:	538030ef          	jal	x1,800098dc <__fma>
    800063a8:	f4043603          	ld	x12,-192(x8)
    800063ac:	00050793          	addi	x15,x10,0
    800063b0:	00098593          	addi	x11,x19,0
    800063b4:	000b8513          	addi	x10,x23,0
    800063b8:	f4f43423          	sd	x15,-184(x8)
    800063bc:	520030ef          	jal	x1,800098dc <__fma>
    800063c0:	f3843603          	ld	x12,-200(x8)
    800063c4:	00050793          	addi	x15,x10,0
    800063c8:	00098593          	addi	x11,x19,0
    800063cc:	000a8513          	addi	x10,x21,0
    800063d0:	f4f43023          	sd	x15,-192(x8)
    800063d4:	508030ef          	jal	x1,800098dc <__fma>
    800063d8:	f7043603          	ld	x12,-144(x8)
    800063dc:	00050793          	addi	x15,x10,0
    800063e0:	00098593          	addi	x11,x19,0
    800063e4:	000a0513          	addi	x10,x20,0
    800063e8:	f2f43c23          	sd	x15,-200(x8)
    800063ec:	4f0030ef          	jal	x1,800098dc <__fma>
    800063f0:	f8843703          	ld	x14,-120(x8)
    800063f4:	ee043583          	ld	x11,-288(x8)
    800063f8:	00050793          	addi	x15,x10,0
    800063fc:	000c8513          	addi	x10,x25,0
    80006400:	00b705b3          	add	x11,x14,x11
    80006404:	f6b43823          	sd	x11,-144(x8)
    80006408:	0005b983          	ld	x19,0(x11)
    8000640c:	f3043603          	ld	x12,-208(x8)
    80006410:	f2f43823          	sd	x15,-208(x8)
    80006414:	00098593          	addi	x11,x19,0
    80006418:	4c4030ef          	jal	x1,800098dc <__fma>
    8000641c:	f2843603          	ld	x12,-216(x8)
    80006420:	00050793          	addi	x15,x10,0
    80006424:	00098593          	addi	x11,x19,0
    80006428:	000c0513          	addi	x10,x24,0
    8000642c:	f2f43423          	sd	x15,-216(x8)
    80006430:	4ac030ef          	jal	x1,800098dc <__fma>
    80006434:	f2043603          	ld	x12,-224(x8)
    80006438:	00050793          	addi	x15,x10,0
    8000643c:	00098593          	addi	x11,x19,0
    80006440:	000b8513          	addi	x10,x23,0
    80006444:	f2f43023          	sd	x15,-224(x8)
    80006448:	494030ef          	jal	x1,800098dc <__fma>
    8000644c:	f1843603          	ld	x12,-232(x8)
    80006450:	00050793          	addi	x15,x10,0
    80006454:	00098593          	addi	x11,x19,0
    80006458:	000a8513          	addi	x10,x21,0
    8000645c:	f0f43c23          	sd	x15,-232(x8)
    80006460:	47c030ef          	jal	x1,800098dc <__fma>
    80006464:	f7843603          	ld	x12,-136(x8)
    80006468:	00050793          	addi	x15,x10,0
    8000646c:	00098593          	addi	x11,x19,0
    80006470:	000a0513          	addi	x10,x20,0
    80006474:	ecf43423          	sd	x15,-312(x8)
    80006478:	464030ef          	jal	x1,800098dc <__fma>
    8000647c:	f8043683          	ld	x13,-128(x8)
    80006480:	00050793          	addi	x15,x10,0
    80006484:	ee043503          	ld	x10,-288(x8)
    80006488:	f1043603          	ld	x12,-240(x8)
    8000648c:	00a68533          	add	x10,x13,x10
    80006490:	00053983          	ld	x19,0(x10)
    80006494:	f6a43c23          	sd	x10,-136(x8)
    80006498:	000c8513          	addi	x10,x25,0
    8000649c:	00098593          	addi	x11,x19,0
    800064a0:	00078c93          	addi	x25,x15,0
    800064a4:	438030ef          	jal	x1,800098dc <__fma>
    800064a8:	f0843603          	ld	x12,-248(x8)
    800064ac:	00050793          	addi	x15,x10,0
    800064b0:	00098593          	addi	x11,x19,0
    800064b4:	000c0513          	addi	x10,x24,0
    800064b8:	f0f43823          	sd	x15,-240(x8)
    800064bc:	420030ef          	jal	x1,800098dc <__fma>
    800064c0:	f0043603          	ld	x12,-256(x8)
    800064c4:	00050793          	addi	x15,x10,0
    800064c8:	00098593          	addi	x11,x19,0
    800064cc:	000b8513          	addi	x10,x23,0
    800064d0:	f0f43423          	sd	x15,-248(x8)
    800064d4:	408030ef          	jal	x1,800098dc <__fma>
    800064d8:	ef843603          	ld	x12,-264(x8)
    800064dc:	00050793          	addi	x15,x10,0
    800064e0:	00098593          	addi	x11,x19,0
    800064e4:	000a8513          	addi	x10,x21,0
    800064e8:	f0f43023          	sd	x15,-256(x8)
    800064ec:	3f0030ef          	jal	x1,800098dc <__fma>
    800064f0:	ef043603          	ld	x12,-272(x8)
    800064f4:	00050793          	addi	x15,x10,0
    800064f8:	00098593          	addi	x11,x19,0
    800064fc:	000a0513          	addi	x10,x20,0
    80006500:	eef43c23          	sd	x15,-264(x8)
    80006504:	3d8030ef          	jal	x1,800098dc <__fma>
    80006508:	f8843703          	ld	x14,-120(x8)
    8000650c:	000b3a03          	ld	x20,0(x22)
    80006510:	00050793          	addi	x15,x10,0
    80006514:	00873983          	ld	x19,8(x14)
    80006518:	000d8613          	addi	x12,x27,0
    8000651c:	000a0593          	addi	x11,x20,0
    80006520:	00098513          	addi	x10,x19,0
    80006524:	00078d93          	addi	x27,x15,0
    80006528:	3b4030ef          	jal	x1,800098dc <__fma>
    8000652c:	008b3a83          	ld	x21,8(x22)
    80006530:	00050793          	addi	x15,x10,0
    80006534:	000d0613          	addi	x12,x26,0
    80006538:	000a8593          	addi	x11,x21,0
    8000653c:	00098513          	addi	x10,x19,0
    80006540:	00078d13          	addi	x26,x15,0
    80006544:	398030ef          	jal	x1,800098dc <__fma>
    80006548:	010b3b83          	ld	x23,16(x22)
    8000654c:	f6843603          	ld	x12,-152(x8)
    80006550:	00050793          	addi	x15,x10,0
    80006554:	000b8593          	addi	x11,x23,0
    80006558:	00098513          	addi	x10,x19,0
    8000655c:	f6f43423          	sd	x15,-152(x8)
    80006560:	37c030ef          	jal	x1,800098dc <__fma>
    80006564:	018b3c03          	ld	x24,24(x22)
    80006568:	f6043603          	ld	x12,-160(x8)
    8000656c:	00050793          	addi	x15,x10,0
    80006570:	000c0593          	addi	x11,x24,0
    80006574:	00098513          	addi	x10,x19,0
    80006578:	f6f43023          	sd	x15,-160(x8)
    8000657c:	360030ef          	jal	x1,800098dc <__fma>
    80006580:	020b3b03          	ld	x22,32(x22)
    80006584:	f5843603          	ld	x12,-168(x8)
    80006588:	00050793          	addi	x15,x10,0
    8000658c:	000b0593          	addi	x11,x22,0
    80006590:	00098513          	addi	x10,x19,0
    80006594:	f4f43c23          	sd	x15,-168(x8)
    80006598:	344030ef          	jal	x1,800098dc <__fma>
    8000659c:	f8043683          	ld	x13,-128(x8)
    800065a0:	f5043603          	ld	x12,-176(x8)
    800065a4:	00050793          	addi	x15,x10,0
    800065a8:	0086b983          	ld	x19,8(x13)
    800065ac:	000a0513          	addi	x10,x20,0
    800065b0:	f4f43823          	sd	x15,-176(x8)
    800065b4:	00098593          	addi	x11,x19,0
    800065b8:	324030ef          	jal	x1,800098dc <__fma>
    800065bc:	f4843603          	ld	x12,-184(x8)
    800065c0:	00050793          	addi	x15,x10,0
    800065c4:	00098593          	addi	x11,x19,0
    800065c8:	000a8513          	addi	x10,x21,0
    800065cc:	f4f43423          	sd	x15,-184(x8)
    800065d0:	30c030ef          	jal	x1,800098dc <__fma>
    800065d4:	f4043603          	ld	x12,-192(x8)
    800065d8:	00050793          	addi	x15,x10,0
    800065dc:	00098593          	addi	x11,x19,0
    800065e0:	000b8513          	addi	x10,x23,0
    800065e4:	f4f43023          	sd	x15,-192(x8)
    800065e8:	2f4030ef          	jal	x1,800098dc <__fma>
    800065ec:	f3843603          	ld	x12,-200(x8)
    800065f0:	00050793          	addi	x15,x10,0
    800065f4:	00098593          	addi	x11,x19,0
    800065f8:	000c0513          	addi	x10,x24,0
    800065fc:	f2f43c23          	sd	x15,-200(x8)
    80006600:	2dc030ef          	jal	x1,800098dc <__fma>
    80006604:	f3043603          	ld	x12,-208(x8)
    80006608:	00050793          	addi	x15,x10,0
    8000660c:	00098593          	addi	x11,x19,0
    80006610:	000b0513          	addi	x10,x22,0
    80006614:	f2f43823          	sd	x15,-208(x8)
    80006618:	2c4030ef          	jal	x1,800098dc <__fma>
    8000661c:	f7043583          	ld	x11,-144(x8)
    80006620:	f2843603          	ld	x12,-216(x8)
    80006624:	00050793          	addi	x15,x10,0
    80006628:	0085b983          	ld	x19,8(x11)
    8000662c:	000a0513          	addi	x10,x20,0
    80006630:	f2f43423          	sd	x15,-216(x8)
    80006634:	00098593          	addi	x11,x19,0
    80006638:	2a4030ef          	jal	x1,800098dc <__fma>
    8000663c:	f2043603          	ld	x12,-224(x8)
    80006640:	00050793          	addi	x15,x10,0
    80006644:	00098593          	addi	x11,x19,0
    80006648:	000a8513          	addi	x10,x21,0
    8000664c:	f2f43023          	sd	x15,-224(x8)
    80006650:	28c030ef          	jal	x1,800098dc <__fma>
    80006654:	f1843603          	ld	x12,-232(x8)
    80006658:	00050793          	addi	x15,x10,0
    8000665c:	00098593          	addi	x11,x19,0
    80006660:	000b8513          	addi	x10,x23,0
    80006664:	f0f43c23          	sd	x15,-232(x8)
    80006668:	274030ef          	jal	x1,800098dc <__fma>
    8000666c:	ec843603          	ld	x12,-312(x8)
    80006670:	00050793          	addi	x15,x10,0
    80006674:	00098593          	addi	x11,x19,0
    80006678:	000c0513          	addi	x10,x24,0
    8000667c:	eef43823          	sd	x15,-272(x8)
    80006680:	25c030ef          	jal	x1,800098dc <__fma>
    80006684:	00050793          	addi	x15,x10,0
    80006688:	000c8613          	addi	x12,x25,0
    8000668c:	00098593          	addi	x11,x19,0
    80006690:	000b0513          	addi	x10,x22,0
    80006694:	00078c93          	addi	x25,x15,0
    80006698:	244030ef          	jal	x1,800098dc <__fma>
    8000669c:	00050793          	addi	x15,x10,0
    800066a0:	f7843503          	ld	x10,-136(x8)
    800066a4:	00853983          	ld	x19,8(x10)
    800066a8:	f1043603          	ld	x12,-240(x8)
    800066ac:	000a0513          	addi	x10,x20,0
    800066b0:	00098593          	addi	x11,x19,0
    800066b4:	f0f43823          	sd	x15,-240(x8)
    800066b8:	224030ef          	jal	x1,800098dc <__fma>
    800066bc:	f0843603          	ld	x12,-248(x8)
    800066c0:	00050793          	addi	x15,x10,0
    800066c4:	00098593          	addi	x11,x19,0
    800066c8:	000a8513          	addi	x10,x21,0
    800066cc:	f0f43423          	sd	x15,-248(x8)
    800066d0:	20c030ef          	jal	x1,800098dc <__fma>
    800066d4:	f0043603          	ld	x12,-256(x8)
    800066d8:	00050793          	addi	x15,x10,0
    800066dc:	00098593          	addi	x11,x19,0
    800066e0:	000b8513          	addi	x10,x23,0
    800066e4:	f0f43023          	sd	x15,-256(x8)
    800066e8:	1f4030ef          	jal	x1,800098dc <__fma>
    800066ec:	ef843603          	ld	x12,-264(x8)
    800066f0:	00050793          	addi	x15,x10,0
    800066f4:	00098593          	addi	x11,x19,0
    800066f8:	000c0513          	addi	x10,x24,0
    800066fc:	00078c13          	addi	x24,x15,0
    80006700:	1dc030ef          	jal	x1,800098dc <__fma>
    80006704:	00050793          	addi	x15,x10,0
    80006708:	000d8613          	addi	x12,x27,0
    8000670c:	00098593          	addi	x11,x19,0
    80006710:	000b0513          	addi	x10,x22,0
    80006714:	00078d93          	addi	x27,x15,0
    80006718:	1c4030ef          	jal	x1,800098dc <__fma>
    8000671c:	f8843703          	ld	x14,-120(x8)
    80006720:	00093a03          	ld	x20,0(x18)
    80006724:	00050793          	addi	x15,x10,0
    80006728:	01073983          	ld	x19,16(x14)
    8000672c:	000d0613          	addi	x12,x26,0
    80006730:	000a0593          	addi	x11,x20,0
    80006734:	00098513          	addi	x10,x19,0
    80006738:	00078d13          	addi	x26,x15,0
    8000673c:	1a0030ef          	jal	x1,800098dc <__fma>
    80006740:	00893a83          	ld	x21,8(x18)
    80006744:	f6843603          	ld	x12,-152(x8)
    80006748:	00050793          	addi	x15,x10,0
    8000674c:	000a8593          	addi	x11,x21,0
    80006750:	00098513          	addi	x10,x19,0
    80006754:	f6f43423          	sd	x15,-152(x8)
    80006758:	184030ef          	jal	x1,800098dc <__fma>
    8000675c:	01093b03          	ld	x22,16(x18)
    80006760:	f6043603          	ld	x12,-160(x8)
    80006764:	00050793          	addi	x15,x10,0
    80006768:	000b0593          	addi	x11,x22,0
    8000676c:	00098513          	addi	x10,x19,0
    80006770:	f6f43023          	sd	x15,-160(x8)
    80006774:	168030ef          	jal	x1,800098dc <__fma>
    80006778:	01893b83          	ld	x23,24(x18)
    8000677c:	f5843603          	ld	x12,-168(x8)
    80006780:	00050793          	addi	x15,x10,0
    80006784:	000b8593          	addi	x11,x23,0
    80006788:	00098513          	addi	x10,x19,0
    8000678c:	f4f43c23          	sd	x15,-168(x8)
    80006790:	14c030ef          	jal	x1,800098dc <__fma>
    80006794:	02093903          	ld	x18,32(x18)
    80006798:	f5043603          	ld	x12,-176(x8)
    8000679c:	00050793          	addi	x15,x10,0
    800067a0:	00090593          	addi	x11,x18,0
    800067a4:	00098513          	addi	x10,x19,0
    800067a8:	f4f43823          	sd	x15,-176(x8)
    800067ac:	130030ef          	jal	x1,800098dc <__fma>
    800067b0:	f8043683          	ld	x13,-128(x8)
    800067b4:	f4843603          	ld	x12,-184(x8)
    800067b8:	00050793          	addi	x15,x10,0
    800067bc:	0106b983          	ld	x19,16(x13)
    800067c0:	000a0513          	addi	x10,x20,0
    800067c4:	f4f43423          	sd	x15,-184(x8)
    800067c8:	00098593          	addi	x11,x19,0
    800067cc:	110030ef          	jal	x1,800098dc <__fma>
    800067d0:	f4043603          	ld	x12,-192(x8)
    800067d4:	00050793          	addi	x15,x10,0
    800067d8:	00098593          	addi	x11,x19,0
    800067dc:	000a8513          	addi	x10,x21,0
    800067e0:	f4f43023          	sd	x15,-192(x8)
    800067e4:	0f8030ef          	jal	x1,800098dc <__fma>
    800067e8:	f3843603          	ld	x12,-200(x8)
    800067ec:	00050793          	addi	x15,x10,0
    800067f0:	00098593          	addi	x11,x19,0
    800067f4:	000b0513          	addi	x10,x22,0
    800067f8:	f2f43c23          	sd	x15,-200(x8)
    800067fc:	0e0030ef          	jal	x1,800098dc <__fma>
    80006800:	f3043603          	ld	x12,-208(x8)
    80006804:	00050793          	addi	x15,x10,0
    80006808:	00098593          	addi	x11,x19,0
    8000680c:	000b8513          	addi	x10,x23,0
    80006810:	f2f43823          	sd	x15,-208(x8)
    80006814:	0c8030ef          	jal	x1,800098dc <__fma>
    80006818:	f2843603          	ld	x12,-216(x8)
    8000681c:	00050793          	addi	x15,x10,0
    80006820:	00098593          	addi	x11,x19,0
    80006824:	00090513          	addi	x10,x18,0
    80006828:	f2f43423          	sd	x15,-216(x8)
    8000682c:	0b0030ef          	jal	x1,800098dc <__fma>
    80006830:	f7043583          	ld	x11,-144(x8)
    80006834:	f2043603          	ld	x12,-224(x8)
    80006838:	00050793          	addi	x15,x10,0
    8000683c:	0105b983          	ld	x19,16(x11)
    80006840:	000a0513          	addi	x10,x20,0
    80006844:	f2f43023          	sd	x15,-224(x8)
    80006848:	00098593          	addi	x11,x19,0
    8000684c:	090030ef          	jal	x1,800098dc <__fma>
    80006850:	f1843603          	ld	x12,-232(x8)
    80006854:	00050793          	addi	x15,x10,0
    80006858:	00098593          	addi	x11,x19,0
    8000685c:	000a8513          	addi	x10,x21,0
    80006860:	f0f43c23          	sd	x15,-232(x8)
    80006864:	078030ef          	jal	x1,800098dc <__fma>
    80006868:	ef043603          	ld	x12,-272(x8)
    8000686c:	00050793          	addi	x15,x10,0
    80006870:	00098593          	addi	x11,x19,0
    80006874:	000b0513          	addi	x10,x22,0
    80006878:	eef43c23          	sd	x15,-264(x8)
    8000687c:	060030ef          	jal	x1,800098dc <__fma>
    80006880:	00050793          	addi	x15,x10,0
    80006884:	000c8613          	addi	x12,x25,0
    80006888:	00098593          	addi	x11,x19,0
    8000688c:	000b8513          	addi	x10,x23,0
    80006890:	00078c93          	addi	x25,x15,0
    80006894:	048030ef          	jal	x1,800098dc <__fma>
    80006898:	f1043603          	ld	x12,-240(x8)
    8000689c:	00050793          	addi	x15,x10,0
    800068a0:	00098593          	addi	x11,x19,0
    800068a4:	00090513          	addi	x10,x18,0
    800068a8:	f0f43823          	sd	x15,-240(x8)
    800068ac:	030030ef          	jal	x1,800098dc <__fma>
    800068b0:	00050793          	addi	x15,x10,0
    800068b4:	f7843503          	ld	x10,-136(x8)
    800068b8:	f0843603          	ld	x12,-248(x8)
    800068bc:	f0f43423          	sd	x15,-248(x8)
    800068c0:	01053983          	ld	x19,16(x10)
    800068c4:	000a0513          	addi	x10,x20,0
    800068c8:	00098593          	addi	x11,x19,0
    800068cc:	010030ef          	jal	x1,800098dc <__fma>
    800068d0:	f0043603          	ld	x12,-256(x8)
    800068d4:	00050793          	addi	x15,x10,0
    800068d8:	00098593          	addi	x11,x19,0
    800068dc:	000a8513          	addi	x10,x21,0
    800068e0:	f0f43023          	sd	x15,-256(x8)
    800068e4:	7f9020ef          	jal	x1,800098dc <__fma>
    800068e8:	00050793          	addi	x15,x10,0
    800068ec:	000c0613          	addi	x12,x24,0
    800068f0:	00098593          	addi	x11,x19,0
    800068f4:	000b0513          	addi	x10,x22,0
    800068f8:	00078c13          	addi	x24,x15,0
    800068fc:	7e1020ef          	jal	x1,800098dc <__fma>
    80006900:	00050793          	addi	x15,x10,0
    80006904:	000d8613          	addi	x12,x27,0
    80006908:	00098593          	addi	x11,x19,0
    8000690c:	000b8513          	addi	x10,x23,0
    80006910:	00078b93          	addi	x23,x15,0
    80006914:	7c9020ef          	jal	x1,800098dc <__fma>
    80006918:	00050793          	addi	x15,x10,0
    8000691c:	000d0613          	addi	x12,x26,0
    80006920:	00098593          	addi	x11,x19,0
    80006924:	00090513          	addi	x10,x18,0
    80006928:	00078d13          	addi	x26,x15,0
    8000692c:	7b1020ef          	jal	x1,800098dc <__fma>
    80006930:	f8843703          	ld	x14,-120(x8)
    80006934:	0004b983          	ld	x19,0(x9)
    80006938:	f6843603          	ld	x12,-152(x8)
    8000693c:	01873903          	ld	x18,24(x14)
    80006940:	00050d93          	addi	x27,x10,0
    80006944:	00098593          	addi	x11,x19,0
    80006948:	00090513          	addi	x10,x18,0
    8000694c:	791020ef          	jal	x1,800098dc <__fma>
    80006950:	0084ba03          	ld	x20,8(x9)
    80006954:	f6043603          	ld	x12,-160(x8)
    80006958:	00050793          	addi	x15,x10,0
    8000695c:	000a0593          	addi	x11,x20,0
    80006960:	00090513          	addi	x10,x18,0
    80006964:	f6f43423          	sd	x15,-152(x8)
    80006968:	775020ef          	jal	x1,800098dc <__fma>
    8000696c:	0104ba83          	ld	x21,16(x9)
    80006970:	f5843603          	ld	x12,-168(x8)
    80006974:	00050793          	addi	x15,x10,0
    80006978:	000a8593          	addi	x11,x21,0
    8000697c:	00090513          	addi	x10,x18,0
    80006980:	f6f43023          	sd	x15,-160(x8)
    80006984:	759020ef          	jal	x1,800098dc <__fma>
    80006988:	0184bb03          	ld	x22,24(x9)
    8000698c:	f5043603          	ld	x12,-176(x8)
    80006990:	00050793          	addi	x15,x10,0
    80006994:	000b0593          	addi	x11,x22,0
    80006998:	00090513          	addi	x10,x18,0
    8000699c:	f4f43c23          	sd	x15,-168(x8)
    800069a0:	73d020ef          	jal	x1,800098dc <__fma>
    800069a4:	0204b483          	ld	x9,32(x9)
    800069a8:	f4843603          	ld	x12,-184(x8)
    800069ac:	00050793          	addi	x15,x10,0
    800069b0:	00048593          	addi	x11,x9,0
    800069b4:	00090513          	addi	x10,x18,0
    800069b8:	f4f43823          	sd	x15,-176(x8)
    800069bc:	721020ef          	jal	x1,800098dc <__fma>
    800069c0:	f8043683          	ld	x13,-128(x8)
    800069c4:	f4043603          	ld	x12,-192(x8)
    800069c8:	00050793          	addi	x15,x10,0
    800069cc:	0186b903          	ld	x18,24(x13)
    800069d0:	00098513          	addi	x10,x19,0
    800069d4:	f4f43423          	sd	x15,-184(x8)
    800069d8:	00090593          	addi	x11,x18,0
    800069dc:	701020ef          	jal	x1,800098dc <__fma>
    800069e0:	f3843603          	ld	x12,-200(x8)
    800069e4:	00050793          	addi	x15,x10,0
    800069e8:	00090593          	addi	x11,x18,0
    800069ec:	000a0513          	addi	x10,x20,0
    800069f0:	f4f43023          	sd	x15,-192(x8)
    800069f4:	6e9020ef          	jal	x1,800098dc <__fma>
    800069f8:	f3043603          	ld	x12,-208(x8)
    800069fc:	00050793          	addi	x15,x10,0
    80006a00:	00090593          	addi	x11,x18,0
    80006a04:	000a8513          	addi	x10,x21,0
    80006a08:	f2f43c23          	sd	x15,-200(x8)
    80006a0c:	6d1020ef          	jal	x1,800098dc <__fma>
    80006a10:	f2843603          	ld	x12,-216(x8)
    80006a14:	00050793          	addi	x15,x10,0
    80006a18:	00090593          	addi	x11,x18,0
    80006a1c:	000b0513          	addi	x10,x22,0
    80006a20:	f2f43823          	sd	x15,-208(x8)
    80006a24:	6b9020ef          	jal	x1,800098dc <__fma>
    80006a28:	f2043603          	ld	x12,-224(x8)
    80006a2c:	00050793          	addi	x15,x10,0
    80006a30:	00090593          	addi	x11,x18,0
    80006a34:	00048513          	addi	x10,x9,0
    80006a38:	f2f43423          	sd	x15,-216(x8)
    80006a3c:	6a1020ef          	jal	x1,800098dc <__fma>
    80006a40:	f7043583          	ld	x11,-144(x8)
    80006a44:	f1843603          	ld	x12,-232(x8)
    80006a48:	00050793          	addi	x15,x10,0
    80006a4c:	0185b903          	ld	x18,24(x11)
    80006a50:	00098513          	addi	x10,x19,0
    80006a54:	f2f43023          	sd	x15,-224(x8)
    80006a58:	00090593          	addi	x11,x18,0
    80006a5c:	681020ef          	jal	x1,800098dc <__fma>
    80006a60:	ef843603          	ld	x12,-264(x8)
    80006a64:	00050793          	addi	x15,x10,0
    80006a68:	00090593          	addi	x11,x18,0
    80006a6c:	000a0513          	addi	x10,x20,0
    80006a70:	f0f43c23          	sd	x15,-232(x8)
    80006a74:	669020ef          	jal	x1,800098dc <__fma>
    80006a78:	00050793          	addi	x15,x10,0
    80006a7c:	000c8613          	addi	x12,x25,0
    80006a80:	00090593          	addi	x11,x18,0
    80006a84:	000a8513          	addi	x10,x21,0
    80006a88:	00078c93          	addi	x25,x15,0
    80006a8c:	651020ef          	jal	x1,800098dc <__fma>
    80006a90:	f1043603          	ld	x12,-240(x8)
    80006a94:	00050793          	addi	x15,x10,0
    80006a98:	00090593          	addi	x11,x18,0
    80006a9c:	000b0513          	addi	x10,x22,0
    80006aa0:	f0f43823          	sd	x15,-240(x8)
    80006aa4:	639020ef          	jal	x1,800098dc <__fma>
    80006aa8:	f0843603          	ld	x12,-248(x8)
    80006aac:	00050793          	addi	x15,x10,0
    80006ab0:	00090593          	addi	x11,x18,0
    80006ab4:	00048513          	addi	x10,x9,0
    80006ab8:	f0f43423          	sd	x15,-248(x8)
    80006abc:	621020ef          	jal	x1,800098dc <__fma>
    80006ac0:	00050793          	addi	x15,x10,0
    80006ac4:	f7843503          	ld	x10,-136(x8)
    80006ac8:	f0043603          	ld	x12,-256(x8)
    80006acc:	f0f43023          	sd	x15,-256(x8)
    80006ad0:	01853903          	ld	x18,24(x10)
    80006ad4:	00098513          	addi	x10,x19,0
    80006ad8:	00090593          	addi	x11,x18,0
    80006adc:	601020ef          	jal	x1,800098dc <__fma>
    80006ae0:	00050793          	addi	x15,x10,0
    80006ae4:	000c0613          	addi	x12,x24,0
    80006ae8:	00090593          	addi	x11,x18,0
    80006aec:	000a0513          	addi	x10,x20,0
    80006af0:	00078c13          	addi	x24,x15,0
    80006af4:	5e9020ef          	jal	x1,800098dc <__fma>
    80006af8:	00050793          	addi	x15,x10,0
    80006afc:	000b8613          	addi	x12,x23,0
    80006b00:	00090593          	addi	x11,x18,0
    80006b04:	000a8513          	addi	x10,x21,0
    80006b08:	00078b93          	addi	x23,x15,0
    80006b0c:	5d1020ef          	jal	x1,800098dc <__fma>
    80006b10:	00050793          	addi	x15,x10,0
    80006b14:	000d0613          	addi	x12,x26,0
    80006b18:	00090593          	addi	x11,x18,0
    80006b1c:	000b0513          	addi	x10,x22,0
    80006b20:	00078d13          	addi	x26,x15,0
    80006b24:	5b9020ef          	jal	x1,800098dc <__fma>
    80006b28:	00050793          	addi	x15,x10,0
    80006b2c:	000d8613          	addi	x12,x27,0
    80006b30:	00090593          	addi	x11,x18,0
    80006b34:	00048513          	addi	x10,x9,0
    80006b38:	00078d93          	addi	x27,x15,0
    80006b3c:	5a1020ef          	jal	x1,800098dc <__fma>
    80006b40:	f8843703          	ld	x14,-120(x8)
    80006b44:	ed043b03          	ld	x22,-304(x8)
    80006b48:	f6843603          	ld	x12,-152(x8)
    80006b4c:	02073483          	ld	x9,32(x14)
    80006b50:	000b3903          	ld	x18,0(x22)
    80006b54:	00050793          	addi	x15,x10,0
    80006b58:	00048513          	addi	x10,x9,0
    80006b5c:	00090593          	addi	x11,x18,0
    80006b60:	f6f43423          	sd	x15,-152(x8)
    80006b64:	579020ef          	jal	x1,800098dc <__fma>
    80006b68:	008b3983          	ld	x19,8(x22)
    80006b6c:	f6043603          	ld	x12,-160(x8)
    80006b70:	00050793          	addi	x15,x10,0
    80006b74:	00098593          	addi	x11,x19,0
    80006b78:	00048513          	addi	x10,x9,0
    80006b7c:	f6f43023          	sd	x15,-160(x8)
    80006b80:	55d020ef          	jal	x1,800098dc <__fma>
    80006b84:	010b3a03          	ld	x20,16(x22)
    80006b88:	f5843603          	ld	x12,-168(x8)
    80006b8c:	00050793          	addi	x15,x10,0
    80006b90:	000a0593          	addi	x11,x20,0
    80006b94:	00048513          	addi	x10,x9,0
    80006b98:	f4f43c23          	sd	x15,-168(x8)
    80006b9c:	541020ef          	jal	x1,800098dc <__fma>
    80006ba0:	018b3a83          	ld	x21,24(x22)
    80006ba4:	f5043603          	ld	x12,-176(x8)
    80006ba8:	00050793          	addi	x15,x10,0
    80006bac:	000a8593          	addi	x11,x21,0
    80006bb0:	00048513          	addi	x10,x9,0
    80006bb4:	f4f43823          	sd	x15,-176(x8)
    80006bb8:	525020ef          	jal	x1,800098dc <__fma>
    80006bbc:	020b3b03          	ld	x22,32(x22)
    80006bc0:	f4843603          	ld	x12,-184(x8)
    80006bc4:	00050793          	addi	x15,x10,0
    80006bc8:	000b0593          	addi	x11,x22,0
    80006bcc:	00048513          	addi	x10,x9,0
    80006bd0:	f4f43423          	sd	x15,-184(x8)
    80006bd4:	509020ef          	jal	x1,800098dc <__fma>
    80006bd8:	f8043683          	ld	x13,-128(x8)
    80006bdc:	f4043603          	ld	x12,-192(x8)
    80006be0:	00050793          	addi	x15,x10,0
    80006be4:	0206b483          	ld	x9,32(x13)
    80006be8:	00090513          	addi	x10,x18,0
    80006bec:	f4f43023          	sd	x15,-192(x8)
    80006bf0:	00048593          	addi	x11,x9,0
    80006bf4:	4e9020ef          	jal	x1,800098dc <__fma>
    80006bf8:	f3843603          	ld	x12,-200(x8)
    80006bfc:	00050793          	addi	x15,x10,0
    80006c00:	00048593          	addi	x11,x9,0
    80006c04:	00098513          	addi	x10,x19,0
    80006c08:	f2f43c23          	sd	x15,-200(x8)
    80006c0c:	4d1020ef          	jal	x1,800098dc <__fma>
    80006c10:	f3043603          	ld	x12,-208(x8)
    80006c14:	00050793          	addi	x15,x10,0
    80006c18:	00048593          	addi	x11,x9,0
    80006c1c:	000a0513          	addi	x10,x20,0
    80006c20:	f2f43823          	sd	x15,-208(x8)
    80006c24:	4b9020ef          	jal	x1,800098dc <__fma>
    80006c28:	f2843603          	ld	x12,-216(x8)
    80006c2c:	00050793          	addi	x15,x10,0
    80006c30:	00048593          	addi	x11,x9,0
    80006c34:	000a8513          	addi	x10,x21,0
    80006c38:	f2f43423          	sd	x15,-216(x8)
    80006c3c:	4a1020ef          	jal	x1,800098dc <__fma>
    80006c40:	f2043603          	ld	x12,-224(x8)
    80006c44:	00050793          	addi	x15,x10,0
    80006c48:	00048593          	addi	x11,x9,0
    80006c4c:	000b0513          	addi	x10,x22,0
    80006c50:	f2f43023          	sd	x15,-224(x8)
    80006c54:	489020ef          	jal	x1,800098dc <__fma>
    80006c58:	f7043583          	ld	x11,-144(x8)
    80006c5c:	f1843603          	ld	x12,-232(x8)
    80006c60:	00050793          	addi	x15,x10,0
    80006c64:	0205b483          	ld	x9,32(x11)
    80006c68:	00090513          	addi	x10,x18,0
    80006c6c:	f0f43c23          	sd	x15,-232(x8)
    80006c70:	00048593          	addi	x11,x9,0
    80006c74:	469020ef          	jal	x1,800098dc <__fma>
    80006c78:	00050793          	addi	x15,x10,0
    80006c7c:	000c8613          	addi	x12,x25,0
    80006c80:	00048593          	addi	x11,x9,0
    80006c84:	00098513          	addi	x10,x19,0
    80006c88:	00078c93          	addi	x25,x15,0
    80006c8c:	451020ef          	jal	x1,800098dc <__fma>
    80006c90:	f1043603          	ld	x12,-240(x8)
    80006c94:	00050793          	addi	x15,x10,0
    80006c98:	00048593          	addi	x11,x9,0
    80006c9c:	000a0513          	addi	x10,x20,0
    80006ca0:	f0f43823          	sd	x15,-240(x8)
    80006ca4:	439020ef          	jal	x1,800098dc <__fma>
    80006ca8:	f0843603          	ld	x12,-248(x8)
    80006cac:	00050793          	addi	x15,x10,0
    80006cb0:	00048593          	addi	x11,x9,0
    80006cb4:	000a8513          	addi	x10,x21,0
    80006cb8:	f0f43423          	sd	x15,-248(x8)
    80006cbc:	421020ef          	jal	x1,800098dc <__fma>
    80006cc0:	f0043603          	ld	x12,-256(x8)
    80006cc4:	00050793          	addi	x15,x10,0
    80006cc8:	00048593          	addi	x11,x9,0
    80006ccc:	000b0513          	addi	x10,x22,0
    80006cd0:	f0f43023          	sd	x15,-256(x8)
    80006cd4:	409020ef          	jal	x1,800098dc <__fma>
    80006cd8:	00050793          	addi	x15,x10,0
    80006cdc:	f7843503          	ld	x10,-136(x8)
    80006ce0:	000c0613          	addi	x12,x24,0
    80006ce4:	00078c13          	addi	x24,x15,0
    80006ce8:	02053483          	ld	x9,32(x10)
    80006cec:	00090513          	addi	x10,x18,0
    80006cf0:	00048593          	addi	x11,x9,0
    80006cf4:	3e9020ef          	jal	x1,800098dc <__fma>
    80006cf8:	00050793          	addi	x15,x10,0
    80006cfc:	000b8613          	addi	x12,x23,0
    80006d00:	00048593          	addi	x11,x9,0
    80006d04:	00098513          	addi	x10,x19,0
    80006d08:	eef43c23          	sd	x15,-264(x8)
    80006d0c:	3d1020ef          	jal	x1,800098dc <__fma>
    80006d10:	00050793          	addi	x15,x10,0
    80006d14:	000d0613          	addi	x12,x26,0
    80006d18:	00048593          	addi	x11,x9,0
    80006d1c:	000a0513          	addi	x10,x20,0
    80006d20:	eef43823          	sd	x15,-272(x8)
    80006d24:	3b9020ef          	jal	x1,800098dc <__fma>
    80006d28:	00050793          	addi	x15,x10,0
    80006d2c:	000d8613          	addi	x12,x27,0
    80006d30:	00048593          	addi	x11,x9,0
    80006d34:	000a8513          	addi	x10,x21,0
    80006d38:	00078d93          	addi	x27,x15,0
    80006d3c:	3a1020ef          	jal	x1,800098dc <__fma>
    80006d40:	f6843603          	ld	x12,-152(x8)
    80006d44:	00050793          	addi	x15,x10,0
    80006d48:	00048593          	addi	x11,x9,0
    80006d4c:	000b0513          	addi	x10,x22,0
    80006d50:	ecf43823          	sd	x15,-304(x8)
    80006d54:	389020ef          	jal	x1,800098dc <__fma>
    80006d58:	f8843703          	ld	x14,-120(x8)
    80006d5c:	ed843b83          	ld	x23,-296(x8)
    80006d60:	f6043603          	ld	x12,-160(x8)
    80006d64:	02873483          	ld	x9,40(x14)
    80006d68:	000bb903          	ld	x18,0(x23)
    80006d6c:	00050793          	addi	x15,x10,0
    80006d70:	00048513          	addi	x10,x9,0
    80006d74:	00090593          	addi	x11,x18,0
    80006d78:	ecf43423          	sd	x15,-312(x8)
    80006d7c:	361020ef          	jal	x1,800098dc <__fma>
    80006d80:	008bb983          	ld	x19,8(x23)
    80006d84:	f5843603          	ld	x12,-168(x8)
    80006d88:	00050d13          	addi	x26,x10,0
    80006d8c:	00098593          	addi	x11,x19,0
    80006d90:	00048513          	addi	x10,x9,0
    80006d94:	349020ef          	jal	x1,800098dc <__fma>
    80006d98:	010bba83          	ld	x21,16(x23)
    80006d9c:	f5043603          	ld	x12,-176(x8)
    80006da0:	00050a13          	addi	x20,x10,0
    80006da4:	000a8593          	addi	x11,x21,0
    80006da8:	00048513          	addi	x10,x9,0
    80006dac:	331020ef          	jal	x1,800098dc <__fma>
    80006db0:	018bbb03          	ld	x22,24(x23)
    80006db4:	f4843603          	ld	x12,-184(x8)
    80006db8:	00050793          	addi	x15,x10,0
    80006dbc:	000b0593          	addi	x11,x22,0
    80006dc0:	00048513          	addi	x10,x9,0
    80006dc4:	f6f43423          	sd	x15,-152(x8)
    80006dc8:	315020ef          	jal	x1,800098dc <__fma>
    80006dcc:	020bbb83          	ld	x23,32(x23)
    80006dd0:	f4043603          	ld	x12,-192(x8)
    80006dd4:	00050793          	addi	x15,x10,0
    80006dd8:	000b8593          	addi	x11,x23,0
    80006ddc:	00048513          	addi	x10,x9,0
    80006de0:	f6f43023          	sd	x15,-160(x8)
    80006de4:	2f9020ef          	jal	x1,800098dc <__fma>
    80006de8:	f8043683          	ld	x13,-128(x8)
    80006dec:	f3843603          	ld	x12,-200(x8)
    80006df0:	00050793          	addi	x15,x10,0
    80006df4:	0286b483          	ld	x9,40(x13)
    80006df8:	00090513          	addi	x10,x18,0
    80006dfc:	f4f43c23          	sd	x15,-168(x8)
    80006e00:	00048593          	addi	x11,x9,0
    80006e04:	2d9020ef          	jal	x1,800098dc <__fma>
    80006e08:	f3043603          	ld	x12,-208(x8)
    80006e0c:	00050793          	addi	x15,x10,0
    80006e10:	00048593          	addi	x11,x9,0
    80006e14:	00098513          	addi	x10,x19,0
    80006e18:	f4f43823          	sd	x15,-176(x8)
    80006e1c:	2c1020ef          	jal	x1,800098dc <__fma>
    80006e20:	f2843603          	ld	x12,-216(x8)
    80006e24:	00050793          	addi	x15,x10,0
    80006e28:	00048593          	addi	x11,x9,0
    80006e2c:	000a8513          	addi	x10,x21,0
    80006e30:	f4f43423          	sd	x15,-184(x8)
    80006e34:	2a9020ef          	jal	x1,800098dc <__fma>
    80006e38:	f2043603          	ld	x12,-224(x8)
    80006e3c:	00050793          	addi	x15,x10,0
    80006e40:	00048593          	addi	x11,x9,0
    80006e44:	000b0513          	addi	x10,x22,0
    80006e48:	f4f43023          	sd	x15,-192(x8)
    80006e4c:	291020ef          	jal	x1,800098dc <__fma>
    80006e50:	f1843603          	ld	x12,-232(x8)
    80006e54:	00050793          	addi	x15,x10,0
    80006e58:	00048593          	addi	x11,x9,0
    80006e5c:	000b8513          	addi	x10,x23,0
    80006e60:	f2f43c23          	sd	x15,-200(x8)
    80006e64:	279020ef          	jal	x1,800098dc <__fma>
    80006e68:	f7043583          	ld	x11,-144(x8)
    80006e6c:	00050793          	addi	x15,x10,0
    80006e70:	000c8613          	addi	x12,x25,0
    80006e74:	0285b483          	ld	x9,40(x11)
    80006e78:	00090513          	addi	x10,x18,0
    80006e7c:	f6f43823          	sd	x15,-144(x8)
    80006e80:	00048593          	addi	x11,x9,0
    80006e84:	259020ef          	jal	x1,800098dc <__fma>
    80006e88:	f1043603          	ld	x12,-240(x8)
    80006e8c:	00050793          	addi	x15,x10,0
    80006e90:	00048593          	addi	x11,x9,0
    80006e94:	00098513          	addi	x10,x19,0
    80006e98:	f2f43823          	sd	x15,-208(x8)
    80006e9c:	241020ef          	jal	x1,800098dc <__fma>
    80006ea0:	f0843603          	ld	x12,-248(x8)
    80006ea4:	00050793          	addi	x15,x10,0
    80006ea8:	00048593          	addi	x11,x9,0
    80006eac:	000a8513          	addi	x10,x21,0
    80006eb0:	f2f43423          	sd	x15,-216(x8)
    80006eb4:	229020ef          	jal	x1,800098dc <__fma>
    80006eb8:	f0043603          	ld	x12,-256(x8)
    80006ebc:	00050793          	addi	x15,x10,0
    80006ec0:	00048593          	addi	x11,x9,0
    80006ec4:	000b0513          	addi	x10,x22,0
    80006ec8:	f2f43023          	sd	x15,-224(x8)
    80006ecc:	211020ef          	jal	x1,800098dc <__fma>
    80006ed0:	00050793          	addi	x15,x10,0
    80006ed4:	00048593          	addi	x11,x9,0
    80006ed8:	000c0613          	addi	x12,x24,0
    80006edc:	000b8513          	addi	x10,x23,0
    80006ee0:	f0f43c23          	sd	x15,-232(x8)
    80006ee4:	1f9020ef          	jal	x1,800098dc <__fma>
    80006ee8:	00050793          	addi	x15,x10,0
    80006eec:	f7843503          	ld	x10,-136(x8)
    80006ef0:	ef843603          	ld	x12,-264(x8)
    80006ef4:	f6f43c23          	sd	x15,-136(x8)
    80006ef8:	02853483          	ld	x9,40(x10)
    80006efc:	00090513          	addi	x10,x18,0
    80006f00:	00048593          	addi	x11,x9,0
    80006f04:	1d9020ef          	jal	x1,800098dc <__fma>
    80006f08:	ef043603          	ld	x12,-272(x8)
    80006f0c:	00050793          	addi	x15,x10,0
    80006f10:	00048593          	addi	x11,x9,0
    80006f14:	00098513          	addi	x10,x19,0
    80006f18:	f0f43823          	sd	x15,-240(x8)
    80006f1c:	1c1020ef          	jal	x1,800098dc <__fma>
    80006f20:	00050793          	addi	x15,x10,0
    80006f24:	000d8613          	addi	x12,x27,0
    80006f28:	00048593          	addi	x11,x9,0
    80006f2c:	000a8513          	addi	x10,x21,0
    80006f30:	f0f43423          	sd	x15,-248(x8)
    80006f34:	1a9020ef          	jal	x1,800098dc <__fma>
    80006f38:	ed043603          	ld	x12,-304(x8)
    80006f3c:	00050793          	addi	x15,x10,0
    80006f40:	00048593          	addi	x11,x9,0
    80006f44:	000b0513          	addi	x10,x22,0
    80006f48:	f0f43023          	sd	x15,-256(x8)
    80006f4c:	191020ef          	jal	x1,800098dc <__fma>
    80006f50:	ec843603          	ld	x12,-312(x8)
    80006f54:	00050793          	addi	x15,x10,0
    80006f58:	00048593          	addi	x11,x9,0
    80006f5c:	000b8513          	addi	x10,x23,0
    80006f60:	eef43c23          	sd	x15,-264(x8)
    80006f64:	179020ef          	jal	x1,800098dc <__fma>
    80006f68:	f8843703          	ld	x14,-120(x8)
    80006f6c:	ee843a83          	ld	x21,-280(x8)
    80006f70:	f8043683          	ld	x13,-128(x8)
    80006f74:	03070793          	addi	x15,x14,48
    80006f78:	ea043703          	ld	x14,-352(x8)
    80006f7c:	ed843b83          	ld	x23,-296(x8)
    80006f80:	ec043e03          	ld	x28,-320(x8)
    80006f84:	00ea8733          	add	x14,x21,x14
    80006f88:	eee43423          	sd	x14,-280(x8)
    80006f8c:	03068713          	addi	x14,x13,48
    80006f90:	f8e43023          	sd	x14,-128(x8)
    80006f94:	e9043703          	ld	x14,-368(x8)
    80006f98:	f8f43423          	sd	x15,-120(x8)
    80006f9c:	eea43823          	sd	x10,-272(x8)
    80006fa0:	017e0b33          	add	x22,x28,x23
    80006fa4:	b2e7e063          	bltu	x15,x14,800062c4 <mm_cb+0x4018>
    80006fa8:	e4043983          	ld	x19,-448(x8)
    80006fac:	e3843903          	ld	x18,-456(x8)
    80006fb0:	e3043a83          	ld	x21,-464(x8)
    80006fb4:	e1843783          	ld	x15,-488(x8)
    80006fb8:	e1043703          	ld	x14,-496(x8)
    80006fbc:	000a0613          	addi	x12,x20,0
    80006fc0:	db043683          	ld	x13,-592(x8)
    80006fc4:	e9043c83          	ld	x25,-368(x8)
    80006fc8:	015684b3          	add	x9,x13,x21
    80006fcc:	e7043683          	ld	x13,-400(x8)
    80006fd0:	26dcf663          	bgeu	x25,x13,8000723c <mm_cb+0x4f90>
    80006fd4:	dd043c03          	ld	x24,-560(x8)
    80006fd8:	ecf43823          	sd	x15,-304(x8)
    80006fdc:	f9c43423          	sd	x28,-120(x8)
    80006fe0:	000c0793          	addi	x15,x24,0
    80006fe4:	00060d93          	addi	x27,x12,0
    80006fe8:	000c8c13          	addi	x24,x25,0
    80006fec:	f9343023          	sd	x19,-128(x8)
    80006ff0:	ef243423          	sd	x18,-280(x8)
    80006ff4:	ed543c23          	sd	x21,-296(x8)
    80006ff8:	ece43423          	sd	x14,-312(x8)
    80006ffc:	00078c93          	addi	x25,x15,0
    80007000:	000c3903          	ld	x18,0(x24)
    80007004:	0004bb83          	ld	x23,0(x9)
    80007008:	000d0613          	addi	x12,x26,0
    8000700c:	00090513          	addi	x10,x18,0
    80007010:	000b8593          	addi	x11,x23,0
    80007014:	0c9020ef          	jal	x1,800098dc <__fma>
    80007018:	0084bb03          	ld	x22,8(x9)
    8000701c:	000d8613          	addi	x12,x27,0
    80007020:	00050d13          	addi	x26,x10,0
    80007024:	000b0593          	addi	x11,x22,0
    80007028:	00090513          	addi	x10,x18,0
    8000702c:	0b1020ef          	jal	x1,800098dc <__fma>
    80007030:	0104ba83          	ld	x21,16(x9)
    80007034:	f6843603          	ld	x12,-152(x8)
    80007038:	00050d93          	addi	x27,x10,0
    8000703c:	000a8593          	addi	x11,x21,0
    80007040:	00090513          	addi	x10,x18,0
    80007044:	099020ef          	jal	x1,800098dc <__fma>
    80007048:	0184ba03          	ld	x20,24(x9)
    8000704c:	f6043603          	ld	x12,-160(x8)
    80007050:	00050713          	addi	x14,x10,0
    80007054:	000a0593          	addi	x11,x20,0
    80007058:	00090513          	addi	x10,x18,0
    8000705c:	f6e43423          	sd	x14,-152(x8)
    80007060:	07d020ef          	jal	x1,800098dc <__fma>
    80007064:	0204b983          	ld	x19,32(x9)
    80007068:	f5843603          	ld	x12,-168(x8)
    8000706c:	00050713          	addi	x14,x10,0
    80007070:	00098593          	addi	x11,x19,0
    80007074:	00090513          	addi	x10,x18,0
    80007078:	f6e43023          	sd	x14,-160(x8)
    8000707c:	061020ef          	jal	x1,800098dc <__fma>
    80007080:	000cb903          	ld	x18,0(x25)
    80007084:	f5043603          	ld	x12,-176(x8)
    80007088:	00050713          	addi	x14,x10,0
    8000708c:	00090593          	addi	x11,x18,0
    80007090:	000b8513          	addi	x10,x23,0
    80007094:	f4e43c23          	sd	x14,-168(x8)
    80007098:	045020ef          	jal	x1,800098dc <__fma>
    8000709c:	f4843603          	ld	x12,-184(x8)
    800070a0:	00050713          	addi	x14,x10,0
    800070a4:	00090593          	addi	x11,x18,0
    800070a8:	000b0513          	addi	x10,x22,0
    800070ac:	f4e43823          	sd	x14,-176(x8)
    800070b0:	02d020ef          	jal	x1,800098dc <__fma>
    800070b4:	f4043603          	ld	x12,-192(x8)
    800070b8:	00050713          	addi	x14,x10,0
    800070bc:	00090593          	addi	x11,x18,0
    800070c0:	000a8513          	addi	x10,x21,0
    800070c4:	f4e43423          	sd	x14,-184(x8)
    800070c8:	015020ef          	jal	x1,800098dc <__fma>
    800070cc:	f3843603          	ld	x12,-200(x8)
    800070d0:	00050713          	addi	x14,x10,0
    800070d4:	00090593          	addi	x11,x18,0
    800070d8:	000a0513          	addi	x10,x20,0
    800070dc:	f4e43023          	sd	x14,-192(x8)
    800070e0:	7fc020ef          	jal	x1,800098dc <__fma>
    800070e4:	f7043603          	ld	x12,-144(x8)
    800070e8:	00050713          	addi	x14,x10,0
    800070ec:	00090593          	addi	x11,x18,0
    800070f0:	00098513          	addi	x10,x19,0
    800070f4:	f2e43c23          	sd	x14,-200(x8)
    800070f8:	7e4020ef          	jal	x1,800098dc <__fma>
    800070fc:	ee043783          	ld	x15,-288(x8)
    80007100:	f3043603          	ld	x12,-208(x8)
    80007104:	00050713          	addi	x14,x10,0
    80007108:	00fc06b3          	add	x13,x24,x15
    8000710c:	0006b903          	ld	x18,0(x13)
    80007110:	000b8513          	addi	x10,x23,0
    80007114:	f6e43823          	sd	x14,-144(x8)
    80007118:	00090593          	addi	x11,x18,0
    8000711c:	7c0020ef          	jal	x1,800098dc <__fma>
    80007120:	f2843603          	ld	x12,-216(x8)
    80007124:	00050713          	addi	x14,x10,0
    80007128:	00090593          	addi	x11,x18,0
    8000712c:	000b0513          	addi	x10,x22,0
    80007130:	f2e43823          	sd	x14,-208(x8)
    80007134:	7a8020ef          	jal	x1,800098dc <__fma>
    80007138:	f2043603          	ld	x12,-224(x8)
    8000713c:	00050713          	addi	x14,x10,0
    80007140:	00090593          	addi	x11,x18,0
    80007144:	000a8513          	addi	x10,x21,0
    80007148:	f2e43423          	sd	x14,-216(x8)
    8000714c:	790020ef          	jal	x1,800098dc <__fma>
    80007150:	f1843603          	ld	x12,-232(x8)
    80007154:	00050713          	addi	x14,x10,0
    80007158:	00090593          	addi	x11,x18,0
    8000715c:	000a0513          	addi	x10,x20,0
    80007160:	f2e43023          	sd	x14,-224(x8)
    80007164:	778020ef          	jal	x1,800098dc <__fma>
    80007168:	f7843603          	ld	x12,-136(x8)
    8000716c:	00050713          	addi	x14,x10,0
    80007170:	00090593          	addi	x11,x18,0
    80007174:	00098513          	addi	x10,x19,0
    80007178:	f0e43c23          	sd	x14,-232(x8)
    8000717c:	760020ef          	jal	x1,800098dc <__fma>
    80007180:	ee043783          	ld	x15,-288(x8)
    80007184:	f1043603          	ld	x12,-240(x8)
    80007188:	00050713          	addi	x14,x10,0
    8000718c:	00fc86b3          	add	x13,x25,x15
    80007190:	0006b903          	ld	x18,0(x13)
    80007194:	000b8513          	addi	x10,x23,0
    80007198:	f6e43c23          	sd	x14,-136(x8)
    8000719c:	00090593          	addi	x11,x18,0
    800071a0:	73c020ef          	jal	x1,800098dc <__fma>
    800071a4:	f0843603          	ld	x12,-248(x8)
    800071a8:	00050713          	addi	x14,x10,0
    800071ac:	00090593          	addi	x11,x18,0
    800071b0:	000b0513          	addi	x10,x22,0
    800071b4:	f0e43823          	sd	x14,-240(x8)
    800071b8:	724020ef          	jal	x1,800098dc <__fma>
    800071bc:	f0043603          	ld	x12,-256(x8)
    800071c0:	00050713          	addi	x14,x10,0
    800071c4:	00090593          	addi	x11,x18,0
    800071c8:	000a8513          	addi	x10,x21,0
    800071cc:	f0e43423          	sd	x14,-248(x8)
    800071d0:	70c020ef          	jal	x1,800098dc <__fma>
    800071d4:	ef843603          	ld	x12,-264(x8)
    800071d8:	00050713          	addi	x14,x10,0
    800071dc:	00090593          	addi	x11,x18,0
    800071e0:	000a0513          	addi	x10,x20,0
    800071e4:	f0e43023          	sd	x14,-256(x8)
    800071e8:	6f4020ef          	jal	x1,800098dc <__fma>
    800071ec:	ef043603          	ld	x12,-272(x8)
    800071f0:	00050713          	addi	x14,x10,0
    800071f4:	00090593          	addi	x11,x18,0
    800071f8:	00098513          	addi	x10,x19,0
    800071fc:	eee43c23          	sd	x14,-264(x8)
    80007200:	6dc020ef          	jal	x1,800098dc <__fma>
    80007204:	ea843783          	ld	x15,-344(x8)
    80007208:	008c0c13          	addi	x24,x24,8
    8000720c:	eea43823          	sd	x10,-272(x8)
    80007210:	00f484b3          	add	x9,x9,x15
    80007214:	e7043783          	ld	x15,-400(x8)
    80007218:	008c8c93          	addi	x25,x25,8
    8000721c:	defc62e3          	bltu	x24,x15,80007000 <mm_cb+0x4d54>
    80007220:	f8843e03          	ld	x28,-120(x8)
    80007224:	f8043983          	ld	x19,-128(x8)
    80007228:	ee843903          	ld	x18,-280(x8)
    8000722c:	ed843a83          	ld	x21,-296(x8)
    80007230:	ed043783          	ld	x15,-304(x8)
    80007234:	ec843703          	ld	x14,-312(x8)
    80007238:	000d8613          	addi	x12,x27,0
    8000723c:	f6843683          	ld	x13,-152(x8)
    80007240:	00c73423          	sd	x12,8(x14)
    80007244:	01a73023          	sd	x26,0(x14)
    80007248:	00d73823          	sd	x13,16(x14)
    8000724c:	f6043683          	ld	x13,-160(x8)
    80007250:	02870713          	addi	x14,x14,40
    80007254:	02878793          	addi	x15,x15,40
    80007258:	fed73823          	sd	x13,-16(x14)
    8000725c:	f5843683          	ld	x13,-168(x8)
    80007260:	028a8a93          	addi	x21,x21,40
    80007264:	fed73c23          	sd	x13,-8(x14)
    80007268:	f5043683          	ld	x13,-176(x8)
    8000726c:	fcd7bc23          	sd	x13,-40(x15)
    80007270:	f4843683          	ld	x13,-184(x8)
    80007274:	fed7b023          	sd	x13,-32(x15)
    80007278:	f4043683          	ld	x13,-192(x8)
    8000727c:	fed7b423          	sd	x13,-24(x15)
    80007280:	f3843683          	ld	x13,-200(x8)
    80007284:	fed7b823          	sd	x13,-16(x15)
    80007288:	f7043683          	ld	x13,-144(x8)
    8000728c:	fed7bc23          	sd	x13,-8(x15)
    80007290:	f3043683          	ld	x13,-208(x8)
    80007294:	00d93023          	sd	x13,0(x18)
    80007298:	f2843683          	ld	x13,-216(x8)
    8000729c:	00d93423          	sd	x13,8(x18)
    800072a0:	f2043683          	ld	x13,-224(x8)
    800072a4:	00d93823          	sd	x13,16(x18)
    800072a8:	f1843683          	ld	x13,-232(x8)
    800072ac:	00d93c23          	sd	x13,24(x18)
    800072b0:	f7843683          	ld	x13,-136(x8)
    800072b4:	02d93023          	sd	x13,32(x18)
    800072b8:	f1043683          	ld	x13,-240(x8)
    800072bc:	00d9b023          	sd	x13,0(x19)
    800072c0:	f0843683          	ld	x13,-248(x8)
    800072c4:	00d9b423          	sd	x13,8(x19)
    800072c8:	f0043683          	ld	x13,-256(x8)
    800072cc:	dd843603          	ld	x12,-552(x8)
    800072d0:	00d9b823          	sd	x13,16(x19)
    800072d4:	ef843683          	ld	x13,-264(x8)
    800072d8:	00d9bc23          	sd	x13,24(x19)
    800072dc:	ef043683          	ld	x13,-272(x8)
    800072e0:	02d9b023          	sd	x13,32(x19)
    800072e4:	e6843683          	ld	x13,-408(x8)
    800072e8:	00568693          	addi	x13,x13,5
    800072ec:	e6d43423          	sd	x13,-408(x8)
    800072f0:	00c6f463          	bgeu	x13,x12,800072f8 <mm_cb+0x504c>
    800072f4:	ef1fe06f          	jal	x0,800061e4 <mm_cb+0x3f38>
    800072f8:	cb043903          	ld	x18,-848(x8)
    800072fc:	ca843a03          	ld	x20,-856(x8)
    80007300:	ca043c83          	ld	x25,-864(x8)
    80007304:	c9843983          	ld	x19,-872(x8)
    80007308:	e9043e83          	ld	x29,-368(x8)
    8000730c:	de043683          	ld	x13,-544(x8)
    80007310:	c9043483          	ld	x9,-880(x8)
    80007314:	c8843c03          	ld	x24,-888(x8)
    80007318:	00043783          	ld	x15,0(x8)
    8000731c:	f7d43c23          	sd	x29,-136(x8)
    80007320:	f9c43023          	sd	x28,-128(x8)
    80007324:	00f13023          	sd	x15,0(x2)
    80007328:	d6843783          	ld	x15,-664(x8)
    8000732c:	e4843703          	ld	x14,-440(x8)
    80007330:	e5843803          	ld	x16,-424(x8)
    80007334:	013788b3          	add	x17,x15,x19
    80007338:	d4043583          	ld	x11,-704(x8)
    8000733c:	d3843783          	ld	x15,-712(x8)
    80007340:	f8d43423          	sd	x13,-120(x8)
    80007344:	00090613          	addi	x12,x18,0
    80007348:	00400513          	addi	x10,x0,4
    8000734c:	cb5fa0ef          	jal	x1,80002000 <mm_naive>
    80007350:	de843783          	ld	x15,-536(x8)
    80007354:	e7043703          	ld	x14,-400(x8)
    80007358:	f8843683          	ld	x13,-120(x8)
    8000735c:	f7843e83          	ld	x29,-136(x8)
    80007360:	00f70733          	add	x14,x14,x15
    80007364:	00f686b3          	add	x13,x13,x15
    80007368:	00fe8eb3          	add	x29,x29,x15
    8000736c:	da043783          	ld	x15,-608(x8)
    80007370:	fff48493          	addi	x9,x9,-1
    80007374:	e6e43823          	sd	x14,-400(x8)
    80007378:	f8043e03          	ld	x28,-128(x8)
    8000737c:	00f989b3          	add	x19,x19,x15
    80007380:	00048463          	beq	x9,x0,80007388 <mm_cb+0x50dc>
    80007384:	e09fe06f          	jal	x0,8000618c <mm_cb+0x3ee0>
    80007388:	00043783          	ld	x15,0(x8)
    8000738c:	f9c43423          	sd	x28,-120(x8)
    80007390:	cb843a83          	ld	x21,-840(x8)
    80007394:	cc843483          	ld	x9,-824(x8)
    80007398:	cc043b03          	ld	x22,-832(x8)
    8000739c:	00f13023          	sd	x15,0(x2)
    800073a0:	db843683          	ld	x13,-584(x8)
    800073a4:	e5843803          	ld	x16,-424(x8)
    800073a8:	e4843703          	ld	x14,-440(x8)
    800073ac:	000c8793          	addi	x15,x25,0
    800073b0:	015686b3          	add	x13,x13,x21
    800073b4:	000c0893          	addi	x17,x24,0
    800073b8:	00090613          	addi	x12,x18,0
    800073bc:	000a0593          	addi	x11,x20,0
    800073c0:	00000513          	addi	x10,x0,0
    800073c4:	c3dfa0ef          	jal	x1,80002000 <mm_naive>
    800073c8:	d1043783          	ld	x15,-752(x8)
    800073cc:	01848493          	addi	x9,x9,24
    800073d0:	f8843e03          	ld	x28,-120(x8)
    800073d4:	00fc8cb3          	add	x25,x25,x15
    800073d8:	e2043783          	ld	x15,-480(x8)
    800073dc:	0c0a8a93          	addi	x21,x21,192
    800073e0:	00f4f463          	bgeu	x9,x15,800073e8 <mm_cb+0x513c>
    800073e4:	d31fe06f          	jal	x0,80006114 <mm_cb+0x3e68>
    800073e8:	000c0893          	addi	x17,x24,0
    800073ec:	d3043903          	ld	x18,-720(x8)
    800073f0:	d0843d83          	ld	x27,-760(x8)
    800073f4:	000a0c13          	addi	x24,x20,0
    800073f8:	cf0fc06f          	jal	x0,800038e8 <mm_cb+0x163c>
    800073fc:	e6043783          	ld	x15,-416(x8)
    80007400:	00078463          	beq	x15,x0,80007408 <mm_cb+0x515c>
    80007404:	908fb06f          	jal	x0,8000250c <mm_cb+0x260>
    80007408:	00091463          	bne	x18,x0,80007410 <mm_cb+0x5164>
    8000740c:	a69fd06f          	jal	x0,80004e74 <mm_cb+0x2bc8>
    80007410:	e2843783          	ld	x15,-472(x8)
    80007414:	00079463          	bne	x15,x0,8000741c <mm_cb+0x5170>
    80007418:	a5dfd06f          	jal	x0,80004e74 <mm_cb+0x2bc8>
    8000741c:	00161513          	slli	x10,x12,0x1
    80007420:	00c50533          	add	x10,x10,x12
    80007424:	00351513          	slli	x10,x10,0x3
    80007428:	00281713          	slli	x14,x16,0x2
    8000742c:	00159a13          	slli	x20,x11,0x1
    80007430:	00ba07b3          	add	x15,x20,x11
    80007434:	00181493          	slli	x9,x16,0x1
    80007438:	01070733          	add	x14,x14,x16
    8000743c:	e8a43423          	sd	x10,-376(x8)
    80007440:	00381513          	slli	x10,x16,0x3
    80007444:	010486b3          	add	x13,x9,x16
    80007448:	00371713          	slli	x14,x14,0x3
    8000744c:	eaa43823          	sd	x10,-336(x8)
    80007450:	00379e93          	slli	x29,x15,0x3
    80007454:	00481513          	slli	x10,x16,0x4
    80007458:	00361793          	slli	x15,x12,0x3
    8000745c:	e8a43023          	sd	x10,-384(x8)
    80007460:	e6e43423          	sd	x14,-408(x8)
    80007464:	00369513          	slli	x10,x13,0x3
    80007468:	00469713          	slli	x14,x13,0x4
    8000746c:	e8f43c23          	sd	x15,-360(x8)
    80007470:	00561793          	slli	x15,x12,0x5
    80007474:	00461893          	slli	x17,x12,0x4
    80007478:	e6a43823          	sd	x10,-400(x8)
    8000747c:	e6e43c23          	sd	x14,-392(x8)
    80007480:	00581513          	slli	x10,x16,0x5
    80007484:	00459713          	slli	x14,x11,0x4
    80007488:	def43423          	sd	x15,-536(x8)
    8000748c:	00559793          	slli	x15,x11,0x5
    80007490:	ef143023          	sd	x17,-288(x8)
    80007494:	eaa43c23          	sd	x10,-328(x8)
    80007498:	00359f93          	slli	x31,x11,0x3
    8000749c:	e0e43023          	sd	x14,-512(x8)
    800074a0:	daf43023          	sd	x15,-608(x8)
    800074a4:	cc0fc06f          	jal	x0,80003964 <mm_cb+0x16b8>
    800074a8:	00381793          	slli	x15,x16,0x3
    800074ac:	00181493          	slli	x9,x16,0x1
    800074b0:	eaf43423          	sd	x15,-344(x8)
    800074b4:	9a8fb06f          	jal	x0,8000265c <mm_cb+0x3b0>

00000000800074b8 <mm>:
    800074b8:	d9010113          	addi	x2,x2,-624
    800074bc:	25313423          	sd	x19,584(x2)
    800074c0:	25413023          	sd	x20,576(x2)
    800074c4:	23613823          	sd	x22,560(x2)
    800074c8:	23813023          	sd	x24,544(x2)
    800074cc:	21a13823          	sd	x26,528(x2)
    800074d0:	21b13423          	sd	x27,520(x2)
    800074d4:	00050a13          	addi	x20,x10,0
    800074d8:	26113423          	sd	x1,616(x2)
    800074dc:	03000513          	addi	x10,x0,48
    800074e0:	27013303          	ld	x6,624(x2)
    800074e4:	00058d13          	addi	x26,x11,0
    800074e8:	00068993          	addi	x19,x13,0
    800074ec:	00070d93          	addi	x27,x14,0
    800074f0:	00080c13          	addi	x24,x16,0
    800074f4:	00088b13          	addi	x22,x17,0
    800074f8:	01457463          	bgeu	x10,x20,80007500 <mm+0x48>
    800074fc:	36c0106f          	jal	x0,80008868 <mm+0x13b0>
    80007500:	03200713          	addi	x14,x0,50
    80007504:	00b77463          	bgeu	x14,x11,8000750c <mm+0x54>
    80007508:	3600106f          	jal	x0,80008868 <mm+0x13b0>
    8000750c:	00c57463          	bgeu	x10,x12,80007514 <mm+0x5c>
    80007510:	3580106f          	jal	x0,80008868 <mm+0x13b0>
    80007514:	00500e93          	addi	x29,x0,5
    80007518:	03d5d733          	divu	x14,x11,x29
    8000751c:	23713423          	sd	x23,552(x2)
    80007520:	21913c23          	sd	x25,536(x2)
    80007524:	ffca7c93          	andi	x25,x20,-4
    80007528:	00331593          	slli	x11,x6,0x3
    8000752c:	003d9b93          	slli	x23,x27,0x3
    80007530:	00271693          	slli	x13,x14,0x2
    80007534:	00e68733          	add	x14,x13,x14
    80007538:	14e13023          	sd	x14,320(x2)
    8000753c:	000c9463          	bne	x25,x0,80007544 <mm+0x8c>
    80007540:	2d80106f          	jal	x0,80008818 <mm+0x1360>
    80007544:	00600813          	addi	x16,x0,6
    80007548:	03065833          	divu	x16,x12,x16
    8000754c:	00431893          	slli	x17,x6,0x4
    80007550:	00361513          	slli	x10,x12,0x3
    80007554:	00a98533          	add	x10,x19,x10
    80007558:	15113423          	sd	x17,328(x2)
    8000755c:	004d9893          	slli	x17,x27,0x4
    80007560:	0b113023          	sd	x17,160(x2)
    80007564:	0ea13423          	sd	x10,232(x2)
    80007568:	003c1893          	slli	x17,x24,0x3
    8000756c:	00531513          	slli	x10,x6,0x5
    80007570:	0f113823          	sd	x17,240(x2)
    80007574:	1ca13423          	sd	x10,456(x2)
    80007578:	005c1893          	slli	x17,x24,0x5
    8000757c:	0f113c23          	sd	x17,248(x2)
    80007580:	001c1693          	slli	x13,x24,0x1
    80007584:	018686b3          	add	x13,x13,x24
    80007588:	00371713          	slli	x14,x14,0x3
    8000758c:	00469693          	slli	x13,x13,0x4
    80007590:	10d13023          	sd	x13,256(x2)
    80007594:	00e786b3          	add	x13,x15,x14
    80007598:	26813023          	sd	x8,608(x2)
    8000759c:	24913c23          	sd	x9,600(x2)
    800075a0:	25213823          	sd	x18,592(x2)
    800075a4:	1cd13023          	sd	x13,448(x2)
    800075a8:	23513c23          	sd	x21,568(x2)
    800075ac:	004c1e13          	slli	x28,x24,0x4
    800075b0:	005d9493          	slli	x9,x27,0x5
    800075b4:	00098693          	addi	x13,x19,0
    800075b8:	000b0413          	addi	x8,x22,0
    800075bc:	00000913          	addi	x18,x0,0
    800075c0:	19913423          	sd	x25,392(x2)
    800075c4:	1cb13823          	sd	x11,464(x2)
    800075c8:	1f413423          	sd	x20,488(x2)
    800075cc:	19a13823          	sd	x26,400(x2)
    800075d0:	18c13c23          	sd	x12,408(x2)
    800075d4:	1f313823          	sd	x19,496(x2)
    800075d8:	1bb13023          	sd	x27,416(x2)
    800075dc:	1cf13c23          	sd	x15,472(x2)
    800075e0:	1b813423          	sd	x24,424(x2)
    800075e4:	1f613c23          	sd	x22,504(x2)
    800075e8:	1a613823          	sd	x6,432(x2)
    800075ec:	1ee13023          	sd	x14,480(x2)
    800075f0:	00181513          	slli	x10,x16,0x1
    800075f4:	038808b3          	mul	x17,x16,x24
    800075f8:	01050533          	add	x10,x10,x16
    800075fc:	00451513          	slli	x10,x10,0x4
    80007600:	00a98533          	add	x10,x19,x10
    80007604:	0ea13023          	sd	x10,224(x2)
    80007608:	03dd7833          	remu	x16,x26,x29
    8000760c:	00189513          	slli	x10,x17,0x1
    80007610:	01150533          	add	x10,x10,x17
    80007614:	00451513          	slli	x10,x10,0x4
    80007618:	14a13823          	sd	x10,336(x2)
    8000761c:	1b013c23          	sd	x16,440(x2)
    80007620:	19013783          	ld	x15,400(x2)
    80007624:	00400713          	addi	x14,x0,4
    80007628:	00f76463          	bltu	x14,x15,80007630 <mm+0x178>
    8000762c:	1400106f          	jal	x0,8000876c <mm+0x12b4>
    80007630:	1d013783          	ld	x15,464(x2)
    80007634:	1d813983          	ld	x19,472(x2)
    80007638:	16913c23          	sd	x9,376(x2)
    8000763c:	00f40d33          	add	x26,x8,x15
    80007640:	017687b3          	add	x15,x13,x23
    80007644:	16f13023          	sd	x15,352(x2)
    80007648:	0e013783          	ld	x15,224(x2)
    8000764c:	10013423          	sd	x0,264(x2)
    80007650:	17213423          	sd	x18,360(x2)
    80007654:	017787b3          	add	x15,x15,x23
    80007658:	14f13c23          	sd	x15,344(x2)
    8000765c:	16813823          	sd	x8,368(x2)
    80007660:	12d13c23          	sd	x13,312(x2)
    80007664:	00098a13          	addi	x20,x19,0
    80007668:	00040493          	addi	x9,x8,0
    8000766c:	000d0793          	addi	x15,x26,0
    80007670:	19713023          	sd	x23,384(x2)
    80007674:	14813703          	ld	x14,328(x2)
    80007678:	0004bd03          	ld	x26,0(x9)
    8000767c:	0084bc83          	ld	x25,8(x9)
    80007680:	00e48933          	add	x18,x9,x14
    80007684:	00e789b3          	add	x19,x15,x14
    80007688:	0104b703          	ld	x14,16(x9)
    8000768c:	02e13423          	sd	x14,40(x2)
    80007690:	0184b703          	ld	x14,24(x9)
    80007694:	02e13823          	sd	x14,48(x2)
    80007698:	0204b703          	ld	x14,32(x9)
    8000769c:	02e13c23          	sd	x14,56(x2)
    800076a0:	0007b703          	ld	x14,0(x15)
    800076a4:	04e13023          	sd	x14,64(x2)
    800076a8:	0087b703          	ld	x14,8(x15)
    800076ac:	04e13423          	sd	x14,72(x2)
    800076b0:	0107b703          	ld	x14,16(x15)
    800076b4:	04e13823          	sd	x14,80(x2)
    800076b8:	0187b703          	ld	x14,24(x15)
    800076bc:	04e13c23          	sd	x14,88(x2)
    800076c0:	0207b703          	ld	x14,32(x15)
    800076c4:	02e13023          	sd	x14,32(x2)
    800076c8:	00093703          	ld	x14,0(x18)
    800076cc:	06e13023          	sd	x14,96(x2)
    800076d0:	00893703          	ld	x14,8(x18)
    800076d4:	06e13423          	sd	x14,104(x2)
    800076d8:	01093703          	ld	x14,16(x18)
    800076dc:	06e13823          	sd	x14,112(x2)
    800076e0:	01893703          	ld	x14,24(x18)
    800076e4:	06e13c23          	sd	x14,120(x2)
    800076e8:	02093703          	ld	x14,32(x18)
    800076ec:	00e13c23          	sd	x14,24(x2)
    800076f0:	0009b703          	ld	x14,0(x19)
    800076f4:	08e13023          	sd	x14,128(x2)
    800076f8:	0089b703          	ld	x14,8(x19)
    800076fc:	08e13423          	sd	x14,136(x2)
    80007700:	0109b703          	ld	x14,16(x19)
    80007704:	0e013683          	ld	x13,224(x2)
    80007708:	13813403          	ld	x8,312(x2)
    8000770c:	0ae13823          	sd	x14,176(x2)
    80007710:	0189b703          	ld	x14,24(x19)
    80007714:	0ae13c23          	sd	x14,184(x2)
    80007718:	0209b703          	ld	x14,32(x19)
    8000771c:	08e13823          	sd	x14,144(x2)
    80007720:	4ed47ce3          	bgeu	x8,x13,80008418 <mm+0xf60>
    80007724:	0f013683          	ld	x13,240(x2)
    80007728:	11313823          	sd	x19,272(x2)
    8000772c:	00040c13          	addi	x24,x8,0
    80007730:	01468db3          	add	x27,x13,x20
    80007734:	16013683          	ld	x13,352(x2)
    80007738:	09413c23          	sd	x20,152(x2)
    8000773c:	000d0993          	addi	x19,x26,0
    80007740:	00d13823          	sd	x13,16(x2)
    80007744:	11213c23          	sd	x18,280(x2)
    80007748:	13413023          	sd	x20,288(x2)
    8000774c:	12f13423          	sd	x15,296(x2)
    80007750:	12913823          	sd	x9,304(x2)
    80007754:	09813783          	ld	x15,152(x2)
    80007758:	000c3483          	ld	x9,0(x24)
    8000775c:	00098613          	addi	x12,x19,0
    80007760:	00fe0433          	add	x8,x28,x15
    80007764:	0007bb83          	ld	x23,0(x15)
    80007768:	00078993          	addi	x19,x15,0
    8000776c:	0f813783          	ld	x15,248(x2)
    80007770:	01be0d33          	add	x26,x28,x27
    80007774:	000b8593          	addi	x11,x23,0
    80007778:	01378b33          	add	x22,x15,x19
    8000777c:	00048513          	addi	x10,x9,0
    80007780:	01ae07b3          	add	x15,x28,x26
    80007784:	0dc13c23          	sd	x28,216(x2)
    80007788:	0af13423          	sd	x15,168(x2)
    8000778c:	0d613023          	sd	x22,192(x2)
    80007790:	14c020ef          	jal	x1,800098dc <__fma>
    80007794:	0089bb03          	ld	x22,8(x19)
    80007798:	00050913          	addi	x18,x10,0
    8000779c:	000c8613          	addi	x12,x25,0
    800077a0:	000b0593          	addi	x11,x22,0
    800077a4:	00048513          	addi	x10,x9,0
    800077a8:	134020ef          	jal	x1,800098dc <__fma>
    800077ac:	0109ba83          	ld	x21,16(x19)
    800077b0:	02813603          	ld	x12,40(x2)
    800077b4:	00050793          	addi	x15,x10,0
    800077b8:	000a8593          	addi	x11,x21,0
    800077bc:	00048513          	addi	x10,x9,0
    800077c0:	02f13423          	sd	x15,40(x2)
    800077c4:	118020ef          	jal	x1,800098dc <__fma>
    800077c8:	0189ba03          	ld	x20,24(x19)
    800077cc:	03013603          	ld	x12,48(x2)
    800077d0:	00050793          	addi	x15,x10,0
    800077d4:	000a0593          	addi	x11,x20,0
    800077d8:	00048513          	addi	x10,x9,0
    800077dc:	02f13823          	sd	x15,48(x2)
    800077e0:	0fc020ef          	jal	x1,800098dc <__fma>
    800077e4:	0209b983          	ld	x19,32(x19)
    800077e8:	03813603          	ld	x12,56(x2)
    800077ec:	00050793          	addi	x15,x10,0
    800077f0:	00098593          	addi	x11,x19,0
    800077f4:	00048513          	addi	x10,x9,0
    800077f8:	02f13c23          	sd	x15,56(x2)
    800077fc:	0e0020ef          	jal	x1,800098dc <__fma>
    80007800:	01013703          	ld	x14,16(x2)
    80007804:	04013603          	ld	x12,64(x2)
    80007808:	00050793          	addi	x15,x10,0
    8000780c:	00073483          	ld	x9,0(x14)
    80007810:	000b8513          	addi	x10,x23,0
    80007814:	04f13023          	sd	x15,64(x2)
    80007818:	00048593          	addi	x11,x9,0
    8000781c:	0c0020ef          	jal	x1,800098dc <__fma>
    80007820:	04813603          	ld	x12,72(x2)
    80007824:	00050793          	addi	x15,x10,0
    80007828:	00048593          	addi	x11,x9,0
    8000782c:	000b0513          	addi	x10,x22,0
    80007830:	04f13423          	sd	x15,72(x2)
    80007834:	0a8020ef          	jal	x1,800098dc <__fma>
    80007838:	05013603          	ld	x12,80(x2)
    8000783c:	00050793          	addi	x15,x10,0
    80007840:	00048593          	addi	x11,x9,0
    80007844:	000a8513          	addi	x10,x21,0
    80007848:	04f13823          	sd	x15,80(x2)
    8000784c:	090020ef          	jal	x1,800098dc <__fma>
    80007850:	05813603          	ld	x12,88(x2)
    80007854:	00050793          	addi	x15,x10,0
    80007858:	00048593          	addi	x11,x9,0
    8000785c:	000a0513          	addi	x10,x20,0
    80007860:	04f13c23          	sd	x15,88(x2)
    80007864:	078020ef          	jal	x1,800098dc <__fma>
    80007868:	02013603          	ld	x12,32(x2)
    8000786c:	00050793          	addi	x15,x10,0
    80007870:	00048593          	addi	x11,x9,0
    80007874:	00098513          	addi	x10,x19,0
    80007878:	0cf13423          	sd	x15,200(x2)
    8000787c:	060020ef          	jal	x1,800098dc <__fma>
    80007880:	0a013683          	ld	x13,160(x2)
    80007884:	06013603          	ld	x12,96(x2)
    80007888:	00050793          	addi	x15,x10,0
    8000788c:	00dc06b3          	add	x13,x24,x13
    80007890:	0006b483          	ld	x9,0(x13)
    80007894:	02d13023          	sd	x13,32(x2)
    80007898:	000b8513          	addi	x10,x23,0
    8000789c:	00048593          	addi	x11,x9,0
    800078a0:	06f13023          	sd	x15,96(x2)
    800078a4:	038020ef          	jal	x1,800098dc <__fma>
    800078a8:	06813603          	ld	x12,104(x2)
    800078ac:	00050793          	addi	x15,x10,0
    800078b0:	00048593          	addi	x11,x9,0
    800078b4:	000b0513          	addi	x10,x22,0
    800078b8:	06f13423          	sd	x15,104(x2)
    800078bc:	020020ef          	jal	x1,800098dc <__fma>
    800078c0:	07013603          	ld	x12,112(x2)
    800078c4:	00050793          	addi	x15,x10,0
    800078c8:	00048593          	addi	x11,x9,0
    800078cc:	000a8513          	addi	x10,x21,0
    800078d0:	06f13823          	sd	x15,112(x2)
    800078d4:	008020ef          	jal	x1,800098dc <__fma>
    800078d8:	07813603          	ld	x12,120(x2)
    800078dc:	00050793          	addi	x15,x10,0
    800078e0:	00048593          	addi	x11,x9,0
    800078e4:	000a0513          	addi	x10,x20,0
    800078e8:	06f13c23          	sd	x15,120(x2)
    800078ec:	7f1010ef          	jal	x1,800098dc <__fma>
    800078f0:	01813603          	ld	x12,24(x2)
    800078f4:	00050793          	addi	x15,x10,0
    800078f8:	00048593          	addi	x11,x9,0
    800078fc:	00098513          	addi	x10,x19,0
    80007900:	0cf13823          	sd	x15,208(x2)
    80007904:	7d9010ef          	jal	x1,800098dc <__fma>
    80007908:	01013703          	ld	x14,16(x2)
    8000790c:	0a013583          	ld	x11,160(x2)
    80007910:	08013603          	ld	x12,128(x2)
    80007914:	00050c93          	addi	x25,x10,0
    80007918:	00b705b3          	add	x11,x14,x11
    8000791c:	0005b483          	ld	x9,0(x11)
    80007920:	00b13c23          	sd	x11,24(x2)
    80007924:	000b8513          	addi	x10,x23,0
    80007928:	00048593          	addi	x11,x9,0
    8000792c:	7b1010ef          	jal	x1,800098dc <__fma>
    80007930:	08813603          	ld	x12,136(x2)
    80007934:	00050793          	addi	x15,x10,0
    80007938:	00048593          	addi	x11,x9,0
    8000793c:	000b0513          	addi	x10,x22,0
    80007940:	08f13023          	sd	x15,128(x2)
    80007944:	799010ef          	jal	x1,800098dc <__fma>
    80007948:	0b013603          	ld	x12,176(x2)
    8000794c:	00050b93          	addi	x23,x10,0
    80007950:	00048593          	addi	x11,x9,0
    80007954:	000a8513          	addi	x10,x21,0
    80007958:	785010ef          	jal	x1,800098dc <__fma>
    8000795c:	0b813603          	ld	x12,184(x2)
    80007960:	00050793          	addi	x15,x10,0
    80007964:	00048593          	addi	x11,x9,0
    80007968:	000a0513          	addi	x10,x20,0
    8000796c:	08f13423          	sd	x15,136(x2)
    80007970:	76d010ef          	jal	x1,800098dc <__fma>
    80007974:	09013603          	ld	x12,144(x2)
    80007978:	00050793          	addi	x15,x10,0
    8000797c:	00048593          	addi	x11,x9,0
    80007980:	00098513          	addi	x10,x19,0
    80007984:	08f13823          	sd	x15,144(x2)
    80007988:	755010ef          	jal	x1,800098dc <__fma>
    8000798c:	008c3483          	ld	x9,8(x24)
    80007990:	000dba83          	ld	x21,0(x27)
    80007994:	00050b13          	addi	x22,x10,0
    80007998:	00090613          	addi	x12,x18,0
    8000799c:	000a8593          	addi	x11,x21,0
    800079a0:	00048513          	addi	x10,x9,0
    800079a4:	739010ef          	jal	x1,800098dc <__fma>
    800079a8:	008dba03          	ld	x20,8(x27)
    800079ac:	02813603          	ld	x12,40(x2)
    800079b0:	00050793          	addi	x15,x10,0
    800079b4:	000a0593          	addi	x11,x20,0
    800079b8:	00048513          	addi	x10,x9,0
    800079bc:	02f13423          	sd	x15,40(x2)
    800079c0:	71d010ef          	jal	x1,800098dc <__fma>
    800079c4:	010db983          	ld	x19,16(x27)
    800079c8:	03013603          	ld	x12,48(x2)
    800079cc:	00050793          	addi	x15,x10,0
    800079d0:	00098593          	addi	x11,x19,0
    800079d4:	00048513          	addi	x10,x9,0
    800079d8:	02f13823          	sd	x15,48(x2)
    800079dc:	701010ef          	jal	x1,800098dc <__fma>
    800079e0:	018db903          	ld	x18,24(x27)
    800079e4:	03813603          	ld	x12,56(x2)
    800079e8:	00050793          	addi	x15,x10,0
    800079ec:	00090593          	addi	x11,x18,0
    800079f0:	00048513          	addi	x10,x9,0
    800079f4:	02f13c23          	sd	x15,56(x2)
    800079f8:	6e5010ef          	jal	x1,800098dc <__fma>
    800079fc:	020dbd83          	ld	x27,32(x27)
    80007a00:	04013603          	ld	x12,64(x2)
    80007a04:	00050793          	addi	x15,x10,0
    80007a08:	000d8593          	addi	x11,x27,0
    80007a0c:	00048513          	addi	x10,x9,0
    80007a10:	04f13023          	sd	x15,64(x2)
    80007a14:	6c9010ef          	jal	x1,800098dc <__fma>
    80007a18:	01013703          	ld	x14,16(x2)
    80007a1c:	04813603          	ld	x12,72(x2)
    80007a20:	00050793          	addi	x15,x10,0
    80007a24:	00873483          	ld	x9,8(x14)
    80007a28:	000a8513          	addi	x10,x21,0
    80007a2c:	04f13423          	sd	x15,72(x2)
    80007a30:	00048593          	addi	x11,x9,0
    80007a34:	6a9010ef          	jal	x1,800098dc <__fma>
    80007a38:	05013603          	ld	x12,80(x2)
    80007a3c:	00050793          	addi	x15,x10,0
    80007a40:	00048593          	addi	x11,x9,0
    80007a44:	000a0513          	addi	x10,x20,0
    80007a48:	04f13823          	sd	x15,80(x2)
    80007a4c:	691010ef          	jal	x1,800098dc <__fma>
    80007a50:	05813603          	ld	x12,88(x2)
    80007a54:	00050793          	addi	x15,x10,0
    80007a58:	00048593          	addi	x11,x9,0
    80007a5c:	00098513          	addi	x10,x19,0
    80007a60:	04f13c23          	sd	x15,88(x2)
    80007a64:	679010ef          	jal	x1,800098dc <__fma>
    80007a68:	0c813603          	ld	x12,200(x2)
    80007a6c:	00050793          	addi	x15,x10,0
    80007a70:	00048593          	addi	x11,x9,0
    80007a74:	00090513          	addi	x10,x18,0
    80007a78:	0af13823          	sd	x15,176(x2)
    80007a7c:	661010ef          	jal	x1,800098dc <__fma>
    80007a80:	06013603          	ld	x12,96(x2)
    80007a84:	00050793          	addi	x15,x10,0
    80007a88:	00048593          	addi	x11,x9,0
    80007a8c:	000d8513          	addi	x10,x27,0
    80007a90:	06f13023          	sd	x15,96(x2)
    80007a94:	649010ef          	jal	x1,800098dc <__fma>
    80007a98:	02013683          	ld	x13,32(x2)
    80007a9c:	06813603          	ld	x12,104(x2)
    80007aa0:	00050793          	addi	x15,x10,0
    80007aa4:	0086b483          	ld	x9,8(x13)
    80007aa8:	000a8513          	addi	x10,x21,0
    80007aac:	06f13423          	sd	x15,104(x2)
    80007ab0:	00048593          	addi	x11,x9,0
    80007ab4:	629010ef          	jal	x1,800098dc <__fma>
    80007ab8:	07013603          	ld	x12,112(x2)
    80007abc:	00050793          	addi	x15,x10,0
    80007ac0:	00048593          	addi	x11,x9,0
    80007ac4:	000a0513          	addi	x10,x20,0
    80007ac8:	06f13823          	sd	x15,112(x2)
    80007acc:	611010ef          	jal	x1,800098dc <__fma>
    80007ad0:	07813603          	ld	x12,120(x2)
    80007ad4:	00050793          	addi	x15,x10,0
    80007ad8:	00048593          	addi	x11,x9,0
    80007adc:	00098513          	addi	x10,x19,0
    80007ae0:	06f13c23          	sd	x15,120(x2)
    80007ae4:	5f9010ef          	jal	x1,800098dc <__fma>
    80007ae8:	0d013603          	ld	x12,208(x2)
    80007aec:	00050793          	addi	x15,x10,0
    80007af0:	00048593          	addi	x11,x9,0
    80007af4:	00090513          	addi	x10,x18,0
    80007af8:	0af13c23          	sd	x15,184(x2)
    80007afc:	5e1010ef          	jal	x1,800098dc <__fma>
    80007b00:	00050793          	addi	x15,x10,0
    80007b04:	000c8613          	addi	x12,x25,0
    80007b08:	00048593          	addi	x11,x9,0
    80007b0c:	000d8513          	addi	x10,x27,0
    80007b10:	00078c93          	addi	x25,x15,0
    80007b14:	5c9010ef          	jal	x1,800098dc <__fma>
    80007b18:	01813583          	ld	x11,24(x2)
    80007b1c:	08013603          	ld	x12,128(x2)
    80007b20:	00050793          	addi	x15,x10,0
    80007b24:	0085b483          	ld	x9,8(x11)
    80007b28:	000a8513          	addi	x10,x21,0
    80007b2c:	08f13023          	sd	x15,128(x2)
    80007b30:	00048593          	addi	x11,x9,0
    80007b34:	5a9010ef          	jal	x1,800098dc <__fma>
    80007b38:	00050793          	addi	x15,x10,0
    80007b3c:	000b8613          	addi	x12,x23,0
    80007b40:	00048593          	addi	x11,x9,0
    80007b44:	000a0513          	addi	x10,x20,0
    80007b48:	00078b93          	addi	x23,x15,0
    80007b4c:	591010ef          	jal	x1,800098dc <__fma>
    80007b50:	08813603          	ld	x12,136(x2)
    80007b54:	00050793          	addi	x15,x10,0
    80007b58:	00048593          	addi	x11,x9,0
    80007b5c:	00098513          	addi	x10,x19,0
    80007b60:	08f13423          	sd	x15,136(x2)
    80007b64:	579010ef          	jal	x1,800098dc <__fma>
    80007b68:	09013603          	ld	x12,144(x2)
    80007b6c:	00050793          	addi	x15,x10,0
    80007b70:	00048593          	addi	x11,x9,0
    80007b74:	00090513          	addi	x10,x18,0
    80007b78:	08f13823          	sd	x15,144(x2)
    80007b7c:	561010ef          	jal	x1,800098dc <__fma>
    80007b80:	00050793          	addi	x15,x10,0
    80007b84:	000b0613          	addi	x12,x22,0
    80007b88:	00048593          	addi	x11,x9,0
    80007b8c:	000d8513          	addi	x10,x27,0
    80007b90:	00078d93          	addi	x27,x15,0
    80007b94:	549010ef          	jal	x1,800098dc <__fma>
    80007b98:	010c3483          	ld	x9,16(x24)
    80007b9c:	00043983          	ld	x19,0(x8)
    80007ba0:	02813603          	ld	x12,40(x2)
    80007ba4:	00050a13          	addi	x20,x10,0
    80007ba8:	00098593          	addi	x11,x19,0
    80007bac:	00048513          	addi	x10,x9,0
    80007bb0:	52d010ef          	jal	x1,800098dc <__fma>
    80007bb4:	00843903          	ld	x18,8(x8)
    80007bb8:	03013603          	ld	x12,48(x2)
    80007bbc:	00050793          	addi	x15,x10,0
    80007bc0:	00090593          	addi	x11,x18,0
    80007bc4:	00048513          	addi	x10,x9,0
    80007bc8:	02f13423          	sd	x15,40(x2)
    80007bcc:	511010ef          	jal	x1,800098dc <__fma>
    80007bd0:	01043a83          	ld	x21,16(x8)
    80007bd4:	03813603          	ld	x12,56(x2)
    80007bd8:	00050793          	addi	x15,x10,0
    80007bdc:	000a8593          	addi	x11,x21,0
    80007be0:	00048513          	addi	x10,x9,0
    80007be4:	02f13823          	sd	x15,48(x2)
    80007be8:	4f5010ef          	jal	x1,800098dc <__fma>
    80007bec:	01843b03          	ld	x22,24(x8)
    80007bf0:	04013603          	ld	x12,64(x2)
    80007bf4:	00050793          	addi	x15,x10,0
    80007bf8:	000b0593          	addi	x11,x22,0
    80007bfc:	00048513          	addi	x10,x9,0
    80007c00:	02f13c23          	sd	x15,56(x2)
    80007c04:	4d9010ef          	jal	x1,800098dc <__fma>
    80007c08:	02043403          	ld	x8,32(x8)
    80007c0c:	04813603          	ld	x12,72(x2)
    80007c10:	00050793          	addi	x15,x10,0
    80007c14:	00040593          	addi	x11,x8,0
    80007c18:	00048513          	addi	x10,x9,0
    80007c1c:	04f13023          	sd	x15,64(x2)
    80007c20:	4bd010ef          	jal	x1,800098dc <__fma>
    80007c24:	01013703          	ld	x14,16(x2)
    80007c28:	05013603          	ld	x12,80(x2)
    80007c2c:	00050793          	addi	x15,x10,0
    80007c30:	01073483          	ld	x9,16(x14)
    80007c34:	00098513          	addi	x10,x19,0
    80007c38:	04f13423          	sd	x15,72(x2)
    80007c3c:	00048593          	addi	x11,x9,0
    80007c40:	49d010ef          	jal	x1,800098dc <__fma>
    80007c44:	05813603          	ld	x12,88(x2)
    80007c48:	00050793          	addi	x15,x10,0
    80007c4c:	00048593          	addi	x11,x9,0
    80007c50:	00090513          	addi	x10,x18,0
    80007c54:	04f13823          	sd	x15,80(x2)
    80007c58:	485010ef          	jal	x1,800098dc <__fma>
    80007c5c:	0b013603          	ld	x12,176(x2)
    80007c60:	00050793          	addi	x15,x10,0
    80007c64:	00048593          	addi	x11,x9,0
    80007c68:	000a8513          	addi	x10,x21,0
    80007c6c:	04f13c23          	sd	x15,88(x2)
    80007c70:	46d010ef          	jal	x1,800098dc <__fma>
    80007c74:	06013603          	ld	x12,96(x2)
    80007c78:	00050793          	addi	x15,x10,0
    80007c7c:	00048593          	addi	x11,x9,0
    80007c80:	000b0513          	addi	x10,x22,0
    80007c84:	06f13023          	sd	x15,96(x2)
    80007c88:	455010ef          	jal	x1,800098dc <__fma>
    80007c8c:	06813603          	ld	x12,104(x2)
    80007c90:	00050793          	addi	x15,x10,0
    80007c94:	00048593          	addi	x11,x9,0
    80007c98:	00040513          	addi	x10,x8,0
    80007c9c:	06f13423          	sd	x15,104(x2)
    80007ca0:	43d010ef          	jal	x1,800098dc <__fma>
    80007ca4:	02013683          	ld	x13,32(x2)
    80007ca8:	07013603          	ld	x12,112(x2)
    80007cac:	00050793          	addi	x15,x10,0
    80007cb0:	0106b483          	ld	x9,16(x13)
    80007cb4:	00098513          	addi	x10,x19,0
    80007cb8:	06f13823          	sd	x15,112(x2)
    80007cbc:	00048593          	addi	x11,x9,0
    80007cc0:	41d010ef          	jal	x1,800098dc <__fma>
    80007cc4:	07813603          	ld	x12,120(x2)
    80007cc8:	00050793          	addi	x15,x10,0
    80007ccc:	00048593          	addi	x11,x9,0
    80007cd0:	00090513          	addi	x10,x18,0
    80007cd4:	06f13c23          	sd	x15,120(x2)
    80007cd8:	405010ef          	jal	x1,800098dc <__fma>
    80007cdc:	0b813603          	ld	x12,184(x2)
    80007ce0:	00050793          	addi	x15,x10,0
    80007ce4:	00048593          	addi	x11,x9,0
    80007ce8:	000a8513          	addi	x10,x21,0
    80007cec:	0af13823          	sd	x15,176(x2)
    80007cf0:	3ed010ef          	jal	x1,800098dc <__fma>
    80007cf4:	00050793          	addi	x15,x10,0
    80007cf8:	000c8613          	addi	x12,x25,0
    80007cfc:	00048593          	addi	x11,x9,0
    80007d00:	000b0513          	addi	x10,x22,0
    80007d04:	00078c93          	addi	x25,x15,0
    80007d08:	3d5010ef          	jal	x1,800098dc <__fma>
    80007d0c:	08013603          	ld	x12,128(x2)
    80007d10:	00050793          	addi	x15,x10,0
    80007d14:	00048593          	addi	x11,x9,0
    80007d18:	00040513          	addi	x10,x8,0
    80007d1c:	08f13023          	sd	x15,128(x2)
    80007d20:	3bd010ef          	jal	x1,800098dc <__fma>
    80007d24:	01813583          	ld	x11,24(x2)
    80007d28:	00050793          	addi	x15,x10,0
    80007d2c:	000b8613          	addi	x12,x23,0
    80007d30:	0105b483          	ld	x9,16(x11)
    80007d34:	00098513          	addi	x10,x19,0
    80007d38:	00078b93          	addi	x23,x15,0
    80007d3c:	00048593          	addi	x11,x9,0
    80007d40:	39d010ef          	jal	x1,800098dc <__fma>
    80007d44:	08813603          	ld	x12,136(x2)
    80007d48:	00050793          	addi	x15,x10,0
    80007d4c:	00048593          	addi	x11,x9,0
    80007d50:	00090513          	addi	x10,x18,0
    80007d54:	08f13423          	sd	x15,136(x2)
    80007d58:	385010ef          	jal	x1,800098dc <__fma>
    80007d5c:	09013603          	ld	x12,144(x2)
    80007d60:	00050793          	addi	x15,x10,0
    80007d64:	00048593          	addi	x11,x9,0
    80007d68:	000a8513          	addi	x10,x21,0
    80007d6c:	08f13823          	sd	x15,144(x2)
    80007d70:	36d010ef          	jal	x1,800098dc <__fma>
    80007d74:	00050793          	addi	x15,x10,0
    80007d78:	000d8613          	addi	x12,x27,0
    80007d7c:	00048593          	addi	x11,x9,0
    80007d80:	000b0513          	addi	x10,x22,0
    80007d84:	00078d93          	addi	x27,x15,0
    80007d88:	355010ef          	jal	x1,800098dc <__fma>
    80007d8c:	00050793          	addi	x15,x10,0
    80007d90:	000a0613          	addi	x12,x20,0
    80007d94:	00048593          	addi	x11,x9,0
    80007d98:	00040513          	addi	x10,x8,0
    80007d9c:	0af13c23          	sd	x15,184(x2)
    80007da0:	33d010ef          	jal	x1,800098dc <__fma>
    80007da4:	018c3403          	ld	x8,24(x24)
    80007da8:	000d3903          	ld	x18,0(x26)
    80007dac:	02813603          	ld	x12,40(x2)
    80007db0:	00050993          	addi	x19,x10,0
    80007db4:	00090593          	addi	x11,x18,0
    80007db8:	00040513          	addi	x10,x8,0
    80007dbc:	321010ef          	jal	x1,800098dc <__fma>
    80007dc0:	008d3483          	ld	x9,8(x26)
    80007dc4:	03013603          	ld	x12,48(x2)
    80007dc8:	00050793          	addi	x15,x10,0
    80007dcc:	00048593          	addi	x11,x9,0
    80007dd0:	00040513          	addi	x10,x8,0
    80007dd4:	02f13423          	sd	x15,40(x2)
    80007dd8:	305010ef          	jal	x1,800098dc <__fma>
    80007ddc:	010d3a03          	ld	x20,16(x26)
    80007de0:	03813603          	ld	x12,56(x2)
    80007de4:	00050793          	addi	x15,x10,0
    80007de8:	000a0593          	addi	x11,x20,0
    80007dec:	00040513          	addi	x10,x8,0
    80007df0:	02f13823          	sd	x15,48(x2)
    80007df4:	2e9010ef          	jal	x1,800098dc <__fma>
    80007df8:	018d3a83          	ld	x21,24(x26)
    80007dfc:	04013603          	ld	x12,64(x2)
    80007e00:	00050793          	addi	x15,x10,0
    80007e04:	000a8593          	addi	x11,x21,0
    80007e08:	00040513          	addi	x10,x8,0
    80007e0c:	02f13c23          	sd	x15,56(x2)
    80007e10:	2cd010ef          	jal	x1,800098dc <__fma>
    80007e14:	020d3b03          	ld	x22,32(x26)
    80007e18:	04813603          	ld	x12,72(x2)
    80007e1c:	00050793          	addi	x15,x10,0
    80007e20:	000b0593          	addi	x11,x22,0
    80007e24:	00040513          	addi	x10,x8,0
    80007e28:	04f13023          	sd	x15,64(x2)
    80007e2c:	2b1010ef          	jal	x1,800098dc <__fma>
    80007e30:	01013703          	ld	x14,16(x2)
    80007e34:	05013603          	ld	x12,80(x2)
    80007e38:	00050793          	addi	x15,x10,0
    80007e3c:	01873403          	ld	x8,24(x14)
    80007e40:	00090513          	addi	x10,x18,0
    80007e44:	04f13423          	sd	x15,72(x2)
    80007e48:	00040593          	addi	x11,x8,0
    80007e4c:	291010ef          	jal	x1,800098dc <__fma>
    80007e50:	05813603          	ld	x12,88(x2)
    80007e54:	00050793          	addi	x15,x10,0
    80007e58:	00040593          	addi	x11,x8,0
    80007e5c:	00048513          	addi	x10,x9,0
    80007e60:	04f13823          	sd	x15,80(x2)
    80007e64:	279010ef          	jal	x1,800098dc <__fma>
    80007e68:	06013603          	ld	x12,96(x2)
    80007e6c:	00050793          	addi	x15,x10,0
    80007e70:	00040593          	addi	x11,x8,0
    80007e74:	000a0513          	addi	x10,x20,0
    80007e78:	00078d13          	addi	x26,x15,0
    80007e7c:	261010ef          	jal	x1,800098dc <__fma>
    80007e80:	06813603          	ld	x12,104(x2)
    80007e84:	00050793          	addi	x15,x10,0
    80007e88:	00040593          	addi	x11,x8,0
    80007e8c:	000a8513          	addi	x10,x21,0
    80007e90:	04f13c23          	sd	x15,88(x2)
    80007e94:	249010ef          	jal	x1,800098dc <__fma>
    80007e98:	07013603          	ld	x12,112(x2)
    80007e9c:	00050793          	addi	x15,x10,0
    80007ea0:	00040593          	addi	x11,x8,0
    80007ea4:	000b0513          	addi	x10,x22,0
    80007ea8:	06f13023          	sd	x15,96(x2)
    80007eac:	231010ef          	jal	x1,800098dc <__fma>
    80007eb0:	02013683          	ld	x13,32(x2)
    80007eb4:	07813603          	ld	x12,120(x2)
    80007eb8:	00050793          	addi	x15,x10,0
    80007ebc:	0186b403          	ld	x8,24(x13)
    80007ec0:	00090513          	addi	x10,x18,0
    80007ec4:	06f13423          	sd	x15,104(x2)
    80007ec8:	00040593          	addi	x11,x8,0
    80007ecc:	211010ef          	jal	x1,800098dc <__fma>
    80007ed0:	0b013603          	ld	x12,176(x2)
    80007ed4:	00050793          	addi	x15,x10,0
    80007ed8:	00040593          	addi	x11,x8,0
    80007edc:	00048513          	addi	x10,x9,0
    80007ee0:	06f13823          	sd	x15,112(x2)
    80007ee4:	1f9010ef          	jal	x1,800098dc <__fma>
    80007ee8:	00050793          	addi	x15,x10,0
    80007eec:	000c8613          	addi	x12,x25,0
    80007ef0:	00040593          	addi	x11,x8,0
    80007ef4:	000a0513          	addi	x10,x20,0
    80007ef8:	00078c93          	addi	x25,x15,0
    80007efc:	1e1010ef          	jal	x1,800098dc <__fma>
    80007f00:	08013603          	ld	x12,128(x2)
    80007f04:	00050793          	addi	x15,x10,0
    80007f08:	00040593          	addi	x11,x8,0
    80007f0c:	000a8513          	addi	x10,x21,0
    80007f10:	06f13c23          	sd	x15,120(x2)
    80007f14:	1c9010ef          	jal	x1,800098dc <__fma>
    80007f18:	00050793          	addi	x15,x10,0
    80007f1c:	000b8613          	addi	x12,x23,0
    80007f20:	00040593          	addi	x11,x8,0
    80007f24:	000b0513          	addi	x10,x22,0
    80007f28:	00078b93          	addi	x23,x15,0
    80007f2c:	1b1010ef          	jal	x1,800098dc <__fma>
    80007f30:	01813583          	ld	x11,24(x2)
    80007f34:	08813603          	ld	x12,136(x2)
    80007f38:	00050793          	addi	x15,x10,0
    80007f3c:	0185b403          	ld	x8,24(x11)
    80007f40:	00090513          	addi	x10,x18,0
    80007f44:	08f13023          	sd	x15,128(x2)
    80007f48:	00040593          	addi	x11,x8,0
    80007f4c:	191010ef          	jal	x1,800098dc <__fma>
    80007f50:	09013603          	ld	x12,144(x2)
    80007f54:	00050793          	addi	x15,x10,0
    80007f58:	00040593          	addi	x11,x8,0
    80007f5c:	00048513          	addi	x10,x9,0
    80007f60:	08f13423          	sd	x15,136(x2)
    80007f64:	179010ef          	jal	x1,800098dc <__fma>
    80007f68:	00050793          	addi	x15,x10,0
    80007f6c:	000d8613          	addi	x12,x27,0
    80007f70:	00040593          	addi	x11,x8,0
    80007f74:	000a0513          	addi	x10,x20,0
    80007f78:	00078d93          	addi	x27,x15,0
    80007f7c:	161010ef          	jal	x1,800098dc <__fma>
    80007f80:	0b813603          	ld	x12,184(x2)
    80007f84:	00050793          	addi	x15,x10,0
    80007f88:	00040593          	addi	x11,x8,0
    80007f8c:	000a8513          	addi	x10,x21,0
    80007f90:	08f13823          	sd	x15,144(x2)
    80007f94:	149010ef          	jal	x1,800098dc <__fma>
    80007f98:	00050793          	addi	x15,x10,0
    80007f9c:	00098613          	addi	x12,x19,0
    80007fa0:	00040593          	addi	x11,x8,0
    80007fa4:	000b0513          	addi	x10,x22,0
    80007fa8:	0af13823          	sd	x15,176(x2)
    80007fac:	131010ef          	jal	x1,800098dc <__fma>
    80007fb0:	0c013b03          	ld	x22,192(x2)
    80007fb4:	020c3403          	ld	x8,32(x24)
    80007fb8:	02813603          	ld	x12,40(x2)
    80007fbc:	000b3903          	ld	x18,0(x22)
    80007fc0:	00050993          	addi	x19,x10,0
    80007fc4:	00040513          	addi	x10,x8,0
    80007fc8:	00090593          	addi	x11,x18,0
    80007fcc:	111010ef          	jal	x1,800098dc <__fma>
    80007fd0:	008b3483          	ld	x9,8(x22)
    80007fd4:	03013603          	ld	x12,48(x2)
    80007fd8:	00050793          	addi	x15,x10,0
    80007fdc:	00048593          	addi	x11,x9,0
    80007fe0:	00040513          	addi	x10,x8,0
    80007fe4:	02f13423          	sd	x15,40(x2)
    80007fe8:	0f5010ef          	jal	x1,800098dc <__fma>
    80007fec:	010b3a03          	ld	x20,16(x22)
    80007ff0:	03813603          	ld	x12,56(x2)
    80007ff4:	00050793          	addi	x15,x10,0
    80007ff8:	000a0593          	addi	x11,x20,0
    80007ffc:	00040513          	addi	x10,x8,0
    80008000:	02f13823          	sd	x15,48(x2)
    80008004:	0d9010ef          	jal	x1,800098dc <__fma>
    80008008:	018b3a83          	ld	x21,24(x22)
    8000800c:	04013603          	ld	x12,64(x2)
    80008010:	00050793          	addi	x15,x10,0
    80008014:	000a8593          	addi	x11,x21,0
    80008018:	00040513          	addi	x10,x8,0
    8000801c:	02f13c23          	sd	x15,56(x2)
    80008020:	0bd010ef          	jal	x1,800098dc <__fma>
    80008024:	020b3b03          	ld	x22,32(x22)
    80008028:	04813603          	ld	x12,72(x2)
    8000802c:	00050793          	addi	x15,x10,0
    80008030:	000b0593          	addi	x11,x22,0
    80008034:	00040513          	addi	x10,x8,0
    80008038:	04f13023          	sd	x15,64(x2)
    8000803c:	0a1010ef          	jal	x1,800098dc <__fma>
    80008040:	01013703          	ld	x14,16(x2)
    80008044:	05013603          	ld	x12,80(x2)
    80008048:	00050793          	addi	x15,x10,0
    8000804c:	02073403          	ld	x8,32(x14)
    80008050:	00090513          	addi	x10,x18,0
    80008054:	04f13423          	sd	x15,72(x2)
    80008058:	00040593          	addi	x11,x8,0
    8000805c:	081010ef          	jal	x1,800098dc <__fma>
    80008060:	00050793          	addi	x15,x10,0
    80008064:	000d0613          	addi	x12,x26,0
    80008068:	00040593          	addi	x11,x8,0
    8000806c:	00048513          	addi	x10,x9,0
    80008070:	00078d13          	addi	x26,x15,0
    80008074:	069010ef          	jal	x1,800098dc <__fma>
    80008078:	05813603          	ld	x12,88(x2)
    8000807c:	00050793          	addi	x15,x10,0
    80008080:	00040593          	addi	x11,x8,0
    80008084:	000a0513          	addi	x10,x20,0
    80008088:	04f13823          	sd	x15,80(x2)
    8000808c:	051010ef          	jal	x1,800098dc <__fma>
    80008090:	06013603          	ld	x12,96(x2)
    80008094:	00050793          	addi	x15,x10,0
    80008098:	00040593          	addi	x11,x8,0
    8000809c:	000a8513          	addi	x10,x21,0
    800080a0:	04f13c23          	sd	x15,88(x2)
    800080a4:	039010ef          	jal	x1,800098dc <__fma>
    800080a8:	06813603          	ld	x12,104(x2)
    800080ac:	00050793          	addi	x15,x10,0
    800080b0:	00040593          	addi	x11,x8,0
    800080b4:	000b0513          	addi	x10,x22,0
    800080b8:	06f13023          	sd	x15,96(x2)
    800080bc:	021010ef          	jal	x1,800098dc <__fma>
    800080c0:	02013683          	ld	x13,32(x2)
    800080c4:	07013603          	ld	x12,112(x2)
    800080c8:	00050793          	addi	x15,x10,0
    800080cc:	0206b403          	ld	x8,32(x13)
    800080d0:	00090513          	addi	x10,x18,0
    800080d4:	06f13423          	sd	x15,104(x2)
    800080d8:	00040593          	addi	x11,x8,0
    800080dc:	001010ef          	jal	x1,800098dc <__fma>
    800080e0:	00050793          	addi	x15,x10,0
    800080e4:	000c8613          	addi	x12,x25,0
    800080e8:	00040593          	addi	x11,x8,0
    800080ec:	00048513          	addi	x10,x9,0
    800080f0:	06f13823          	sd	x15,112(x2)
    800080f4:	7e8010ef          	jal	x1,800098dc <__fma>
    800080f8:	07813603          	ld	x12,120(x2)
    800080fc:	00050793          	addi	x15,x10,0
    80008100:	00040593          	addi	x11,x8,0
    80008104:	000a0513          	addi	x10,x20,0
    80008108:	06f13c23          	sd	x15,120(x2)
    8000810c:	7d0010ef          	jal	x1,800098dc <__fma>
    80008110:	00050793          	addi	x15,x10,0
    80008114:	000b8613          	addi	x12,x23,0
    80008118:	00040593          	addi	x11,x8,0
    8000811c:	000a8513          	addi	x10,x21,0
    80008120:	0af13c23          	sd	x15,184(x2)
    80008124:	7b8010ef          	jal	x1,800098dc <__fma>
    80008128:	08013603          	ld	x12,128(x2)
    8000812c:	00050793          	addi	x15,x10,0
    80008130:	00040593          	addi	x11,x8,0
    80008134:	000b0513          	addi	x10,x22,0
    80008138:	08f13023          	sd	x15,128(x2)
    8000813c:	7a0010ef          	jal	x1,800098dc <__fma>
    80008140:	01813583          	ld	x11,24(x2)
    80008144:	08813603          	ld	x12,136(x2)
    80008148:	00050793          	addi	x15,x10,0
    8000814c:	0205b403          	ld	x8,32(x11)
    80008150:	00090513          	addi	x10,x18,0
    80008154:	08f13423          	sd	x15,136(x2)
    80008158:	00040593          	addi	x11,x8,0
    8000815c:	780010ef          	jal	x1,800098dc <__fma>
    80008160:	00050793          	addi	x15,x10,0
    80008164:	000d8613          	addi	x12,x27,0
    80008168:	00040593          	addi	x11,x8,0
    8000816c:	00048513          	addi	x10,x9,0
    80008170:	00078d93          	addi	x27,x15,0
    80008174:	768010ef          	jal	x1,800098dc <__fma>
    80008178:	09013603          	ld	x12,144(x2)
    8000817c:	00050793          	addi	x15,x10,0
    80008180:	00040593          	addi	x11,x8,0
    80008184:	000a0513          	addi	x10,x20,0
    80008188:	08f13823          	sd	x15,144(x2)
    8000818c:	750010ef          	jal	x1,800098dc <__fma>
    80008190:	0b013603          	ld	x12,176(x2)
    80008194:	00050793          	addi	x15,x10,0
    80008198:	00040593          	addi	x11,x8,0
    8000819c:	000a8513          	addi	x10,x21,0
    800081a0:	0af13823          	sd	x15,176(x2)
    800081a4:	738010ef          	jal	x1,800098dc <__fma>
    800081a8:	00050793          	addi	x15,x10,0
    800081ac:	00098613          	addi	x12,x19,0
    800081b0:	00040593          	addi	x11,x8,0
    800081b4:	000b0513          	addi	x10,x22,0
    800081b8:	0cf13023          	sd	x15,192(x2)
    800081bc:	720010ef          	jal	x1,800098dc <__fma>
    800081c0:	0a813b83          	ld	x23,168(x2)
    800081c4:	028c3403          	ld	x8,40(x24)
    800081c8:	02813603          	ld	x12,40(x2)
    800081cc:	000bb903          	ld	x18,0(x23)
    800081d0:	00050a13          	addi	x20,x10,0
    800081d4:	00040513          	addi	x10,x8,0
    800081d8:	00090593          	addi	x11,x18,0
    800081dc:	700010ef          	jal	x1,800098dc <__fma>
    800081e0:	008bb483          	ld	x9,8(x23)
    800081e4:	03013603          	ld	x12,48(x2)
    800081e8:	00050993          	addi	x19,x10,0
    800081ec:	00048593          	addi	x11,x9,0
    800081f0:	00040513          	addi	x10,x8,0
    800081f4:	6e8010ef          	jal	x1,800098dc <__fma>
    800081f8:	010bba83          	ld	x21,16(x23)
    800081fc:	03813603          	ld	x12,56(x2)
    80008200:	00050c93          	addi	x25,x10,0
    80008204:	000a8593          	addi	x11,x21,0
    80008208:	00040513          	addi	x10,x8,0
    8000820c:	6d0010ef          	jal	x1,800098dc <__fma>
    80008210:	018bbb03          	ld	x22,24(x23)
    80008214:	04013603          	ld	x12,64(x2)
    80008218:	00050793          	addi	x15,x10,0
    8000821c:	000b0593          	addi	x11,x22,0
    80008220:	00040513          	addi	x10,x8,0
    80008224:	02f13423          	sd	x15,40(x2)
    80008228:	6b4010ef          	jal	x1,800098dc <__fma>
    8000822c:	020bbb83          	ld	x23,32(x23)
    80008230:	04813603          	ld	x12,72(x2)
    80008234:	00050793          	addi	x15,x10,0
    80008238:	000b8593          	addi	x11,x23,0
    8000823c:	00040513          	addi	x10,x8,0
    80008240:	02f13823          	sd	x15,48(x2)
    80008244:	698010ef          	jal	x1,800098dc <__fma>
    80008248:	01013703          	ld	x14,16(x2)
    8000824c:	00050793          	addi	x15,x10,0
    80008250:	000d0613          	addi	x12,x26,0
    80008254:	02873403          	ld	x8,40(x14)
    80008258:	00090513          	addi	x10,x18,0
    8000825c:	02f13c23          	sd	x15,56(x2)
    80008260:	00040593          	addi	x11,x8,0
    80008264:	678010ef          	jal	x1,800098dc <__fma>
    80008268:	05013603          	ld	x12,80(x2)
    8000826c:	00050793          	addi	x15,x10,0
    80008270:	00040593          	addi	x11,x8,0
    80008274:	00048513          	addi	x10,x9,0
    80008278:	04f13023          	sd	x15,64(x2)
    8000827c:	660010ef          	jal	x1,800098dc <__fma>
    80008280:	05813603          	ld	x12,88(x2)
    80008284:	00050793          	addi	x15,x10,0
    80008288:	00040593          	addi	x11,x8,0
    8000828c:	000a8513          	addi	x10,x21,0
    80008290:	04f13423          	sd	x15,72(x2)
    80008294:	648010ef          	jal	x1,800098dc <__fma>
    80008298:	06013603          	ld	x12,96(x2)
    8000829c:	00050793          	addi	x15,x10,0
    800082a0:	00040593          	addi	x11,x8,0
    800082a4:	000b0513          	addi	x10,x22,0
    800082a8:	04f13823          	sd	x15,80(x2)
    800082ac:	630010ef          	jal	x1,800098dc <__fma>
    800082b0:	06813603          	ld	x12,104(x2)
    800082b4:	00050793          	addi	x15,x10,0
    800082b8:	00040593          	addi	x11,x8,0
    800082bc:	000b8513          	addi	x10,x23,0
    800082c0:	04f13c23          	sd	x15,88(x2)
    800082c4:	618010ef          	jal	x1,800098dc <__fma>
    800082c8:	02013683          	ld	x13,32(x2)
    800082cc:	07013603          	ld	x12,112(x2)
    800082d0:	00050793          	addi	x15,x10,0
    800082d4:	0286b403          	ld	x8,40(x13)
    800082d8:	00090513          	addi	x10,x18,0
    800082dc:	02f13023          	sd	x15,32(x2)
    800082e0:	00040593          	addi	x11,x8,0
    800082e4:	5f8010ef          	jal	x1,800098dc <__fma>
    800082e8:	07813603          	ld	x12,120(x2)
    800082ec:	00040593          	addi	x11,x8,0
    800082f0:	00050d13          	addi	x26,x10,0
    800082f4:	00048513          	addi	x10,x9,0
    800082f8:	07a13023          	sd	x26,96(x2)
    800082fc:	5e0010ef          	jal	x1,800098dc <__fma>
    80008300:	0b813603          	ld	x12,184(x2)
    80008304:	00050793          	addi	x15,x10,0
    80008308:	00040593          	addi	x11,x8,0
    8000830c:	000a8513          	addi	x10,x21,0
    80008310:	06f13423          	sd	x15,104(x2)
    80008314:	5c8010ef          	jal	x1,800098dc <__fma>
    80008318:	08013603          	ld	x12,128(x2)
    8000831c:	00050793          	addi	x15,x10,0
    80008320:	00040593          	addi	x11,x8,0
    80008324:	000b0513          	addi	x10,x22,0
    80008328:	06f13823          	sd	x15,112(x2)
    8000832c:	5b0010ef          	jal	x1,800098dc <__fma>
    80008330:	08813603          	ld	x12,136(x2)
    80008334:	00050793          	addi	x15,x10,0
    80008338:	00040593          	addi	x11,x8,0
    8000833c:	000b8513          	addi	x10,x23,0
    80008340:	06f13c23          	sd	x15,120(x2)
    80008344:	598010ef          	jal	x1,800098dc <__fma>
    80008348:	01813583          	ld	x11,24(x2)
    8000834c:	00050793          	addi	x15,x10,0
    80008350:	000d8613          	addi	x12,x27,0
    80008354:	0285b403          	ld	x8,40(x11)
    80008358:	00090513          	addi	x10,x18,0
    8000835c:	00f13c23          	sd	x15,24(x2)
    80008360:	00040593          	addi	x11,x8,0
    80008364:	578010ef          	jal	x1,800098dc <__fma>
    80008368:	09013603          	ld	x12,144(x2)
    8000836c:	00050793          	addi	x15,x10,0
    80008370:	00040593          	addi	x11,x8,0
    80008374:	00048513          	addi	x10,x9,0
    80008378:	08f13023          	sd	x15,128(x2)
    8000837c:	560010ef          	jal	x1,800098dc <__fma>
    80008380:	0b013603          	ld	x12,176(x2)
    80008384:	00050793          	addi	x15,x10,0
    80008388:	00040593          	addi	x11,x8,0
    8000838c:	000a8513          	addi	x10,x21,0
    80008390:	08f13423          	sd	x15,136(x2)
    80008394:	548010ef          	jal	x1,800098dc <__fma>
    80008398:	0c013603          	ld	x12,192(x2)
    8000839c:	00050793          	addi	x15,x10,0
    800083a0:	00040593          	addi	x11,x8,0
    800083a4:	000b0513          	addi	x10,x22,0
    800083a8:	0af13823          	sd	x15,176(x2)
    800083ac:	530010ef          	jal	x1,800098dc <__fma>
    800083b0:	00050793          	addi	x15,x10,0
    800083b4:	000a0613          	addi	x12,x20,0
    800083b8:	000b8513          	addi	x10,x23,0
    800083bc:	00040593          	addi	x11,x8,0
    800083c0:	0af13c23          	sd	x15,184(x2)
    800083c4:	518010ef          	jal	x1,800098dc <__fma>
    800083c8:	09813783          	ld	x15,152(x2)
    800083cc:	10013683          	ld	x13,256(x2)
    800083d0:	01013703          	ld	x14,16(x2)
    800083d4:	0a813b83          	ld	x23,168(x2)
    800083d8:	00d787b3          	add	x15,x15,x13
    800083dc:	08f13c23          	sd	x15,152(x2)
    800083e0:	03070793          	addi	x15,x14,48
    800083e4:	0d813e03          	ld	x28,216(x2)
    800083e8:	00f13823          	sd	x15,16(x2)
    800083ec:	0e013783          	ld	x15,224(x2)
    800083f0:	030c0c13          	addi	x24,x24,48
    800083f4:	08a13823          	sd	x10,144(x2)
    800083f8:	017e0db3          	add	x27,x28,x23
    800083fc:	b4fc6c63          	bltu	x24,x15,80007754 <mm+0x29c>
    80008400:	00098d13          	addi	x26,x19,0
    80008404:	11813903          	ld	x18,280(x2)
    80008408:	11013983          	ld	x19,272(x2)
    8000840c:	12013a03          	ld	x20,288(x2)
    80008410:	12813783          	ld	x15,296(x2)
    80008414:	13013483          	ld	x9,304(x2)
    80008418:	15013703          	ld	x14,336(x2)
    8000841c:	0e013b83          	ld	x23,224(x2)
    80008420:	01470c33          	add	x24,x14,x20
    80008424:	0e813703          	ld	x14,232(x2)
    80008428:	26ebfa63          	bgeu	x23,x14,8000869c <mm+0x11e4>
    8000842c:	15813b03          	ld	x22,344(x2)
    80008430:	0c913c23          	sd	x9,216(x2)
    80008434:	0b013d83          	ld	x27,176(x2)
    80008438:	000b8493          	addi	x9,x23,0
    8000843c:	000b0b93          	addi	x23,x22,0
    80008440:	0b813b03          	ld	x22,184(x2)
    80008444:	09c13c23          	sd	x28,152(x2)
    80008448:	01913823          	sd	x25,16(x2)
    8000844c:	0b313423          	sd	x19,168(x2)
    80008450:	0d213023          	sd	x18,192(x2)
    80008454:	0d413423          	sd	x20,200(x2)
    80008458:	0cf13823          	sd	x15,208(x2)
    8000845c:	0004b403          	ld	x8,0(x9)
    80008460:	000c3a83          	ld	x21,0(x24)
    80008464:	000d0613          	addi	x12,x26,0
    80008468:	00040513          	addi	x10,x8,0
    8000846c:	000a8593          	addi	x11,x21,0
    80008470:	46c010ef          	jal	x1,800098dc <__fma>
    80008474:	008c3a03          	ld	x20,8(x24)
    80008478:	01013603          	ld	x12,16(x2)
    8000847c:	00050d13          	addi	x26,x10,0
    80008480:	000a0593          	addi	x11,x20,0
    80008484:	00040513          	addi	x10,x8,0
    80008488:	454010ef          	jal	x1,800098dc <__fma>
    8000848c:	010c3983          	ld	x19,16(x24)
    80008490:	02813603          	ld	x12,40(x2)
    80008494:	00050c93          	addi	x25,x10,0
    80008498:	00098593          	addi	x11,x19,0
    8000849c:	00040513          	addi	x10,x8,0
    800084a0:	01913823          	sd	x25,16(x2)
    800084a4:	438010ef          	jal	x1,800098dc <__fma>
    800084a8:	018c3903          	ld	x18,24(x24)
    800084ac:	03013603          	ld	x12,48(x2)
    800084b0:	00050713          	addi	x14,x10,0
    800084b4:	00090593          	addi	x11,x18,0
    800084b8:	00040513          	addi	x10,x8,0
    800084bc:	02e13423          	sd	x14,40(x2)
    800084c0:	41c010ef          	jal	x1,800098dc <__fma>
    800084c4:	020c3c83          	ld	x25,32(x24)
    800084c8:	03813603          	ld	x12,56(x2)
    800084cc:	00050713          	addi	x14,x10,0
    800084d0:	000c8593          	addi	x11,x25,0
    800084d4:	00040513          	addi	x10,x8,0
    800084d8:	02e13823          	sd	x14,48(x2)
    800084dc:	400010ef          	jal	x1,800098dc <__fma>
    800084e0:	000bb403          	ld	x8,0(x23)
    800084e4:	04013603          	ld	x12,64(x2)
    800084e8:	00050713          	addi	x14,x10,0
    800084ec:	00040593          	addi	x11,x8,0
    800084f0:	000a8513          	addi	x10,x21,0
    800084f4:	02e13c23          	sd	x14,56(x2)
    800084f8:	3e4010ef          	jal	x1,800098dc <__fma>
    800084fc:	04813603          	ld	x12,72(x2)
    80008500:	00050713          	addi	x14,x10,0
    80008504:	00040593          	addi	x11,x8,0
    80008508:	000a0513          	addi	x10,x20,0
    8000850c:	04e13023          	sd	x14,64(x2)
    80008510:	3cc010ef          	jal	x1,800098dc <__fma>
    80008514:	05013603          	ld	x12,80(x2)
    80008518:	00050713          	addi	x14,x10,0
    8000851c:	00040593          	addi	x11,x8,0
    80008520:	00098513          	addi	x10,x19,0
    80008524:	04e13423          	sd	x14,72(x2)
    80008528:	3b4010ef          	jal	x1,800098dc <__fma>
    8000852c:	05813603          	ld	x12,88(x2)
    80008530:	00050713          	addi	x14,x10,0
    80008534:	00040593          	addi	x11,x8,0
    80008538:	00090513          	addi	x10,x18,0
    8000853c:	04e13823          	sd	x14,80(x2)
    80008540:	39c010ef          	jal	x1,800098dc <__fma>
    80008544:	02013603          	ld	x12,32(x2)
    80008548:	00050713          	addi	x14,x10,0
    8000854c:	00040593          	addi	x11,x8,0
    80008550:	000c8513          	addi	x10,x25,0
    80008554:	04e13c23          	sd	x14,88(x2)
    80008558:	384010ef          	jal	x1,800098dc <__fma>
    8000855c:	0a013783          	ld	x15,160(x2)
    80008560:	06013603          	ld	x12,96(x2)
    80008564:	00050713          	addi	x14,x10,0
    80008568:	00f486b3          	add	x13,x9,x15
    8000856c:	0006b403          	ld	x8,0(x13)
    80008570:	000a8513          	addi	x10,x21,0
    80008574:	02e13023          	sd	x14,32(x2)
    80008578:	00040593          	addi	x11,x8,0
    8000857c:	360010ef          	jal	x1,800098dc <__fma>
    80008580:	06813603          	ld	x12,104(x2)
    80008584:	00050713          	addi	x14,x10,0
    80008588:	00040593          	addi	x11,x8,0
    8000858c:	000a0513          	addi	x10,x20,0
    80008590:	06e13023          	sd	x14,96(x2)
    80008594:	348010ef          	jal	x1,800098dc <__fma>
    80008598:	07013603          	ld	x12,112(x2)
    8000859c:	00050713          	addi	x14,x10,0
    800085a0:	00040593          	addi	x11,x8,0
    800085a4:	00098513          	addi	x10,x19,0
    800085a8:	06e13423          	sd	x14,104(x2)
    800085ac:	330010ef          	jal	x1,800098dc <__fma>
    800085b0:	07813603          	ld	x12,120(x2)
    800085b4:	00050713          	addi	x14,x10,0
    800085b8:	00040593          	addi	x11,x8,0
    800085bc:	00090513          	addi	x10,x18,0
    800085c0:	06e13823          	sd	x14,112(x2)
    800085c4:	318010ef          	jal	x1,800098dc <__fma>
    800085c8:	01813603          	ld	x12,24(x2)
    800085cc:	00050713          	addi	x14,x10,0
    800085d0:	00040593          	addi	x11,x8,0
    800085d4:	000c8513          	addi	x10,x25,0
    800085d8:	06e13c23          	sd	x14,120(x2)
    800085dc:	300010ef          	jal	x1,800098dc <__fma>
    800085e0:	0a013783          	ld	x15,160(x2)
    800085e4:	08013603          	ld	x12,128(x2)
    800085e8:	00050713          	addi	x14,x10,0
    800085ec:	00fb86b3          	add	x13,x23,x15
    800085f0:	0006b403          	ld	x8,0(x13)
    800085f4:	000a8513          	addi	x10,x21,0
    800085f8:	00e13c23          	sd	x14,24(x2)
    800085fc:	00040593          	addi	x11,x8,0
    80008600:	2dc010ef          	jal	x1,800098dc <__fma>
    80008604:	08813603          	ld	x12,136(x2)
    80008608:	00050713          	addi	x14,x10,0
    8000860c:	00040593          	addi	x11,x8,0
    80008610:	000a0513          	addi	x10,x20,0
    80008614:	08e13023          	sd	x14,128(x2)
    80008618:	2c4010ef          	jal	x1,800098dc <__fma>
    8000861c:	00050713          	addi	x14,x10,0
    80008620:	000d8613          	addi	x12,x27,0
    80008624:	00040593          	addi	x11,x8,0
    80008628:	00098513          	addi	x10,x19,0
    8000862c:	08e13423          	sd	x14,136(x2)
    80008630:	2ac010ef          	jal	x1,800098dc <__fma>
    80008634:	000b0613          	addi	x12,x22,0
    80008638:	00040593          	addi	x11,x8,0
    8000863c:	00050d93          	addi	x27,x10,0
    80008640:	00090513          	addi	x10,x18,0
    80008644:	298010ef          	jal	x1,800098dc <__fma>
    80008648:	09013603          	ld	x12,144(x2)
    8000864c:	00050b13          	addi	x22,x10,0
    80008650:	00040593          	addi	x11,x8,0
    80008654:	000c8513          	addi	x10,x25,0
    80008658:	284010ef          	jal	x1,800098dc <__fma>
    8000865c:	0f013783          	ld	x15,240(x2)
    80008660:	00848493          	addi	x9,x9,8
    80008664:	08a13823          	sd	x10,144(x2)
    80008668:	00fc0c33          	add	x24,x24,x15
    8000866c:	0e813783          	ld	x15,232(x2)
    80008670:	008b8b93          	addi	x23,x23,8
    80008674:	def4e4e3          	bltu	x9,x15,8000845c <mm+0xfa4>
    80008678:	09813e03          	ld	x28,152(x2)
    8000867c:	01013c83          	ld	x25,16(x2)
    80008680:	0a813983          	ld	x19,168(x2)
    80008684:	0c013903          	ld	x18,192(x2)
    80008688:	0c813a03          	ld	x20,200(x2)
    8000868c:	0d013783          	ld	x15,208(x2)
    80008690:	0d813483          	ld	x9,216(x2)
    80008694:	0bb13823          	sd	x27,176(x2)
    80008698:	0b613c23          	sd	x22,184(x2)
    8000869c:	02813703          	ld	x14,40(x2)
    800086a0:	01a4b023          	sd	x26,0(x9)
    800086a4:	0194b423          	sd	x25,8(x9)
    800086a8:	00e4b823          	sd	x14,16(x9)
    800086ac:	03013703          	ld	x14,48(x2)
    800086b0:	02848493          	addi	x9,x9,40
    800086b4:	02878793          	addi	x15,x15,40
    800086b8:	fee4b823          	sd	x14,-16(x9)
    800086bc:	03813703          	ld	x14,56(x2)
    800086c0:	028a0a13          	addi	x20,x20,40
    800086c4:	fee4bc23          	sd	x14,-8(x9)
    800086c8:	04013703          	ld	x14,64(x2)
    800086cc:	fce7bc23          	sd	x14,-40(x15)
    800086d0:	04813703          	ld	x14,72(x2)
    800086d4:	fee7b023          	sd	x14,-32(x15)
    800086d8:	05013703          	ld	x14,80(x2)
    800086dc:	fee7b423          	sd	x14,-24(x15)
    800086e0:	05813703          	ld	x14,88(x2)
    800086e4:	fee7b823          	sd	x14,-16(x15)
    800086e8:	02013703          	ld	x14,32(x2)
    800086ec:	fee7bc23          	sd	x14,-8(x15)
    800086f0:	06013703          	ld	x14,96(x2)
    800086f4:	00e93023          	sd	x14,0(x18)
    800086f8:	06813703          	ld	x14,104(x2)
    800086fc:	00e93423          	sd	x14,8(x18)
    80008700:	07013703          	ld	x14,112(x2)
    80008704:	00e93823          	sd	x14,16(x18)
    80008708:	07813703          	ld	x14,120(x2)
    8000870c:	00e93c23          	sd	x14,24(x18)
    80008710:	01813703          	ld	x14,24(x2)
    80008714:	02e93023          	sd	x14,32(x18)
    80008718:	08013703          	ld	x14,128(x2)
    8000871c:	00e9b023          	sd	x14,0(x19)
    80008720:	08813703          	ld	x14,136(x2)
    80008724:	00e9b423          	sd	x14,8(x19)
    80008728:	0b013703          	ld	x14,176(x2)
    8000872c:	14013683          	ld	x13,320(x2)
    80008730:	00e9b823          	sd	x14,16(x19)
    80008734:	0b813703          	ld	x14,184(x2)
    80008738:	00e9bc23          	sd	x14,24(x19)
    8000873c:	09013703          	ld	x14,144(x2)
    80008740:	02e9b023          	sd	x14,32(x19)
    80008744:	10813703          	ld	x14,264(x2)
    80008748:	00570713          	addi	x14,x14,5
    8000874c:	10e13423          	sd	x14,264(x2)
    80008750:	00d77463          	bgeu	x14,x13,80008758 <mm+0x12a0>
    80008754:	f21fe06f          	jal	x0,80007674 <mm+0x1bc>
    80008758:	16813903          	ld	x18,360(x2)
    8000875c:	17013403          	ld	x8,368(x2)
    80008760:	17813483          	ld	x9,376(x2)
    80008764:	13813683          	ld	x13,312(x2)
    80008768:	18013b83          	ld	x23,384(x2)
    8000876c:	1b013783          	ld	x15,432(x2)
    80008770:	1a813803          	ld	x16,424(x2)
    80008774:	1a013703          	ld	x14,416(x2)
    80008778:	00f13023          	sd	x15,0(x2)
    8000877c:	1e013783          	ld	x15,480(x2)
    80008780:	19813603          	ld	x12,408(x2)
    80008784:	1b813583          	ld	x11,440(x2)
    80008788:	008788b3          	add	x17,x15,x8
    8000878c:	1c013783          	ld	x15,448(x2)
    80008790:	00400513          	addi	x10,x0,4
    80008794:	01c13c23          	sd	x28,24(x2)
    80008798:	00d13823          	sd	x13,16(x2)
    8000879c:	865f90ef          	jal	x1,80002000 <mm_naive>
    800087a0:	0e813783          	ld	x15,232(x2)
    800087a4:	01013683          	ld	x13,16(x2)
    800087a8:	00490913          	addi	x18,x18,4
    800087ac:	009787b3          	add	x15,x15,x9
    800087b0:	0ef13423          	sd	x15,232(x2)
    800087b4:	0e013783          	ld	x15,224(x2)
    800087b8:	01813e03          	ld	x28,24(x2)
    800087bc:	009686b3          	add	x13,x13,x9
    800087c0:	009787b3          	add	x15,x15,x9
    800087c4:	0ef13023          	sd	x15,224(x2)
    800087c8:	1c813783          	ld	x15,456(x2)
    800087cc:	00f40433          	add	x8,x8,x15
    800087d0:	18813783          	ld	x15,392(x2)
    800087d4:	00f97463          	bgeu	x18,x15,800087dc <mm+0x1324>
    800087d8:	e49fe06f          	jal	x0,80007620 <mm+0x168>
    800087dc:	18813c83          	ld	x25,392(x2)
    800087e0:	1d013583          	ld	x11,464(x2)
    800087e4:	1e813a03          	ld	x20,488(x2)
    800087e8:	19013d03          	ld	x26,400(x2)
    800087ec:	19813603          	ld	x12,408(x2)
    800087f0:	1f013983          	ld	x19,496(x2)
    800087f4:	1a013d83          	ld	x27,416(x2)
    800087f8:	1d813783          	ld	x15,472(x2)
    800087fc:	1a813c03          	ld	x24,424(x2)
    80008800:	1f813b03          	ld	x22,504(x2)
    80008804:	1b013303          	ld	x6,432(x2)
    80008808:	26013403          	ld	x8,608(x2)
    8000880c:	25813483          	ld	x9,600(x2)
    80008810:	25013903          	ld	x18,592(x2)
    80008814:	23813a83          	ld	x21,568(x2)
    80008818:	02bc88b3          	mul	x17,x25,x11
    8000881c:	26813083          	ld	x1,616(x2)
    80008820:	419a0533          	sub	x10,x20,x25
    80008824:	000c0813          	addi	x16,x24,0
    80008828:	24013a03          	ld	x20,576(x2)
    8000882c:	22013c03          	ld	x24,544(x2)
    80008830:	000d8713          	addi	x14,x27,0
    80008834:	000d0593          	addi	x11,x26,0
    80008838:	20813d83          	ld	x27,520(x2)
    8000883c:	21013d03          	ld	x26,528(x2)
    80008840:	037c86b3          	mul	x13,x25,x23
    80008844:	011b08b3          	add	x17,x22,x17
    80008848:	22813b83          	ld	x23,552(x2)
    8000884c:	21813c83          	ld	x25,536(x2)
    80008850:	23013b03          	ld	x22,560(x2)
    80008854:	26613823          	sd	x6,624(x2)
    80008858:	00d986b3          	add	x13,x19,x13
    8000885c:	24813983          	ld	x19,584(x2)
    80008860:	27010113          	addi	x2,x2,624
    80008864:	f9cf906f          	jal	x0,80002000 <mm_naive>
    80008868:	26813083          	ld	x1,616(x2)
    8000886c:	000b0893          	addi	x17,x22,0
    80008870:	000c0813          	addi	x16,x24,0
    80008874:	23013b03          	ld	x22,560(x2)
    80008878:	22013c03          	ld	x24,544(x2)
    8000887c:	000d8713          	addi	x14,x27,0
    80008880:	00098693          	addi	x13,x19,0
    80008884:	20813d83          	ld	x27,520(x2)
    80008888:	24813983          	ld	x19,584(x2)
    8000888c:	000d0593          	addi	x11,x26,0
    80008890:	000a0513          	addi	x10,x20,0
    80008894:	21013d03          	ld	x26,528(x2)
    80008898:	24013a03          	ld	x20,576(x2)
    8000889c:	26613823          	sd	x6,624(x2)
    800088a0:	27010113          	addi	x2,x2,624
    800088a4:	a09f906f          	jal	x0,800022ac <mm_cb>

00000000800088a8 <barrier>:
    800088a8:	0ff0000f          	fence	iorw,iorw
    800088ac:	00022703          	lw	x14,0(x4) # 0 <threadsense.2>
    800088b0:	14c18693          	addi	x13,x3,332 # 8000bb6c <count.1>
    800088b4:	00100613          	addi	x12,x0,1
    800088b8:	00173713          	sltiu	x14,x14,1
    800088bc:	00e22023          	sw	x14,0(x4) # 0 <threadsense.2>
    800088c0:	0f50000f          	fence	iorw,ow
    800088c4:	04c6a72f          	amoadd.w.aq	x14,x12,(x13)
    800088c8:	fff5051b          	addiw	x10,x10,-1
    800088cc:	0007071b          	addiw	x14,x14,0
    800088d0:	00e50e63          	beq	x10,x14,800088ec <barrier+0x44>
    800088d4:	00022683          	lw	x13,0(x4) # 0 <threadsense.2>
    800088d8:	14818713          	addi	x14,x3,328 # 8000bb68 <sense.0>
    800088dc:	00072783          	lw	x15,0(x14)
    800088e0:	fed79ee3          	bne	x15,x13,800088dc <barrier+0x34>
    800088e4:	0ff0000f          	fence	iorw,iorw
    800088e8:	00008067          	jalr	x0,0(x1)
    800088ec:	00022783          	lw	x15,0(x4) # 0 <threadsense.2>
    800088f0:	1401a623          	sw	x0,332(x3) # 8000bb6c <count.1>
    800088f4:	14f1a423          	sw	x15,328(x3) # 8000bb68 <sense.0>
    800088f8:	fedff06f          	jal	x0,800088e4 <barrier+0x3c>

00000000800088fc <thread_entry>:
    800088fc:	f4010113          	addi	x2,x2,-192
    80008900:	fffff737          	lui	x14,0xfffff
    80008904:	0a113c23          	sd	x1,184(x2)
    80008908:	0a813823          	sd	x8,176(x2)
    8000890c:	0a913423          	sd	x9,168(x2)
    80008910:	0c010413          	addi	x8,x2,192
    80008914:	09313c23          	sd	x19,152(x2)
    80008918:	09413823          	sd	x20,144(x2)
    8000891c:	09513423          	sd	x21,136(x2)
    80008920:	09613023          	sd	x22,128(x2)
    80008924:	07713c23          	sd	x23,120(x2)
    80008928:	07813823          	sd	x24,112(x2)
    8000892c:	07913423          	sd	x25,104(x2)
    80008930:	0b213023          	sd	x18,160(x2)
    80008934:	07a13023          	sd	x26,96(x2)
    80008938:	05b13c23          	sd	x27,88(x2)
    8000893c:	e0070093          	addi	x1,x14,-512 # ffffffffffffee00 <_tbss_end+0xffffffff7fff31bc>
    80008940:	fffff7b7          	lui	x15,0xfffff
    80008944:	d4078293          	addi	x5,x15,-704 # ffffffffffffed40 <_tbss_end+0xffffffff7fff30fc>
    80008948:	00110133          	add	x2,x2,x1
    8000894c:	01010313          	addi	x6,x2,16
    80008950:	00001b37          	lui	x22,0x1
    80008954:	00510133          	add	x2,x2,x5
    80008958:	37ab74b7          	lui	x9,0x37ab7
    8000895c:	01010693          	addi	x13,x2,16
    80008960:	2c0b0393          	addi	x7,x22,704 # 12c0 <buflen.1+0x1240>
    80008964:	00510133          	add	x2,x2,x5
    80008968:	00249613          	slli	x12,x9,0x2
    8000896c:	00100993          	addi	x19,x0,1
    80008970:	f8643023          	sd	x6,-128(x8)
    80008974:	f8d43423          	sd	x13,-120(x8)
    80008978:	f6a43423          	sd	x10,-152(x8)
    8000897c:	f4b43c23          	sd	x11,-168(x8)
    80008980:	01010a13          	addi	x20,x2,16
    80008984:	0c030a93          	addi	x21,x6,192
    80008988:	00730c33          	add	x24,x6,x7
    8000898c:	eef60c93          	addi	x25,x12,-273
    80008990:	03e99b93          	slli	x23,x19,0x3e
    80008994:	f40a8913          	addi	x18,x21,-192
    80008998:	001cd513          	srli	x10,x25,0x1
    8000899c:	019545b3          	xor	x11,x10,x25
    800089a0:	03e59813          	slli	x16,x11,0x3e
    800089a4:	017878b3          	and	x17,x16,x23
    800089a8:	00a8ecb3          	or	x25,x17,x10
    800089ac:	001cdd13          	srli	x26,x25,0x1
    800089b0:	000c8513          	addi	x10,x25,0
    800089b4:	704020ef          	jal	x1,8000b0b8 <__floatundidf>
    800089b8:	019d4db3          	xor	x27,x26,x25
    800089bc:	03ed9e13          	slli	x28,x27,0x3e
    800089c0:	017e7eb3          	and	x29,x28,x23
    800089c4:	01aeeb33          	or	x22,x29,x26
    800089c8:	00a93023          	sd	x10,0(x18)
    800089cc:	000b0513          	addi	x10,x22,0
    800089d0:	6e8020ef          	jal	x1,8000b0b8 <__floatundidf>
    800089d4:	001b5f13          	srli	x30,x22,0x1
    800089d8:	016f4fb3          	xor	x31,x30,x22
    800089dc:	03ef9713          	slli	x14,x31,0x3e
    800089e0:	017777b3          	and	x15,x14,x23
    800089e4:	01e7e4b3          	or	x9,x15,x30
    800089e8:	00a93423          	sd	x10,8(x18)
    800089ec:	00048513          	addi	x10,x9,0 # 37ab7000 <buflen.1+0x37ab6f80>
    800089f0:	6c8020ef          	jal	x1,8000b0b8 <__floatundidf>
    800089f4:	0014d293          	srli	x5,x9,0x1
    800089f8:	0092c333          	xor	x6,x5,x9
    800089fc:	03e31693          	slli	x13,x6,0x3e
    80008a00:	0176f3b3          	and	x7,x13,x23
    80008a04:	0053e9b3          	or	x19,x7,x5
    80008a08:	00a93823          	sd	x10,16(x18)
    80008a0c:	00098513          	addi	x10,x19,0
    80008a10:	6a8020ef          	jal	x1,8000b0b8 <__floatundidf>
    80008a14:	0019d613          	srli	x12,x19,0x1
    80008a18:	013645b3          	xor	x11,x12,x19
    80008a1c:	03e59813          	slli	x16,x11,0x3e
    80008a20:	017878b3          	and	x17,x16,x23
    80008a24:	00c8ecb3          	or	x25,x17,x12
    80008a28:	00a93c23          	sd	x10,24(x18)
    80008a2c:	001cdd13          	srli	x26,x25,0x1
    80008a30:	000c8513          	addi	x10,x25,0
    80008a34:	684020ef          	jal	x1,8000b0b8 <__floatundidf>
    80008a38:	019d4db3          	xor	x27,x26,x25
    80008a3c:	03ed9e13          	slli	x28,x27,0x3e
    80008a40:	017e7eb3          	and	x29,x28,x23
    80008a44:	01aeeb33          	or	x22,x29,x26
    80008a48:	02a93023          	sd	x10,32(x18)
    80008a4c:	000b0513          	addi	x10,x22,0
    80008a50:	668020ef          	jal	x1,8000b0b8 <__floatundidf>
    80008a54:	001b5f13          	srli	x30,x22,0x1
    80008a58:	016f4fb3          	xor	x31,x30,x22
    80008a5c:	03ef9713          	slli	x14,x31,0x3e
    80008a60:	017777b3          	and	x15,x14,x23
    80008a64:	01e7e4b3          	or	x9,x15,x30
    80008a68:	02a93423          	sd	x10,40(x18)
    80008a6c:	00048513          	addi	x10,x9,0
    80008a70:	648020ef          	jal	x1,8000b0b8 <__floatundidf>
    80008a74:	0014d293          	srli	x5,x9,0x1
    80008a78:	0092c333          	xor	x6,x5,x9
    80008a7c:	03e31693          	slli	x13,x6,0x3e
    80008a80:	0176f3b3          	and	x7,x13,x23
    80008a84:	0053ecb3          	or	x25,x7,x5
    80008a88:	02a93823          	sd	x10,48(x18)
    80008a8c:	000c8513          	addi	x10,x25,0
    80008a90:	628020ef          	jal	x1,8000b0b8 <__floatundidf>
    80008a94:	02a93c23          	sd	x10,56(x18)
    80008a98:	04090913          	addi	x18,x18,64
    80008a9c:	ef591ee3          	bne	x18,x21,80008998 <thread_entry+0x9c>
    80008aa0:	0c090a93          	addi	x21,x18,192
    80008aa4:	ef8a98e3          	bne	x21,x24,80008994 <thread_entry+0x98>
    80008aa8:	f8843c03          	ld	x24,-120(x8)
    80008aac:	000010b7          	lui	x1,0x1
    80008ab0:	38808913          	addi	x18,x1,904 # 1388 <buflen.1+0x1308>
    80008ab4:	00100b93          	addi	x23,x0,1
    80008ab8:	0c8c0a93          	addi	x21,x24,200
    80008abc:	012c0db3          	add	x27,x24,x18
    80008ac0:	03eb9993          	slli	x19,x23,0x3e
    80008ac4:	001cd513          	srli	x10,x25,0x1
    80008ac8:	01954633          	xor	x12,x10,x25
    80008acc:	03e61593          	slli	x11,x12,0x3e
    80008ad0:	0135f833          	and	x16,x11,x19
    80008ad4:	00a86cb3          	or	x25,x16,x10
    80008ad8:	000c8513          	addi	x10,x25,0
    80008adc:	5dc020ef          	jal	x1,8000b0b8 <__floatundidf>
    80008ae0:	f2aabc23          	sd	x10,-200(x21)
    80008ae4:	f40a8d13          	addi	x26,x21,-192
    80008ae8:	001cd893          	srli	x17,x25,0x1
    80008aec:	0198ce33          	xor	x28,x17,x25
    80008af0:	03ee1e93          	slli	x29,x28,0x3e
    80008af4:	013efb33          	and	x22,x29,x19
    80008af8:	011b64b3          	or	x9,x22,x17
    80008afc:	00048513          	addi	x10,x9,0
    80008b00:	5b8020ef          	jal	x1,8000b0b8 <__floatundidf>
    80008b04:	0014df13          	srli	x30,x9,0x1
    80008b08:	009f4fb3          	xor	x31,x30,x9
    80008b0c:	03ef9713          	slli	x14,x31,0x3e
    80008b10:	013777b3          	and	x15,x14,x19
    80008b14:	01e7e933          	or	x18,x15,x30
    80008b18:	00ad3023          	sd	x10,0(x26)
    80008b1c:	00090513          	addi	x10,x18,0
    80008b20:	598020ef          	jal	x1,8000b0b8 <__floatundidf>
    80008b24:	00195293          	srli	x5,x18,0x1
    80008b28:	0122c333          	xor	x6,x5,x18
    80008b2c:	03e31693          	slli	x13,x6,0x3e
    80008b30:	0136f3b3          	and	x7,x13,x19
    80008b34:	0053ebb3          	or	x23,x7,x5
    80008b38:	00ad3423          	sd	x10,8(x26)
    80008b3c:	000b8513          	addi	x10,x23,0
    80008b40:	578020ef          	jal	x1,8000b0b8 <__floatundidf>
    80008b44:	001bdc13          	srli	x24,x23,0x1
    80008b48:	017c4633          	xor	x12,x24,x23
    80008b4c:	03e61593          	slli	x11,x12,0x3e
    80008b50:	0135f833          	and	x16,x11,x19
    80008b54:	01886cb3          	or	x25,x16,x24
    80008b58:	00ad3823          	sd	x10,16(x26)
    80008b5c:	000c8513          	addi	x10,x25,0
    80008b60:	558020ef          	jal	x1,8000b0b8 <__floatundidf>
    80008b64:	001cd893          	srli	x17,x25,0x1
    80008b68:	0198ce33          	xor	x28,x17,x25
    80008b6c:	03ee1e93          	slli	x29,x28,0x3e
    80008b70:	013efb33          	and	x22,x29,x19
    80008b74:	011b64b3          	or	x9,x22,x17
    80008b78:	00ad3c23          	sd	x10,24(x26)
    80008b7c:	00048513          	addi	x10,x9,0
    80008b80:	538020ef          	jal	x1,8000b0b8 <__floatundidf>
    80008b84:	0014df13          	srli	x30,x9,0x1
    80008b88:	009f4fb3          	xor	x31,x30,x9
    80008b8c:	03ef9713          	slli	x14,x31,0x3e
    80008b90:	013777b3          	and	x15,x14,x19
    80008b94:	01e7e933          	or	x18,x15,x30
    80008b98:	02ad3023          	sd	x10,32(x26)
    80008b9c:	00090513          	addi	x10,x18,0
    80008ba0:	518020ef          	jal	x1,8000b0b8 <__floatundidf>
    80008ba4:	00195293          	srli	x5,x18,0x1
    80008ba8:	0122c333          	xor	x6,x5,x18
    80008bac:	03e31693          	slli	x13,x6,0x3e
    80008bb0:	0136f3b3          	and	x7,x13,x19
    80008bb4:	0053ebb3          	or	x23,x7,x5
    80008bb8:	02ad3423          	sd	x10,40(x26)
    80008bbc:	000b8513          	addi	x10,x23,0
    80008bc0:	4f8020ef          	jal	x1,8000b0b8 <__floatundidf>
    80008bc4:	001bdc13          	srli	x24,x23,0x1
    80008bc8:	017c4633          	xor	x12,x24,x23
    80008bcc:	03e61593          	slli	x11,x12,0x3e
    80008bd0:	0135f833          	and	x16,x11,x19
    80008bd4:	01886cb3          	or	x25,x16,x24
    80008bd8:	02ad3823          	sd	x10,48(x26)
    80008bdc:	000c8513          	addi	x10,x25,0
    80008be0:	4d8020ef          	jal	x1,8000b0b8 <__floatundidf>
    80008be4:	02ad3c23          	sd	x10,56(x26)
    80008be8:	040d0d13          	addi	x26,x26,64
    80008bec:	ef5d1ee3          	bne	x26,x21,80008ae8 <thread_entry+0x1ec>
    80008bf0:	0c8d0a93          	addi	x21,x26,200
    80008bf4:	edba98e3          	bne	x21,x27,80008ac4 <thread_entry+0x1c8>
    80008bf8:	000010b7          	lui	x1,0x1
    80008bfc:	2c008613          	addi	x12,x1,704 # 12c0 <buflen.1+0x1240>
    80008c00:	00000593          	addi	x11,x0,0
    80008c04:	000a0513          	addi	x10,x20,0
    80008c08:	245000ef          	jal	x1,8000964c <memset>
    80008c0c:	00800b13          	addi	x22,x0,8
    80008c10:	01900d13          	addi	x26,x0,25
    80008c14:	b0202df3          	csrrs	x27,minstret,x0
    80008c18:	b0002cf3          	csrrs	x25,mcycle,x0
    80008c1c:	f8843783          	ld	x15,-120(x8)
    80008c20:	f8043683          	ld	x13,-128(x8)
    80008c24:	01900813          	addi	x16,x0,25
    80008c28:	01a13023          	sd	x26,0(x2)
    80008c2c:	000a0893          	addi	x17,x20,0
    80008c30:	01800713          	addi	x14,x0,24
    80008c34:	01800613          	addi	x12,x0,24
    80008c38:	01900593          	addi	x11,x0,25
    80008c3c:	01800513          	addi	x10,x0,24
    80008c40:	879fe0ef          	jal	x1,800074b8 <mm>
    80008c44:	b02029f3          	csrrs	x19,minstret,x0
    80008c48:	b0002573          	csrrs	x10,mcycle,x0
    80008c4c:	fffb0b1b          	addiw	x22,x22,-1
    80008c50:	fc0b12e3          	bne	x22,x0,80008c14 <thread_entry+0x318>
    80008c54:	41950933          	sub	x18,x10,x25
    80008c58:	0ff0000f          	fence	iorw,iorw
    80008c5c:	f6843483          	ld	x9,-152(x8)
    80008c60:	00600713          	addi	x14,x0,6
    80008c64:	01900813          	addi	x16,x0,25
    80008c68:	01800793          	addi	x15,x0,24
    80008c6c:	00500693          	addi	x13,x0,5
    80008c70:	01800893          	addi	x17,x0,24
    80008c74:	00400613          	addi	x12,x0,4
    80008c78:	00048593          	addi	x11,x9,0
    80008c7c:	00003517          	auipc	x10,0x3
    80008c80:	b7450513          	addi	x10,x10,-1164 # 8000b7f0 <.got.plt+0x5e0>
    80008c84:	0ad000ef          	jal	x1,80009530 <printf>
    80008c88:	41b9863b          	subw	x12,x19,x27
    80008c8c:	00048593          	addi	x11,x9,0
    80008c90:	00003517          	auipc	x10,0x3
    80008c94:	b9850513          	addi	x10,x10,-1128 # 8000b828 <.got.plt+0x618>
    80008c98:	099000ef          	jal	x1,80009530 <printf>
    80008c9c:	0009061b          	addiw	x12,x18,0
    80008ca0:	00048593          	addi	x11,x9,0
    80008ca4:	00003517          	auipc	x10,0x3
    80008ca8:	b9c50513          	addi	x10,x10,-1124 # 8000b840 <.got.plt+0x630>
    80008cac:	085000ef          	jal	x1,80009530 <printf>
    80008cb0:	000078b7          	lui	x17,0x7
    80008cb4:	08088613          	addi	x12,x17,128 # 7080 <buflen.1+0x7000>
    80008cb8:	00048593          	addi	x11,x9,0
    80008cbc:	00003517          	auipc	x10,0x3
    80008cc0:	b9450513          	addi	x10,x10,-1132 # 8000b850 <.got.plt+0x640>
    80008cc4:	06d000ef          	jal	x1,80009530 <printf>
    80008cc8:	01b77e37          	lui	x28,0x1b77
    80008ccc:	400e0e93          	addi	x29,x28,1024 # 1b77400 <buflen.1+0x1b77380>
    80008cd0:	032ed633          	divu	x12,x29,x18
    80008cd4:	00048593          	addi	x11,x9,0
    80008cd8:	00003517          	auipc	x10,0x3
    80008cdc:	b8850513          	addi	x10,x10,-1144 # 8000b860 <.got.plt+0x650>
    80008ce0:	01900d93          	addi	x27,x0,25
    80008ce4:	04d000ef          	jal	x1,80009530 <printf>
    80008ce8:	00001f37          	lui	x30,0x1
    80008cec:	ffffffb7          	lui	x31,0xfffff
    80008cf0:	f7443823          	sd	x20,-144(x8)
    80008cf4:	fff00713          	addi	x14,x0,-1
    80008cf8:	2c0f0a13          	addi	x20,x30,704 # 12c0 <buflen.1+0x1240>
    80008cfc:	f6043c23          	sd	x0,-136(x8)
    80008d00:	f7443023          	sd	x20,-160(x8)
    80008d04:	d40f8c93          	addi	x25,x31,-704 # ffffffffffffed40 <_tbss_end+0xffffffff7fff30fc>
    80008d08:	00002d17          	auipc	x26,0x2
    80008d0c:	518d3d03          	ld	x26,1304(x26) # 8000b220 <.got.plt+0x10>
    80008d10:	00175b93          	srli	x23,x14,0x1
    80008d14:	f7843783          	ld	x15,-136(x8)
    80008d18:	f6043c03          	ld	x24,-160(x8)
    80008d1c:	f8843383          	ld	x7,-120(x8)
    80008d20:	f8043603          	ld	x12,-128(x8)
    80008d24:	00179293          	slli	x5,x15,0x1
    80008d28:	00f28333          	add	x6,x5,x15
    80008d2c:	f7043b03          	ld	x22,-144(x8)
    80008d30:	00631693          	slli	x13,x6,0x6
    80008d34:	01838a33          	add	x20,x7,x24
    80008d38:	00000a93          	addi	x21,x0,0
    80008d3c:	00d60c33          	add	x24,x12,x13
    80008d40:	019a04b3          	add	x9,x20,x25
    80008d44:	000c0913          	addi	x18,x24,0
    80008d48:	00000993          	addi	x19,x0,0
    80008d4c:	0004b583          	ld	x11,0(x9)
    80008d50:	00093503          	ld	x10,0(x18)
    80008d54:	64048493          	addi	x9,x9,1600
    80008d58:	04090913          	addi	x18,x18,64
    80008d5c:	215010ef          	jal	x1,8000a770 <__muldf3>
    80008d60:	00050593          	addi	x11,x10,0
    80008d64:	00098513          	addi	x10,x19,0
    80008d68:	44c010ef          	jal	x1,8000a1b4 <__adddf3>
    80008d6c:	00050993          	addi	x19,x10,0
    80008d70:	a884b583          	ld	x11,-1400(x9)
    80008d74:	fc893503          	ld	x10,-56(x18)
    80008d78:	1f9010ef          	jal	x1,8000a770 <__muldf3>
    80008d7c:	00050593          	addi	x11,x10,0
    80008d80:	00098513          	addi	x10,x19,0
    80008d84:	430010ef          	jal	x1,8000a1b4 <__adddf3>
    80008d88:	00050993          	addi	x19,x10,0
    80008d8c:	b504b583          	ld	x11,-1200(x9)
    80008d90:	fd093503          	ld	x10,-48(x18)
    80008d94:	1dd010ef          	jal	x1,8000a770 <__muldf3>
    80008d98:	00050593          	addi	x11,x10,0
    80008d9c:	00098513          	addi	x10,x19,0
    80008da0:	414010ef          	jal	x1,8000a1b4 <__adddf3>
    80008da4:	00050993          	addi	x19,x10,0
    80008da8:	c184b583          	ld	x11,-1000(x9)
    80008dac:	fd893503          	ld	x10,-40(x18)
    80008db0:	1c1010ef          	jal	x1,8000a770 <__muldf3>
    80008db4:	00050593          	addi	x11,x10,0
    80008db8:	00098513          	addi	x10,x19,0
    80008dbc:	3f8010ef          	jal	x1,8000a1b4 <__adddf3>
    80008dc0:	00050993          	addi	x19,x10,0
    80008dc4:	ce04b583          	ld	x11,-800(x9)
    80008dc8:	fe093503          	ld	x10,-32(x18)
    80008dcc:	1a5010ef          	jal	x1,8000a770 <__muldf3>
    80008dd0:	00050593          	addi	x11,x10,0
    80008dd4:	00098513          	addi	x10,x19,0
    80008dd8:	3dc010ef          	jal	x1,8000a1b4 <__adddf3>
    80008ddc:	00050993          	addi	x19,x10,0
    80008de0:	da84b583          	ld	x11,-600(x9)
    80008de4:	fe893503          	ld	x10,-24(x18)
    80008de8:	189010ef          	jal	x1,8000a770 <__muldf3>
    80008dec:	00050593          	addi	x11,x10,0
    80008df0:	00098513          	addi	x10,x19,0
    80008df4:	3c0010ef          	jal	x1,8000a1b4 <__adddf3>
    80008df8:	00050993          	addi	x19,x10,0
    80008dfc:	e704b583          	ld	x11,-400(x9)
    80008e00:	ff093503          	ld	x10,-16(x18)
    80008e04:	16d010ef          	jal	x1,8000a770 <__muldf3>
    80008e08:	00050593          	addi	x11,x10,0
    80008e0c:	00098513          	addi	x10,x19,0
    80008e10:	3a4010ef          	jal	x1,8000a1b4 <__adddf3>
    80008e14:	00050993          	addi	x19,x10,0
    80008e18:	f384b583          	ld	x11,-200(x9)
    80008e1c:	ff893503          	ld	x10,-8(x18)
    80008e20:	151010ef          	jal	x1,8000a770 <__muldf3>
    80008e24:	00050593          	addi	x11,x10,0
    80008e28:	00098513          	addi	x10,x19,0
    80008e2c:	388010ef          	jal	x1,8000a1b4 <__adddf3>
    80008e30:	00050993          	addi	x19,x10,0
    80008e34:	f09a1ce3          	bne	x20,x9,80008d4c <thread_entry+0x450>
    80008e38:	000d0593          	addi	x11,x26,0
    80008e3c:	135010ef          	jal	x1,8000a770 <__muldf3>
    80008e40:	000b3983          	ld	x19,0(x22)
    80008e44:	00050593          	addi	x11,x10,0
    80008e48:	00050493          	addi	x9,x10,0
    80008e4c:	00098513          	addi	x10,x19,0
    80008e50:	541010ef          	jal	x1,8000ab90 <__subdf3>
    80008e54:	00002597          	auipc	x11,0x2
    80008e58:	3d458593          	addi	x11,x11,980 # 8000b228 <.got.plt+0x18>
    80008e5c:	0005b583          	ld	x11,0(x11)
    80008e60:	00050813          	addi	x16,x10,0
    80008e64:	00048513          	addi	x10,x9,0
    80008e68:	010bf933          	and	x18,x23,x16
    80008e6c:	105010ef          	jal	x1,8000a770 <__muldf3>
    80008e70:	00abf5b3          	and	x11,x23,x10
    80008e74:	00090513          	addi	x10,x18,0
    80008e78:	031010ef          	jal	x1,8000a6a8 <__gedf2>
    80008e7c:	04a04263          	blt	x0,x10,80008ec0 <thread_entry+0x5c4>
    80008e80:	001a8a93          	addi	x21,x21,1
    80008e84:	008b0b13          	addi	x22,x22,8
    80008e88:	008a0a13          	addi	x20,x20,8
    80008e8c:	ebba9ae3          	bne	x21,x27,80008d40 <thread_entry+0x444>
    80008e90:	f7843083          	ld	x1,-136(x8)
    80008e94:	f7043e03          	ld	x28,-144(x8)
    80008e98:	01800893          	addi	x17,x0,24
    80008e9c:	00108513          	addi	x10,x1,1
    80008ea0:	0c8e0e93          	addi	x29,x28,200
    80008ea4:	f6a43c23          	sd	x10,-136(x8)
    80008ea8:	f7d43823          	sd	x29,-144(x8)
    80008eac:	e71514e3          	bne	x10,x17,80008d14 <thread_entry+0x418>
    80008eb0:	f5843503          	ld	x10,-168(x8)
    80008eb4:	9f5ff0ef          	jal	x1,800088a8 <barrier>
    80008eb8:	00000513          	addi	x10,x0,0
    80008ebc:	574000ef          	jal	x1,80009430 <exit>
    80008ec0:	f7843603          	ld	x12,-136(x8)
    80008ec4:	f6843583          	ld	x11,-152(x8)
    80008ec8:	00048793          	addi	x15,x9,0
    80008ecc:	00098713          	addi	x14,x19,0
    80008ed0:	000a8693          	addi	x13,x21,0
    80008ed4:	00003517          	auipc	x10,0x3
    80008ed8:	9a450513          	addi	x10,x10,-1628 # 8000b878 <.got.plt+0x668>
    80008edc:	654000ef          	jal	x1,80009530 <printf>
    80008ee0:	00100513          	addi	x10,x0,1
    80008ee4:	54c000ef          	jal	x1,80009430 <exit>

0000000080008ee8 <vprintfmt>:
    80008ee8:	e9010113          	addi	x2,x2,-368
    80008eec:	16813023          	sd	x8,352(x2)
    80008ef0:	14913c23          	sd	x9,344(x2)
    80008ef4:	15213823          	sd	x18,336(x2)
    80008ef8:	15413023          	sd	x20,320(x2)
    80008efc:	13513c23          	sd	x21,312(x2)
    80008f00:	13613823          	sd	x22,304(x2)
    80008f04:	13713423          	sd	x23,296(x2)
    80008f08:	16113423          	sd	x1,360(x2)
    80008f0c:	15313423          	sd	x19,328(x2)
    80008f10:	13813023          	sd	x24,288(x2)
    80008f14:	11913c23          	sd	x25,280(x2)
    80008f18:	11b13423          	sd	x27,264(x2)
    80008f1c:	00050913          	addi	x18,x10,0
    80008f20:	00058493          	addi	x9,x11,0
    80008f24:	00060413          	addi	x8,x12,0
    80008f28:	00068b93          	addi	x23,x13,0
    80008f2c:	02500a13          	addi	x20,x0,37
    80008f30:	05500b13          	addi	x22,x0,85
    80008f34:	ec018a93          	addi	x21,x3,-320 # 8000b8e0 <.got.plt+0x6d0>
    80008f38:	0140006f          	jal	x0,80008f4c <vprintfmt+0x64>
    80008f3c:	04050c63          	beq	x10,x0,80008f94 <vprintfmt+0xac>
    80008f40:	00048593          	addi	x11,x9,0
    80008f44:	00140413          	addi	x8,x8,1
    80008f48:	000900e7          	jalr	x1,0(x18)
    80008f4c:	00044503          	lbu	x10,0(x8)
    80008f50:	ff4516e3          	bne	x10,x20,80008f3c <vprintfmt+0x54>
    80008f54:	00144683          	lbu	x13,1(x8)
    80008f58:	00140993          	addi	x19,x8,1
    80008f5c:	00098713          	addi	x14,x19,0
    80008f60:	02000c93          	addi	x25,x0,32
    80008f64:	fff00c13          	addi	x24,x0,-1
    80008f68:	fff00d93          	addi	x27,x0,-1
    80008f6c:	00000593          	addi	x11,x0,0
    80008f70:	fdd6879b          	addiw	x15,x13,-35
    80008f74:	0ff7f793          	andi	x15,x15,255
    80008f78:	00170413          	addi	x8,x14,1
    80008f7c:	06fb6663          	bltu	x22,x15,80008fe8 <vprintfmt+0x100>
    80008f80:	00279793          	slli	x15,x15,0x2
    80008f84:	015787b3          	add	x15,x15,x21
    80008f88:	0007a783          	lw	x15,0(x15)
    80008f8c:	015787b3          	add	x15,x15,x21
    80008f90:	00078067          	jalr	x0,0(x15)
    80008f94:	16813083          	ld	x1,360(x2)
    80008f98:	16013403          	ld	x8,352(x2)
    80008f9c:	15813483          	ld	x9,344(x2)
    80008fa0:	15013903          	ld	x18,336(x2)
    80008fa4:	14813983          	ld	x19,328(x2)
    80008fa8:	14013a03          	ld	x20,320(x2)
    80008fac:	13813a83          	ld	x21,312(x2)
    80008fb0:	13013b03          	ld	x22,304(x2)
    80008fb4:	12813b83          	ld	x23,296(x2)
    80008fb8:	12013c03          	ld	x24,288(x2)
    80008fbc:	11813c83          	ld	x25,280(x2)
    80008fc0:	10813d83          	ld	x27,264(x2)
    80008fc4:	17010113          	addi	x2,x2,368
    80008fc8:	00008067          	jalr	x0,0(x1)
    80008fcc:	00068c93          	addi	x25,x13,0
    80008fd0:	00174683          	lbu	x13,1(x14)
    80008fd4:	00040713          	addi	x14,x8,0
    80008fd8:	00170413          	addi	x8,x14,1
    80008fdc:	fdd6879b          	addiw	x15,x13,-35
    80008fe0:	0ff7f793          	andi	x15,x15,255
    80008fe4:	f8fb7ee3          	bgeu	x22,x15,80008f80 <vprintfmt+0x98>
    80008fe8:	00048593          	addi	x11,x9,0
    80008fec:	02500513          	addi	x10,x0,37
    80008ff0:	000900e7          	jalr	x1,0(x18)
    80008ff4:	00098413          	addi	x8,x19,0
    80008ff8:	f55ff06f          	jal	x0,80008f4c <vprintfmt+0x64>
    80008ffc:	fd068c1b          	addiw	x24,x13,-48
    80009000:	00174683          	lbu	x13,1(x14)
    80009004:	00900793          	addi	x15,x0,9
    80009008:	fd06871b          	addiw	x14,x13,-48
    8000900c:	0006861b          	addiw	x12,x13,0
    80009010:	2ee7e663          	bltu	x15,x14,800092fc <vprintfmt+0x414>
    80009014:	00040713          	addi	x14,x8,0
    80009018:	00900813          	addi	x16,x0,9
    8000901c:	00174683          	lbu	x13,1(x14)
    80009020:	002c179b          	slliw	x15,x24,0x2
    80009024:	018787bb          	addw	x15,x15,x24
    80009028:	0017979b          	slliw	x15,x15,0x1
    8000902c:	00c787bb          	addw	x15,x15,x12
    80009030:	fd06851b          	addiw	x10,x13,-48
    80009034:	00170713          	addi	x14,x14,1
    80009038:	fd078c1b          	addiw	x24,x15,-48
    8000903c:	0006861b          	addiw	x12,x13,0
    80009040:	fca87ee3          	bgeu	x16,x10,8000901c <vprintfmt+0x134>
    80009044:	f20dd6e3          	bge	x27,x0,80008f70 <vprintfmt+0x88>
    80009048:	000c0d93          	addi	x27,x24,0
    8000904c:	fff00c13          	addi	x24,x0,-1
    80009050:	f21ff06f          	jal	x0,80008f70 <vprintfmt+0x88>
    80009054:	00174683          	lbu	x13,1(x14)
    80009058:	00040713          	addi	x14,x8,0
    8000905c:	f15ff06f          	jal	x0,80008f70 <vprintfmt+0x88>
    80009060:	00048593          	addi	x11,x9,0
    80009064:	02500513          	addi	x10,x0,37
    80009068:	000900e7          	jalr	x1,0(x18)
    8000906c:	ee1ff06f          	jal	x0,80008f4c <vprintfmt+0x64>
    80009070:	000bac03          	lw	x24,0(x23)
    80009074:	00174683          	lbu	x13,1(x14)
    80009078:	008b8b93          	addi	x23,x23,8
    8000907c:	00040713          	addi	x14,x8,0
    80009080:	fc5ff06f          	jal	x0,80009044 <vprintfmt+0x15c>
    80009084:	00048593          	addi	x11,x9,0
    80009088:	03000513          	addi	x10,x0,48
    8000908c:	11a13823          	sd	x26,272(x2)
    80009090:	000900e7          	jalr	x1,0(x18)
    80009094:	00048593          	addi	x11,x9,0
    80009098:	07800513          	addi	x10,x0,120
    8000909c:	000900e7          	jalr	x1,0(x18)
    800090a0:	01000613          	addi	x12,x0,16
    800090a4:	008b8713          	addi	x14,x23,8
    800090a8:	000bb783          	ld	x15,0(x23)
    800090ac:	00070b93          	addi	x23,x14,0
    800090b0:	02c7f5b3          	remu	x11,x15,x12
    800090b4:	000c899b          	addiw	x19,x25,0
    800090b8:	00410693          	addi	x13,x2,4
    800090bc:	00100713          	addi	x14,x0,1
    800090c0:	00b12023          	sw	x11,0(x2)
    800090c4:	1ec7ea63          	bltu	x15,x12,800092b8 <vprintfmt+0x3d0>
    800090c8:	02c7d7b3          	divu	x15,x15,x12
    800090cc:	00468693          	addi	x13,x13,4
    800090d0:	00070c13          	addi	x24,x14,0
    800090d4:	0017071b          	addiw	x14,x14,1
    800090d8:	02c7f5b3          	remu	x11,x15,x12
    800090dc:	feb6ae23          	sw	x11,-4(x13)
    800090e0:	fec7f4e3          	bgeu	x15,x12,800090c8 <vprintfmt+0x1e0>
    800090e4:	fffd8c9b          	addiw	x25,x27,-1
    800090e8:	fff70d1b          	addiw	x26,x14,-1
    800090ec:	01b75c63          	bge	x14,x27,80009104 <vprintfmt+0x21c>
    800090f0:	00048593          	addi	x11,x9,0
    800090f4:	00098513          	addi	x10,x19,0
    800090f8:	fffc8c9b          	addiw	x25,x25,-1
    800090fc:	000900e7          	jalr	x1,0(x18)
    80009100:	ffac98e3          	bne	x25,x26,800090f0 <vprintfmt+0x208>
    80009104:	002c1c13          	slli	x24,x24,0x2
    80009108:	018109b3          	add	x19,x2,x24
    8000910c:	ffc10c93          	addi	x25,x2,-4
    80009110:	00900c13          	addi	x24,x0,9
    80009114:	0009a783          	lw	x15,0(x19)
    80009118:	03000513          	addi	x10,x0,48
    8000911c:	00fc7463          	bgeu	x24,x15,80009124 <vprintfmt+0x23c>
    80009120:	05700513          	addi	x10,x0,87
    80009124:	00048593          	addi	x11,x9,0
    80009128:	00a7853b          	addw	x10,x15,x10
    8000912c:	ffc98993          	addi	x19,x19,-4
    80009130:	000900e7          	jalr	x1,0(x18)
    80009134:	ff9990e3          	bne	x19,x25,80009114 <vprintfmt+0x22c>
    80009138:	11013d03          	ld	x26,272(x2)
    8000913c:	e11ff06f          	jal	x0,80008f4c <vprintfmt+0x64>
    80009140:	11a13823          	sd	x26,272(x2)
    80009144:	00100793          	addi	x15,x0,1
    80009148:	008b8c13          	addi	x24,x23,8
    8000914c:	00b7c463          	blt	x15,x11,80009154 <vprintfmt+0x26c>
    80009150:	16058863          	beq	x11,x0,800092c0 <vprintfmt+0x3d8>
    80009154:	000bb983          	ld	x19,0(x23)
    80009158:	1809c463          	blt	x19,x0,800092e0 <vprintfmt+0x3f8>
    8000915c:	00098793          	addi	x15,x19,0
    80009160:	000c0b93          	addi	x23,x24,0
    80009164:	00a00613          	addi	x12,x0,10
    80009168:	f49ff06f          	jal	x0,800090b0 <vprintfmt+0x1c8>
    8000916c:	00174683          	lbu	x13,1(x14)
    80009170:	0015859b          	addiw	x11,x11,1
    80009174:	00040713          	addi	x14,x8,0
    80009178:	df9ff06f          	jal	x0,80008f70 <vprintfmt+0x88>
    8000917c:	11a13823          	sd	x26,272(x2)
    80009180:	01000613          	addi	x12,x0,16
    80009184:	00100793          	addi	x15,x0,1
    80009188:	008b8713          	addi	x14,x23,8
    8000918c:	f0b7cee3          	blt	x15,x11,800090a8 <vprintfmt+0x1c0>
    80009190:	f0059ce3          	bne	x11,x0,800090a8 <vprintfmt+0x1c0>
    80009194:	000be783          	lwu	x15,0(x23)
    80009198:	00070b93          	addi	x23,x14,0
    8000919c:	f15ff06f          	jal	x0,800090b0 <vprintfmt+0x1c8>
    800091a0:	11a13823          	sd	x26,272(x2)
    800091a4:	000bbd03          	ld	x26,0(x23)
    800091a8:	008b8b93          	addi	x23,x23,8
    800091ac:	060d0063          	beq	x26,x0,8000920c <vprintfmt+0x324>
    800091b0:	0db05463          	bge	x0,x27,80009278 <vprintfmt+0x390>
    800091b4:	02d00793          	addi	x15,x0,45
    800091b8:	06fc9c63          	bne	x25,x15,80009230 <vprintfmt+0x348>
    800091bc:	000d4503          	lbu	x10,0(x26)
    800091c0:	02050863          	beq	x10,x0,800091f0 <vprintfmt+0x308>
    800091c4:	fff00993          	addi	x19,x0,-1
    800091c8:	000c4663          	blt	x24,x0,800091d4 <vprintfmt+0x2ec>
    800091cc:	fffc0c1b          	addiw	x24,x24,-1
    800091d0:	013c0e63          	beq	x24,x19,800091ec <vprintfmt+0x304>
    800091d4:	00048593          	addi	x11,x9,0
    800091d8:	000900e7          	jalr	x1,0(x18)
    800091dc:	001d4503          	lbu	x10,1(x26)
    800091e0:	fffd8d9b          	addiw	x27,x27,-1
    800091e4:	001d0d13          	addi	x26,x26,1
    800091e8:	fe0510e3          	bne	x10,x0,800091c8 <vprintfmt+0x2e0>
    800091ec:	f5b056e3          	bge	x0,x27,80009138 <vprintfmt+0x250>
    800091f0:	00048593          	addi	x11,x9,0
    800091f4:	02000513          	addi	x10,x0,32
    800091f8:	fffd8d9b          	addiw	x27,x27,-1
    800091fc:	000900e7          	jalr	x1,0(x18)
    80009200:	fe0d98e3          	bne	x27,x0,800091f0 <vprintfmt+0x308>
    80009204:	11013d03          	ld	x26,272(x2)
    80009208:	d45ff06f          	jal	x0,80008f4c <vprintfmt+0x64>
    8000920c:	00002d17          	auipc	x26,0x2
    80009210:	68cd0d13          	addi	x26,x26,1676 # 8000b898 <.got.plt+0x688>
    80009214:	02800513          	addi	x10,x0,40
    80009218:	fbb056e3          	bge	x0,x27,800091c4 <vprintfmt+0x2dc>
    8000921c:	02d00793          	addi	x15,x0,45
    80009220:	00002d17          	auipc	x26,0x2
    80009224:	678d0d13          	addi	x26,x26,1656 # 8000b898 <.got.plt+0x688>
    80009228:	02800513          	addi	x10,x0,40
    8000922c:	f8fc8ce3          	beq	x25,x15,800091c4 <vprintfmt+0x2dc>
    80009230:	000d861b          	addiw	x12,x27,0
    80009234:	000d0793          	addi	x15,x26,0
    80009238:	018d06b3          	add	x13,x26,x24
    8000923c:	000c1863          	bne	x24,x0,8000924c <vprintfmt+0x364>
    80009240:	0200006f          	jal	x0,80009260 <vprintfmt+0x378>
    80009244:	00178793          	addi	x15,x15,1
    80009248:	00d78663          	beq	x15,x13,80009254 <vprintfmt+0x36c>
    8000924c:	0007c703          	lbu	x14,0(x15)
    80009250:	fe071ae3          	bne	x14,x0,80009244 <vprintfmt+0x35c>
    80009254:	41a787b3          	sub	x15,x15,x26
    80009258:	40f60dbb          	subw	x27,x12,x15
    8000925c:	01b05e63          	bge	x0,x27,80009278 <vprintfmt+0x390>
    80009260:	000c8c9b          	addiw	x25,x25,0
    80009264:	00048593          	addi	x11,x9,0
    80009268:	000c8513          	addi	x10,x25,0
    8000926c:	fffd8d9b          	addiw	x27,x27,-1
    80009270:	000900e7          	jalr	x1,0(x18)
    80009274:	fe0d98e3          	bne	x27,x0,80009264 <vprintfmt+0x37c>
    80009278:	000d4503          	lbu	x10,0(x26)
    8000927c:	ea050ee3          	beq	x10,x0,80009138 <vprintfmt+0x250>
    80009280:	fff00993          	addi	x19,x0,-1
    80009284:	f45ff06f          	jal	x0,800091c8 <vprintfmt+0x2e0>
    80009288:	fffdc793          	xori	x15,x27,-1
    8000928c:	43f7d793          	srai	x15,x15,0x3f
    80009290:	00fdf7b3          	and	x15,x27,x15
    80009294:	00174683          	lbu	x13,1(x14)
    80009298:	00078d9b          	addiw	x27,x15,0
    8000929c:	00040713          	addi	x14,x8,0
    800092a0:	cd1ff06f          	jal	x0,80008f70 <vprintfmt+0x88>
    800092a4:	000ba503          	lw	x10,0(x23)
    800092a8:	00048593          	addi	x11,x9,0
    800092ac:	008b8b93          	addi	x23,x23,8
    800092b0:	000900e7          	jalr	x1,0(x18)
    800092b4:	c99ff06f          	jal	x0,80008f4c <vprintfmt+0x64>
    800092b8:	00000c13          	addi	x24,x0,0
    800092bc:	e29ff06f          	jal	x0,800090e4 <vprintfmt+0x1fc>
    800092c0:	000ba983          	lw	x19,0(x23)
    800092c4:	e95ff06f          	jal	x0,80009158 <vprintfmt+0x270>
    800092c8:	11a13823          	sd	x26,272(x2)
    800092cc:	00a00613          	addi	x12,x0,10
    800092d0:	eb5ff06f          	jal	x0,80009184 <vprintfmt+0x29c>
    800092d4:	11a13823          	sd	x26,272(x2)
    800092d8:	00800613          	addi	x12,x0,8
    800092dc:	ea9ff06f          	jal	x0,80009184 <vprintfmt+0x29c>
    800092e0:	00048593          	addi	x11,x9,0
    800092e4:	02d00513          	addi	x10,x0,45
    800092e8:	000900e7          	jalr	x1,0(x18)
    800092ec:	413007b3          	sub	x15,x0,x19
    800092f0:	000c0b93          	addi	x23,x24,0
    800092f4:	00a00613          	addi	x12,x0,10
    800092f8:	db9ff06f          	jal	x0,800090b0 <vprintfmt+0x1c8>
    800092fc:	00040713          	addi	x14,x8,0
    80009300:	d45ff06f          	jal	x0,80009044 <vprintfmt+0x15c>

0000000080009304 <sprintf_putch.0>:
    80009304:	0005b783          	ld	x15,0(x11)
    80009308:	00a78023          	sb	x10,0(x15)
    8000930c:	0005b783          	ld	x15,0(x11)
    80009310:	00178793          	addi	x15,x15,1
    80009314:	00f5b023          	sd	x15,0(x11)
    80009318:	00008067          	jalr	x0,0(x1)

000000008000931c <putchar>:
    8000931c:	08022803          	lw	x16,128(x4) # 80 <buflen.1>
    80009320:	04020793          	addi	x15,x4,64 # 40 <buf.2>
    80009324:	010787b3          	add	x15,x15,x16
    80009328:	f9010113          	addi	x2,x2,-112
    8000932c:	0018069b          	addiw	x13,x16,1
    80009330:	08d22023          	sw	x13,128(x4) # 80 <buflen.1>
    80009334:	00a78023          	sb	x10,0(x15)
    80009338:	03f10713          	addi	x14,x2,63
    8000933c:	00a00793          	addi	x15,x0,10
    80009340:	fc077713          	andi	x14,x14,-64
    80009344:	00f50c63          	beq	x10,x15,8000935c <putchar+0x40>
    80009348:	04000793          	addi	x15,x0,64
    8000934c:	00f68863          	beq	x13,x15,8000935c <putchar+0x40>
    80009350:	00000513          	addi	x10,x0,0
    80009354:	07010113          	addi	x2,x2,112
    80009358:	00008067          	jalr	x0,0(x1)
    8000935c:	04000793          	addi	x15,x0,64
    80009360:	00f73023          	sd	x15,0(x14)
    80009364:	00100793          	addi	x15,x0,1
    80009368:	00f73423          	sd	x15,8(x14)
    8000936c:	04020613          	addi	x12,x4,64 # 40 <buf.2>
    80009370:	00c73823          	sd	x12,16(x14)
    80009374:	00d73c23          	sd	x13,24(x14)
    80009378:	0ff0000f          	fence	iorw,iorw
    8000937c:	ffff8697          	auipc	x13,0xffff8
    80009380:	cc468693          	addi	x13,x13,-828 # 80001040 <fromhost>
    80009384:	ffff8797          	auipc	x15,0xffff8
    80009388:	c6e7be23          	sd	x14,-900(x15) # 80001000 <tohost>
    8000938c:	0006b783          	ld	x15,0(x13)
    80009390:	fe078ee3          	beq	x15,x0,8000938c <putchar+0x70>
    80009394:	ffff8797          	auipc	x15,0xffff8
    80009398:	ca07b623          	sd	x0,-852(x15) # 80001040 <fromhost>
    8000939c:	0ff0000f          	fence	iorw,iorw
    800093a0:	08022023          	sw	x0,128(x4) # 80 <buflen.1>
    800093a4:	00073783          	ld	x15,0(x14)
    800093a8:	00000513          	addi	x10,x0,0
    800093ac:	07010113          	addi	x2,x2,112
    800093b0:	00008067          	jalr	x0,0(x1)

00000000800093b4 <setStats>:
    800093b4:	b0002773          	csrrs	x14,mcycle,x0
    800093b8:	15018793          	addi	x15,x3,336 # 8000bb70 <counters>
    800093bc:	00050a63          	beq	x10,x0,800093d0 <setStats+0x1c>
    800093c0:	00e7b023          	sd	x14,0(x15)
    800093c4:	b0202773          	csrrs	x14,minstret,x0
    800093c8:	00e7b423          	sd	x14,8(x15)
    800093cc:	00008067          	jalr	x0,0(x1)
    800093d0:	0007b683          	ld	x13,0(x15)
    800093d4:	00002617          	auipc	x12,0x2
    800093d8:	4cc60613          	addi	x12,x12,1228 # 8000b8a0 <.got.plt+0x690>
    800093dc:	00c7b823          	sd	x12,16(x15)
    800093e0:	40d70733          	sub	x14,x14,x13
    800093e4:	00e7b023          	sd	x14,0(x15)
    800093e8:	b0202773          	csrrs	x14,minstret,x0
    800093ec:	0087b683          	ld	x13,8(x15)
    800093f0:	00002617          	auipc	x12,0x2
    800093f4:	4b860613          	addi	x12,x12,1208 # 8000b8a8 <.got.plt+0x698>
    800093f8:	00c7bc23          	sd	x12,24(x15)
    800093fc:	40d70733          	sub	x14,x14,x13
    80009400:	00e7b423          	sd	x14,8(x15)
    80009404:	00008067          	jalr	x0,0(x1)

0000000080009408 <tohost_exit>:
    80009408:	00151793          	slli	x15,x10,0x1
    8000940c:	0017e793          	ori	x15,x15,1
    80009410:	ffff8717          	auipc	x14,0xffff8
    80009414:	bef73823          	sd	x15,-1040(x14) # 80001000 <tohost>
    80009418:	0000006f          	jal	x0,80009418 <tohost_exit+0x10>

000000008000941c <handle_trap>:
    8000941c:	000017b7          	lui	x15,0x1
    80009420:	a7378793          	addi	x15,x15,-1421 # a73 <buflen.1+0x9f3>
    80009424:	ffff8717          	auipc	x14,0xffff8
    80009428:	bcf73e23          	sd	x15,-1060(x14) # 80001000 <tohost>
    8000942c:	0000006f          	jal	x0,8000942c <handle_trap+0x10>

0000000080009430 <exit>:
    80009430:	ff010113          	addi	x2,x2,-16
    80009434:	00113423          	sd	x1,8(x2)
    80009438:	fd1ff0ef          	jal	x1,80009408 <tohost_exit>

000000008000943c <abort>:
    8000943c:	10d00793          	addi	x15,x0,269
    80009440:	ffff8717          	auipc	x14,0xffff8
    80009444:	bcf73023          	sd	x15,-1088(x14) # 80001000 <tohost>
    80009448:	0000006f          	jal	x0,80009448 <abort+0xc>

000000008000944c <printstr>:
    8000944c:	00054783          	lbu	x15,0(x10)
    80009450:	f9010113          	addi	x2,x2,-112
    80009454:	03f10693          	addi	x13,x2,63
    80009458:	fc06f693          	andi	x13,x13,-64
    8000945c:	06078263          	beq	x15,x0,800094c0 <printstr+0x74>
    80009460:	00050793          	addi	x15,x10,0
    80009464:	0017c703          	lbu	x14,1(x15)
    80009468:	00178793          	addi	x15,x15,1
    8000946c:	fe071ce3          	bne	x14,x0,80009464 <printstr+0x18>
    80009470:	40a787b3          	sub	x15,x15,x10
    80009474:	04000713          	addi	x14,x0,64
    80009478:	00e6b023          	sd	x14,0(x13)
    8000947c:	00100713          	addi	x14,x0,1
    80009480:	00e6b423          	sd	x14,8(x13)
    80009484:	00a6b823          	sd	x10,16(x13)
    80009488:	00f6bc23          	sd	x15,24(x13)
    8000948c:	0ff0000f          	fence	iorw,iorw
    80009490:	ffff8717          	auipc	x14,0xffff8
    80009494:	bb070713          	addi	x14,x14,-1104 # 80001040 <fromhost>
    80009498:	ffff8797          	auipc	x15,0xffff8
    8000949c:	b6d7b423          	sd	x13,-1176(x15) # 80001000 <tohost>
    800094a0:	00073783          	ld	x15,0(x14)
    800094a4:	fe078ee3          	beq	x15,x0,800094a0 <printstr+0x54>
    800094a8:	ffff8797          	auipc	x15,0xffff8
    800094ac:	b807bc23          	sd	x0,-1128(x15) # 80001040 <fromhost>
    800094b0:	0ff0000f          	fence	iorw,iorw
    800094b4:	0006b783          	ld	x15,0(x13)
    800094b8:	07010113          	addi	x2,x2,112
    800094bc:	00008067          	jalr	x0,0(x1)
    800094c0:	00000793          	addi	x15,x0,0
    800094c4:	fb1ff06f          	jal	x0,80009474 <printstr+0x28>
    800094c8:	00050463          	beq	x10,x0,800094d0 <printstr+0x84>
    800094cc:	0000006f          	jal	x0,800094cc <printstr+0x80>
    800094d0:	00008067          	jalr	x0,0(x1)

00000000800094d4 <printhex>:
    800094d4:	fd010113          	addi	x2,x2,-48
    800094d8:	00050793          	addi	x15,x10,0
    800094dc:	02113423          	sd	x1,40(x2)
    800094e0:	00810513          	addi	x10,x2,8
    800094e4:	01710713          	addi	x14,x2,23
    800094e8:	00900813          	addi	x16,x0,9
    800094ec:	0080006f          	jal	x0,800094f4 <printhex+0x20>
    800094f0:	00068713          	addi	x14,x13,0
    800094f4:	00f7f613          	andi	x12,x15,15
    800094f8:	00060693          	addi	x13,x12,0
    800094fc:	03000593          	addi	x11,x0,48
    80009500:	00c87463          	bgeu	x16,x12,80009508 <printhex+0x34>
    80009504:	05700593          	addi	x11,x0,87
    80009508:	00b686bb          	addw	x13,x13,x11
    8000950c:	00d70023          	sb	x13,0(x14)
    80009510:	0047d793          	srli	x15,x15,0x4
    80009514:	fff70693          	addi	x13,x14,-1
    80009518:	fce51ce3          	bne	x10,x14,800094f0 <printhex+0x1c>
    8000951c:	00010c23          	sb	x0,24(x2)
    80009520:	f2dff0ef          	jal	x1,8000944c <printstr>
    80009524:	02813083          	ld	x1,40(x2)
    80009528:	03010113          	addi	x2,x2,48
    8000952c:	00008067          	jalr	x0,0(x1)

0000000080009530 <printf>:
    80009530:	fa010113          	addi	x2,x2,-96
    80009534:	02810313          	addi	x6,x2,40
    80009538:	02b13423          	sd	x11,40(x2)
    8000953c:	02c13823          	sd	x12,48(x2)
    80009540:	02d13c23          	sd	x13,56(x2)
    80009544:	00050613          	addi	x12,x10,0
    80009548:	00030693          	addi	x13,x6,0
    8000954c:	00000517          	auipc	x10,0x0
    80009550:	dd050513          	addi	x10,x10,-560 # 8000931c <putchar>
    80009554:	00000593          	addi	x11,x0,0
    80009558:	00113c23          	sd	x1,24(x2)
    8000955c:	04e13023          	sd	x14,64(x2)
    80009560:	04f13423          	sd	x15,72(x2)
    80009564:	05013823          	sd	x16,80(x2)
    80009568:	05113c23          	sd	x17,88(x2)
    8000956c:	00613423          	sd	x6,8(x2)
    80009570:	979ff0ef          	jal	x1,80008ee8 <vprintfmt>
    80009574:	01813083          	ld	x1,24(x2)
    80009578:	00000513          	addi	x10,x0,0
    8000957c:	06010113          	addi	x2,x2,96
    80009580:	00008067          	jalr	x0,0(x1)

0000000080009584 <sprintf>:
    80009584:	fa010113          	addi	x2,x2,-96
    80009588:	03010e13          	addi	x28,x2,48
    8000958c:	02813023          	sd	x8,32(x2)
    80009590:	00a13423          	sd	x10,8(x2)
    80009594:	00050413          	addi	x8,x10,0
    80009598:	02c13823          	sd	x12,48(x2)
    8000959c:	02d13c23          	sd	x13,56(x2)
    800095a0:	00058613          	addi	x12,x11,0
    800095a4:	00000517          	auipc	x10,0x0
    800095a8:	d6050513          	addi	x10,x10,-672 # 80009304 <sprintf_putch.0>
    800095ac:	00810593          	addi	x11,x2,8
    800095b0:	000e0693          	addi	x13,x28,0
    800095b4:	02113423          	sd	x1,40(x2)
    800095b8:	04f13423          	sd	x15,72(x2)
    800095bc:	04e13023          	sd	x14,64(x2)
    800095c0:	05013823          	sd	x16,80(x2)
    800095c4:	05113c23          	sd	x17,88(x2)
    800095c8:	01c13c23          	sd	x28,24(x2)
    800095cc:	91dff0ef          	jal	x1,80008ee8 <vprintfmt>
    800095d0:	00813783          	ld	x15,8(x2)
    800095d4:	00078023          	sb	x0,0(x15)
    800095d8:	00813503          	ld	x10,8(x2)
    800095dc:	02813083          	ld	x1,40(x2)
    800095e0:	4085053b          	subw	x10,x10,x8
    800095e4:	02013403          	ld	x8,32(x2)
    800095e8:	06010113          	addi	x2,x2,96
    800095ec:	00008067          	jalr	x0,0(x1)

00000000800095f0 <memcpy>:
    800095f0:	00c5e7b3          	or	x15,x11,x12
    800095f4:	00f567b3          	or	x15,x10,x15
    800095f8:	0077f793          	andi	x15,x15,7
    800095fc:	00c506b3          	add	x13,x10,x12
    80009600:	02078463          	beq	x15,x0,80009628 <memcpy+0x38>
    80009604:	00c58633          	add	x12,x11,x12
    80009608:	00050793          	addi	x15,x10,0
    8000960c:	02d57e63          	bgeu	x10,x13,80009648 <memcpy+0x58>
    80009610:	0005c703          	lbu	x14,0(x11)
    80009614:	00158593          	addi	x11,x11,1
    80009618:	00178793          	addi	x15,x15,1
    8000961c:	fee78fa3          	sb	x14,-1(x15)
    80009620:	feb618e3          	bne	x12,x11,80009610 <memcpy+0x20>
    80009624:	00008067          	jalr	x0,0(x1)
    80009628:	fed57ee3          	bgeu	x10,x13,80009624 <memcpy+0x34>
    8000962c:	00050793          	addi	x15,x10,0
    80009630:	0005b703          	ld	x14,0(x11)
    80009634:	00878793          	addi	x15,x15,8
    80009638:	00858593          	addi	x11,x11,8
    8000963c:	fee7bc23          	sd	x14,-8(x15)
    80009640:	fed7e8e3          	bltu	x15,x13,80009630 <memcpy+0x40>
    80009644:	00008067          	jalr	x0,0(x1)
    80009648:	00008067          	jalr	x0,0(x1)

000000008000964c <memset>:
    8000964c:	00c567b3          	or	x15,x10,x12
    80009650:	0077f793          	andi	x15,x15,7
    80009654:	00c50633          	add	x12,x10,x12
    80009658:	02078063          	beq	x15,x0,80009678 <memset+0x2c>
    8000965c:	0ff5f713          	andi	x14,x11,255
    80009660:	00050793          	addi	x15,x10,0
    80009664:	04c57663          	bgeu	x10,x12,800096b0 <memset+0x64>
    80009668:	00178793          	addi	x15,x15,1
    8000966c:	fee78fa3          	sb	x14,-1(x15)
    80009670:	fec79ce3          	bne	x15,x12,80009668 <memset+0x1c>
    80009674:	00008067          	jalr	x0,0(x1)
    80009678:	010107b7          	lui	x15,0x1010
    8000967c:	10178793          	addi	x15,x15,257 # 1010101 <buflen.1+0x1010081>
    80009680:	01079793          	slli	x15,x15,0x10
    80009684:	10178793          	addi	x15,x15,257
    80009688:	01079793          	slli	x15,x15,0x10
    8000968c:	0ff5f713          	andi	x14,x11,255
    80009690:	10178793          	addi	x15,x15,257
    80009694:	02f70733          	mul	x14,x14,x15
    80009698:	fcc57ee3          	bgeu	x10,x12,80009674 <memset+0x28>
    8000969c:	00050793          	addi	x15,x10,0
    800096a0:	00878793          	addi	x15,x15,8
    800096a4:	fee7bc23          	sd	x14,-8(x15)
    800096a8:	fec7ece3          	bltu	x15,x12,800096a0 <memset+0x54>
    800096ac:	00008067          	jalr	x0,0(x1)
    800096b0:	00008067          	jalr	x0,0(x1)

00000000800096b4 <_init>:
    800096b4:	f5010113          	addi	x2,x2,-176
    800096b8:	17018793          	addi	x15,x3,368 # 8000bb90 <_tdata_begin>
    800096bc:	09413023          	sd	x20,128(x2)
    800096c0:	17018a13          	addi	x20,x3,368 # 8000bb90 <_tdata_begin>
    800096c4:	09313423          	sd	x19,136(x2)
    800096c8:	40fa09b3          	sub	x19,x20,x15
    800096cc:	08913c23          	sd	x9,152(x2)
    800096d0:	09213823          	sd	x18,144(x2)
    800096d4:	00050493          	addi	x9,x10,0
    800096d8:	00058913          	addi	x18,x11,0
    800096dc:	00020513          	addi	x10,x4,0 # 0 <threadsense.2>
    800096e0:	00078593          	addi	x11,x15,0
    800096e4:	00098613          	addi	x12,x19,0
    800096e8:	0a113423          	sd	x1,168(x2)
    800096ec:	0a813023          	sd	x8,160(x2)
    800096f0:	07513c23          	sd	x21,120(x2)
    800096f4:	00020a93          	addi	x21,x4,0 # 0 <threadsense.2>
    800096f8:	ef9ff0ef          	jal	x1,800095f0 <memcpy>
    800096fc:	22418613          	addi	x12,x3,548 # 8000bc44 <_tbss_end>
    80009700:	41460633          	sub	x12,x12,x20
    80009704:	00000593          	addi	x11,x0,0
    80009708:	013a8533          	add	x10,x21,x19
    8000970c:	f41ff0ef          	jal	x1,8000964c <memset>
    80009710:	00090593          	addi	x11,x18,0
    80009714:	00048513          	addi	x10,x9,0
    80009718:	9e4ff0ef          	jal	x1,800088fc <thread_entry>
    8000971c:	00000593          	addi	x11,x0,0
    80009720:	00000513          	addi	x10,x0,0
    80009724:	2b5010ef          	jal	x1,8000b1d8 <main>
    80009728:	15018913          	addi	x18,x3,336 # 8000bb70 <counters>
    8000972c:	00093683          	ld	x13,0(x18)
    80009730:	03f10413          	addi	x8,x2,63
    80009734:	fc047413          	andi	x8,x8,-64
    80009738:	00050493          	addi	x9,x10,0
    8000973c:	04069063          	bne	x13,x0,8000977c <_init+0xc8>
    80009740:	00893683          	ld	x13,8(x18)
    80009744:	00069663          	bne	x13,x0,80009750 <_init+0x9c>
    80009748:	00048513          	addi	x10,x9,0
    8000974c:	cbdff0ef          	jal	x1,80009408 <tohost_exit>
    80009750:	00040993          	addi	x19,x8,0
    80009754:	01893603          	ld	x12,24(x18)
    80009758:	00098513          	addi	x10,x19,0
    8000975c:	00002597          	auipc	x11,0x2
    80009760:	17458593          	addi	x11,x11,372 # 8000b8d0 <.got.plt+0x6c0>
    80009764:	e21ff0ef          	jal	x1,80009584 <sprintf>
    80009768:	00a989b3          	add	x19,x19,x10
    8000976c:	fd340ee3          	beq	x8,x19,80009748 <_init+0x94>
    80009770:	00040513          	addi	x10,x8,0
    80009774:	cd9ff0ef          	jal	x1,8000944c <printstr>
    80009778:	fd1ff06f          	jal	x0,80009748 <_init+0x94>
    8000977c:	01093603          	ld	x12,16(x18)
    80009780:	00002597          	auipc	x11,0x2
    80009784:	15058593          	addi	x11,x11,336 # 8000b8d0 <.got.plt+0x6c0>
    80009788:	00040513          	addi	x10,x8,0
    8000978c:	df9ff0ef          	jal	x1,80009584 <sprintf>
    80009790:	00893683          	ld	x13,8(x18)
    80009794:	00a409b3          	add	x19,x8,x10
    80009798:	fc068ae3          	beq	x13,x0,8000976c <_init+0xb8>
    8000979c:	fb9ff06f          	jal	x0,80009754 <_init+0xa0>

00000000800097a0 <strlen>:
    800097a0:	00054783          	lbu	x15,0(x10)
    800097a4:	00078e63          	beq	x15,x0,800097c0 <strlen+0x20>
    800097a8:	00050793          	addi	x15,x10,0
    800097ac:	0017c703          	lbu	x14,1(x15)
    800097b0:	00178793          	addi	x15,x15,1
    800097b4:	fe071ce3          	bne	x14,x0,800097ac <strlen+0xc>
    800097b8:	40a78533          	sub	x10,x15,x10
    800097bc:	00008067          	jalr	x0,0(x1)
    800097c0:	00000513          	addi	x10,x0,0
    800097c4:	00008067          	jalr	x0,0(x1)

00000000800097c8 <strnlen>:
    800097c8:	00b506b3          	add	x13,x10,x11
    800097cc:	00050793          	addi	x15,x10,0
    800097d0:	00059863          	bne	x11,x0,800097e0 <strnlen+0x18>
    800097d4:	0240006f          	jal	x0,800097f8 <strnlen+0x30>
    800097d8:	00178793          	addi	x15,x15,1
    800097dc:	00f68a63          	beq	x13,x15,800097f0 <strnlen+0x28>
    800097e0:	0007c703          	lbu	x14,0(x15)
    800097e4:	fe071ae3          	bne	x14,x0,800097d8 <strnlen+0x10>
    800097e8:	40a78533          	sub	x10,x15,x10
    800097ec:	00008067          	jalr	x0,0(x1)
    800097f0:	40a68533          	sub	x10,x13,x10
    800097f4:	00008067          	jalr	x0,0(x1)
    800097f8:	00000513          	addi	x10,x0,0
    800097fc:	00008067          	jalr	x0,0(x1)

0000000080009800 <strcmp>:
    80009800:	00054783          	lbu	x15,0(x10)
    80009804:	00158593          	addi	x11,x11,1
    80009808:	00150513          	addi	x10,x10,1
    8000980c:	fff5c703          	lbu	x14,-1(x11)
    80009810:	00078a63          	beq	x15,x0,80009824 <strcmp+0x24>
    80009814:	fee786e3          	beq	x15,x14,80009800 <strcmp>
    80009818:	0007851b          	addiw	x10,x15,0
    8000981c:	40e5053b          	subw	x10,x10,x14
    80009820:	00008067          	jalr	x0,0(x1)
    80009824:	00000513          	addi	x10,x0,0
    80009828:	ff5ff06f          	jal	x0,8000981c <strcmp+0x1c>

000000008000982c <strcpy>:
    8000982c:	00050793          	addi	x15,x10,0
    80009830:	0005c703          	lbu	x14,0(x11)
    80009834:	00178793          	addi	x15,x15,1
    80009838:	00158593          	addi	x11,x11,1
    8000983c:	fee78fa3          	sb	x14,-1(x15)
    80009840:	fe0718e3          	bne	x14,x0,80009830 <strcpy+0x4>
    80009844:	00008067          	jalr	x0,0(x1)

0000000080009848 <atol>:
    80009848:	00054703          	lbu	x14,0(x10)
    8000984c:	02000693          	addi	x13,x0,32
    80009850:	00050793          	addi	x15,x10,0
    80009854:	00d71863          	bne	x14,x13,80009864 <atol+0x1c>
    80009858:	0017c703          	lbu	x14,1(x15)
    8000985c:	00178793          	addi	x15,x15,1
    80009860:	fed70ce3          	beq	x14,x13,80009858 <atol+0x10>
    80009864:	02d00693          	addi	x13,x0,45
    80009868:	04d70e63          	beq	x14,x13,800098c4 <atol+0x7c>
    8000986c:	02b00693          	addi	x13,x0,43
    80009870:	04d70063          	beq	x14,x13,800098b0 <atol+0x68>
    80009874:	0007c683          	lbu	x13,0(x15)
    80009878:	00000593          	addi	x11,x0,0
    8000987c:	04068c63          	beq	x13,x0,800098d4 <atol+0x8c>
    80009880:	00000513          	addi	x10,x0,0
    80009884:	00178793          	addi	x15,x15,1
    80009888:	00251713          	slli	x14,x10,0x2
    8000988c:	fd06861b          	addiw	x12,x13,-48
    80009890:	0007c683          	lbu	x13,0(x15)
    80009894:	00a70733          	add	x14,x14,x10
    80009898:	00171713          	slli	x14,x14,0x1
    8000989c:	00e60533          	add	x10,x12,x14
    800098a0:	fe0692e3          	bne	x13,x0,80009884 <atol+0x3c>
    800098a4:	02058a63          	beq	x11,x0,800098d8 <atol+0x90>
    800098a8:	40a00533          	sub	x10,x0,x10
    800098ac:	00008067          	jalr	x0,0(x1)
    800098b0:	0017c683          	lbu	x13,1(x15)
    800098b4:	00178793          	addi	x15,x15,1
    800098b8:	00068e63          	beq	x13,x0,800098d4 <atol+0x8c>
    800098bc:	00000593          	addi	x11,x0,0
    800098c0:	fc1ff06f          	jal	x0,80009880 <atol+0x38>
    800098c4:	0017c683          	lbu	x13,1(x15)
    800098c8:	00100593          	addi	x11,x0,1
    800098cc:	00178793          	addi	x15,x15,1
    800098d0:	fa0698e3          	bne	x13,x0,80009880 <atol+0x38>
    800098d4:	00000513          	addi	x10,x0,0
    800098d8:	00008067          	jalr	x0,0(x1)

00000000800098dc <__fma>:
    800098dc:	f8010113          	addi	x2,x2,-128
    800098e0:	03455793          	srli	x15,x10,0x34
    800098e4:	06913423          	sd	x9,104(x2)
    800098e8:	05313c23          	sd	x19,88(x2)
    800098ec:	05513423          	sd	x21,72(x2)
    800098f0:	00c51713          	slli	x14,x10,0xc
    800098f4:	06113c23          	sd	x1,120(x2)
    800098f8:	06813823          	sd	x8,112(x2)
    800098fc:	07213023          	sd	x18,96(x2)
    80009900:	05413823          	sd	x20,80(x2)
    80009904:	05613023          	sd	x22,64(x2)
    80009908:	03713c23          	sd	x23,56(x2)
    8000990c:	03813823          	sd	x24,48(x2)
    80009910:	03913423          	sd	x25,40(x2)
    80009914:	03a13023          	sd	x26,32(x2)
    80009918:	01b13c23          	sd	x27,24(x2)
    8000991c:	7ff7f793          	andi	x15,x15,2047
    80009920:	00060493          	addi	x9,x12,0
    80009924:	00c75a93          	srli	x21,x14,0xc
    80009928:	03f55993          	srli	x19,x10,0x3f
    8000992c:	28078863          	beq	x15,x0,80009bbc <__fma+0x2e0>
    80009930:	7ff00693          	addi	x13,x0,2047
    80009934:	0ed78a63          	beq	x15,x13,80009a28 <__fma+0x14c>
    80009938:	00100693          	addi	x13,x0,1
    8000993c:	003a9713          	slli	x14,x21,0x3
    80009940:	03769693          	slli	x13,x13,0x37
    80009944:	00d76ab3          	or	x21,x14,x13
    80009948:	c0178b13          	addi	x22,x15,-1023
    8000994c:	00000913          	addi	x18,x0,0
    80009950:	00000d13          	addi	x26,x0,0
    80009954:	0345d793          	srli	x15,x11,0x34
    80009958:	00c59513          	slli	x10,x11,0xc
    8000995c:	7ff7f793          	andi	x15,x15,2047
    80009960:	00c55a13          	srli	x20,x10,0xc
    80009964:	03f5d413          	srli	x8,x11,0x3f
    80009968:	0e078463          	beq	x15,x0,80009a50 <__fma+0x174>
    8000996c:	7ff00693          	addi	x13,x0,2047
    80009970:	22d78c63          	beq	x15,x13,80009ba8 <__fma+0x2cc>
    80009974:	00100693          	addi	x13,x0,1
    80009978:	003a1513          	slli	x10,x20,0x3
    8000997c:	03769693          	slli	x13,x13,0x37
    80009980:	c0178793          	addi	x15,x15,-1023
    80009984:	00d56a33          	or	x20,x10,x13
    80009988:	00fb0b33          	add	x22,x22,x15
    8000998c:	00090613          	addi	x12,x18,0
    80009990:	00000c93          	addi	x25,x0,0
    80009994:	0344d713          	srli	x14,x9,0x34
    80009998:	00c49513          	slli	x10,x9,0xc
    8000999c:	7ff77793          	andi	x15,x14,2047
    800099a0:	03f4d493          	srli	x9,x9,0x3f
    800099a4:	00c55b93          	srli	x23,x10,0xc
    800099a8:	00048c13          	addi	x24,x9,0
    800099ac:	0089cdb3          	xor	x27,x19,x8
    800099b0:	0c078663          	beq	x15,x0,80009a7c <__fma+0x1a0>
    800099b4:	7ff00693          	addi	x13,x0,2047
    800099b8:	1ad78463          	beq	x15,x13,80009b60 <__fma+0x284>
    800099bc:	00100693          	addi	x13,x0,1
    800099c0:	003b9513          	slli	x10,x23,0x3
    800099c4:	03769693          	slli	x13,x13,0x37
    800099c8:	00d56bb3          	or	x23,x10,x13
    800099cc:	c0178593          	addi	x11,x15,-1023
    800099d0:	00000513          	addi	x10,x0,0
    800099d4:	00a00693          	addi	x13,x0,10
    800099d8:	0ac6cc63          	blt	x13,x12,80009a90 <__fma+0x1b4>
    800099dc:	00200693          	addi	x13,x0,2
    800099e0:	2cc6d463          	bge	x13,x12,80009ca8 <__fma+0x3cc>
    800099e4:	00100713          	addi	x14,x0,1
    800099e8:	00c71733          	sll	x14,x14,x12
    800099ec:	53077793          	andi	x15,x14,1328
    800099f0:	0a079a63          	bne	x15,x0,80009aa4 <__fma+0x1c8>
    800099f4:	24077793          	andi	x15,x14,576
    800099f8:	0c079c63          	bne	x15,x0,80009ad0 <__fma+0x1f4>
    800099fc:	08877713          	andi	x14,x14,136
    80009a00:	18071e63          	bne	x14,x0,80009b9c <__fma+0x2c0>
    80009a04:	00100793          	addi	x15,x0,1
    80009a08:	001b0413          	addi	x8,x22,1
    80009a0c:	1cf50263          	beq	x10,x15,80009bd0 <__fma+0x2f4>
    80009a10:	ffe50513          	addi	x10,x10,-2
    80009a14:	38a7e663          	bltu	x15,x10,80009da0 <__fma+0x4c4>
    80009a18:	0014fc13          	andi	x24,x9,1
    80009a1c:	7ff00793          	addi	x15,x0,2047
    80009a20:	00000713          	addi	x14,x0,0
    80009a24:	0bc0006f          	jal	x0,80009ae0 <__fma+0x204>
    80009a28:	280a9a63          	bne	x21,x0,80009cbc <__fma+0x3e0>
    80009a2c:	0345d793          	srli	x15,x11,0x34
    80009a30:	00c59513          	slli	x10,x11,0xc
    80009a34:	7ff7f793          	andi	x15,x15,2047
    80009a38:	00800913          	addi	x18,x0,8
    80009a3c:	7ff00b13          	addi	x22,x0,2047
    80009a40:	00200d13          	addi	x26,x0,2
    80009a44:	00c55a13          	srli	x20,x10,0xc
    80009a48:	03f5d413          	srli	x8,x11,0x3f
    80009a4c:	f20790e3          	bne	x15,x0,8000996c <__fma+0x90>
    80009a50:	2a0a1663          	bne	x20,x0,80009cfc <__fma+0x420>
    80009a54:	0344d713          	srli	x14,x9,0x34
    80009a58:	00c49513          	slli	x10,x9,0xc
    80009a5c:	7ff77793          	andi	x15,x14,2047
    80009a60:	03f4d493          	srli	x9,x9,0x3f
    80009a64:	00196613          	ori	x12,x18,1
    80009a68:	00100c93          	addi	x25,x0,1
    80009a6c:	00c55b93          	srli	x23,x10,0xc
    80009a70:	00048c13          	addi	x24,x9,0
    80009a74:	0089cdb3          	xor	x27,x19,x8
    80009a78:	f2079ee3          	bne	x15,x0,800099b4 <__fma+0xd8>
    80009a7c:	2a0b9a63          	bne	x23,x0,80009d30 <__fma+0x454>
    80009a80:	00a00693          	addi	x13,x0,10
    80009a84:	00000593          	addi	x11,x0,0
    80009a88:	00100513          	addi	x10,x0,1
    80009a8c:	f4c6d8e3          	bge	x13,x12,800099dc <__fma+0x100>
    80009a90:	00f00793          	addi	x15,x0,15
    80009a94:	02f60e63          	beq	x12,x15,80009ad0 <__fma+0x1f4>
    80009a98:	00b00793          	addi	x15,x0,11
    80009a9c:	10f60063          	beq	x12,x15,80009b9c <__fma+0x2c0>
    80009aa0:	00098d93          	addi	x27,x19,0
    80009aa4:	000a8a13          	addi	x20,x21,0
    80009aa8:	000d0c93          	addi	x25,x26,0
    80009aac:	012567b3          	or	x15,x10,x18
    80009ab0:	ffc78793          	addi	x15,x15,-4
    80009ab4:	01818713          	addi	x14,x3,24 # 8000ba38 <__global_pointer$+0x18>
    80009ab8:	00279793          	slli	x15,x15,0x2
    80009abc:	00e787b3          	add	x15,x15,x14
    80009ac0:	0007a783          	lw	x15,0(x15)
    80009ac4:	00e787b3          	add	x15,x15,x14
    80009ac8:	00078067          	jalr	x0,0(x15)
    80009acc:	069d8663          	beq	x27,x9,80009b38 <__fma+0x25c>
    80009ad0:	00100713          	addi	x14,x0,1
    80009ad4:	00000c13          	addi	x24,x0,0
    80009ad8:	7ff00793          	addi	x15,x0,2047
    80009adc:	03371713          	slli	x14,x14,0x33
    80009ae0:	07813083          	ld	x1,120(x2)
    80009ae4:	07013403          	ld	x8,112(x2)
    80009ae8:	03479513          	slli	x10,x15,0x34
    80009aec:	00e56533          	or	x10,x10,x14
    80009af0:	03fc1793          	slli	x15,x24,0x3f
    80009af4:	06813483          	ld	x9,104(x2)
    80009af8:	06013903          	ld	x18,96(x2)
    80009afc:	05813983          	ld	x19,88(x2)
    80009b00:	05013a03          	ld	x20,80(x2)
    80009b04:	04813a83          	ld	x21,72(x2)
    80009b08:	04013b03          	ld	x22,64(x2)
    80009b0c:	03813b83          	ld	x23,56(x2)
    80009b10:	03013c03          	ld	x24,48(x2)
    80009b14:	02813c83          	ld	x25,40(x2)
    80009b18:	02013d03          	ld	x26,32(x2)
    80009b1c:	01813d83          	ld	x27,24(x2)
    80009b20:	00f56533          	or	x10,x10,x15
    80009b24:	08010113          	addi	x2,x2,128
    80009b28:	00008067          	jalr	x0,0(x1)
    80009b2c:	000a0b93          	addi	x23,x20,0
    80009b30:	000d8493          	addi	x9,x27,0
    80009b34:	000c8513          	addi	x10,x25,0
    80009b38:	00200793          	addi	x15,x0,2
    80009b3c:	ecf50ee3          	beq	x10,x15,80009a18 <__fma+0x13c>
    80009b40:	00300793          	addi	x15,x0,3
    80009b44:	f8f506e3          	beq	x10,x15,80009ad0 <__fma+0x1f4>
    80009b48:	00100793          	addi	x15,x0,1
    80009b4c:	10f51263          	bne	x10,x15,80009c50 <__fma+0x374>
    80009b50:	0014fc13          	andi	x24,x9,1
    80009b54:	00000793          	addi	x15,x0,0
    80009b58:	00000713          	addi	x14,x0,0
    80009b5c:	f85ff06f          	jal	x0,80009ae0 <__fma+0x204>
    80009b60:	1e0b8e63          	beq	x23,x0,80009d5c <__fma+0x480>
    80009b64:	00a00713          	addi	x14,x0,10
    80009b68:	32c74063          	blt	x14,x12,80009e88 <__fma+0x5ac>
    80009b6c:	00200713          	addi	x14,x0,2
    80009b70:	42c75c63          	bge	x14,x12,80009fa8 <__fma+0x6cc>
    80009b74:	00100713          	addi	x14,x0,1
    80009b78:	00c71733          	sll	x14,x14,x12
    80009b7c:	53077693          	andi	x13,x14,1328
    80009b80:	4a069e63          	bne	x13,x0,8000a03c <__fma+0x760>
    80009b84:	24077693          	andi	x13,x14,576
    80009b88:	30069463          	bne	x13,x0,80009e90 <__fma+0x5b4>
    80009b8c:	08877713          	andi	x14,x14,136
    80009b90:	30070063          	beq	x14,x0,80009e90 <__fma+0x5b4>
    80009b94:	7ff00593          	addi	x11,x0,2047
    80009b98:	00300513          	addi	x10,x0,3
    80009b9c:	00040d93          	addi	x27,x8,0
    80009ba0:	002c9913          	slli	x18,x25,0x2
    80009ba4:	f09ff06f          	jal	x0,80009aac <__fma+0x1d0>
    80009ba8:	7ffb0b13          	addi	x22,x22,2047
    80009bac:	160a1c63          	bne	x20,x0,80009d24 <__fma+0x448>
    80009bb0:	00296613          	ori	x12,x18,2
    80009bb4:	00200c93          	addi	x25,x0,2
    80009bb8:	dddff06f          	jal	x0,80009994 <__fma+0xb8>
    80009bbc:	100a9863          	bne	x21,x0,80009ccc <__fma+0x3f0>
    80009bc0:	00400913          	addi	x18,x0,4
    80009bc4:	00000b13          	addi	x22,x0,0
    80009bc8:	00100d13          	addi	x26,x0,1
    80009bcc:	d89ff06f          	jal	x0,80009954 <__fma+0x78>
    80009bd0:	fff00693          	addi	x13,x0,-1
    80009bd4:	0206d693          	srli	x13,x13,0x20
    80009bd8:	00daf733          	and	x14,x21,x13
    80009bdc:	020ad613          	srli	x12,x21,0x20
    80009be0:	020a5513          	srli	x10,x20,0x20
    80009be4:	00da76b3          	and	x13,x20,x13
    80009be8:	02e685b3          	mul	x11,x13,x14
    80009bec:	02d606b3          	mul	x13,x12,x13
    80009bf0:	0205d793          	srli	x15,x11,0x20
    80009bf4:	02e50733          	mul	x14,x10,x14
    80009bf8:	00d70733          	add	x14,x14,x13
    80009bfc:	00e787b3          	add	x15,x15,x14
    80009c00:	02a60633          	mul	x12,x12,x10
    80009c04:	30d7e263          	bltu	x15,x13,80009f08 <__fma+0x62c>
    80009c08:	fff00693          	addi	x13,x0,-1
    80009c0c:	0206d693          	srli	x13,x13,0x20
    80009c10:	00d7f733          	and	x14,x15,x13
    80009c14:	02071713          	slli	x14,x14,0x20
    80009c18:	00d5f5b3          	and	x11,x11,x13
    80009c1c:	00b70733          	add	x14,x14,x11
    80009c20:	0207d793          	srli	x15,x15,0x20
    80009c24:	00971513          	slli	x10,x14,0x9
    80009c28:	00c787b3          	add	x15,x15,x12
    80009c2c:	03775713          	srli	x14,x14,0x37
    80009c30:	00979793          	slli	x15,x15,0x9
    80009c34:	00a03533          	sltu	x10,x0,x10
    80009c38:	00e56533          	or	x10,x10,x14
    80009c3c:	00779713          	slli	x14,x15,0x7
    80009c40:	00a7ebb3          	or	x23,x15,x10
    80009c44:	2c074a63          	blt	x14,x0,80009f18 <__fma+0x63c>
    80009c48:	000b0593          	addi	x11,x22,0
    80009c4c:	000d8493          	addi	x9,x27,0
    80009c50:	3ff58693          	addi	x13,x11,1023
    80009c54:	0014fc13          	andi	x24,x9,1
    80009c58:	10d05863          	bge	x0,x13,80009d68 <__fma+0x48c>
    80009c5c:	007bf793          	andi	x15,x23,7
    80009c60:	00078a63          	beq	x15,x0,80009c74 <__fma+0x398>
    80009c64:	00fbf793          	andi	x15,x23,15
    80009c68:	00400713          	addi	x14,x0,4
    80009c6c:	00e78463          	beq	x15,x14,80009c74 <__fma+0x398>
    80009c70:	004b8b93          	addi	x23,x23,4
    80009c74:	007b9793          	slli	x15,x23,0x7
    80009c78:	0007dc63          	bge	x15,x0,80009c90 <__fma+0x3b4>
    80009c7c:	fff00793          	addi	x15,x0,-1
    80009c80:	03879793          	slli	x15,x15,0x38
    80009c84:	fff78793          	addi	x15,x15,-1
    80009c88:	00fbfbb3          	and	x23,x23,x15
    80009c8c:	40058693          	addi	x13,x11,1024
    80009c90:	7fe00793          	addi	x15,x0,2046
    80009c94:	20d7c663          	blt	x15,x13,80009ea0 <__fma+0x5c4>
    80009c98:	009b9713          	slli	x14,x23,0x9
    80009c9c:	00c75713          	srli	x14,x14,0xc
    80009ca0:	7ff6f793          	andi	x15,x13,2047
    80009ca4:	e3dff06f          	jal	x0,80009ae0 <__fma+0x204>
    80009ca8:	fff60613          	addi	x12,x12,-1
    80009cac:	00100793          	addi	x15,x0,1
    80009cb0:	d4c7eae3          	bltu	x15,x12,80009a04 <__fma+0x128>
    80009cb4:	002c9913          	slli	x18,x25,0x2
    80009cb8:	df5ff06f          	jal	x0,80009aac <__fma+0x1d0>
    80009cbc:	00c00913          	addi	x18,x0,12
    80009cc0:	7ff00b13          	addi	x22,x0,2047
    80009cc4:	00300d13          	addi	x26,x0,3
    80009cc8:	c8dff06f          	jal	x0,80009954 <__fma+0x78>
    80009ccc:	000a8513          	addi	x10,x21,0
    80009cd0:	00b13423          	sd	x11,8(x2)
    80009cd4:	470000ef          	jal	x1,8000a144 <__clzdi2>
    80009cd8:	0005071b          	addiw	x14,x10,0
    80009cdc:	c0d00793          	addi	x15,x0,-1011
    80009ce0:	ff85051b          	addiw	x10,x10,-8
    80009ce4:	00813583          	ld	x11,8(x2)
    80009ce8:	00aa9ab3          	sll	x21,x21,x10
    80009cec:	40e78b33          	sub	x22,x15,x14
    80009cf0:	00000913          	addi	x18,x0,0
    80009cf4:	00000d13          	addi	x26,x0,0
    80009cf8:	c5dff06f          	jal	x0,80009954 <__fma+0x78>
    80009cfc:	000a0513          	addi	x10,x20,0
    80009d00:	444000ef          	jal	x1,8000a144 <__clzdi2>
    80009d04:	0005079b          	addiw	x15,x10,0
    80009d08:	40fb07b3          	sub	x15,x22,x15
    80009d0c:	ff85051b          	addiw	x10,x10,-8
    80009d10:	00aa1a33          	sll	x20,x20,x10
    80009d14:	c0d78b13          	addi	x22,x15,-1011
    80009d18:	00090613          	addi	x12,x18,0
    80009d1c:	00000c93          	addi	x25,x0,0
    80009d20:	c75ff06f          	jal	x0,80009994 <__fma+0xb8>
    80009d24:	00396613          	ori	x12,x18,3
    80009d28:	00300c93          	addi	x25,x0,3
    80009d2c:	c69ff06f          	jal	x0,80009994 <__fma+0xb8>
    80009d30:	000b8513          	addi	x10,x23,0
    80009d34:	00c13423          	sd	x12,8(x2)
    80009d38:	40c000ef          	jal	x1,8000a144 <__clzdi2>
    80009d3c:	0005079b          	addiw	x15,x10,0
    80009d40:	c0d00593          	addi	x11,x0,-1011
    80009d44:	ff85051b          	addiw	x10,x10,-8
    80009d48:	00ab9bb3          	sll	x23,x23,x10
    80009d4c:	00813603          	ld	x12,8(x2)
    80009d50:	40f585b3          	sub	x11,x11,x15
    80009d54:	00000513          	addi	x10,x0,0
    80009d58:	c7dff06f          	jal	x0,800099d4 <__fma+0xf8>
    80009d5c:	7ff00593          	addi	x11,x0,2047
    80009d60:	00200513          	addi	x10,x0,2
    80009d64:	c71ff06f          	jal	x0,800099d4 <__fma+0xf8>
    80009d68:	14068263          	beq	x13,x0,80009eac <__fma+0x5d0>
    80009d6c:	00100793          	addi	x15,x0,1
    80009d70:	40d786b3          	sub	x13,x15,x13
    80009d74:	03800613          	addi	x12,x0,56
    80009d78:	00000793          	addi	x15,x0,0
    80009d7c:	00000713          	addi	x14,x0,0
    80009d80:	d6d640e3          	blt	x12,x13,80009ae0 <__fma+0x204>
    80009d84:	04000793          	addi	x15,x0,64
    80009d88:	0006871b          	addiw	x14,x13,0
    80009d8c:	40d787bb          	subw	x15,x15,x13
    80009d90:	1240006f          	jal	x0,80009eb4 <__fma+0x5d8>
    80009d94:	da9d82e3          	beq	x27,x9,80009b38 <__fma+0x25c>
    80009d98:	00000493          	addi	x9,x0,0
    80009d9c:	d9dff06f          	jal	x0,80009b38 <__fma+0x25c>
    80009da0:	fff00793          	addi	x15,x0,-1
    80009da4:	0207d793          	srli	x15,x15,0x20
    80009da8:	00faf733          	and	x14,x21,x15
    80009dac:	020ad613          	srli	x12,x21,0x20
    80009db0:	020a5813          	srli	x16,x20,0x20
    80009db4:	00fa77b3          	and	x15,x20,x15
    80009db8:	02e78533          	mul	x10,x15,x14
    80009dbc:	02f607b3          	mul	x15,x12,x15
    80009dc0:	02055693          	srli	x13,x10,0x20
    80009dc4:	02e80733          	mul	x14,x16,x14
    80009dc8:	00f70733          	add	x14,x14,x15
    80009dcc:	00e68733          	add	x14,x13,x14
    80009dd0:	03060633          	mul	x12,x12,x16
    80009dd4:	00f77863          	bgeu	x14,x15,80009de4 <__fma+0x508>
    80009dd8:	00100793          	addi	x15,x0,1
    80009ddc:	02079793          	slli	x15,x15,0x20
    80009de0:	00f60633          	add	x12,x12,x15
    80009de4:	02075813          	srli	x16,x14,0x20
    80009de8:	00c80833          	add	x16,x16,x12
    80009dec:	02f85613          	srli	x12,x16,0x2f
    80009df0:	00164613          	xori	x12,x12,1
    80009df4:	fff00893          	addi	x17,x0,-1
    80009df8:	00167693          	andi	x13,x12,1
    80009dfc:	0208d893          	srli	x17,x17,0x20
    80009e00:	011777b3          	and	x15,x14,x17
    80009e04:	40d40733          	sub	x14,x8,x13
    80009e08:	40b7073b          	subw	x14,x14,x11
    80009e0c:	02079793          	slli	x15,x15,0x20
    80009e10:	01157533          	and	x10,x10,x17
    80009e14:	00068613          	addi	x12,x13,0
    80009e18:	02071693          	slli	x13,x14,0x20
    80009e1c:	00a787b3          	add	x15,x15,x10
    80009e20:	1206c063          	blt	x13,x0,80009f40 <__fma+0x664>
    80009e24:	03800693          	addi	x13,x0,56
    80009e28:	40c6863b          	subw	x12,x13,x12
    80009e2c:	40e606bb          	subw	x13,x12,x14
    80009e30:	fc900513          	addi	x10,x0,-55
    80009e34:	20a6ca63          	blt	x13,x10,8000a048 <__fma+0x76c>
    80009e38:	2a06c663          	blt	x13,x0,8000a0e4 <__fma+0x808>
    80009e3c:	2c068463          	beq	x13,x0,8000a104 <__fma+0x828>
    80009e40:	04000713          	addi	x14,x0,64
    80009e44:	40d7073b          	subw	x14,x14,x13
    80009e48:	00ebd733          	srl	x14,x23,x14
    80009e4c:	00db96b3          	sll	x13,x23,x13
    80009e50:	17b48a63          	beq	x9,x27,80009fc4 <__fma+0x6e8>
    80009e54:	40d78533          	sub	x10,x15,x13
    80009e58:	40e80933          	sub	x18,x16,x14
    80009e5c:	00a7b633          	sltu	x12,x15,x10
    80009e60:	40c90933          	sub	x18,x18,x12
    80009e64:	00050b93          	addi	x23,x10,0
    80009e68:	22094263          	blt	x18,x0,8000a08c <__fma+0x7b0>
    80009e6c:	000d8493          	addi	x9,x27,0
    80009e70:	017967b3          	or	x15,x18,x23
    80009e74:	00000c13          	addi	x24,x0,0
    80009e78:	16079663          	bne	x15,x0,80009fe4 <__fma+0x708>
    80009e7c:	00000793          	addi	x15,x0,0
    80009e80:	00000713          	addi	x14,x0,0
    80009e84:	c5dff06f          	jal	x0,80009ae0 <__fma+0x204>
    80009e88:	00f00713          	addi	x14,x0,15
    80009e8c:	06e61263          	bne	x12,x14,80009ef0 <__fma+0x614>
    80009e90:	00100713          	addi	x14,x0,1
    80009e94:	00000c13          	addi	x24,x0,0
    80009e98:	03371713          	slli	x14,x14,0x33
    80009e9c:	c45ff06f          	jal	x0,80009ae0 <__fma+0x204>
    80009ea0:	7ff00793          	addi	x15,x0,2047
    80009ea4:	00000713          	addi	x14,x0,0
    80009ea8:	c39ff06f          	jal	x0,80009ae0 <__fma+0x204>
    80009eac:	03f00793          	addi	x15,x0,63
    80009eb0:	00100713          	addi	x14,x0,1
    80009eb4:	00fb97b3          	sll	x15,x23,x15
    80009eb8:	00f037b3          	sltu	x15,x0,x15
    80009ebc:	00ebd733          	srl	x14,x23,x14
    80009ec0:	00f76733          	or	x14,x14,x15
    80009ec4:	00777793          	andi	x15,x14,7
    80009ec8:	00078a63          	beq	x15,x0,80009edc <__fma+0x600>
    80009ecc:	00f77793          	andi	x15,x14,15
    80009ed0:	00400693          	addi	x13,x0,4
    80009ed4:	00d78463          	beq	x15,x13,80009edc <__fma+0x600>
    80009ed8:	00470713          	addi	x14,x14,4
    80009edc:	00871793          	slli	x15,x14,0x8
    80009ee0:	0407d863          	bge	x15,x0,80009f30 <__fma+0x654>
    80009ee4:	00100793          	addi	x15,x0,1
    80009ee8:	00000713          	addi	x14,x0,0
    80009eec:	bf5ff06f          	jal	x0,80009ae0 <__fma+0x204>
    80009ef0:	00b00793          	addi	x15,x0,11
    80009ef4:	7ff00593          	addi	x11,x0,2047
    80009ef8:	00300513          	addi	x10,x0,3
    80009efc:	caf600e3          	beq	x12,x15,80009b9c <__fma+0x2c0>
    80009f00:	00098d93          	addi	x27,x19,0
    80009f04:	ba1ff06f          	jal	x0,80009aa4 <__fma+0x1c8>
    80009f08:	00100713          	addi	x14,x0,1
    80009f0c:	02071713          	slli	x14,x14,0x20
    80009f10:	00e60633          	add	x12,x12,x14
    80009f14:	cf5ff06f          	jal	x0,80009c08 <__fma+0x32c>
    80009f18:	001bd793          	srli	x15,x23,0x1
    80009f1c:	001bf513          	andi	x10,x23,1
    80009f20:	00a7ebb3          	or	x23,x15,x10
    80009f24:	00040593          	addi	x11,x8,0
    80009f28:	000d8493          	addi	x9,x27,0
    80009f2c:	d25ff06f          	jal	x0,80009c50 <__fma+0x374>
    80009f30:	00971713          	slli	x14,x14,0x9
    80009f34:	00c75713          	srli	x14,x14,0xc
    80009f38:	00000793          	addi	x15,x0,0
    80009f3c:	ba5ff06f          	jal	x0,80009ae0 <__fma+0x204>
    80009f40:	40e0073b          	subw	x14,x0,x14
    80009f44:	40c7063b          	subw	x12,x14,x12
    80009f48:	06f00513          	addi	x10,x0,111
    80009f4c:	008bd913          	srli	x18,x23,0x8
    80009f50:	038b9693          	slli	x13,x23,0x38
    80009f54:	12c54663          	blt	x10,x12,8000a080 <__fma+0x7a4>
    80009f58:	02060863          	beq	x12,x0,80009f88 <__fma+0x6ac>
    80009f5c:	03f00513          	addi	x10,x0,63
    80009f60:	1ac54863          	blt	x10,x12,8000a110 <__fma+0x834>
    80009f64:	04000513          	addi	x10,x0,64
    80009f68:	40c5073b          	subw	x14,x10,x12
    80009f6c:	00e81533          	sll	x10,x16,x14
    80009f70:	00c7d8b3          	srl	x17,x15,x12
    80009f74:	00e797b3          	sll	x15,x15,x14
    80009f78:	00f037b3          	sltu	x15,x0,x15
    80009f7c:	01156733          	or	x14,x10,x17
    80009f80:	00f767b3          	or	x15,x14,x15
    80009f84:	00c85833          	srl	x16,x16,x12
    80009f88:	15b48063          	beq	x9,x27,8000a0c8 <__fma+0x7ec>
    80009f8c:	40f687b3          	sub	x15,x13,x15
    80009f90:	41090933          	sub	x18,x18,x16
    80009f94:	00f6b6b3          	sltu	x13,x13,x15
    80009f98:	00078b93          	addi	x23,x15,0
    80009f9c:	40d90933          	sub	x18,x18,x13
    80009fa0:	00058413          	addi	x8,x11,0
    80009fa4:	ecdff06f          	jal	x0,80009e70 <__fma+0x594>
    80009fa8:	fff60613          	addi	x12,x12,-1
    80009fac:	00100713          	addi	x14,x0,1
    80009fb0:	eec760e3          	bltu	x14,x12,80009e90 <__fma+0x5b4>
    80009fb4:	7ff00593          	addi	x11,x0,2047
    80009fb8:	00300513          	addi	x10,x0,3
    80009fbc:	002c9913          	slli	x18,x25,0x2
    80009fc0:	aedff06f          	jal	x0,80009aac <__fma+0x1d0>
    80009fc4:	00f687b3          	add	x15,x13,x15
    80009fc8:	01070733          	add	x14,x14,x16
    80009fcc:	00d7b6b3          	sltu	x13,x15,x13
    80009fd0:	00078b93          	addi	x23,x15,0
    80009fd4:	00d70933          	add	x18,x14,x13
    80009fd8:	012be7b3          	or	x15,x23,x18
    80009fdc:	000d8493          	addi	x9,x27,0
    80009fe0:	e8078ee3          	beq	x15,x0,80009e7c <__fma+0x5a0>
    80009fe4:	06090863          	beq	x18,x0,8000a054 <__fma+0x778>
    80009fe8:	00090513          	addi	x10,x18,0
    80009fec:	158000ef          	jal	x1,8000a144 <__clzdi2>
    80009ff0:	ff05059b          	addiw	x11,x10,-16
    80009ff4:	03800713          	addi	x14,x0,56
    80009ff8:	40b7073b          	subw	x14,x14,x11
    80009ffc:	03f00693          	addi	x13,x0,63
    8000a000:	00058613          	addi	x12,x11,0
    8000a004:	0005079b          	addiw	x15,x10,0
    8000a008:	40b405b3          	sub	x11,x8,x11
    8000a00c:	08e6de63          	bge	x13,x14,8000a0a8 <__fma+0x7cc>
    8000a010:	ff800693          	addi	x13,x0,-8
    8000a014:	40c686bb          	subw	x13,x13,x12
    8000a018:	04000793          	addi	x15,x0,64
    8000a01c:	00d956b3          	srl	x13,x18,x13
    8000a020:	00f70863          	beq	x14,x15,8000a030 <__fma+0x754>
    8000a024:	0385079b          	addiw	x15,x10,56
    8000a028:	00f917b3          	sll	x15,x18,x15
    8000a02c:	00fbebb3          	or	x23,x23,x15
    8000a030:	01703533          	sltu	x10,x0,x23
    8000a034:	00d56bb3          	or	x23,x10,x13
    8000a038:	c19ff06f          	jal	x0,80009c50 <__fma+0x374>
    8000a03c:	7ff00593          	addi	x11,x0,2047
    8000a040:	00300513          	addi	x10,x0,3
    8000a044:	a61ff06f          	jal	x0,80009aa4 <__fma+0x1c8>
    8000a048:	00000713          	addi	x14,x0,0
    8000a04c:	00100693          	addi	x13,x0,1
    8000a050:	e01ff06f          	jal	x0,80009e50 <__fma+0x574>
    8000a054:	000b8513          	addi	x10,x23,0
    8000a058:	0ec000ef          	jal	x1,8000a144 <__clzdi2>
    8000a05c:	0305059b          	addiw	x11,x10,48
    8000a060:	03800713          	addi	x14,x0,56
    8000a064:	40b7073b          	subw	x14,x14,x11
    8000a068:	40b405b3          	sub	x11,x8,x11
    8000a06c:	02e04c63          	blt	x0,x14,8000a0a4 <__fma+0x7c8>
    8000a070:	be0700e3          	beq	x14,x0,80009c50 <__fma+0x374>
    8000a074:	ff85051b          	addiw	x10,x10,-8
    8000a078:	00ab9bb3          	sll	x23,x23,x10
    8000a07c:	bd5ff06f          	jal	x0,80009c50 <__fma+0x374>
    8000a080:	00000813          	addi	x16,x0,0
    8000a084:	00100793          	addi	x15,x0,1
    8000a088:	f01ff06f          	jal	x0,80009f88 <__fma+0x6ac>
    8000a08c:	40f687b3          	sub	x15,x13,x15
    8000a090:	41070733          	sub	x14,x14,x16
    8000a094:	00f6b6b3          	sltu	x13,x13,x15
    8000a098:	00078b93          	addi	x23,x15,0
    8000a09c:	40d70933          	sub	x18,x14,x13
    8000a0a0:	dd1ff06f          	jal	x0,80009e70 <__fma+0x594>
    8000a0a4:	0405079b          	addiw	x15,x10,64
    8000a0a8:	ff87879b          	addiw	x15,x15,-8
    8000a0ac:	00fb9533          	sll	x10,x23,x15
    8000a0b0:	00ebd733          	srl	x14,x23,x14
    8000a0b4:	00f917b3          	sll	x15,x18,x15
    8000a0b8:	00e7e7b3          	or	x15,x15,x14
    8000a0bc:	00a03533          	sltu	x10,x0,x10
    8000a0c0:	00a7ebb3          	or	x23,x15,x10
    8000a0c4:	b8dff06f          	jal	x0,80009c50 <__fma+0x374>
    8000a0c8:	00d786b3          	add	x13,x15,x13
    8000a0cc:	01090933          	add	x18,x18,x16
    8000a0d0:	00f6b7b3          	sltu	x15,x13,x15
    8000a0d4:	00068b93          	addi	x23,x13,0
    8000a0d8:	00f90933          	add	x18,x18,x15
    8000a0dc:	00058413          	addi	x8,x11,0
    8000a0e0:	ef9ff06f          	jal	x0,80009fd8 <__fma+0x6fc>
    8000a0e4:	0406869b          	addiw	x13,x13,64
    8000a0e8:	00db96b3          	sll	x13,x23,x13
    8000a0ec:	40c7073b          	subw	x14,x14,x12
    8000a0f0:	00ebd733          	srl	x14,x23,x14
    8000a0f4:	00d036b3          	sltu	x13,x0,x13
    8000a0f8:	00e6e6b3          	or	x13,x13,x14
    8000a0fc:	00000713          	addi	x14,x0,0
    8000a100:	d51ff06f          	jal	x0,80009e50 <__fma+0x574>
    8000a104:	000b8693          	addi	x13,x23,0
    8000a108:	00000713          	addi	x14,x0,0
    8000a10c:	d45ff06f          	jal	x0,80009e50 <__fma+0x574>
    8000a110:	fc06089b          	addiw	x17,x12,-64
    8000a114:	04000313          	addi	x6,x0,64
    8000a118:	011858b3          	srl	x17,x16,x17
    8000a11c:	00000513          	addi	x10,x0,0
    8000a120:	00660863          	beq	x12,x6,8000a130 <__fma+0x854>
    8000a124:	08000513          	addi	x10,x0,128
    8000a128:	40c5053b          	subw	x10,x10,x12
    8000a12c:	00a81533          	sll	x10,x16,x10
    8000a130:	00f567b3          	or	x15,x10,x15
    8000a134:	00f037b3          	sltu	x15,x0,x15
    8000a138:	00f8e7b3          	or	x15,x17,x15
    8000a13c:	00000813          	addi	x16,x0,0
    8000a140:	e49ff06f          	jal	x0,80009f88 <__fma+0x6ac>

000000008000a144 <__clzdi2>:
    8000a144:	03855793          	srli	x15,x10,0x38
    8000a148:	06079063          	bne	x15,x0,8000a1a8 <__clzdi2+0x64>
    8000a14c:	03800793          	addi	x15,x0,56
    8000a150:	0080006f          	jal	x0,8000a158 <__clzdi2+0x14>
    8000a154:	02069863          	bne	x13,x0,8000a184 <__clzdi2+0x40>
    8000a158:	ff878793          	addi	x15,x15,-8
    8000a15c:	00f55733          	srl	x14,x10,x15
    8000a160:	0ff77693          	andi	x13,x14,255
    8000a164:	fe0798e3          	bne	x15,x0,8000a154 <__clzdi2+0x10>
    8000a168:	04000693          	addi	x13,x0,64
    8000a16c:	00001797          	auipc	x15,0x1
    8000a170:	09c7b783          	ld	x15,156(x15) # 8000b208 <_GLOBAL_OFFSET_TABLE_+0x8>
    8000a174:	00a787b3          	add	x15,x15,x10
    8000a178:	0007c503          	lbu	x10,0(x15)
    8000a17c:	40a6853b          	subw	x10,x13,x10
    8000a180:	00008067          	jalr	x0,0(x1)
    8000a184:	04000693          	addi	x13,x0,64
    8000a188:	40f686b3          	sub	x13,x13,x15
    8000a18c:	00070513          	addi	x10,x14,0
    8000a190:	00001797          	auipc	x15,0x1
    8000a194:	0787b783          	ld	x15,120(x15) # 8000b208 <_GLOBAL_OFFSET_TABLE_+0x8>
    8000a198:	00a787b3          	add	x15,x15,x10
    8000a19c:	0007c503          	lbu	x10,0(x15)
    8000a1a0:	40a6853b          	subw	x10,x13,x10
    8000a1a4:	00008067          	jalr	x0,0(x1)
    8000a1a8:	00078513          	addi	x10,x15,0
    8000a1ac:	00800693          	addi	x13,x0,8
    8000a1b0:	fbdff06f          	jal	x0,8000a16c <__clzdi2+0x28>

000000008000a1b4 <__adddf3>:
    8000a1b4:	fff00713          	addi	x14,x0,-1
    8000a1b8:	fe010113          	addi	x2,x2,-32
    8000a1bc:	00c75713          	srli	x14,x14,0xc
    8000a1c0:	00a776b3          	and	x13,x14,x10
    8000a1c4:	00b77e33          	and	x28,x14,x11
    8000a1c8:	0345d613          	srli	x12,x11,0x34
    8000a1cc:	00813823          	sd	x8,16(x2)
    8000a1d0:	00913423          	sd	x9,8(x2)
    8000a1d4:	03455413          	srli	x8,x10,0x34
    8000a1d8:	03f55493          	srli	x9,x10,0x3f
    8000a1dc:	00113c23          	sd	x1,24(x2)
    8000a1e0:	03f5d593          	srli	x11,x11,0x3f
    8000a1e4:	00068793          	addi	x15,x13,0
    8000a1e8:	7ff47413          	andi	x8,x8,2047
    8000a1ec:	00048893          	addi	x17,x9,0
    8000a1f0:	00369813          	slli	x16,x13,0x3
    8000a1f4:	7ff67513          	andi	x10,x12,2047
    8000a1f8:	003e1313          	slli	x6,x28,0x3
    8000a1fc:	14b48863          	beq	x9,x11,8000a34c <__adddf3+0x198>
    8000a200:	40a40ebb          	subw	x29,x8,x10
    8000a204:	000e861b          	addiw	x12,x29,0
    8000a208:	10c05263          	bge	x0,x12,8000a30c <__adddf3+0x158>
    8000a20c:	16050a63          	beq	x10,x0,8000a380 <__adddf3+0x1cc>
    8000a210:	7ff00793          	addi	x15,x0,2047
    8000a214:	12f40063          	beq	x8,x15,8000a334 <__adddf3+0x180>
    8000a218:	00100793          	addi	x15,x0,1
    8000a21c:	03779793          	slli	x15,x15,0x37
    8000a220:	00f36333          	or	x6,x6,x15
    8000a224:	03800713          	addi	x14,x0,56
    8000a228:	00100793          	addi	x15,x0,1
    8000a22c:	00c74e63          	blt	x14,x12,8000a248 <__adddf3+0x94>
    8000a230:	04000793          	addi	x15,x0,64
    8000a234:	40c787bb          	subw	x15,x15,x12
    8000a238:	00f317b3          	sll	x15,x6,x15
    8000a23c:	00c35633          	srl	x12,x6,x12
    8000a240:	00f037b3          	sltu	x15,x0,x15
    8000a244:	00f667b3          	or	x15,x12,x15
    8000a248:	40f80833          	sub	x16,x16,x15
    8000a24c:	00881793          	slli	x15,x16,0x8
    8000a250:	1e07d463          	bge	x15,x0,8000a438 <__adddf3+0x284>
    8000a254:	01213023          	sd	x18,0(x2)
    8000a258:	00981913          	slli	x18,x16,0x9
    8000a25c:	00995913          	srli	x18,x18,0x9
    8000a260:	00090513          	addi	x10,x18,0
    8000a264:	ee1ff0ef          	jal	x1,8000a144 <__clzdi2>
    8000a268:	ff85079b          	addiw	x15,x10,-8
    8000a26c:	00f91933          	sll	x18,x18,x15
    8000a270:	2087c463          	blt	x15,x8,8000a478 <__adddf3+0x2c4>
    8000a274:	4087853b          	subw	x10,x15,x8
    8000a278:	0015051b          	addiw	x10,x10,1
    8000a27c:	04000813          	addi	x16,x0,64
    8000a280:	40a8083b          	subw	x16,x16,x10
    8000a284:	01091833          	sll	x16,x18,x16
    8000a288:	01003833          	sltu	x16,x0,x16
    8000a28c:	00a95933          	srl	x18,x18,x10
    8000a290:	01096833          	or	x16,x18,x16
    8000a294:	00013903          	ld	x18,0(x2)
    8000a298:	00000413          	addi	x8,x0,0
    8000a29c:	00787793          	andi	x15,x16,7
    8000a2a0:	00078a63          	beq	x15,x0,8000a2b4 <__adddf3+0x100>
    8000a2a4:	00f87793          	andi	x15,x16,15
    8000a2a8:	00400713          	addi	x14,x0,4
    8000a2ac:	00e78463          	beq	x15,x14,8000a2b4 <__adddf3+0x100>
    8000a2b0:	00480813          	addi	x16,x16,4
    8000a2b4:	00881793          	slli	x15,x16,0x8
    8000a2b8:	1407da63          	bge	x15,x0,8000a40c <__adddf3+0x258>
    8000a2bc:	00140413          	addi	x8,x8,1
    8000a2c0:	7ff00793          	addi	x15,x0,2047
    8000a2c4:	00048893          	addi	x17,x9,0
    8000a2c8:	16f40263          	beq	x8,x15,8000a42c <__adddf3+0x278>
    8000a2cc:	fff00793          	addi	x15,x0,-1
    8000a2d0:	03779793          	slli	x15,x15,0x37
    8000a2d4:	fff78793          	addi	x15,x15,-1
    8000a2d8:	00f877b3          	and	x15,x16,x15
    8000a2dc:	7ff47513          	andi	x10,x8,2047
    8000a2e0:	00979793          	slli	x15,x15,0x9
    8000a2e4:	00c7d793          	srli	x15,x15,0xc
    8000a2e8:	01813083          	ld	x1,24(x2)
    8000a2ec:	01013403          	ld	x8,16(x2)
    8000a2f0:	03451513          	slli	x10,x10,0x34
    8000a2f4:	00f56533          	or	x10,x10,x15
    8000a2f8:	03f89793          	slli	x15,x17,0x3f
    8000a2fc:	00813483          	ld	x9,8(x2)
    8000a300:	00f56533          	or	x10,x10,x15
    8000a304:	02010113          	addi	x2,x2,32
    8000a308:	00008067          	jalr	x0,0(x1)
    8000a30c:	08060663          	beq	x12,x0,8000a398 <__adddf3+0x1e4>
    8000a310:	1e041a63          	bne	x8,x0,8000a504 <__adddf3+0x350>
    8000a314:	0e080663          	beq	x16,x0,8000a400 <__adddf3+0x24c>
    8000a318:	fffece93          	xori	x29,x29,-1
    8000a31c:	000e8e9b          	addiw	x29,x29,0
    8000a320:	300e8263          	beq	x29,x0,8000a624 <__adddf3+0x470>
    8000a324:	7ff00793          	addi	x15,x0,2047
    8000a328:	1ef51a63          	bne	x10,x15,8000a51c <__adddf3+0x368>
    8000a32c:	00058493          	addi	x9,x11,0
    8000a330:	000e0693          	addi	x13,x28,0
    8000a334:	16068063          	beq	x13,x0,8000a494 <__adddf3+0x2e0>
    8000a338:	00100793          	addi	x15,x0,1
    8000a33c:	00000893          	addi	x17,x0,0
    8000a340:	7ff00513          	addi	x10,x0,2047
    8000a344:	03379793          	slli	x15,x15,0x33
    8000a348:	fa1ff06f          	jal	x0,8000a2e8 <__adddf3+0x134>
    8000a34c:	40a405bb          	subw	x11,x8,x10
    8000a350:	0005861b          	addiw	x12,x11,0
    8000a354:	0ec05863          	bge	x0,x12,8000a444 <__adddf3+0x290>
    8000a358:	08050863          	beq	x10,x0,8000a3e8 <__adddf3+0x234>
    8000a35c:	7ff00793          	addi	x15,x0,2047
    8000a360:	fcf40ae3          	beq	x8,x15,8000a334 <__adddf3+0x180>
    8000a364:	00100793          	addi	x15,x0,1
    8000a368:	03779793          	slli	x15,x15,0x37
    8000a36c:	00f36333          	or	x6,x6,x15
    8000a370:	03800793          	addi	x15,x0,56
    8000a374:	1cc7de63          	bge	x15,x12,8000a550 <__adddf3+0x39c>
    8000a378:	00180813          	addi	x16,x16,1
    8000a37c:	f21ff06f          	jal	x0,8000a29c <__adddf3+0xe8>
    8000a380:	08030663          	beq	x6,x0,8000a40c <__adddf3+0x258>
    8000a384:	fffe861b          	addiw	x12,x29,-1
    8000a388:	26060263          	beq	x12,x0,8000a5ec <__adddf3+0x438>
    8000a38c:	7ff00793          	addi	x15,x0,2047
    8000a390:	e8f41ae3          	bne	x8,x15,8000a224 <__adddf3+0x70>
    8000a394:	fa1ff06f          	jal	x0,8000a334 <__adddf3+0x180>
    8000a398:	00140693          	addi	x13,x8,1
    8000a39c:	7fe6f693          	andi	x13,x13,2046
    8000a3a0:	12069e63          	bne	x13,x0,8000a4dc <__adddf3+0x328>
    8000a3a4:	f8041ae3          	bne	x8,x0,8000a338 <__adddf3+0x184>
    8000a3a8:	28080663          	beq	x16,x0,8000a634 <__adddf3+0x480>
    8000a3ac:	00000513          	addi	x10,x0,0
    8000a3b0:	f2030ce3          	beq	x6,x0,8000a2e8 <__adddf3+0x134>
    8000a3b4:	406807b3          	sub	x15,x16,x6
    8000a3b8:	00879693          	slli	x13,x15,0x8
    8000a3bc:	2c06d063          	bge	x13,x0,8000a67c <__adddf3+0x4c8>
    8000a3c0:	410307b3          	sub	x15,x6,x16
    8000a3c4:	00879693          	slli	x13,x15,0x8
    8000a3c8:	2c06d263          	bge	x13,x0,8000a68c <__adddf3+0x4d8>
    8000a3cc:	fff00713          	addi	x14,x0,-1
    8000a3d0:	03771713          	slli	x14,x14,0x37
    8000a3d4:	fff70713          	addi	x14,x14,-1
    8000a3d8:	00e7f7b3          	and	x15,x15,x14
    8000a3dc:	00058893          	addi	x17,x11,0
    8000a3e0:	00100513          	addi	x10,x0,1
    8000a3e4:	efdff06f          	jal	x0,8000a2e0 <__adddf3+0x12c>
    8000a3e8:	02030263          	beq	x6,x0,8000a40c <__adddf3+0x258>
    8000a3ec:	fff5861b          	addiw	x12,x11,-1
    8000a3f0:	1e060a63          	beq	x12,x0,8000a5e4 <__adddf3+0x430>
    8000a3f4:	7ff00793          	addi	x15,x0,2047
    8000a3f8:	f6f41ce3          	bne	x8,x15,8000a370 <__adddf3+0x1bc>
    8000a3fc:	f39ff06f          	jal	x0,8000a334 <__adddf3+0x180>
    8000a400:	00050413          	addi	x8,x10,0
    8000a404:	00058493          	addi	x9,x11,0
    8000a408:	00030813          	addi	x16,x6,0
    8000a40c:	7ff00793          	addi	x15,x0,2047
    8000a410:	00385693          	srli	x13,x16,0x3
    8000a414:	f2f400e3          	beq	x8,x15,8000a334 <__adddf3+0x180>
    8000a418:	00c69693          	slli	x13,x13,0xc
    8000a41c:	00c6d793          	srli	x15,x13,0xc
    8000a420:	7ff47513          	andi	x10,x8,2047
    8000a424:	00048893          	addi	x17,x9,0
    8000a428:	ec1ff06f          	jal	x0,8000a2e8 <__adddf3+0x134>
    8000a42c:	7ff00513          	addi	x10,x0,2047
    8000a430:	00000793          	addi	x15,x0,0
    8000a434:	eb5ff06f          	jal	x0,8000a2e8 <__adddf3+0x134>
    8000a438:	00787793          	andi	x15,x16,7
    8000a43c:	e60794e3          	bne	x15,x0,8000a2a4 <__adddf3+0xf0>
    8000a440:	fcdff06f          	jal	x0,8000a40c <__adddf3+0x258>
    8000a444:	06060063          	beq	x12,x0,8000a4a4 <__adddf3+0x2f0>
    8000a448:	14040c63          	beq	x8,x0,8000a5a0 <__adddf3+0x3ec>
    8000a44c:	7ff00793          	addi	x15,x0,2047
    8000a450:	eef500e3          	beq	x10,x15,8000a330 <__adddf3+0x17c>
    8000a454:	00100793          	addi	x15,x0,1
    8000a458:	03779793          	slli	x15,x15,0x37
    8000a45c:	40b005bb          	subw	x11,x0,x11
    8000a460:	00f86833          	or	x16,x16,x15
    8000a464:	03800793          	addi	x15,x0,56
    8000a468:	18b7d663          	bge	x15,x11,8000a5f4 <__adddf3+0x440>
    8000a46c:	00130813          	addi	x16,x6,1
    8000a470:	00050413          	addi	x8,x10,0
    8000a474:	e29ff06f          	jal	x0,8000a29c <__adddf3+0xe8>
    8000a478:	fff00813          	addi	x16,x0,-1
    8000a47c:	03781813          	slli	x16,x16,0x37
    8000a480:	fff80813          	addi	x16,x16,-1
    8000a484:	01097833          	and	x16,x18,x16
    8000a488:	40f40433          	sub	x8,x8,x15
    8000a48c:	00013903          	ld	x18,0(x2)
    8000a490:	e0dff06f          	jal	x0,8000a29c <__adddf3+0xe8>
    8000a494:	00048893          	addi	x17,x9,0
    8000a498:	7ff00513          	addi	x10,x0,2047
    8000a49c:	00000793          	addi	x15,x0,0
    8000a4a0:	e49ff06f          	jal	x0,8000a2e8 <__adddf3+0x134>
    8000a4a4:	00140693          	addi	x13,x8,1
    8000a4a8:	7fe6f613          	andi	x12,x13,2046
    8000a4ac:	10061a63          	bne	x12,x0,8000a5c0 <__adddf3+0x40c>
    8000a4b0:	16041463          	bne	x8,x0,8000a618 <__adddf3+0x464>
    8000a4b4:	1a080063          	beq	x16,x0,8000a654 <__adddf3+0x4a0>
    8000a4b8:	00000513          	addi	x10,x0,0
    8000a4bc:	e20306e3          	beq	x6,x0,8000a2e8 <__adddf3+0x134>
    8000a4c0:	00680333          	add	x6,x16,x6
    8000a4c4:	00335793          	srli	x15,x6,0x3
    8000a4c8:	00831693          	slli	x13,x6,0x8
    8000a4cc:	00e7f7b3          	and	x15,x15,x14
    8000a4d0:	e006dce3          	bge	x13,x0,8000a2e8 <__adddf3+0x134>
    8000a4d4:	00100513          	addi	x10,x0,1
    8000a4d8:	e11ff06f          	jal	x0,8000a2e8 <__adddf3+0x134>
    8000a4dc:	01213023          	sd	x18,0(x2)
    8000a4e0:	40680933          	sub	x18,x16,x6
    8000a4e4:	00891793          	slli	x15,x18,0x8
    8000a4e8:	0e07c863          	blt	x15,x0,8000a5d8 <__adddf3+0x424>
    8000a4ec:	d6091ae3          	bne	x18,x0,8000a260 <__adddf3+0xac>
    8000a4f0:	00013903          	ld	x18,0(x2)
    8000a4f4:	00000893          	addi	x17,x0,0
    8000a4f8:	00000513          	addi	x10,x0,0
    8000a4fc:	00000793          	addi	x15,x0,0
    8000a500:	de9ff06f          	jal	x0,8000a2e8 <__adddf3+0x134>
    8000a504:	7ff00793          	addi	x15,x0,2047
    8000a508:	e2f502e3          	beq	x10,x15,8000a32c <__adddf3+0x178>
    8000a50c:	00100793          	addi	x15,x0,1
    8000a510:	03779793          	slli	x15,x15,0x37
    8000a514:	41d00ebb          	subw	x29,x0,x29
    8000a518:	00f86833          	or	x16,x16,x15
    8000a51c:	03800713          	addi	x14,x0,56
    8000a520:	00100793          	addi	x15,x0,1
    8000a524:	01d74e63          	blt	x14,x29,8000a540 <__adddf3+0x38c>
    8000a528:	04000793          	addi	x15,x0,64
    8000a52c:	41d787bb          	subw	x15,x15,x29
    8000a530:	00f817b3          	sll	x15,x16,x15
    8000a534:	01d85eb3          	srl	x29,x16,x29
    8000a538:	00f037b3          	sltu	x15,x0,x15
    8000a53c:	00fee7b3          	or	x15,x29,x15
    8000a540:	40f30833          	sub	x16,x6,x15
    8000a544:	00050413          	addi	x8,x10,0
    8000a548:	00058493          	addi	x9,x11,0
    8000a54c:	d01ff06f          	jal	x0,8000a24c <__adddf3+0x98>
    8000a550:	04000793          	addi	x15,x0,64
    8000a554:	40c787bb          	subw	x15,x15,x12
    8000a558:	00f317b3          	sll	x15,x6,x15
    8000a55c:	00c35633          	srl	x12,x6,x12
    8000a560:	00f037b3          	sltu	x15,x0,x15
    8000a564:	00f66633          	or	x12,x12,x15
    8000a568:	00c80833          	add	x16,x16,x12
    8000a56c:	00881793          	slli	x15,x16,0x8
    8000a570:	ec07d4e3          	bge	x15,x0,8000a438 <__adddf3+0x284>
    8000a574:	00140413          	addi	x8,x8,1
    8000a578:	7ff00793          	addi	x15,x0,2047
    8000a57c:	eaf408e3          	beq	x8,x15,8000a42c <__adddf3+0x278>
    8000a580:	1ff00793          	addi	x15,x0,511
    8000a584:	03679793          	slli	x15,x15,0x36
    8000a588:	00185713          	srli	x14,x16,0x1
    8000a58c:	fff78793          	addi	x15,x15,-1
    8000a590:	00187813          	andi	x16,x16,1
    8000a594:	00f777b3          	and	x15,x14,x15
    8000a598:	0107e833          	or	x16,x15,x16
    8000a59c:	d01ff06f          	jal	x0,8000a29c <__adddf3+0xe8>
    8000a5a0:	0a080463          	beq	x16,x0,8000a648 <__adddf3+0x494>
    8000a5a4:	fff5c593          	xori	x11,x11,-1
    8000a5a8:	0005859b          	addiw	x11,x11,0
    8000a5ac:	0a058a63          	beq	x11,x0,8000a660 <__adddf3+0x4ac>
    8000a5b0:	7ff00793          	addi	x15,x0,2047
    8000a5b4:	eaf518e3          	bne	x10,x15,8000a464 <__adddf3+0x2b0>
    8000a5b8:	000e0693          	addi	x13,x28,0
    8000a5bc:	d79ff06f          	jal	x0,8000a334 <__adddf3+0x180>
    8000a5c0:	7ff00793          	addi	x15,x0,2047
    8000a5c4:	e6f684e3          	beq	x13,x15,8000a42c <__adddf3+0x278>
    8000a5c8:	00680333          	add	x6,x16,x6
    8000a5cc:	00135813          	srli	x16,x6,0x1
    8000a5d0:	00068413          	addi	x8,x13,0
    8000a5d4:	cc9ff06f          	jal	x0,8000a29c <__adddf3+0xe8>
    8000a5d8:	41030933          	sub	x18,x6,x16
    8000a5dc:	00058493          	addi	x9,x11,0
    8000a5e0:	c81ff06f          	jal	x0,8000a260 <__adddf3+0xac>
    8000a5e4:	00680833          	add	x16,x16,x6
    8000a5e8:	f85ff06f          	jal	x0,8000a56c <__adddf3+0x3b8>
    8000a5ec:	40680833          	sub	x16,x16,x6
    8000a5f0:	c5dff06f          	jal	x0,8000a24c <__adddf3+0x98>
    8000a5f4:	04000793          	addi	x15,x0,64
    8000a5f8:	40b787bb          	subw	x15,x15,x11
    8000a5fc:	00f817b3          	sll	x15,x16,x15
    8000a600:	00b855b3          	srl	x11,x16,x11
    8000a604:	00f037b3          	sltu	x15,x0,x15
    8000a608:	00f5e5b3          	or	x11,x11,x15
    8000a60c:	00658833          	add	x16,x11,x6
    8000a610:	00050413          	addi	x8,x10,0
    8000a614:	f59ff06f          	jal	x0,8000a56c <__adddf3+0x3b8>
    8000a618:	d20810e3          	bne	x16,x0,8000a338 <__adddf3+0x184>
    8000a61c:	000e0693          	addi	x13,x28,0
    8000a620:	d15ff06f          	jal	x0,8000a334 <__adddf3+0x180>
    8000a624:	41030833          	sub	x16,x6,x16
    8000a628:	00050413          	addi	x8,x10,0
    8000a62c:	00058493          	addi	x9,x11,0
    8000a630:	c1dff06f          	jal	x0,8000a24c <__adddf3+0x98>
    8000a634:	02030c63          	beq	x6,x0,8000a66c <__adddf3+0x4b8>
    8000a638:	00058893          	addi	x17,x11,0
    8000a63c:	000e0793          	addi	x15,x28,0
    8000a640:	00000513          	addi	x10,x0,0
    8000a644:	ca5ff06f          	jal	x0,8000a2e8 <__adddf3+0x134>
    8000a648:	00050413          	addi	x8,x10,0
    8000a64c:	00030813          	addi	x16,x6,0
    8000a650:	dbdff06f          	jal	x0,8000a40c <__adddf3+0x258>
    8000a654:	000e0793          	addi	x15,x28,0
    8000a658:	00000513          	addi	x10,x0,0
    8000a65c:	c8dff06f          	jal	x0,8000a2e8 <__adddf3+0x134>
    8000a660:	00680833          	add	x16,x16,x6
    8000a664:	00050413          	addi	x8,x10,0
    8000a668:	f05ff06f          	jal	x0,8000a56c <__adddf3+0x3b8>
    8000a66c:	00000893          	addi	x17,x0,0
    8000a670:	00000513          	addi	x10,x0,0
    8000a674:	00000793          	addi	x15,x0,0
    8000a678:	c71ff06f          	jal	x0,8000a2e8 <__adddf3+0x134>
    8000a67c:	02078063          	beq	x15,x0,8000a69c <__adddf3+0x4e8>
    8000a680:	0037d793          	srli	x15,x15,0x3
    8000a684:	00e7f7b3          	and	x15,x15,x14
    8000a688:	c61ff06f          	jal	x0,8000a2e8 <__adddf3+0x134>
    8000a68c:	0037d793          	srli	x15,x15,0x3
    8000a690:	00e7f7b3          	and	x15,x15,x14
    8000a694:	00058893          	addi	x17,x11,0
    8000a698:	c51ff06f          	jal	x0,8000a2e8 <__adddf3+0x134>
    8000a69c:	00000893          	addi	x17,x0,0
    8000a6a0:	00000793          	addi	x15,x0,0
    8000a6a4:	c45ff06f          	jal	x0,8000a2e8 <__adddf3+0x134>

000000008000a6a8 <__gedf2>:
    8000a6a8:	03455613          	srli	x12,x10,0x34
    8000a6ac:	fff00713          	addi	x14,x0,-1
    8000a6b0:	00c75713          	srli	x14,x14,0xc
    8000a6b4:	0345d693          	srli	x13,x11,0x34
    8000a6b8:	7ff67613          	andi	x12,x12,2047
    8000a6bc:	7ff00813          	addi	x16,x0,2047
    8000a6c0:	00a778b3          	and	x17,x14,x10
    8000a6c4:	03f55793          	srli	x15,x10,0x3f
    8000a6c8:	00b77733          	and	x14,x14,x11
    8000a6cc:	7ff6f513          	andi	x10,x13,2047
    8000a6d0:	03f5d593          	srli	x11,x11,0x3f
    8000a6d4:	05060063          	beq	x12,x16,8000a714 <__gedf2+0x6c>
    8000a6d8:	03050063          	beq	x10,x16,8000a6f8 <__gedf2+0x50>
    8000a6dc:	04061863          	bne	x12,x0,8000a72c <__gedf2+0x84>
    8000a6e0:	02051063          	bne	x10,x0,8000a700 <__gedf2+0x58>
    8000a6e4:	06070a63          	beq	x14,x0,8000a758 <__gedf2+0xb0>
    8000a6e8:	08089063          	bne	x17,x0,8000a768 <__gedf2+0xc0>
    8000a6ec:	00100513          	addi	x10,x0,1
    8000a6f0:	06058063          	beq	x11,x0,8000a750 <__gedf2+0xa8>
    8000a6f4:	00008067          	jalr	x0,0(x1)
    8000a6f8:	06071463          	bne	x14,x0,8000a760 <__gedf2+0xb8>
    8000a6fc:	00061463          	bne	x12,x0,8000a704 <__gedf2+0x5c>
    8000a700:	fe0886e3          	beq	x17,x0,8000a6ec <__gedf2+0x44>
    8000a704:	04b78263          	beq	x15,x11,8000a748 <__gedf2+0xa0>
    8000a708:	04079463          	bne	x15,x0,8000a750 <__gedf2+0xa8>
    8000a70c:	00100513          	addi	x10,x0,1
    8000a710:	00008067          	jalr	x0,0(x1)
    8000a714:	04089663          	bne	x17,x0,8000a760 <__gedf2+0xb8>
    8000a718:	fec518e3          	bne	x10,x12,8000a708 <__gedf2+0x60>
    8000a71c:	04071263          	bne	x14,x0,8000a760 <__gedf2+0xb8>
    8000a720:	feb794e3          	bne	x15,x11,8000a708 <__gedf2+0x60>
    8000a724:	00000513          	addi	x10,x0,0
    8000a728:	00008067          	jalr	x0,0(x1)
    8000a72c:	fc050ee3          	beq	x10,x0,8000a708 <__gedf2+0x60>
    8000a730:	fcb79ce3          	bne	x15,x11,8000a708 <__gedf2+0x60>
    8000a734:	fcc54ae3          	blt	x10,x12,8000a708 <__gedf2+0x60>
    8000a738:	00a64863          	blt	x12,x10,8000a748 <__gedf2+0xa0>
    8000a73c:	fd1766e3          	bltu	x14,x17,8000a708 <__gedf2+0x60>
    8000a740:	00000513          	addi	x10,x0,0
    8000a744:	fae8f8e3          	bgeu	x17,x14,8000a6f4 <__gedf2+0x4c>
    8000a748:	00100513          	addi	x10,x0,1
    8000a74c:	fa0794e3          	bne	x15,x0,8000a6f4 <__gedf2+0x4c>
    8000a750:	fff00513          	addi	x10,x0,-1
    8000a754:	00008067          	jalr	x0,0(x1)
    8000a758:	fa0898e3          	bne	x17,x0,8000a708 <__gedf2+0x60>
    8000a75c:	00008067          	jalr	x0,0(x1)
    8000a760:	ffe00513          	addi	x10,x0,-2
    8000a764:	00008067          	jalr	x0,0(x1)
    8000a768:	fcb78ae3          	beq	x15,x11,8000a73c <__gedf2+0x94>
    8000a76c:	f9dff06f          	jal	x0,8000a708 <__gedf2+0x60>

000000008000a770 <__muldf3>:
    8000a770:	fb010113          	addi	x2,x2,-80
    8000a774:	03455793          	srli	x15,x10,0x34
    8000a778:	03213823          	sd	x18,48(x2)
    8000a77c:	03313423          	sd	x19,40(x2)
    8000a780:	04113423          	sd	x1,72(x2)
    8000a784:	00c51993          	slli	x19,x10,0xc
    8000a788:	04813023          	sd	x8,64(x2)
    8000a78c:	02913c23          	sd	x9,56(x2)
    8000a790:	03413023          	sd	x20,32(x2)
    8000a794:	01513c23          	sd	x21,24(x2)
    8000a798:	01613823          	sd	x22,16(x2)
    8000a79c:	7ff7f793          	andi	x15,x15,2047
    8000a7a0:	00c9d993          	srli	x19,x19,0xc
    8000a7a4:	03f55913          	srli	x18,x10,0x3f
    8000a7a8:	24078e63          	beq	x15,x0,8000aa04 <__muldf3+0x294>
    8000a7ac:	7ff00713          	addi	x14,x0,2047
    8000a7b0:	18e78063          	beq	x15,x14,8000a930 <__muldf3+0x1c0>
    8000a7b4:	00100713          	addi	x14,x0,1
    8000a7b8:	00399993          	slli	x19,x19,0x3
    8000a7bc:	03771713          	slli	x14,x14,0x37
    8000a7c0:	00e9e9b3          	or	x19,x19,x14
    8000a7c4:	c0178b13          	addi	x22,x15,-1023
    8000a7c8:	00000493          	addi	x9,x0,0
    8000a7cc:	00000a93          	addi	x21,x0,0
    8000a7d0:	0345d793          	srli	x15,x11,0x34
    8000a7d4:	00c59a13          	slli	x20,x11,0xc
    8000a7d8:	7ff7f793          	andi	x15,x15,2047
    8000a7dc:	00ca5a13          	srli	x20,x20,0xc
    8000a7e0:	03f5d413          	srli	x8,x11,0x3f
    8000a7e4:	16078a63          	beq	x15,x0,8000a958 <__muldf3+0x1e8>
    8000a7e8:	7ff00713          	addi	x14,x0,2047
    8000a7ec:	1ee78263          	beq	x15,x14,8000a9d0 <__muldf3+0x260>
    8000a7f0:	00100713          	addi	x14,x0,1
    8000a7f4:	003a1a13          	slli	x20,x20,0x3
    8000a7f8:	03771713          	slli	x14,x14,0x37
    8000a7fc:	c0178793          	addi	x15,x15,-1023
    8000a800:	00ea6a33          	or	x20,x20,x14
    8000a804:	00fb0b33          	add	x22,x22,x15
    8000a808:	00000593          	addi	x11,x0,0
    8000a80c:	00a00793          	addi	x15,x0,10
    8000a810:	001b0613          	addi	x12,x22,1
    8000a814:	1497ce63          	blt	x15,x9,8000a970 <__muldf3+0x200>
    8000a818:	00894533          	xor	x10,x18,x8
    8000a81c:	00200793          	addi	x15,x0,2
    8000a820:	00050693          	addi	x13,x10,0
    8000a824:	2097d263          	bge	x15,x9,8000aa28 <__muldf3+0x2b8>
    8000a828:	00100713          	addi	x14,x0,1
    8000a82c:	00971733          	sll	x14,x14,x9
    8000a830:	53077793          	andi	x15,x14,1328
    8000a834:	14079063          	bne	x15,x0,8000a974 <__muldf3+0x204>
    8000a838:	24077793          	andi	x15,x14,576
    8000a83c:	28079663          	bne	x15,x0,8000aac8 <__muldf3+0x358>
    8000a840:	08877713          	andi	x14,x14,136
    8000a844:	26071a63          	bne	x14,x0,8000aab8 <__muldf3+0x348>
    8000a848:	fff00793          	addi	x15,x0,-1
    8000a84c:	0207d793          	srli	x15,x15,0x20
    8000a850:	0209d593          	srli	x11,x19,0x20
    8000a854:	020a5813          	srli	x16,x20,0x20
    8000a858:	00f9f9b3          	and	x19,x19,x15
    8000a85c:	00fa77b3          	and	x15,x20,x15
    8000a860:	03378533          	mul	x10,x15,x19
    8000a864:	02f587b3          	mul	x15,x11,x15
    8000a868:	02055713          	srli	x14,x10,0x20
    8000a86c:	033809b3          	mul	x19,x16,x19
    8000a870:	00f989b3          	add	x19,x19,x15
    8000a874:	01370733          	add	x14,x14,x19
    8000a878:	030585b3          	mul	x11,x11,x16
    8000a87c:	00f77863          	bgeu	x14,x15,8000a88c <__muldf3+0x11c>
    8000a880:	00100793          	addi	x15,x0,1
    8000a884:	02079793          	slli	x15,x15,0x20
    8000a888:	00f585b3          	add	x11,x11,x15
    8000a88c:	fff00813          	addi	x16,x0,-1
    8000a890:	02085813          	srli	x16,x16,0x20
    8000a894:	010777b3          	and	x15,x14,x16
    8000a898:	02079793          	slli	x15,x15,0x20
    8000a89c:	01057533          	and	x10,x10,x16
    8000a8a0:	00a787b3          	add	x15,x15,x10
    8000a8a4:	02075713          	srli	x14,x14,0x20
    8000a8a8:	00979993          	slli	x19,x15,0x9
    8000a8ac:	00b70733          	add	x14,x14,x11
    8000a8b0:	0377d793          	srli	x15,x15,0x37
    8000a8b4:	00971713          	slli	x14,x14,0x9
    8000a8b8:	013039b3          	sltu	x19,x0,x19
    8000a8bc:	00f9e9b3          	or	x19,x19,x15
    8000a8c0:	00771793          	slli	x15,x14,0x7
    8000a8c4:	013769b3          	or	x19,x14,x19
    8000a8c8:	0007da63          	bge	x15,x0,8000a8dc <__muldf3+0x16c>
    8000a8cc:	0019d793          	srli	x15,x19,0x1
    8000a8d0:	0019f993          	andi	x19,x19,1
    8000a8d4:	0137e9b3          	or	x19,x15,x19
    8000a8d8:	00060b13          	addi	x22,x12,0
    8000a8dc:	3ffb0793          	addi	x15,x22,1023
    8000a8e0:	1ef05e63          	bge	x0,x15,8000aadc <__muldf3+0x36c>
    8000a8e4:	0079f713          	andi	x14,x19,7
    8000a8e8:	00070a63          	beq	x14,x0,8000a8fc <__muldf3+0x18c>
    8000a8ec:	00f9f713          	andi	x14,x19,15
    8000a8f0:	00400613          	addi	x12,x0,4
    8000a8f4:	00c70463          	beq	x14,x12,8000a8fc <__muldf3+0x18c>
    8000a8f8:	00498993          	addi	x19,x19,4
    8000a8fc:	00799713          	slli	x14,x19,0x7
    8000a900:	00075c63          	bge	x14,x0,8000a918 <__muldf3+0x1a8>
    8000a904:	fff00793          	addi	x15,x0,-1
    8000a908:	03879793          	slli	x15,x15,0x38
    8000a90c:	fff78793          	addi	x15,x15,-1
    8000a910:	00f9f9b3          	and	x19,x19,x15
    8000a914:	400b0793          	addi	x15,x22,1024
    8000a918:	7fe00713          	addi	x14,x0,2046
    8000a91c:	20f74a63          	blt	x14,x15,8000ab30 <__muldf3+0x3c0>
    8000a920:	00999713          	slli	x14,x19,0x9
    8000a924:	00c75713          	srli	x14,x14,0xc
    8000a928:	7ff7f793          	andi	x15,x15,2047
    8000a92c:	06c0006f          	jal	x0,8000a998 <__muldf3+0x228>
    8000a930:	16099c63          	bne	x19,x0,8000aaa8 <__muldf3+0x338>
    8000a934:	0345d793          	srli	x15,x11,0x34
    8000a938:	00c59a13          	slli	x20,x11,0xc
    8000a93c:	7ff7f793          	andi	x15,x15,2047
    8000a940:	00800493          	addi	x9,x0,8
    8000a944:	7ff00b13          	addi	x22,x0,2047
    8000a948:	00200a93          	addi	x21,x0,2
    8000a94c:	00ca5a13          	srli	x20,x20,0xc
    8000a950:	03f5d413          	srli	x8,x11,0x3f
    8000a954:	e8079ae3          	bne	x15,x0,8000a7e8 <__muldf3+0x78>
    8000a958:	100a1e63          	bne	x20,x0,8000aa74 <__muldf3+0x304>
    8000a95c:	0014e493          	ori	x9,x9,1
    8000a960:	00a00793          	addi	x15,x0,10
    8000a964:	00100593          	addi	x11,x0,1
    8000a968:	001b0613          	addi	x12,x22,1
    8000a96c:	ea97d6e3          	bge	x15,x9,8000a818 <__muldf3+0xa8>
    8000a970:	00090513          	addi	x10,x18,0
    8000a974:	00200793          	addi	x15,x0,2
    8000a978:	0afa8063          	beq	x21,x15,8000aa18 <__muldf3+0x2a8>
    8000a97c:	00300793          	addi	x15,x0,3
    8000a980:	14fa8463          	beq	x21,x15,8000aac8 <__muldf3+0x358>
    8000a984:	00100793          	addi	x15,x0,1
    8000a988:	00050693          	addi	x13,x10,0
    8000a98c:	18fa9e63          	bne	x21,x15,8000ab28 <__muldf3+0x3b8>
    8000a990:	00000793          	addi	x15,x0,0
    8000a994:	00000713          	addi	x14,x0,0
    8000a998:	04813083          	ld	x1,72(x2)
    8000a99c:	04013403          	ld	x8,64(x2)
    8000a9a0:	03479513          	slli	x10,x15,0x34
    8000a9a4:	00e56533          	or	x10,x10,x14
    8000a9a8:	03f69793          	slli	x15,x13,0x3f
    8000a9ac:	03813483          	ld	x9,56(x2)
    8000a9b0:	03013903          	ld	x18,48(x2)
    8000a9b4:	02813983          	ld	x19,40(x2)
    8000a9b8:	02013a03          	ld	x20,32(x2)
    8000a9bc:	01813a83          	ld	x21,24(x2)
    8000a9c0:	01013b03          	ld	x22,16(x2)
    8000a9c4:	00f56533          	or	x10,x10,x15
    8000a9c8:	05010113          	addi	x2,x2,80
    8000a9cc:	00008067          	jalr	x0,0(x1)
    8000a9d0:	7ffb0713          	addi	x14,x22,2047
    8000a9d4:	0c0a0263          	beq	x20,x0,8000aa98 <__muldf3+0x328>
    8000a9d8:	00001637          	lui	x12,0x1
    8000a9dc:	80060613          	addi	x12,x12,-2048 # 800 <buflen.1+0x780>
    8000a9e0:	0034e493          	ori	x9,x9,3
    8000a9e4:	00a00693          	addi	x13,x0,10
    8000a9e8:	00cb0633          	add	x12,x22,x12
    8000a9ec:	1096ce63          	blt	x13,x9,8000ab08 <__muldf3+0x398>
    8000a9f0:	008946b3          	xor	x13,x18,x8
    8000a9f4:	00068513          	addi	x10,x13,0
    8000a9f8:	00070b13          	addi	x22,x14,0
    8000a9fc:	00300593          	addi	x11,x0,3
    8000aa00:	e29ff06f          	jal	x0,8000a828 <__muldf3+0xb8>
    8000aa04:	04099063          	bne	x19,x0,8000aa44 <__muldf3+0x2d4>
    8000aa08:	00400493          	addi	x9,x0,4
    8000aa0c:	00000b13          	addi	x22,x0,0
    8000aa10:	00100a93          	addi	x21,x0,1
    8000aa14:	dbdff06f          	jal	x0,8000a7d0 <__muldf3+0x60>
    8000aa18:	00050693          	addi	x13,x10,0
    8000aa1c:	7ff00793          	addi	x15,x0,2047
    8000aa20:	00000713          	addi	x14,x0,0
    8000aa24:	f75ff06f          	jal	x0,8000a998 <__muldf3+0x228>
    8000aa28:	fff48493          	addi	x9,x9,-1
    8000aa2c:	00100713          	addi	x14,x0,1
    8000aa30:	e0976ce3          	bltu	x14,x9,8000a848 <__muldf3+0xd8>
    8000aa34:	fef582e3          	beq	x11,x15,8000aa18 <__muldf3+0x2a8>
    8000aa38:	000a0993          	addi	x19,x20,0
    8000aa3c:	00058a93          	addi	x21,x11,0
    8000aa40:	f45ff06f          	jal	x0,8000a984 <__muldf3+0x214>
    8000aa44:	00098513          	addi	x10,x19,0
    8000aa48:	00b13423          	sd	x11,8(x2)
    8000aa4c:	ef8ff0ef          	jal	x1,8000a144 <__clzdi2>
    8000aa50:	0005071b          	addiw	x14,x10,0
    8000aa54:	c0d00793          	addi	x15,x0,-1011
    8000aa58:	ff85051b          	addiw	x10,x10,-8
    8000aa5c:	00813583          	ld	x11,8(x2)
    8000aa60:	00a999b3          	sll	x19,x19,x10
    8000aa64:	40e78b33          	sub	x22,x15,x14
    8000aa68:	00000493          	addi	x9,x0,0
    8000aa6c:	00000a93          	addi	x21,x0,0
    8000aa70:	d61ff06f          	jal	x0,8000a7d0 <__muldf3+0x60>
    8000aa74:	000a0513          	addi	x10,x20,0
    8000aa78:	eccff0ef          	jal	x1,8000a144 <__clzdi2>
    8000aa7c:	0005079b          	addiw	x15,x10,0
    8000aa80:	40fb07b3          	sub	x15,x22,x15
    8000aa84:	ff85051b          	addiw	x10,x10,-8
    8000aa88:	00aa1a33          	sll	x20,x20,x10
    8000aa8c:	c0d78b13          	addi	x22,x15,-1011
    8000aa90:	00000593          	addi	x11,x0,0
    8000aa94:	d79ff06f          	jal	x0,8000a80c <__muldf3+0x9c>
    8000aa98:	0024e493          	ori	x9,x9,2
    8000aa9c:	00070b13          	addi	x22,x14,0
    8000aaa0:	00200593          	addi	x11,x0,2
    8000aaa4:	d69ff06f          	jal	x0,8000a80c <__muldf3+0x9c>
    8000aaa8:	00c00493          	addi	x9,x0,12
    8000aaac:	7ff00b13          	addi	x22,x0,2047
    8000aab0:	00300a93          	addi	x21,x0,3
    8000aab4:	d1dff06f          	jal	x0,8000a7d0 <__muldf3+0x60>
    8000aab8:	000a0993          	addi	x19,x20,0
    8000aabc:	00058a93          	addi	x21,x11,0
    8000aac0:	00040513          	addi	x10,x8,0
    8000aac4:	eb1ff06f          	jal	x0,8000a974 <__muldf3+0x204>
    8000aac8:	00100713          	addi	x14,x0,1
    8000aacc:	00000693          	addi	x13,x0,0
    8000aad0:	7ff00793          	addi	x15,x0,2047
    8000aad4:	03371713          	slli	x14,x14,0x33
    8000aad8:	ec1ff06f          	jal	x0,8000a998 <__muldf3+0x228>
    8000aadc:	06078063          	beq	x15,x0,8000ab3c <__muldf3+0x3cc>
    8000aae0:	00100613          	addi	x12,x0,1
    8000aae4:	40f60633          	sub	x12,x12,x15
    8000aae8:	03800593          	addi	x11,x0,56
    8000aaec:	00000793          	addi	x15,x0,0
    8000aaf0:	00000713          	addi	x14,x0,0
    8000aaf4:	eac5c2e3          	blt	x11,x12,8000a998 <__muldf3+0x228>
    8000aaf8:	04000793          	addi	x15,x0,64
    8000aafc:	0006071b          	addiw	x14,x12,0
    8000ab00:	40c787bb          	subw	x15,x15,x12
    8000ab04:	0400006f          	jal	x0,8000ab44 <__muldf3+0x3d4>
    8000ab08:	00100713          	addi	x14,x0,1
    8000ab0c:	00f00593          	addi	x11,x0,15
    8000ab10:	00000693          	addi	x13,x0,0
    8000ab14:	03371713          	slli	x14,x14,0x33
    8000ab18:	000a0993          	addi	x19,x20,0
    8000ab1c:	00300a93          	addi	x21,x0,3
    8000ab20:	e6b48ce3          	beq	x9,x11,8000a998 <__muldf3+0x228>
    8000ab24:	f9dff06f          	jal	x0,8000aac0 <__muldf3+0x350>
    8000ab28:	00060b13          	addi	x22,x12,0
    8000ab2c:	db1ff06f          	jal	x0,8000a8dc <__muldf3+0x16c>
    8000ab30:	7ff00793          	addi	x15,x0,2047
    8000ab34:	00000713          	addi	x14,x0,0
    8000ab38:	e61ff06f          	jal	x0,8000a998 <__muldf3+0x228>
    8000ab3c:	03f00793          	addi	x15,x0,63
    8000ab40:	00100713          	addi	x14,x0,1
    8000ab44:	00f997b3          	sll	x15,x19,x15
    8000ab48:	00f037b3          	sltu	x15,x0,x15
    8000ab4c:	00e9d733          	srl	x14,x19,x14
    8000ab50:	00f76733          	or	x14,x14,x15
    8000ab54:	00777793          	andi	x15,x14,7
    8000ab58:	00078a63          	beq	x15,x0,8000ab6c <__muldf3+0x3fc>
    8000ab5c:	00f77793          	andi	x15,x14,15
    8000ab60:	00400613          	addi	x12,x0,4
    8000ab64:	00c78463          	beq	x15,x12,8000ab6c <__muldf3+0x3fc>
    8000ab68:	00470713          	addi	x14,x14,4
    8000ab6c:	00871793          	slli	x15,x14,0x8
    8000ab70:	0007d863          	bge	x15,x0,8000ab80 <__muldf3+0x410>
    8000ab74:	00100793          	addi	x15,x0,1
    8000ab78:	00000713          	addi	x14,x0,0
    8000ab7c:	e1dff06f          	jal	x0,8000a998 <__muldf3+0x228>
    8000ab80:	00971713          	slli	x14,x14,0x9
    8000ab84:	00c75713          	srli	x14,x14,0xc
    8000ab88:	00000793          	addi	x15,x0,0
    8000ab8c:	e0dff06f          	jal	x0,8000a998 <__muldf3+0x228>

000000008000ab90 <__subdf3>:
    8000ab90:	fff00793          	addi	x15,x0,-1
    8000ab94:	fe010113          	addi	x2,x2,-32
    8000ab98:	00c7d793          	srli	x15,x15,0xc
    8000ab9c:	0345d693          	srli	x13,x11,0x34
    8000aba0:	00a7f633          	and	x12,x15,x10
    8000aba4:	00813823          	sd	x8,16(x2)
    8000aba8:	00b7f7b3          	and	x15,x15,x11
    8000abac:	00913423          	sd	x9,8(x2)
    8000abb0:	03455413          	srli	x8,x10,0x34
    8000abb4:	03f55493          	srli	x9,x10,0x3f
    8000abb8:	00113c23          	sd	x1,24(x2)
    8000abbc:	7ff6f693          	andi	x13,x13,2047
    8000abc0:	7ff00813          	addi	x16,x0,2047
    8000abc4:	00060713          	addi	x14,x12,0
    8000abc8:	7ff47413          	andi	x8,x8,2047
    8000abcc:	00048e13          	addi	x28,x9,0
    8000abd0:	00361e93          	slli	x29,x12,0x3
    8000abd4:	03f5d593          	srli	x11,x11,0x3f
    8000abd8:	00379f13          	slli	x30,x15,0x3
    8000abdc:	13068663          	beq	x13,x16,8000ad08 <__subdf3+0x178>
    8000abe0:	0015c313          	xori	x6,x11,1
    8000abe4:	40d4053b          	subw	x10,x8,x13
    8000abe8:	0e648263          	beq	x9,x6,8000accc <__subdf3+0x13c>
    8000abec:	3ea05063          	bge	x0,x10,8000afcc <__subdf3+0x43c>
    8000abf0:	20069263          	bne	x13,x0,8000adf4 <__subdf3+0x264>
    8000abf4:	120f0e63          	beq	x30,x0,8000ad30 <__subdf3+0x1a0>
    8000abf8:	fff5051b          	addiw	x10,x10,-1
    8000abfc:	3e050863          	beq	x10,x0,8000afec <__subdf3+0x45c>
    8000ac00:	0f040263          	beq	x8,x16,8000ace4 <__subdf3+0x154>
    8000ac04:	03800713          	addi	x14,x0,56
    8000ac08:	00100793          	addi	x15,x0,1
    8000ac0c:	00a74e63          	blt	x14,x10,8000ac28 <__subdf3+0x98>
    8000ac10:	04000793          	addi	x15,x0,64
    8000ac14:	40a787bb          	subw	x15,x15,x10
    8000ac18:	00ff17b3          	sll	x15,x30,x15
    8000ac1c:	00af5533          	srl	x10,x30,x10
    8000ac20:	00f037b3          	sltu	x15,x0,x15
    8000ac24:	00f567b3          	or	x15,x10,x15
    8000ac28:	40fe8eb3          	sub	x29,x29,x15
    8000ac2c:	008e9793          	slli	x15,x29,0x8
    8000ac30:	1c07dc63          	bge	x15,x0,8000ae08 <__subdf3+0x278>
    8000ac34:	01213023          	sd	x18,0(x2)
    8000ac38:	009e9913          	slli	x18,x29,0x9
    8000ac3c:	00995913          	srli	x18,x18,0x9
    8000ac40:	00090513          	addi	x10,x18,0
    8000ac44:	d00ff0ef          	jal	x1,8000a144 <__clzdi2>
    8000ac48:	ff85079b          	addiw	x15,x10,-8
    8000ac4c:	00f91933          	sll	x18,x18,x15
    8000ac50:	2087ca63          	blt	x15,x8,8000ae64 <__subdf3+0x2d4>
    8000ac54:	4087853b          	subw	x10,x15,x8
    8000ac58:	0015051b          	addiw	x10,x10,1
    8000ac5c:	04000e93          	addi	x29,x0,64
    8000ac60:	40ae8ebb          	subw	x29,x29,x10
    8000ac64:	01d91eb3          	sll	x29,x18,x29
    8000ac68:	01d03eb3          	sltu	x29,x0,x29
    8000ac6c:	00a95933          	srl	x18,x18,x10
    8000ac70:	01d96eb3          	or	x29,x18,x29
    8000ac74:	00013903          	ld	x18,0(x2)
    8000ac78:	00000413          	addi	x8,x0,0
    8000ac7c:	007ef793          	andi	x15,x29,7
    8000ac80:	00078a63          	beq	x15,x0,8000ac94 <__subdf3+0x104>
    8000ac84:	00fef793          	andi	x15,x29,15
    8000ac88:	00400713          	addi	x14,x0,4
    8000ac8c:	00e78463          	beq	x15,x14,8000ac94 <__subdf3+0x104>
    8000ac90:	004e8e93          	addi	x29,x29,4
    8000ac94:	008e9793          	slli	x15,x29,0x8
    8000ac98:	0807dc63          	bge	x15,x0,8000ad30 <__subdf3+0x1a0>
    8000ac9c:	00140413          	addi	x8,x8,1
    8000aca0:	7ff00793          	addi	x15,x0,2047
    8000aca4:	04f40a63          	beq	x8,x15,8000acf8 <__subdf3+0x168>
    8000aca8:	fff00713          	addi	x14,x0,-1
    8000acac:	03771713          	slli	x14,x14,0x37
    8000acb0:	fff70713          	addi	x14,x14,-1
    8000acb4:	00eef733          	and	x14,x29,x14
    8000acb8:	7ff47513          	andi	x10,x8,2047
    8000acbc:	00971713          	slli	x14,x14,0x9
    8000acc0:	00c75713          	srli	x14,x14,0xc
    8000acc4:	0014fe13          	andi	x28,x9,1
    8000acc8:	0840006f          	jal	x0,8000ad4c <__subdf3+0x1bc>
    8000accc:	0aa05e63          	bge	x0,x10,8000ad88 <__subdf3+0x1f8>
    8000acd0:	1a069863          	bne	x13,x0,8000ae80 <__subdf3+0x2f0>
    8000acd4:	040f0e63          	beq	x30,x0,8000ad30 <__subdf3+0x1a0>
    8000acd8:	fff5051b          	addiw	x10,x10,-1
    8000acdc:	2e050463          	beq	x10,x0,8000afc4 <__subdf3+0x434>
    8000ace0:	1b041863          	bne	x8,x16,8000ae90 <__subdf3+0x300>
    8000ace4:	00100713          	addi	x14,x0,1
    8000ace8:	00000e13          	addi	x28,x0,0
    8000acec:	7ff00513          	addi	x10,x0,2047
    8000acf0:	03371713          	slli	x14,x14,0x33
    8000acf4:	04061c63          	bne	x12,x0,8000ad4c <__subdf3+0x1bc>
    8000acf8:	0014fe13          	andi	x28,x9,1
    8000acfc:	7ff00513          	addi	x10,x0,2047
    8000ad00:	00000713          	addi	x14,x0,0
    8000ad04:	0480006f          	jal	x0,8000ad4c <__subdf3+0x1bc>
    8000ad08:	8014051b          	addiw	x10,x8,-2047
    8000ad0c:	060f0263          	beq	x30,x0,8000ad70 <__subdf3+0x1e0>
    8000ad10:	00058313          	addi	x6,x11,0
    8000ad14:	2eb48663          	beq	x9,x11,8000b000 <__subdf3+0x470>
    8000ad18:	0e050e63          	beq	x10,x0,8000ae14 <__subdf3+0x284>
    8000ad1c:	26041063          	bne	x8,x0,8000af7c <__subdf3+0x3ec>
    8000ad20:	1e0e9c63          	bne	x29,x0,8000af18 <__subdf3+0x388>
    8000ad24:	00068413          	addi	x8,x13,0
    8000ad28:	00030493          	addi	x9,x6,0
    8000ad2c:	000f0e93          	addi	x29,x30,0
    8000ad30:	7ff00793          	addi	x15,x0,2047
    8000ad34:	003ed613          	srli	x12,x29,0x3
    8000ad38:	faf406e3          	beq	x8,x15,8000ace4 <__subdf3+0x154>
    8000ad3c:	00c61613          	slli	x12,x12,0xc
    8000ad40:	00c65713          	srli	x14,x12,0xc
    8000ad44:	7ff47513          	andi	x10,x8,2047
    8000ad48:	0014fe13          	andi	x28,x9,1
    8000ad4c:	01813083          	ld	x1,24(x2)
    8000ad50:	01013403          	ld	x8,16(x2)
    8000ad54:	03451513          	slli	x10,x10,0x34
    8000ad58:	00e56533          	or	x10,x10,x14
    8000ad5c:	03fe1793          	slli	x15,x28,0x3f
    8000ad60:	00813483          	ld	x9,8(x2)
    8000ad64:	00f56533          	or	x10,x10,x15
    8000ad68:	02010113          	addi	x2,x2,32
    8000ad6c:	00008067          	jalr	x0,0(x1)
    8000ad70:	0015c313          	xori	x6,x11,1
    8000ad74:	04648063          	beq	x9,x6,8000adb4 <__subdf3+0x224>
    8000ad78:	08050e63          	beq	x10,x0,8000ae14 <__subdf3+0x284>
    8000ad7c:	00030493          	addi	x9,x6,0
    8000ad80:	f6041ce3          	bne	x8,x0,8000acf8 <__subdf3+0x168>
    8000ad84:	f9dff06f          	jal	x0,8000ad20 <__subdf3+0x190>
    8000ad88:	02050863          	beq	x10,x0,8000adb8 <__subdf3+0x228>
    8000ad8c:	1c040a63          	beq	x8,x0,8000af60 <__subdf3+0x3d0>
    8000ad90:	00100793          	addi	x15,x0,1
    8000ad94:	03779793          	slli	x15,x15,0x37
    8000ad98:	40a008bb          	subw	x17,x0,x10
    8000ad9c:	00feeeb3          	or	x29,x29,x15
    8000ada0:	03800793          	addi	x15,x0,56
    8000ada4:	2717d663          	bge	x15,x17,8000b010 <__subdf3+0x480>
    8000ada8:	001f0e93          	addi	x29,x30,1
    8000adac:	00068413          	addi	x8,x13,0
    8000adb0:	ecdff06f          	jal	x0,8000ac7c <__subdf3+0xec>
    8000adb4:	1a051463          	bne	x10,x0,8000af5c <__subdf3+0x3cc>
    8000adb8:	00140693          	addi	x13,x8,1
    8000adbc:	7fe6f613          	andi	x12,x13,2046
    8000adc0:	1c061463          	bne	x12,x0,8000af88 <__subdf3+0x3f8>
    8000adc4:	1c041e63          	bne	x8,x0,8000afa0 <__subdf3+0x410>
    8000adc8:	280e8e63          	beq	x29,x0,8000b064 <__subdf3+0x4d4>
    8000adcc:	00000513          	addi	x10,x0,0
    8000add0:	f60f0ee3          	beq	x30,x0,8000ad4c <__subdf3+0x1bc>
    8000add4:	01ee8f33          	add	x30,x29,x30
    8000add8:	003f5793          	srli	x15,x30,0x3
    8000addc:	008f1713          	slli	x14,x30,0x8
    8000ade0:	00c79793          	slli	x15,x15,0xc
    8000ade4:	28075a63          	bge	x14,x0,8000b078 <__subdf3+0x4e8>
    8000ade8:	00c7d713          	srli	x14,x15,0xc
    8000adec:	00100513          	addi	x10,x0,1
    8000adf0:	f5dff06f          	jal	x0,8000ad4c <__subdf3+0x1bc>
    8000adf4:	ef0408e3          	beq	x8,x16,8000ace4 <__subdf3+0x154>
    8000adf8:	00100793          	addi	x15,x0,1
    8000adfc:	03779793          	slli	x15,x15,0x37
    8000ae00:	00ff6f33          	or	x30,x30,x15
    8000ae04:	e01ff06f          	jal	x0,8000ac04 <__subdf3+0x74>
    8000ae08:	007ef793          	andi	x15,x29,7
    8000ae0c:	e6079ce3          	bne	x15,x0,8000ac84 <__subdf3+0xf4>
    8000ae10:	f21ff06f          	jal	x0,8000ad30 <__subdf3+0x1a0>
    8000ae14:	00140693          	addi	x13,x8,1
    8000ae18:	7fe6f693          	andi	x13,x13,2046
    8000ae1c:	08069263          	bne	x13,x0,8000aea0 <__subdf3+0x310>
    8000ae20:	18041263          	bne	x8,x0,8000afa4 <__subdf3+0x414>
    8000ae24:	220e8063          	beq	x29,x0,8000b044 <__subdf3+0x4b4>
    8000ae28:	00000513          	addi	x10,x0,0
    8000ae2c:	f20f00e3          	beq	x30,x0,8000ad4c <__subdf3+0x1bc>
    8000ae30:	41ee87b3          	sub	x15,x29,x30
    8000ae34:	00879713          	slli	x14,x15,0x8
    8000ae38:	22075c63          	bge	x14,x0,8000b070 <__subdf3+0x4e0>
    8000ae3c:	41df0733          	sub	x14,x30,x29
    8000ae40:	00871793          	slli	x15,x14,0x8
    8000ae44:	2407dc63          	bge	x15,x0,8000b09c <__subdf3+0x50c>
    8000ae48:	fff00793          	addi	x15,x0,-1
    8000ae4c:	03779793          	slli	x15,x15,0x37
    8000ae50:	fff78793          	addi	x15,x15,-1
    8000ae54:	00f77733          	and	x14,x14,x15
    8000ae58:	00030493          	addi	x9,x6,0
    8000ae5c:	00100513          	addi	x10,x0,1
    8000ae60:	e5dff06f          	jal	x0,8000acbc <__subdf3+0x12c>
    8000ae64:	fff00e93          	addi	x29,x0,-1
    8000ae68:	037e9e93          	slli	x29,x29,0x37
    8000ae6c:	fffe8e93          	addi	x29,x29,-1
    8000ae70:	01d97eb3          	and	x29,x18,x29
    8000ae74:	40f40433          	sub	x8,x8,x15
    8000ae78:	00013903          	ld	x18,0(x2)
    8000ae7c:	e01ff06f          	jal	x0,8000ac7c <__subdf3+0xec>
    8000ae80:	e70402e3          	beq	x8,x16,8000ace4 <__subdf3+0x154>
    8000ae84:	00100793          	addi	x15,x0,1
    8000ae88:	03779793          	slli	x15,x15,0x37
    8000ae8c:	00ff6f33          	or	x30,x30,x15
    8000ae90:	03800793          	addi	x15,x0,56
    8000ae94:	02a7da63          	bge	x15,x10,8000aec8 <__subdf3+0x338>
    8000ae98:	001e8e93          	addi	x29,x29,1
    8000ae9c:	de1ff06f          	jal	x0,8000ac7c <__subdf3+0xec>
    8000aea0:	01213023          	sd	x18,0(x2)
    8000aea4:	41ee8933          	sub	x18,x29,x30
    8000aea8:	00891793          	slli	x15,x18,0x8
    8000aeac:	1007c663          	blt	x15,x0,8000afb8 <__subdf3+0x428>
    8000aeb0:	d80918e3          	bne	x18,x0,8000ac40 <__subdf3+0xb0>
    8000aeb4:	00013903          	ld	x18,0(x2)
    8000aeb8:	00000e13          	addi	x28,x0,0
    8000aebc:	00000513          	addi	x10,x0,0
    8000aec0:	00000713          	addi	x14,x0,0
    8000aec4:	e89ff06f          	jal	x0,8000ad4c <__subdf3+0x1bc>
    8000aec8:	04000793          	addi	x15,x0,64
    8000aecc:	40a787bb          	subw	x15,x15,x10
    8000aed0:	00ff17b3          	sll	x15,x30,x15
    8000aed4:	00af5533          	srl	x10,x30,x10
    8000aed8:	00f037b3          	sltu	x15,x0,x15
    8000aedc:	00f56533          	or	x10,x10,x15
    8000aee0:	00ae8eb3          	add	x29,x29,x10
    8000aee4:	008e9793          	slli	x15,x29,0x8
    8000aee8:	f207d0e3          	bge	x15,x0,8000ae08 <__subdf3+0x278>
    8000aeec:	00140413          	addi	x8,x8,1
    8000aef0:	7ff00793          	addi	x15,x0,2047
    8000aef4:	10f40063          	beq	x8,x15,8000aff4 <__subdf3+0x464>
    8000aef8:	1ff00793          	addi	x15,x0,511
    8000aefc:	03679793          	slli	x15,x15,0x36
    8000af00:	001ed713          	srli	x14,x29,0x1
    8000af04:	fff78793          	addi	x15,x15,-1
    8000af08:	001efe93          	andi	x29,x29,1
    8000af0c:	00f777b3          	and	x15,x14,x15
    8000af10:	01d7eeb3          	or	x29,x15,x29
    8000af14:	d69ff06f          	jal	x0,8000ac7c <__subdf3+0xec>
    8000af18:	fff54893          	xori	x17,x10,-1
    8000af1c:	10088c63          	beq	x17,x0,8000b034 <__subdf3+0x4a4>
    8000af20:	7ff00713          	addi	x14,x0,2047
    8000af24:	00030493          	addi	x9,x6,0
    8000af28:	04e68663          	beq	x13,x14,8000af74 <__subdf3+0x3e4>
    8000af2c:	03800713          	addi	x14,x0,56
    8000af30:	00100793          	addi	x15,x0,1
    8000af34:	01174e63          	blt	x14,x17,8000af50 <__subdf3+0x3c0>
    8000af38:	04000793          	addi	x15,x0,64
    8000af3c:	411787bb          	subw	x15,x15,x17
    8000af40:	00fe97b3          	sll	x15,x29,x15
    8000af44:	011ed8b3          	srl	x17,x29,x17
    8000af48:	00f037b3          	sltu	x15,x0,x15
    8000af4c:	00f8e7b3          	or	x15,x17,x15
    8000af50:	40ff0eb3          	sub	x29,x30,x15
    8000af54:	00068413          	addi	x8,x13,0
    8000af58:	cd5ff06f          	jal	x0,8000ac2c <__subdf3+0x9c>
    8000af5c:	d8041ee3          	bne	x8,x0,8000acf8 <__subdf3+0x168>
    8000af60:	0e0e8c63          	beq	x29,x0,8000b058 <__subdf3+0x4c8>
    8000af64:	fff54893          	xori	x17,x10,-1
    8000af68:	10088c63          	beq	x17,x0,8000b080 <__subdf3+0x4f0>
    8000af6c:	7ff00713          	addi	x14,x0,2047
    8000af70:	e2e698e3          	bne	x13,x14,8000ada0 <__subdf3+0x210>
    8000af74:	00078613          	addi	x12,x15,0
    8000af78:	d6dff06f          	jal	x0,8000ace4 <__subdf3+0x154>
    8000af7c:	00058493          	addi	x9,x11,0
    8000af80:	00078613          	addi	x12,x15,0
    8000af84:	d61ff06f          	jal	x0,8000ace4 <__subdf3+0x154>
    8000af88:	7ff00793          	addi	x15,x0,2047
    8000af8c:	06f68463          	beq	x13,x15,8000aff4 <__subdf3+0x464>
    8000af90:	01ee8f33          	add	x30,x29,x30
    8000af94:	001f5e93          	srli	x29,x30,0x1
    8000af98:	00068413          	addi	x8,x13,0
    8000af9c:	ce1ff06f          	jal	x0,8000ac7c <__subdf3+0xec>
    8000afa0:	fc0e8ae3          	beq	x29,x0,8000af74 <__subdf3+0x3e4>
    8000afa4:	00100713          	addi	x14,x0,1
    8000afa8:	00000e13          	addi	x28,x0,0
    8000afac:	7ff00513          	addi	x10,x0,2047
    8000afb0:	03371713          	slli	x14,x14,0x33
    8000afb4:	d99ff06f          	jal	x0,8000ad4c <__subdf3+0x1bc>
    8000afb8:	41df0933          	sub	x18,x30,x29
    8000afbc:	00030493          	addi	x9,x6,0
    8000afc0:	c81ff06f          	jal	x0,8000ac40 <__subdf3+0xb0>
    8000afc4:	01ee8eb3          	add	x29,x29,x30
    8000afc8:	f1dff06f          	jal	x0,8000aee4 <__subdf3+0x354>
    8000afcc:	e40504e3          	beq	x10,x0,8000ae14 <__subdf3+0x284>
    8000afd0:	d40408e3          	beq	x8,x0,8000ad20 <__subdf3+0x190>
    8000afd4:	00100793          	addi	x15,x0,1
    8000afd8:	03779793          	slli	x15,x15,0x37
    8000afdc:	40a008bb          	subw	x17,x0,x10
    8000afe0:	00feeeb3          	or	x29,x29,x15
    8000afe4:	00030493          	addi	x9,x6,0
    8000afe8:	f45ff06f          	jal	x0,8000af2c <__subdf3+0x39c>
    8000afec:	41ee8eb3          	sub	x29,x29,x30
    8000aff0:	c3dff06f          	jal	x0,8000ac2c <__subdf3+0x9c>
    8000aff4:	7ff00513          	addi	x10,x0,2047
    8000aff8:	00000713          	addi	x14,x0,0
    8000affc:	d51ff06f          	jal	x0,8000ad4c <__subdf3+0x1bc>
    8000b000:	da050ce3          	beq	x10,x0,8000adb8 <__subdf3+0x228>
    8000b004:	f4040ee3          	beq	x8,x0,8000af60 <__subdf3+0x3d0>
    8000b008:	00078613          	addi	x12,x15,0
    8000b00c:	cd9ff06f          	jal	x0,8000ace4 <__subdf3+0x154>
    8000b010:	04000793          	addi	x15,x0,64
    8000b014:	411787bb          	subw	x15,x15,x17
    8000b018:	00fe97b3          	sll	x15,x29,x15
    8000b01c:	011ed8b3          	srl	x17,x29,x17
    8000b020:	00f037b3          	sltu	x15,x0,x15
    8000b024:	00f8e8b3          	or	x17,x17,x15
    8000b028:	01e88eb3          	add	x29,x17,x30
    8000b02c:	00068413          	addi	x8,x13,0
    8000b030:	eb5ff06f          	jal	x0,8000aee4 <__subdf3+0x354>
    8000b034:	41df0eb3          	sub	x29,x30,x29
    8000b038:	00068413          	addi	x8,x13,0
    8000b03c:	00030493          	addi	x9,x6,0
    8000b040:	bedff06f          	jal	x0,8000ac2c <__subdf3+0x9c>
    8000b044:	040f0463          	beq	x30,x0,8000b08c <__subdf3+0x4fc>
    8000b048:	00030e13          	addi	x28,x6,0
    8000b04c:	00078713          	addi	x14,x15,0
    8000b050:	00000513          	addi	x10,x0,0
    8000b054:	cf9ff06f          	jal	x0,8000ad4c <__subdf3+0x1bc>
    8000b058:	00068413          	addi	x8,x13,0
    8000b05c:	000f0e93          	addi	x29,x30,0
    8000b060:	cd1ff06f          	jal	x0,8000ad30 <__subdf3+0x1a0>
    8000b064:	00078713          	addi	x14,x15,0
    8000b068:	00000513          	addi	x10,x0,0
    8000b06c:	ce1ff06f          	jal	x0,8000ad4c <__subdf3+0x1bc>
    8000b070:	02078e63          	beq	x15,x0,8000b0ac <__subdf3+0x51c>
    8000b074:	00979793          	slli	x15,x15,0x9
    8000b078:	00c7d713          	srli	x14,x15,0xc
    8000b07c:	cd1ff06f          	jal	x0,8000ad4c <__subdf3+0x1bc>
    8000b080:	01ee8eb3          	add	x29,x29,x30
    8000b084:	00068413          	addi	x8,x13,0
    8000b088:	e5dff06f          	jal	x0,8000aee4 <__subdf3+0x354>
    8000b08c:	00000e13          	addi	x28,x0,0
    8000b090:	00000513          	addi	x10,x0,0
    8000b094:	00000713          	addi	x14,x0,0
    8000b098:	cb5ff06f          	jal	x0,8000ad4c <__subdf3+0x1bc>
    8000b09c:	00971713          	slli	x14,x14,0x9
    8000b0a0:	00030e13          	addi	x28,x6,0
    8000b0a4:	00c75713          	srli	x14,x14,0xc
    8000b0a8:	ca5ff06f          	jal	x0,8000ad4c <__subdf3+0x1bc>
    8000b0ac:	00000e13          	addi	x28,x0,0
    8000b0b0:	00000713          	addi	x14,x0,0
    8000b0b4:	c99ff06f          	jal	x0,8000ad4c <__subdf3+0x1bc>

000000008000b0b8 <__floatundidf>:
    8000b0b8:	04050c63          	beq	x10,x0,8000b110 <__floatundidf+0x58>
    8000b0bc:	ff010113          	addi	x2,x2,-16
    8000b0c0:	00813023          	sd	x8,0(x2)
    8000b0c4:	00113423          	sd	x1,8(x2)
    8000b0c8:	00050413          	addi	x8,x10,0
    8000b0cc:	878ff0ef          	jal	x1,8000a144 <__clzdi2>
    8000b0d0:	43e00793          	addi	x15,x0,1086
    8000b0d4:	40a787bb          	subw	x15,x15,x10
    8000b0d8:	43300713          	addi	x14,x0,1075
    8000b0dc:	04f74463          	blt	x14,x15,8000b124 <__floatundidf+0x6c>
    8000b0e0:	0ce78a63          	beq	x15,x14,8000b1b4 <__floatundidf+0xfc>
    8000b0e4:	ff55071b          	addiw	x14,x10,-11
    8000b0e8:	00813083          	ld	x1,8(x2)
    8000b0ec:	00e41533          	sll	x10,x8,x14
    8000b0f0:	00013403          	ld	x8,0(x2)
    8000b0f4:	00c51513          	slli	x10,x10,0xc
    8000b0f8:	7ff7f793          	andi	x15,x15,2047
    8000b0fc:	00c55513          	srli	x10,x10,0xc
    8000b100:	03479793          	slli	x15,x15,0x34
    8000b104:	00a7e533          	or	x10,x15,x10
    8000b108:	01010113          	addi	x2,x2,16
    8000b10c:	00008067          	jalr	x0,0(x1)
    8000b110:	00000793          	addi	x15,x0,0
    8000b114:	03479793          	slli	x15,x15,0x34
    8000b118:	00000513          	addi	x10,x0,0
    8000b11c:	00a7e533          	or	x10,x15,x10
    8000b120:	00008067          	jalr	x0,0(x1)
    8000b124:	43600713          	addi	x14,x0,1078
    8000b128:	06f74663          	blt	x14,x15,8000b194 <__floatundidf+0xdc>
    8000b12c:	00e78663          	beq	x15,x14,8000b138 <__floatundidf+0x80>
    8000b130:	ff85071b          	addiw	x14,x10,-8
    8000b134:	00e41433          	sll	x8,x8,x14
    8000b138:	fff00693          	addi	x13,x0,-1
    8000b13c:	03769693          	slli	x13,x13,0x37
    8000b140:	fff68693          	addi	x13,x13,-1
    8000b144:	00747613          	andi	x12,x8,7
    8000b148:	00d47733          	and	x14,x8,x13
    8000b14c:	02060263          	beq	x12,x0,8000b170 <__floatundidf+0xb8>
    8000b150:	00f47413          	andi	x8,x8,15
    8000b154:	00400613          	addi	x12,x0,4
    8000b158:	00c40c63          	beq	x8,x12,8000b170 <__floatundidf+0xb8>
    8000b15c:	00470713          	addi	x14,x14,4
    8000b160:	00871613          	slli	x12,x14,0x8
    8000b164:	00065663          	bge	x12,x0,8000b170 <__floatundidf+0xb8>
    8000b168:	00d77733          	and	x14,x14,x13
    8000b16c:	00178793          	addi	x15,x15,1
    8000b170:	00813083          	ld	x1,8(x2)
    8000b174:	00013403          	ld	x8,0(x2)
    8000b178:	00971513          	slli	x10,x14,0x9
    8000b17c:	7ff7f793          	andi	x15,x15,2047
    8000b180:	00c55513          	srli	x10,x10,0xc
    8000b184:	03479793          	slli	x15,x15,0x34
    8000b188:	00a7e533          	or	x10,x15,x10
    8000b18c:	01010113          	addi	x2,x2,16
    8000b190:	00008067          	jalr	x0,0(x1)
    8000b194:	0385071b          	addiw	x14,x10,56
    8000b198:	00800693          	addi	x13,x0,8
    8000b19c:	00e41733          	sll	x14,x8,x14
    8000b1a0:	40a686bb          	subw	x13,x13,x10
    8000b1a4:	00e03733          	sltu	x14,x0,x14
    8000b1a8:	00d45433          	srl	x8,x8,x13
    8000b1ac:	00876433          	or	x8,x14,x8
    8000b1b0:	f89ff06f          	jal	x0,8000b138 <__floatundidf+0x80>
    8000b1b4:	00c41413          	slli	x8,x8,0xc
    8000b1b8:	00813083          	ld	x1,8(x2)
    8000b1bc:	00c45513          	srli	x10,x8,0xc
    8000b1c0:	00013403          	ld	x8,0(x2)
    8000b1c4:	43300793          	addi	x15,x0,1075
    8000b1c8:	03479793          	slli	x15,x15,0x34
    8000b1cc:	00a7e533          	or	x10,x15,x10
    8000b1d0:	01010113          	addi	x2,x2,16
    8000b1d4:	00008067          	jalr	x0,0(x1)

Disassembly of section .text.startup:

000000008000b1d8 <main>:
    8000b1d8:	ff010113          	addi	x2,x2,-16
    8000b1dc:	00000517          	auipc	x10,0x0
    8000b1e0:	6dc50513          	addi	x10,x10,1756 # 8000b8b8 <.got.plt+0x6a8>
    8000b1e4:	00113423          	sd	x1,8(x2)
    8000b1e8:	a64fe0ef          	jal	x1,8000944c <printstr>
    8000b1ec:	00813083          	ld	x1,8(x2)
    8000b1f0:	fff00513          	addi	x10,x0,-1
    8000b1f4:	01010113          	addi	x2,x2,16
    8000b1f8:	00008067          	jalr	x0,0(x1)
