
mm.riscv:     file format elf64-littleriscv


Disassembly of section .text.init:

0000000080000000 <_start>:
    80000000:	00000093          	li	ra,0
    80000004:	00000113          	li	sp,0
    80000008:	00000193          	li	gp,0
    8000000c:	00000213          	li	tp,0
    80000010:	00000293          	li	t0,0
    80000014:	00000313          	li	t1,0
    80000018:	00000393          	li	t2,0
    8000001c:	00000413          	li	s0,0
    80000020:	00000493          	li	s1,0
    80000024:	00000513          	li	a0,0
    80000028:	00000593          	li	a1,0
    8000002c:	00000613          	li	a2,0
    80000030:	00000693          	li	a3,0
    80000034:	00000713          	li	a4,0
    80000038:	00000793          	li	a5,0
    8000003c:	00000813          	li	a6,0
    80000040:	00000893          	li	a7,0
    80000044:	00000913          	li	s2,0
    80000048:	00000993          	li	s3,0
    8000004c:	00000a13          	li	s4,0
    80000050:	00000a93          	li	s5,0
    80000054:	00000b13          	li	s6,0
    80000058:	00000b93          	li	s7,0
    8000005c:	00000c13          	li	s8,0
    80000060:	00000c93          	li	s9,0
    80000064:	00000d13          	li	s10,0
    80000068:	00000d93          	li	s11,0
    8000006c:	00000e13          	li	t3,0
    80000070:	00000e93          	li	t4,0
    80000074:	00000f13          	li	t5,0
    80000078:	00000f93          	li	t6,0
    8000007c:	0001e2b7          	lui	t0,0x1e
    80000080:	3002a073          	csrs	mstatus,t0
    80000084:	00100293          	li	t0,1
    80000088:	01f29293          	slli	t0,t0,0x1f
    8000008c:	0002da63          	bgez	t0,800000a0 <_start+0xa0>
    80000090:	00100513          	li	a0,1
    80000094:	00001297          	auipc	t0,0x1
    80000098:	f6a2a623          	sw	a0,-148(t0) # 80001000 <tohost>
    8000009c:	ff5ff06f          	j	80000090 <_start+0x90>
    800000a0:	00000297          	auipc	t0,0x0
    800000a4:	04028293          	addi	t0,t0,64 # 800000e0 <trap_entry>
    800000a8:	30529073          	csrw	mtvec,t0
    800000ac:	0000c197          	auipc	gp,0xc
    800000b0:	8a418193          	addi	gp,gp,-1884 # 8000b950 <__global_pointer$>
    800000b4:	16f18213          	addi	tp,gp,367 # 8000babf <_end+0x3f>
    800000b8:	fc027213          	andi	tp,tp,-64
    800000bc:	f1402573          	csrr	a0,mhartid
    800000c0:	00100593          	li	a1,1
    800000c4:	00b57063          	bgeu	a0,a1,800000c4 <_start+0xc4>
    800000c8:	00150113          	addi	sp,a0,1
    800000cc:	01111113          	slli	sp,sp,0x11
    800000d0:	00410133          	add	sp,sp,tp
    800000d4:	01151613          	slli	a2,a0,0x11
    800000d8:	00c20233          	add	tp,tp,a2
    800000dc:	5840906f          	j	80009660 <_init>

00000000800000e0 <trap_entry>:
    800000e0:	ef010113          	addi	sp,sp,-272
    800000e4:	00113423          	sd	ra,8(sp)
    800000e8:	00213823          	sd	sp,16(sp)
    800000ec:	00313c23          	sd	gp,24(sp)
    800000f0:	02413023          	sd	tp,32(sp)
    800000f4:	02513423          	sd	t0,40(sp)
    800000f8:	02613823          	sd	t1,48(sp)
    800000fc:	02713c23          	sd	t2,56(sp)
    80000100:	04813023          	sd	s0,64(sp)
    80000104:	04913423          	sd	s1,72(sp)
    80000108:	04a13823          	sd	a0,80(sp)
    8000010c:	04b13c23          	sd	a1,88(sp)
    80000110:	06c13023          	sd	a2,96(sp)
    80000114:	06d13423          	sd	a3,104(sp)
    80000118:	06e13823          	sd	a4,112(sp)
    8000011c:	06f13c23          	sd	a5,120(sp)
    80000120:	09013023          	sd	a6,128(sp)
    80000124:	09113423          	sd	a7,136(sp)
    80000128:	09213823          	sd	s2,144(sp)
    8000012c:	09313c23          	sd	s3,152(sp)
    80000130:	0b413023          	sd	s4,160(sp)
    80000134:	0b513423          	sd	s5,168(sp)
    80000138:	0b613823          	sd	s6,176(sp)
    8000013c:	0b713c23          	sd	s7,184(sp)
    80000140:	0d813023          	sd	s8,192(sp)
    80000144:	0d913423          	sd	s9,200(sp)
    80000148:	0da13823          	sd	s10,208(sp)
    8000014c:	0db13c23          	sd	s11,216(sp)
    80000150:	0fc13023          	sd	t3,224(sp)
    80000154:	0fd13423          	sd	t4,232(sp)
    80000158:	0fe13823          	sd	t5,240(sp)
    8000015c:	0ff13c23          	sd	t6,248(sp)
    80000160:	34202573          	csrr	a0,mcause
    80000164:	341025f3          	csrr	a1,mepc
    80000168:	00010613          	mv	a2,sp
    8000016c:	25c090ef          	jal	800093c8 <handle_trap>
    80000170:	34151073          	csrw	mepc,a0
    80000174:	000022b7          	lui	t0,0x2
    80000178:	8002829b          	addiw	t0,t0,-2048 # 1800 <buflen.1+0x1780>
    8000017c:	3002a073          	csrs	mstatus,t0
    80000180:	00813083          	ld	ra,8(sp)
    80000184:	01013103          	ld	sp,16(sp)
    80000188:	01813183          	ld	gp,24(sp)
    8000018c:	02013203          	ld	tp,32(sp)
    80000190:	02813283          	ld	t0,40(sp)
    80000194:	03013303          	ld	t1,48(sp)
    80000198:	03813383          	ld	t2,56(sp)
    8000019c:	04013403          	ld	s0,64(sp)
    800001a0:	04813483          	ld	s1,72(sp)
    800001a4:	05013503          	ld	a0,80(sp)
    800001a8:	05813583          	ld	a1,88(sp)
    800001ac:	06013603          	ld	a2,96(sp)
    800001b0:	06813683          	ld	a3,104(sp)
    800001b4:	07013703          	ld	a4,112(sp)
    800001b8:	07813783          	ld	a5,120(sp)
    800001bc:	08013803          	ld	a6,128(sp)
    800001c0:	08813883          	ld	a7,136(sp)
    800001c4:	09013903          	ld	s2,144(sp)
    800001c8:	09813983          	ld	s3,152(sp)
    800001cc:	0a013a03          	ld	s4,160(sp)
    800001d0:	0a813a83          	ld	s5,168(sp)
    800001d4:	0b013b03          	ld	s6,176(sp)
    800001d8:	0b813b83          	ld	s7,184(sp)
    800001dc:	0c013c03          	ld	s8,192(sp)
    800001e0:	0c813c83          	ld	s9,200(sp)
    800001e4:	0d013d03          	ld	s10,208(sp)
    800001e8:	0d813d83          	ld	s11,216(sp)
    800001ec:	0e013e03          	ld	t3,224(sp)
    800001f0:	0e813e83          	ld	t4,232(sp)
    800001f4:	0f013f03          	ld	t5,240(sp)
    800001f8:	0f813f83          	ld	t6,248(sp)
    800001fc:	11010113          	addi	sp,sp,272
    80000200:	30200073          	mret

Disassembly of section .text:

0000000080002000 <mm_naive>:
    80002000:	ef010113          	addi	sp,sp,-272
    80002004:	10113423          	sd	ra,264(sp)
    80002008:	02b13823          	sd	a1,48(sp)
    8000200c:	08f13823          	sd	a5,144(sp)
    80002010:	28050463          	beqz	a0,80002298 <mm_naive+0x298>
    80002014:	0f313423          	sd	s3,232(sp)
    80002018:	0f413023          	sd	s4,224(sp)
    8000201c:	00381993          	slli	s3,a6,0x3
    80002020:	ffc67a13          	andi	s4,a2,-4
    80002024:	00060593          	mv	a1,a2
    80002028:	0d513c23          	sd	s5,216(sp)
    8000202c:	00361a93          	slli	s5,a2,0x3
    80002030:	03498633          	mul	a2,s3,s4
    80002034:	00070e13          	mv	t3,a4
    80002038:	00181713          	slli	a4,a6,0x1
    8000203c:	01070733          	add	a4,a4,a6
    80002040:	00371793          	slli	a5,a4,0x3
    80002044:	0d813023          	sd	s8,192(sp)
    80002048:	0bb13423          	sd	s11,168(sp)
    8000204c:	003e1c13          	slli	s8,t3,0x3
    80002050:	00000713          	li	a4,0
    80002054:	00000d93          	li	s11,0
    80002058:	04c13423          	sd	a2,72(sp)
    8000205c:	00000613          	li	a2,0
    80002060:	0e913c23          	sd	s1,248(sp)
    80002064:	0d613823          	sd	s6,208(sp)
    80002068:	0ba13823          	sd	s10,176(sp)
    8000206c:	07813c23          	sd	s8,120(sp)
    80002070:	02b13023          	sd	a1,32(sp)
    80002074:	10813023          	sd	s0,256(sp)
    80002078:	0f213823          	sd	s2,240(sp)
    8000207c:	0d713423          	sd	s7,200(sp)
    80002080:	0b913c23          	sd	s9,184(sp)
    80002084:	00da8ab3          	add	s5,s5,a3
    80002088:	00581b13          	slli	s6,a6,0x5
    8000208c:	00481493          	slli	s1,a6,0x4
    80002090:	04f13823          	sd	a5,80(sp)
    80002094:	00060c13          	mv	s8,a2
    80002098:	00070d13          	mv	s10,a4
    8000209c:	08a13023          	sd	a0,128(sp)
    800020a0:	000d8593          	mv	a1,s11
    800020a4:	09c13423          	sd	t3,136(sp)
    800020a8:	09113c23          	sd	a7,152(sp)
    800020ac:	03013783          	ld	a5,48(sp)
    800020b0:	18078a63          	beqz	a5,80002244 <mm_naive+0x244>
    800020b4:	09813703          	ld	a4,152(sp)
    800020b8:	00359c93          	slli	s9,a1,0x3
    800020bc:	014d07b3          	add	a5,s10,s4
    800020c0:	01970733          	add	a4,a4,s9
    800020c4:	00e13823          	sd	a4,16(sp)
    800020c8:	09013703          	ld	a4,144(sp)
    800020cc:	003d1513          	slli	a0,s10,0x3
    800020d0:	00379793          	slli	a5,a5,0x3
    800020d4:	00e13423          	sd	a4,8(sp)
    800020d8:	00f687b3          	add	a5,a3,a5
    800020dc:	00a68733          	add	a4,a3,a0
    800020e0:	02e13c23          	sd	a4,56(sp)
    800020e4:	04f13023          	sd	a5,64(sp)
    800020e8:	00013c23          	sd	zero,24(sp)
    800020ec:	05813c23          	sd	s8,88(sp)
    800020f0:	07a13023          	sd	s10,96(sp)
    800020f4:	06b13423          	sd	a1,104(sp)
    800020f8:	06d13823          	sd	a3,112(sp)
    800020fc:	01013783          	ld	a5,16(sp)
    80002100:	00300713          	li	a4,3
    80002104:	0007bd83          	ld	s11,0(a5)
    80002108:	02013783          	ld	a5,32(sp)
    8000210c:	18f77c63          	bgeu	a4,a5,800022a4 <mm_naive+0x2a4>
    80002110:	00000c13          	li	s8,0
    80002114:	03513423          	sd	s5,40(sp)
    80002118:	00813903          	ld	s2,8(sp)
    8000211c:	000c0a93          	mv	s5,s8
    80002120:	03813403          	ld	s0,56(sp)
    80002124:	05013c03          	ld	s8,80(sp)
    80002128:	00000b93          	li	s7,0
    8000212c:	000b8c93          	mv	s9,s7
    80002130:	000b8d13          	mv	s10,s7
    80002134:	00093583          	ld	a1,0(s2)
    80002138:	00043503          	ld	a0,0(s0)
    8000213c:	000d8613          	mv	a2,s11
    80002140:	004a8a93          	addi	s5,s5,4
    80002144:	6cc070ef          	jal	80009810 <__fma>
    80002148:	01390733          	add	a4,s2,s3
    8000214c:	00073583          	ld	a1,0(a4)
    80002150:	00050d93          	mv	s11,a0
    80002154:	00843503          	ld	a0,8(s0)
    80002158:	000d0613          	mv	a2,s10
    8000215c:	02040413          	addi	s0,s0,32
    80002160:	6b0070ef          	jal	80009810 <__fma>
    80002164:	00990733          	add	a4,s2,s1
    80002168:	00073583          	ld	a1,0(a4)
    8000216c:	00050d13          	mv	s10,a0
    80002170:	ff043503          	ld	a0,-16(s0)
    80002174:	000c8613          	mv	a2,s9
    80002178:	698070ef          	jal	80009810 <__fma>
    8000217c:	01890733          	add	a4,s2,s8
    80002180:	00073583          	ld	a1,0(a4)
    80002184:	00050c93          	mv	s9,a0
    80002188:	ff843503          	ld	a0,-8(s0)
    8000218c:	000b8613          	mv	a2,s7
    80002190:	01690933          	add	s2,s2,s6
    80002194:	67c070ef          	jal	80009810 <__fma>
    80002198:	00050b93          	mv	s7,a0
    8000219c:	f94aece3          	bltu	s5,s4,80002134 <mm_naive+0x134>
    800021a0:	000c8593          	mv	a1,s9
    800021a4:	000d0513          	mv	a0,s10
    800021a8:	741070ef          	jal	8000a0e8 <__adddf3>
    800021ac:	000b8593          	mv	a1,s7
    800021b0:	02813a83          	ld	s5,40(sp)
    800021b4:	735070ef          	jal	8000a0e8 <__adddf3>
    800021b8:	00050413          	mv	s0,a0
    800021bc:	02013783          	ld	a5,32(sp)
    800021c0:	02fa7c63          	bgeu	s4,a5,800021f8 <mm_naive+0x1f8>
    800021c4:	04813783          	ld	a5,72(sp)
    800021c8:	00813703          	ld	a4,8(sp)
    800021cc:	04013903          	ld	s2,64(sp)
    800021d0:	000d8613          	mv	a2,s11
    800021d4:	00e78bb3          	add	s7,a5,a4
    800021d8:	000bb583          	ld	a1,0(s7)
    800021dc:	00093503          	ld	a0,0(s2)
    800021e0:	00890913          	addi	s2,s2,8
    800021e4:	013b8bb3          	add	s7,s7,s3
    800021e8:	628070ef          	jal	80009810 <__fma>
    800021ec:	00050613          	mv	a2,a0
    800021f0:	ff2a94e3          	bne	s5,s2,800021d8 <mm_naive+0x1d8>
    800021f4:	00050d93          	mv	s11,a0
    800021f8:	00040593          	mv	a1,s0
    800021fc:	000d8513          	mv	a0,s11
    80002200:	6e9070ef          	jal	8000a0e8 <__adddf3>
    80002204:	01013783          	ld	a5,16(sp)
    80002208:	01813703          	ld	a4,24(sp)
    8000220c:	00a7b023          	sd	a0,0(a5)
    80002210:	00878793          	addi	a5,a5,8
    80002214:	00f13823          	sd	a5,16(sp)
    80002218:	00813783          	ld	a5,8(sp)
    8000221c:	00170713          	addi	a4,a4,1
    80002220:	00e13c23          	sd	a4,24(sp)
    80002224:	00878793          	addi	a5,a5,8
    80002228:	00f13423          	sd	a5,8(sp)
    8000222c:	03013783          	ld	a5,48(sp)
    80002230:	ece796e3          	bne	a5,a4,800020fc <mm_naive+0xfc>
    80002234:	05813c03          	ld	s8,88(sp)
    80002238:	06013d03          	ld	s10,96(sp)
    8000223c:	06813583          	ld	a1,104(sp)
    80002240:	07013683          	ld	a3,112(sp)
    80002244:	11013783          	ld	a5,272(sp)
    80002248:	001c0c13          	addi	s8,s8,1
    8000224c:	00f585b3          	add	a1,a1,a5
    80002250:	08813783          	ld	a5,136(sp)
    80002254:	00fd0d33          	add	s10,s10,a5
    80002258:	07813783          	ld	a5,120(sp)
    8000225c:	00fa8ab3          	add	s5,s5,a5
    80002260:	08013783          	ld	a5,128(sp)
    80002264:	e58794e3          	bne	a5,s8,800020ac <mm_naive+0xac>
    80002268:	10013403          	ld	s0,256(sp)
    8000226c:	0f813483          	ld	s1,248(sp)
    80002270:	0f013903          	ld	s2,240(sp)
    80002274:	0e813983          	ld	s3,232(sp)
    80002278:	0e013a03          	ld	s4,224(sp)
    8000227c:	0d813a83          	ld	s5,216(sp)
    80002280:	0d013b03          	ld	s6,208(sp)
    80002284:	0c813b83          	ld	s7,200(sp)
    80002288:	0c013c03          	ld	s8,192(sp)
    8000228c:	0b813c83          	ld	s9,184(sp)
    80002290:	0b013d03          	ld	s10,176(sp)
    80002294:	0a813d83          	ld	s11,168(sp)
    80002298:	10813083          	ld	ra,264(sp)
    8000229c:	11010113          	addi	sp,sp,272
    800022a0:	00008067          	ret
    800022a4:	00000413          	li	s0,0
    800022a8:	f15ff06f          	j	800021bc <mm_naive+0x1bc>

00000000800022ac <mm_cb>:
    800022ac:	c7010113          	addi	sp,sp,-912
    800022b0:	38813023          	sd	s0,896(sp)
    800022b4:	36913c23          	sd	s1,888(sp)
    800022b8:	37213823          	sd	s2,880(sp)
    800022bc:	37313423          	sd	s3,872(sp)
    800022c0:	35613823          	sd	s6,848(sp)
    800022c4:	35813023          	sd	s8,832(sp)
    800022c8:	39010413          	addi	s0,sp,912
    800022cc:	38113423          	sd	ra,904(sp)
    800022d0:	37413023          	sd	s4,864(sp)
    800022d4:	35513c23          	sd	s5,856(sp)
    800022d8:	35713423          	sd	s7,840(sp)
    800022dc:	33913c23          	sd	s9,824(sp)
    800022e0:	33a13823          	sd	s10,816(sp)
    800022e4:	33b13423          	sd	s11,808(sp)
    800022e8:	00058313          	mv	t1,a1
    800022ec:	e2b43423          	sd	a1,-472(s0)
    800022f0:	01900593          	li	a1,25
    800022f4:	02b35333          	divu	t1,t1,a1
    800022f8:	01800f13          	li	t5,24
    800022fc:	00060f93          	mv	t6,a2
    80002300:	e2c43023          	sd	a2,-480(s0)
    80002304:	00070613          	mv	a2,a4
    80002308:	00050913          	mv	s2,a0
    8000230c:	00078c13          	mv	s8,a5
    80002310:	00088b13          	mv	s6,a7
    80002314:	00068493          	mv	s1,a3
    80002318:	d6d43823          	sd	a3,-656(s0)
    8000231c:	00002eb7          	lui	t4,0x2
    80002320:	fffe8513          	addi	a0,t4,-1 # 1fff <buflen.1+0x1f7f>
    80002324:	ffffee37          	lui	t3,0xffffe
    80002328:	00043583          	ld	a1,0(s0)
    8000232c:	03efd733          	divu	a4,t6,t5
    80002330:	00131793          	slli	a5,t1,0x1
    80002334:	006787b3          	add	a5,a5,t1
    80002338:	00379793          	slli	a5,a5,0x3
    8000233c:	006788b3          	add	a7,a5,t1
    80002340:	e1143423          	sd	a7,-504(s0)
    80002344:	03e97f33          	remu	t5,s2,t5
    80002348:	00171793          	slli	a5,a4,0x1
    8000234c:	00e787b3          	add	a5,a5,a4
    80002350:	00679293          	slli	t0,a5,0x6
    80002354:	00379393          	slli	t2,a5,0x3
    80002358:	0c800793          	li	a5,200
    8000235c:	d8e43823          	sd	a4,-624(s0)
    80002360:	e6743023          	sd	t2,-416(s0)
    80002364:	02f306b3          	mul	a3,t1,a5
    80002368:	41e909b3          	sub	s3,s2,t5
    8000236c:	02588733          	mul	a4,a7,t0
    80002370:	02d987b3          	mul	a5,s3,a3
    80002374:	00a70733          	add	a4,a4,a0
    80002378:	00f70713          	addi	a4,a4,15
    8000237c:	ff077713          	andi	a4,a4,-16
    80002380:	025988b3          	mul	a7,s3,t0
    80002384:	00a787b3          	add	a5,a5,a0
    80002388:	00f78793          	addi	a5,a5,15
    8000238c:	ff07f793          	andi	a5,a5,-16
    80002390:	01d888b3          	add	a7,a7,t4
    80002394:	41110133          	sub	sp,sp,a7
    80002398:	01010893          	addi	a7,sp,16
    8000239c:	40e10133          	sub	sp,sp,a4
    800023a0:	01010713          	addi	a4,sp,16
    800023a4:	40f10133          	sub	sp,sp,a5
    800023a8:	01010793          	addi	a5,sp,16
    800023ac:	00a888b3          	add	a7,a7,a0
    800023b0:	00a70733          	add	a4,a4,a0
    800023b4:	00a787b3          	add	a5,a5,a0
    800023b8:	01c8f8b3          	and	a7,a7,t3
    800023bc:	01c77733          	and	a4,a4,t3
    800023c0:	01c7f7b3          	and	a5,a5,t3
    800023c4:	d9143423          	sd	a7,-632(s0)
    800023c8:	d8e43023          	sd	a4,-640(s0)
    800023cc:	def43c23          	sd	a5,-520(s0)
    800023d0:	00099463          	bnez	s3,800023d8 <mm_cb+0x12c>
    800023d4:	0280506f          	j	800073fc <mm_cb+0x5150>
    800023d8:	00161513          	slli	a0,a2,0x1
    800023dc:	00c507b3          	add	a5,a0,a2
    800023e0:	00679f93          	slli	t6,a5,0x6
    800023e4:	00361793          	slli	a5,a2,0x3
    800023e8:	f8643423          	sd	t1,-120(s0)
    800023ec:	00048f13          	mv	t5,s1
    800023f0:	00068313          	mv	t1,a3
    800023f4:	e4f43823          	sd	a5,-432(s0)
    800023f8:	00000713          	li	a4,0
    800023fc:	01800a13          	li	s4,24
    80002400:	00060693          	mv	a3,a2
    80002404:	0e038263          	beqz	t2,800024e8 <mm_cb+0x23c>
    80002408:	034758b3          	divu	a7,a4,s4
    8000240c:	d9043e03          	ld	t3,-624(s0)
    80002410:	f8e43023          	sd	a4,-128(s0)
    80002414:	000f0613          	mv	a2,t5
    80002418:	00000793          	li	a5,0
    8000241c:	000f0713          	mv	a4,t5
    80002420:	03c88eb3          	mul	t4,a7,t3
    80002424:	0c060613          	addi	a2,a2,192
    80002428:	00060b93          	mv	s7,a2
    8000242c:	00000f13          	li	t5,0
    80002430:	f7d43c23          	sd	t4,-136(s0)
    80002434:	f7343823          	sd	s3,-144(s0)
    80002438:	f6f43423          	sd	a5,-152(s0)
    8000243c:	f6643023          	sd	t1,-160(s0)
    80002440:	0347d8b3          	divu	a7,a5,s4
    80002444:	01d888b3          	add	a7,a7,t4
    80002448:	00389e13          	slli	t3,a7,0x3
    8000244c:	011e0e33          	add	t3,t3,a7
    80002450:	d8843883          	ld	a7,-632(s0)
    80002454:	009e1e13          	slli	t3,t3,0x9
    80002458:	01c88e33          	add	t3,a7,t3
    8000245c:	f40b8793          	addi	a5,s7,-192
    80002460:	000e0893          	mv	a7,t3
    80002464:	0087bd83          	ld	s11,8(a5)
    80002468:	0107bd03          	ld	s10,16(a5)
    8000246c:	0187ba83          	ld	s5,24(a5)
    80002470:	0207b983          	ld	s3,32(a5)
    80002474:	0287b483          	ld	s1,40(a5)
    80002478:	0307be83          	ld	t4,48(a5)
    8000247c:	0387b303          	ld	t1,56(a5)
    80002480:	0007bc83          	ld	s9,0(a5)
    80002484:	01b8b423          	sd	s11,8(a7)
    80002488:	01a8b823          	sd	s10,16(a7)
    8000248c:	0198b023          	sd	s9,0(a7)
    80002490:	0158bc23          	sd	s5,24(a7)
    80002494:	0338b023          	sd	s3,32(a7)
    80002498:	0298b423          	sd	s1,40(a7)
    8000249c:	03d8b823          	sd	t4,48(a7)
    800024a0:	0268bc23          	sd	t1,56(a7)
    800024a4:	04078793          	addi	a5,a5,64
    800024a8:	04088893          	addi	a7,a7,64
    800024ac:	fafb9ce3          	bne	s7,a5,80002464 <mm_cb+0x1b8>
    800024b0:	e5043783          	ld	a5,-432(s0)
    800024b4:	018f0f13          	addi	t5,t5,24
    800024b8:	0c0e0e13          	addi	t3,t3,192 # ffffffffffffe0c0 <_tbss_end+0xffffffff7fff25bc>
    800024bc:	00fb8bb3          	add	s7,s7,a5
    800024c0:	24000793          	li	a5,576
    800024c4:	f8ff1ce3          	bne	t5,a5,8000245c <mm_cb+0x1b0>
    800024c8:	f6843783          	ld	a5,-152(s0)
    800024cc:	f7843e83          	ld	t4,-136(s0)
    800024d0:	f7043983          	ld	s3,-144(s0)
    800024d4:	01878793          	addi	a5,a5,24
    800024d8:	f6043303          	ld	t1,-160(s0)
    800024dc:	f477e4e3          	bltu	a5,t2,80002424 <mm_cb+0x178>
    800024e0:	00070f13          	mv	t5,a4
    800024e4:	f8043703          	ld	a4,-128(s0)
    800024e8:	01870713          	addi	a4,a4,24
    800024ec:	01ff0f33          	add	t5,t5,t6
    800024f0:	f1376ae3          	bltu	a4,s3,80002404 <mm_cb+0x158>
    800024f4:	e6043783          	ld	a5,-416(s0)
    800024f8:	00068613          	mv	a2,a3
    800024fc:	00030693          	mv	a3,t1
    80002500:	f8843303          	ld	t1,-120(s0)
    80002504:	00079463          	bnez	a5,8000250c <mm_cb+0x260>
    80002508:	7a10406f          	j	800074a8 <mm_cb+0x51fc>
    8000250c:	00181493          	slli	s1,a6,0x1
    80002510:	010487b3          	add	a5,s1,a6
    80002514:	00001f37          	lui	t5,0x1
    80002518:	00679f93          	slli	t6,a5,0x6
    8000251c:	00381793          	slli	a5,a6,0x3
    80002520:	f8d43423          	sd	a3,-120(s0)
    80002524:	000c0e93          	mv	t4,s8
    80002528:	eaf43423          	sd	a5,-344(s0)
    8000252c:	00000713          	li	a4,0
    80002530:	01800a13          	li	s4,24
    80002534:	2c0f0f13          	addi	t5,t5,704 # 12c0 <buflen.1+0x1240>
    80002538:	25800d13          	li	s10,600
    8000253c:	00060693          	mv	a3,a2
    80002540:	e2843783          	ld	a5,-472(s0)
    80002544:	0efa7663          	bgeu	s4,a5,80002630 <mm_cb+0x384>
    80002548:	03475533          	divu	a0,a4,s4
    8000254c:	f6e43c23          	sd	a4,-136(s0)
    80002550:	000e8613          	mv	a2,t4
    80002554:	00000793          	li	a5,0
    80002558:	f8643023          	sd	t1,-128(s0)
    8000255c:	00068713          	mv	a4,a3
    80002560:	02650e33          	mul	t3,a0,t1
    80002564:	01900693          	li	a3,25
    80002568:	0c060b93          	addi	s7,a2,192
    8000256c:	00000313          	li	t1,0
    80002570:	f7c43823          	sd	t3,-144(s0)
    80002574:	f7343423          	sd	s3,-152(s0)
    80002578:	f6f43023          	sd	a5,-160(s0)
    8000257c:	02d7d8b3          	divu	a7,a5,a3
    80002580:	d8043683          	ld	a3,-640(s0)
    80002584:	01c888b3          	add	a7,a7,t3
    80002588:	03e888b3          	mul	a7,a7,t5
    8000258c:	011688b3          	add	a7,a3,a7
    80002590:	f40b8793          	addi	a5,s7,-192
    80002594:	00088693          	mv	a3,a7
    80002598:	f5d43c23          	sd	t4,-168(s0)
    8000259c:	0087bd83          	ld	s11,8(a5)
    800025a0:	0107bc83          	ld	s9,16(a5)
    800025a4:	0187b983          	ld	s3,24(a5)
    800025a8:	0207b383          	ld	t2,32(a5)
    800025ac:	0287be83          	ld	t4,40(a5)
    800025b0:	0307be03          	ld	t3,48(a5)
    800025b4:	0387b503          	ld	a0,56(a5)
    800025b8:	0007ba83          	ld	s5,0(a5)
    800025bc:	01b6b423          	sd	s11,8(a3)
    800025c0:	0196b823          	sd	s9,16(a3)
    800025c4:	0156b023          	sd	s5,0(a3)
    800025c8:	0136bc23          	sd	s3,24(a3)
    800025cc:	0276b023          	sd	t2,32(a3)
    800025d0:	03d6b423          	sd	t4,40(a3)
    800025d4:	03c6b823          	sd	t3,48(a3)
    800025d8:	02a6bc23          	sd	a0,56(a3)
    800025dc:	04078793          	addi	a5,a5,64
    800025e0:	04068693          	addi	a3,a3,64
    800025e4:	fafb9ce3          	bne	s7,a5,8000259c <mm_cb+0x2f0>
    800025e8:	000bb783          	ld	a5,0(s7)
    800025ec:	01930313          	addi	t1,t1,25
    800025f0:	0c888893          	addi	a7,a7,200
    800025f4:	fef8bc23          	sd	a5,-8(a7)
    800025f8:	ea843783          	ld	a5,-344(s0)
    800025fc:	f5843e83          	ld	t4,-168(s0)
    80002600:	00fb8bb3          	add	s7,s7,a5
    80002604:	f9a316e3          	bne	t1,s10,80002590 <mm_cb+0x2e4>
    80002608:	f6043783          	ld	a5,-160(s0)
    8000260c:	e0843683          	ld	a3,-504(s0)
    80002610:	f7043e03          	ld	t3,-144(s0)
    80002614:	01978793          	addi	a5,a5,25
    80002618:	f6843983          	ld	s3,-152(s0)
    8000261c:	0c860613          	addi	a2,a2,200
    80002620:	f4d7e2e3          	bltu	a5,a3,80002564 <mm_cb+0x2b8>
    80002624:	00070693          	mv	a3,a4
    80002628:	f8043303          	ld	t1,-128(s0)
    8000262c:	f7843703          	ld	a4,-136(s0)
    80002630:	e6043783          	ld	a5,-416(s0)
    80002634:	01870713          	addi	a4,a4,24
    80002638:	01fe8eb3          	add	t4,t4,t6
    8000263c:	f0f762e3          	bltu	a4,a5,80002540 <mm_cb+0x294>
    80002640:	00068613          	mv	a2,a3
    80002644:	f8843683          	ld	a3,-120(s0)
    80002648:	00099463          	bnez	s3,80002650 <mm_cb+0x3a4>
    8000264c:	5bd0406f          	j	80007408 <mm_cb+0x515c>
    80002650:	00361793          	slli	a5,a2,0x3
    80002654:	00161513          	slli	a0,a2,0x1
    80002658:	e4f43823          	sd	a5,-432(s0)
    8000265c:	00159a13          	slli	s4,a1,0x1
    80002660:	00ba07b3          	add	a5,s4,a1
    80002664:	000013b7          	lui	t2,0x1
    80002668:	f8d43423          	sd	a3,-120(s0)
    8000266c:	00679c93          	slli	s9,a5,0x6
    80002670:	000b0f13          	mv	t5,s6
    80002674:	00359f93          	slli	t6,a1,0x3
    80002678:	00000713          	li	a4,0
    8000267c:	01800893          	li	a7,24
    80002680:	01900d93          	li	s11,25
    80002684:	2c038393          	addi	t2,t2,704 # 12c0 <buflen.1+0x1240>
    80002688:	00060e13          	mv	t3,a2
    8000268c:	00058693          	mv	a3,a1
    80002690:	e2843783          	ld	a5,-472(s0)
    80002694:	10f8f463          	bgeu	a7,a5,8000279c <mm_cb+0x4f0>
    80002698:	031755b3          	divu	a1,a4,a7
    8000269c:	f6e43823          	sd	a4,-144(s0)
    800026a0:	000f0613          	mv	a2,t5
    800026a4:	00000793          	li	a5,0
    800026a8:	f8643023          	sd	t1,-128(s0)
    800026ac:	f7343c23          	sd	s3,-136(s0)
    800026b0:	000e0e93          	mv	t4,t3
    800026b4:	000b0713          	mv	a4,s6
    800026b8:	02658ab3          	mul	s5,a1,t1
    800026bc:	df843583          	ld	a1,-520(s0)
    800026c0:	0c060b13          	addi	s6,a2,192
    800026c4:	00000e13          	li	t3,0
    800026c8:	f7543423          	sd	s5,-152(s0)
    800026cc:	f6f43023          	sd	a5,-160(s0)
    800026d0:	f5e43c23          	sd	t5,-168(s0)
    800026d4:	f4c43823          	sd	a2,-176(s0)
    800026d8:	03b7d333          	divu	t1,a5,s11
    800026dc:	01530333          	add	t1,t1,s5
    800026e0:	02730333          	mul	t1,t1,t2
    800026e4:	00658333          	add	t1,a1,t1
    800026e8:	f40b0793          	addi	a5,s6,-192
    800026ec:	00030613          	mv	a2,t1
    800026f0:	f5c43423          	sd	t3,-184(s0)
    800026f4:	f4643023          	sd	t1,-192(s0)
    800026f8:	0087bd03          	ld	s10,8(a5)
    800026fc:	0107ba83          	ld	s5,16(a5)
    80002700:	0187b983          	ld	s3,24(a5)
    80002704:	0207bf03          	ld	t5,32(a5)
    80002708:	0287be03          	ld	t3,40(a5)
    8000270c:	0307b303          	ld	t1,48(a5)
    80002710:	0387b583          	ld	a1,56(a5)
    80002714:	0007bb83          	ld	s7,0(a5)
    80002718:	01a63423          	sd	s10,8(a2)
    8000271c:	01563823          	sd	s5,16(a2)
    80002720:	01763023          	sd	s7,0(a2)
    80002724:	01363c23          	sd	s3,24(a2)
    80002728:	03e63023          	sd	t5,32(a2)
    8000272c:	03c63423          	sd	t3,40(a2)
    80002730:	02663823          	sd	t1,48(a2)
    80002734:	02b63c23          	sd	a1,56(a2)
    80002738:	04078793          	addi	a5,a5,64
    8000273c:	04060613          	addi	a2,a2,64
    80002740:	fafb1ce3          	bne	s6,a5,800026f8 <mm_cb+0x44c>
    80002744:	000b3783          	ld	a5,0(s6)
    80002748:	f4043303          	ld	t1,-192(s0)
    8000274c:	f4843e03          	ld	t3,-184(s0)
    80002750:	01fb0b33          	add	s6,s6,t6
    80002754:	0cf33023          	sd	a5,192(t1)
    80002758:	019e0e13          	addi	t3,t3,25
    8000275c:	25800793          	li	a5,600
    80002760:	0c830313          	addi	t1,t1,200
    80002764:	f8fe12e3          	bne	t3,a5,800026e8 <mm_cb+0x43c>
    80002768:	f6043783          	ld	a5,-160(s0)
    8000276c:	f5043603          	ld	a2,-176(s0)
    80002770:	e0843583          	ld	a1,-504(s0)
    80002774:	01978793          	addi	a5,a5,25
    80002778:	f6843a83          	ld	s5,-152(s0)
    8000277c:	f5843f03          	ld	t5,-168(s0)
    80002780:	0c860613          	addi	a2,a2,200
    80002784:	f2b7ece3          	bltu	a5,a1,800026bc <mm_cb+0x410>
    80002788:	00070b13          	mv	s6,a4
    8000278c:	f8043303          	ld	t1,-128(s0)
    80002790:	f7843983          	ld	s3,-136(s0)
    80002794:	f7043703          	ld	a4,-144(s0)
    80002798:	000e8e13          	mv	t3,t4
    8000279c:	01870713          	addi	a4,a4,24
    800027a0:	019f0f33          	add	t5,t5,s9
    800027a4:	ef3766e3          	bltu	a4,s3,80002690 <mm_cb+0x3e4>
    800027a8:	e2043703          	ld	a4,-480(s0)
    800027ac:	01800793          	li	a5,24
    800027b0:	000e0613          	mv	a2,t3
    800027b4:	02f77e33          	remu	t3,a4,a5
    800027b8:	010487b3          	add	a5,s1,a6
    800027bc:	00068593          	mv	a1,a3
    800027c0:	00c50733          	add	a4,a0,a2
    800027c4:	f8843683          	ld	a3,-120(s0)
    800027c8:	00078513          	mv	a0,a5
    800027cc:	00479793          	slli	a5,a5,0x4
    800027d0:	00371e93          	slli	t4,a4,0x3
    800027d4:	e5043f03          	ld	t5,-432(s0)
    800027d8:	eaf43023          	sd	a5,-352(s0)
    800027dc:	e6f43c23          	sd	a5,-392(s0)
    800027e0:	00671793          	slli	a5,a4,0x6
    800027e4:	00561713          	slli	a4,a2,0x5
    800027e8:	dee43423          	sd	a4,-536(s0)
    800027ec:	00651713          	slli	a4,a0,0x6
    800027f0:	d0e43823          	sd	a4,-752(s0)
    800027f4:	00dc0733          	add	a4,s8,a3
    800027f8:	e9e43c23          	sd	t5,-360(s0)
    800027fc:	d2e43423          	sd	a4,-728(s0)
    80002800:	00461f13          	slli	t5,a2,0x4
    80002804:	00559713          	slli	a4,a1,0x5
    80002808:	00001bb7          	lui	s7,0x1
    8000280c:	00001d37          	lui	s10,0x1
    80002810:	efe43023          	sd	t5,-288(s0)
    80002814:	dae43023          	sd	a4,-608(s0)
    80002818:	00db0f33          	add	t5,s6,a3
    8000281c:	2c0b8713          	addi	a4,s7,704 # 12c0 <buflen.1+0x1240>
    80002820:	e2843683          	ld	a3,-472(s0)
    80002824:	dee43823          	sd	a4,-528(s0)
    80002828:	200d0713          	addi	a4,s10,512 # 1200 <buflen.1+0x1180>
    8000282c:	d0e43023          	sd	a4,-768(s0)
    80002830:	01900713          	li	a4,25
    80002834:	d1d43c23          	sd	t4,-744(s0)
    80002838:	e9d43423          	sd	t4,-376(s0)
    8000283c:	ea843e83          	ld	t4,-344(s0)
    80002840:	00500893          	li	a7,5
    80002844:	daf43c23          	sd	a5,-584(s0)
    80002848:	ebd43823          	sd	t4,-336(s0)
    8000284c:	00581e93          	slli	t4,a6,0x5
    80002850:	ebd43c23          	sd	t4,-328(s0)
    80002854:	00459793          	slli	a5,a1,0x4
    80002858:	e0f43023          	sd	a5,-512(s0)
    8000285c:	d7043783          	ld	a5,-656(s0)
    80002860:	00481a93          	slli	s5,a6,0x4
    80002864:	e9543023          	sd	s5,-384(s0)
    80002868:	005787b3          	add	a5,a5,t0
    8000286c:	00000393          	li	t2,0
    80002870:	d8643c23          	sd	t1,-616(s0)
    80002874:	000c8d93          	mv	s11,s9
    80002878:	02e6fd33          	remu	s10,a3,a4
    8000287c:	003e1713          	slli	a4,t3,0x3
    80002880:	d4e43423          	sd	a4,-696(s0)
    80002884:	00600713          	li	a4,6
    80002888:	02ee5733          	divu	a4,t3,a4
    8000288c:	031d5eb3          	divu	t4,s10,a7
    80002890:	00171513          	slli	a0,a4,0x1
    80002894:	00e50533          	add	a0,a0,a4
    80002898:	00451693          	slli	a3,a0,0x4
    8000289c:	d2d43023          	sd	a3,-736(s0)
    800028a0:	02e80533          	mul	a0,a6,a4
    800028a4:	002e9713          	slli	a4,t4,0x2
    800028a8:	01d70733          	add	a4,a4,t4
    800028ac:	dce43c23          	sd	a4,-552(s0)
    800028b0:	00371713          	slli	a4,a4,0x3
    800028b4:	d6e43423          	sd	a4,-664(s0)
    800028b8:	e6043703          	ld	a4,-416(s0)
    800028bc:	00151e93          	slli	t4,a0,0x1
    800028c0:	00ae8eb3          	add	t4,t4,a0
    800028c4:	004e9693          	slli	a3,t4,0x4
    800028c8:	dcd43023          	sd	a3,-576(s0)
    800028cc:	031d76b3          	remu	a3,s10,a7
    800028d0:	03070733          	mul	a4,a4,a6
    800028d4:	d4d43023          	sd	a3,-704(s0)
    800028d8:	00371713          	slli	a4,a4,0x3
    800028dc:	00ec0733          	add	a4,s8,a4
    800028e0:	d6e43c23          	sd	a4,-648(s0)
    800028e4:	d7343023          	sd	s3,-672(s0)
    800028e8:	d5c43c23          	sd	t3,-680(s0)
    800028ec:	cf243c23          	sd	s2,-776(s0)
    800028f0:	000a8e13          	mv	t3,s5
    800028f4:	cf843823          	sd	s8,-784(s0)
    800028f8:	cf643423          	sd	s6,-792(s0)
    800028fc:	00078a93          	mv	s5,a5
    80002900:	00038913          	mv	s2,t2
    80002904:	e4c43423          	sd	a2,-440(s0)
    80002908:	000d0c13          	mv	s8,s10
    8000290c:	e5043c23          	sd	a6,-424(s0)
    80002910:	000f0b13          	mv	s6,t5
    80002914:	00b43023          	sd	a1,0(s0)
    80002918:	ce543023          	sd	t0,-800(s0)
    8000291c:	cc943c23          	sd	s1,-808(s0)
    80002920:	cd443823          	sd	s4,-816(s0)
    80002924:	d5f43823          	sd	t6,-688(s0)
    80002928:	e2843783          	ld	a5,-472(s0)
    8000292c:	01800713          	li	a4,24
    80002930:	00f76463          	bltu	a4,a5,80002938 <mm_cb+0x68c>
    80002934:	7900306f          	j	800060c4 <mm_cb+0x3e18>
    80002938:	02e95733          	divu	a4,s2,a4
    8000293c:	000016b7          	lui	a3,0x1
    80002940:	38868693          	addi	a3,a3,904 # 1388 <buflen.1+0x1308>
    80002944:	d0d43423          	sd	a3,-760(s0)
    80002948:	d9043683          	ld	a3,-624(s0)
    8000294c:	db843783          	ld	a5,-584(s0)
    80002950:	00000b93          	li	s7,0
    80002954:	cd243423          	sd	s2,-824(s0)
    80002958:	015787b3          	add	a5,a5,s5
    8000295c:	daf43423          	sd	a5,-600(s0)
    80002960:	d2043783          	ld	a5,-736(s0)
    80002964:	000b8493          	mv	s1,s7
    80002968:	cd843023          	sd	s8,-832(s0)
    8000296c:	015787b3          	add	a5,a5,s5
    80002970:	d2f43c23          	sd	a5,-712(s0)
    80002974:	d4843783          	ld	a5,-696(s0)
    80002978:	dd543823          	sd	s5,-560(s0)
    8000297c:	cb643c23          	sd	s6,-840(s0)
    80002980:	015787b3          	add	a5,a5,s5
    80002984:	daf43823          	sd	a5,-592(s0)
    80002988:	d7843783          	ld	a5,-648(s0)
    8000298c:	00078993          	mv	s3,a5
    80002990:	02d706b3          	mul	a3,a4,a3
    80002994:	dcd43423          	sd	a3,-568(s0)
    80002998:	d9843683          	ld	a3,-616(s0)
    8000299c:	02d70733          	mul	a4,a4,a3
    800029a0:	dee43023          	sd	a4,-544(s0)
    800029a4:	e6043783          	ld	a5,-416(s0)
    800029a8:	00079463          	bnez	a5,800029b0 <mm_cb+0x704>
    800029ac:	6ed0006f          	j	80003898 <mm_cb+0x15ec>
    800029b0:	01900793          	li	a5,25
    800029b4:	02f4d0b3          	divu	ra,s1,a5
    800029b8:	de043783          	ld	a5,-544(s0)
    800029bc:	df043703          	ld	a4,-528(s0)
    800029c0:	df843683          	ld	a3,-520(s0)
    800029c4:	00000a13          	li	s4,0
    800029c8:	e4943023          	sd	s1,-448(s0)
    800029cc:	e3c43c23          	sd	t3,-456(s0)
    800029d0:	00f087b3          	add	a5,ra,a5
    800029d4:	02e787b3          	mul	a5,a5,a4
    800029d8:	00008913          	mv	s2,ra
    800029dc:	00f687b3          	add	a5,a3,a5
    800029e0:	00e78cb3          	add	s9,a5,a4
    800029e4:	d0843703          	ld	a4,-760(s0)
    800029e8:	0c878d13          	addi	s10,a5,200
    800029ec:	00e78c33          	add	s8,a5,a4
    800029f0:	01800793          	li	a5,24
    800029f4:	02fa57b3          	divu	a5,s4,a5
    800029f8:	d9843703          	ld	a4,-616(s0)
    800029fc:	dc843683          	ld	a3,-568(s0)
    80002a00:	000d0493          	mv	s1,s10
    80002a04:	e1243c23          	sd	s2,-488(s0)
    80002a08:	e1443823          	sd	s4,-496(s0)
    80002a0c:	d3943823          	sd	s9,-720(s0)
    80002a10:	cb343823          	sd	s3,-848(s0)
    80002a14:	e7843423          	sd	s8,-408(s0)
    80002a18:	cbb43423          	sd	s11,-856(s0)
    80002a1c:	cba43023          	sd	s10,-864(s0)
    80002a20:	02e78733          	mul	a4,a5,a4
    80002a24:	00f687b3          	add	a5,a3,a5
    80002a28:	00379693          	slli	a3,a5,0x3
    80002a2c:	00f687b3          	add	a5,a3,a5
    80002a30:	d8843683          	ld	a3,-632(s0)
    80002a34:	00979793          	slli	a5,a5,0x9
    80002a38:	00f686b3          	add	a3,a3,a5
    80002a3c:	0c068793          	addi	a5,a3,192
    80002a40:	eef43423          	sd	a5,-280(s0)
    80002a44:	012707b3          	add	a5,a4,s2
    80002a48:	df043703          	ld	a4,-528(s0)
    80002a4c:	e2d43823          	sd	a3,-464(s0)
    80002a50:	02e787b3          	mul	a5,a5,a4
    80002a54:	d8043703          	ld	a4,-640(s0)
    80002a58:	00f70ab3          	add	s5,a4,a5
    80002a5c:	0c8a8b93          	addi	s7,s5,200
    80002a60:	e7543823          	sd	s5,-400(s0)
    80002a64:	ed743023          	sd	s7,-320(s0)
    80002a68:	ee843783          	ld	a5,-280(s0)
    80002a6c:	e7043a03          	ld	s4,-400(s0)
    80002a70:	f3848913          	addi	s2,s1,-200
    80002a74:	f4078a93          	addi	s5,a5,-192
    80002a78:	e8943823          	sd	s1,-368(s0)
    80002a7c:	ed543423          	sd	s5,-312(s0)
    80002a80:	00090493          	mv	s1,s2
    80002a84:	2684b503          	ld	a0,616(s1)
    80002a88:	1b04b783          	ld	a5,432(s1)
    80002a8c:	0004bc03          	ld	s8,0(s1)
    80002a90:	f8a43023          	sd	a0,-128(s0)
    80002a94:	2704b503          	ld	a0,624(s1)
    80002a98:	0084b083          	ld	ra,8(s1)
    80002a9c:	0104b383          	ld	t2,16(s1)
    80002aa0:	0c84bf03          	ld	t5,200(s1)
    80002aa4:	0d04be83          	ld	t4,208(s1)
    80002aa8:	0d84be03          	ld	t3,216(s1)
    80002aac:	0e04b303          	ld	t1,224(s1)
    80002ab0:	f6a43c23          	sd	a0,-136(s0)
    80002ab4:	2784b503          	ld	a0,632(s1)
    80002ab8:	0184b283          	ld	t0,24(s1)
    80002abc:	0204bf83          	ld	t6,32(s1)
    80002ac0:	0e84b883          	ld	a7,232(s1)
    80002ac4:	1984b583          	ld	a1,408(s1)
    80002ac8:	1a04b683          	ld	a3,416(s1)
    80002acc:	1a84b703          	ld	a4,424(s1)
    80002ad0:	2604b603          	ld	a2,608(s1)
    80002ad4:	f8f43423          	sd	a5,-120(s0)
    80002ad8:	1904b803          	ld	a6,400(s1)
    80002adc:	2584b783          	ld	a5,600(s1)
    80002ae0:	f7843423          	sd	s8,-152(s0)
    80002ae4:	f6a43823          	sd	a0,-144(s0)
    80002ae8:	f6143023          	sd	ra,-160(s0)
    80002aec:	f4743c23          	sd	t2,-168(s0)
    80002af0:	f5e43823          	sd	t5,-176(s0)
    80002af4:	f5d43423          	sd	t4,-184(s0)
    80002af8:	f5c43023          	sd	t3,-192(s0)
    80002afc:	f2643c23          	sd	t1,-200(s0)
    80002b00:	ec843c83          	ld	s9,-312(s0)
    80002b04:	000a0d13          	mv	s10,s4
    80002b08:	f3043823          	sd	a6,-208(s0)
    80002b0c:	00028b93          	mv	s7,t0
    80002b10:	ed443c23          	sd	s4,-296(s0)
    80002b14:	000f8c13          	mv	s8,t6
    80002b18:	00088d93          	mv	s11,a7
    80002b1c:	f2b43423          	sd	a1,-216(s0)
    80002b20:	f2d43023          	sd	a3,-224(s0)
    80002b24:	f0e43c23          	sd	a4,-232(s0)
    80002b28:	f0f43823          	sd	a5,-240(s0)
    80002b2c:	00060a13          	mv	s4,a2
    80002b30:	ec943823          	sd	s1,-304(s0)
    80002b34:	000cb483          	ld	s1,0(s9)
    80002b38:	000d3983          	ld	s3,0(s10)
    80002b3c:	f6843603          	ld	a2,-152(s0)
    80002b40:	00048513          	mv	a0,s1
    80002b44:	00098593          	mv	a1,s3
    80002b48:	4c9060ef          	jal	80009810 <__fma>
    80002b4c:	008d3903          	ld	s2,8(s10)
    80002b50:	f6043603          	ld	a2,-160(s0)
    80002b54:	00050793          	mv	a5,a0
    80002b58:	00090593          	mv	a1,s2
    80002b5c:	00048513          	mv	a0,s1
    80002b60:	f6f43423          	sd	a5,-152(s0)
    80002b64:	4ad060ef          	jal	80009810 <__fma>
    80002b68:	010d3a83          	ld	s5,16(s10)
    80002b6c:	f5843603          	ld	a2,-168(s0)
    80002b70:	00050793          	mv	a5,a0
    80002b74:	000a8593          	mv	a1,s5
    80002b78:	00048513          	mv	a0,s1
    80002b7c:	f6f43023          	sd	a5,-160(s0)
    80002b80:	491060ef          	jal	80009810 <__fma>
    80002b84:	018d3b03          	ld	s6,24(s10)
    80002b88:	00050793          	mv	a5,a0
    80002b8c:	000b8613          	mv	a2,s7
    80002b90:	000b0593          	mv	a1,s6
    80002b94:	00048513          	mv	a0,s1
    80002b98:	f4f43c23          	sd	a5,-168(s0)
    80002b9c:	475060ef          	jal	80009810 <__fma>
    80002ba0:	020d3b83          	ld	s7,32(s10)
    80002ba4:	00050793          	mv	a5,a0
    80002ba8:	000c0613          	mv	a2,s8
    80002bac:	000b8593          	mv	a1,s7
    80002bb0:	00048513          	mv	a0,s1
    80002bb4:	00078c13          	mv	s8,a5
    80002bb8:	459060ef          	jal	80009810 <__fma>
    80002bbc:	0c0cb483          	ld	s1,192(s9)
    80002bc0:	f5043603          	ld	a2,-176(s0)
    80002bc4:	00050793          	mv	a5,a0
    80002bc8:	00048593          	mv	a1,s1
    80002bcc:	00098513          	mv	a0,s3
    80002bd0:	f4f43823          	sd	a5,-176(s0)
    80002bd4:	43d060ef          	jal	80009810 <__fma>
    80002bd8:	f4843603          	ld	a2,-184(s0)
    80002bdc:	00050793          	mv	a5,a0
    80002be0:	00048593          	mv	a1,s1
    80002be4:	00090513          	mv	a0,s2
    80002be8:	f4f43423          	sd	a5,-184(s0)
    80002bec:	425060ef          	jal	80009810 <__fma>
    80002bf0:	f4043603          	ld	a2,-192(s0)
    80002bf4:	00050793          	mv	a5,a0
    80002bf8:	00048593          	mv	a1,s1
    80002bfc:	000a8513          	mv	a0,s5
    80002c00:	f4f43023          	sd	a5,-192(s0)
    80002c04:	40d060ef          	jal	80009810 <__fma>
    80002c08:	f3843603          	ld	a2,-200(s0)
    80002c0c:	00050793          	mv	a5,a0
    80002c10:	00048593          	mv	a1,s1
    80002c14:	000b0513          	mv	a0,s6
    80002c18:	f2f43c23          	sd	a5,-200(s0)
    80002c1c:	3f5060ef          	jal	80009810 <__fma>
    80002c20:	00050793          	mv	a5,a0
    80002c24:	000d8613          	mv	a2,s11
    80002c28:	00048593          	mv	a1,s1
    80002c2c:	000b8513          	mv	a0,s7
    80002c30:	00078d93          	mv	s11,a5
    80002c34:	3dd060ef          	jal	80009810 <__fma>
    80002c38:	180cb483          	ld	s1,384(s9)
    80002c3c:	f3043603          	ld	a2,-208(s0)
    80002c40:	00050793          	mv	a5,a0
    80002c44:	00048593          	mv	a1,s1
    80002c48:	00098513          	mv	a0,s3
    80002c4c:	f2f43823          	sd	a5,-208(s0)
    80002c50:	3c1060ef          	jal	80009810 <__fma>
    80002c54:	f2843603          	ld	a2,-216(s0)
    80002c58:	00050793          	mv	a5,a0
    80002c5c:	00048593          	mv	a1,s1
    80002c60:	00090513          	mv	a0,s2
    80002c64:	f2f43423          	sd	a5,-216(s0)
    80002c68:	3a9060ef          	jal	80009810 <__fma>
    80002c6c:	f2043603          	ld	a2,-224(s0)
    80002c70:	00050793          	mv	a5,a0
    80002c74:	00048593          	mv	a1,s1
    80002c78:	000a8513          	mv	a0,s5
    80002c7c:	f2f43023          	sd	a5,-224(s0)
    80002c80:	391060ef          	jal	80009810 <__fma>
    80002c84:	f1843603          	ld	a2,-232(s0)
    80002c88:	00050793          	mv	a5,a0
    80002c8c:	00048593          	mv	a1,s1
    80002c90:	000b0513          	mv	a0,s6
    80002c94:	f0f43c23          	sd	a5,-232(s0)
    80002c98:	379060ef          	jal	80009810 <__fma>
    80002c9c:	f8843603          	ld	a2,-120(s0)
    80002ca0:	00050793          	mv	a5,a0
    80002ca4:	00048593          	mv	a1,s1
    80002ca8:	000b8513          	mv	a0,s7
    80002cac:	f8f43423          	sd	a5,-120(s0)
    80002cb0:	361060ef          	jal	80009810 <__fma>
    80002cb4:	240cb483          	ld	s1,576(s9)
    80002cb8:	f1043603          	ld	a2,-240(s0)
    80002cbc:	00050793          	mv	a5,a0
    80002cc0:	00048593          	mv	a1,s1
    80002cc4:	00098513          	mv	a0,s3
    80002cc8:	f0f43823          	sd	a5,-240(s0)
    80002ccc:	345060ef          	jal	80009810 <__fma>
    80002cd0:	00050793          	mv	a5,a0
    80002cd4:	000a0613          	mv	a2,s4
    80002cd8:	00048593          	mv	a1,s1
    80002cdc:	00090513          	mv	a0,s2
    80002ce0:	f0f43423          	sd	a5,-248(s0)
    80002ce4:	32d060ef          	jal	80009810 <__fma>
    80002ce8:	f8043603          	ld	a2,-128(s0)
    80002cec:	00050793          	mv	a5,a0
    80002cf0:	00048593          	mv	a1,s1
    80002cf4:	000a8513          	mv	a0,s5
    80002cf8:	f8f43023          	sd	a5,-128(s0)
    80002cfc:	315060ef          	jal	80009810 <__fma>
    80002d00:	f7843603          	ld	a2,-136(s0)
    80002d04:	00050793          	mv	a5,a0
    80002d08:	00048593          	mv	a1,s1
    80002d0c:	000b0513          	mv	a0,s6
    80002d10:	f6f43c23          	sd	a5,-136(s0)
    80002d14:	2fd060ef          	jal	80009810 <__fma>
    80002d18:	f7043603          	ld	a2,-144(s0)
    80002d1c:	00050793          	mv	a5,a0
    80002d20:	00048593          	mv	a1,s1
    80002d24:	000b8513          	mv	a0,s7
    80002d28:	f6f43823          	sd	a5,-144(s0)
    80002d2c:	2e5060ef          	jal	80009810 <__fma>
    80002d30:	008cb483          	ld	s1,8(s9)
    80002d34:	0c8d3983          	ld	s3,200(s10)
    80002d38:	f6843603          	ld	a2,-152(s0)
    80002d3c:	00050a13          	mv	s4,a0
    80002d40:	00098593          	mv	a1,s3
    80002d44:	00048513          	mv	a0,s1
    80002d48:	2c9060ef          	jal	80009810 <__fma>
    80002d4c:	0d0d3903          	ld	s2,208(s10)
    80002d50:	f6043603          	ld	a2,-160(s0)
    80002d54:	00050793          	mv	a5,a0
    80002d58:	00090593          	mv	a1,s2
    80002d5c:	00048513          	mv	a0,s1
    80002d60:	f6f43423          	sd	a5,-152(s0)
    80002d64:	2ad060ef          	jal	80009810 <__fma>
    80002d68:	0d8d3a83          	ld	s5,216(s10)
    80002d6c:	f5843603          	ld	a2,-168(s0)
    80002d70:	00050793          	mv	a5,a0
    80002d74:	000a8593          	mv	a1,s5
    80002d78:	00048513          	mv	a0,s1
    80002d7c:	f6f43023          	sd	a5,-160(s0)
    80002d80:	291060ef          	jal	80009810 <__fma>
    80002d84:	0e0d3b03          	ld	s6,224(s10)
    80002d88:	00050793          	mv	a5,a0
    80002d8c:	000c0613          	mv	a2,s8
    80002d90:	000b0593          	mv	a1,s6
    80002d94:	00048513          	mv	a0,s1
    80002d98:	00078c13          	mv	s8,a5
    80002d9c:	275060ef          	jal	80009810 <__fma>
    80002da0:	0e8d3b83          	ld	s7,232(s10)
    80002da4:	f5043603          	ld	a2,-176(s0)
    80002da8:	00050793          	mv	a5,a0
    80002dac:	000b8593          	mv	a1,s7
    80002db0:	00048513          	mv	a0,s1
    80002db4:	f4f43c23          	sd	a5,-168(s0)
    80002db8:	259060ef          	jal	80009810 <__fma>
    80002dbc:	0c8cb483          	ld	s1,200(s9)
    80002dc0:	f4843603          	ld	a2,-184(s0)
    80002dc4:	00050793          	mv	a5,a0
    80002dc8:	00048593          	mv	a1,s1
    80002dcc:	00098513          	mv	a0,s3
    80002dd0:	f4f43823          	sd	a5,-176(s0)
    80002dd4:	23d060ef          	jal	80009810 <__fma>
    80002dd8:	f4043603          	ld	a2,-192(s0)
    80002ddc:	00050793          	mv	a5,a0
    80002de0:	00048593          	mv	a1,s1
    80002de4:	00090513          	mv	a0,s2
    80002de8:	f4f43423          	sd	a5,-184(s0)
    80002dec:	225060ef          	jal	80009810 <__fma>
    80002df0:	f3843603          	ld	a2,-200(s0)
    80002df4:	00050793          	mv	a5,a0
    80002df8:	00048593          	mv	a1,s1
    80002dfc:	000a8513          	mv	a0,s5
    80002e00:	f4f43023          	sd	a5,-192(s0)
    80002e04:	20d060ef          	jal	80009810 <__fma>
    80002e08:	00050793          	mv	a5,a0
    80002e0c:	000d8613          	mv	a2,s11
    80002e10:	00048593          	mv	a1,s1
    80002e14:	000b0513          	mv	a0,s6
    80002e18:	00078d93          	mv	s11,a5
    80002e1c:	1f5060ef          	jal	80009810 <__fma>
    80002e20:	f3043603          	ld	a2,-208(s0)
    80002e24:	00050793          	mv	a5,a0
    80002e28:	00048593          	mv	a1,s1
    80002e2c:	000b8513          	mv	a0,s7
    80002e30:	f2f43c23          	sd	a5,-200(s0)
    80002e34:	1dd060ef          	jal	80009810 <__fma>
    80002e38:	188cb483          	ld	s1,392(s9)
    80002e3c:	f2843603          	ld	a2,-216(s0)
    80002e40:	00050793          	mv	a5,a0
    80002e44:	00048593          	mv	a1,s1
    80002e48:	00098513          	mv	a0,s3
    80002e4c:	f2f43823          	sd	a5,-208(s0)
    80002e50:	1c1060ef          	jal	80009810 <__fma>
    80002e54:	f2043603          	ld	a2,-224(s0)
    80002e58:	00050793          	mv	a5,a0
    80002e5c:	00048593          	mv	a1,s1
    80002e60:	00090513          	mv	a0,s2
    80002e64:	f2f43423          	sd	a5,-216(s0)
    80002e68:	1a9060ef          	jal	80009810 <__fma>
    80002e6c:	f1843603          	ld	a2,-232(s0)
    80002e70:	00050793          	mv	a5,a0
    80002e74:	00048593          	mv	a1,s1
    80002e78:	000a8513          	mv	a0,s5
    80002e7c:	f2f43023          	sd	a5,-224(s0)
    80002e80:	191060ef          	jal	80009810 <__fma>
    80002e84:	f8843603          	ld	a2,-120(s0)
    80002e88:	00050793          	mv	a5,a0
    80002e8c:	00048593          	mv	a1,s1
    80002e90:	000b0513          	mv	a0,s6
    80002e94:	f8f43423          	sd	a5,-120(s0)
    80002e98:	179060ef          	jal	80009810 <__fma>
    80002e9c:	f1043603          	ld	a2,-240(s0)
    80002ea0:	00050793          	mv	a5,a0
    80002ea4:	00048593          	mv	a1,s1
    80002ea8:	000b8513          	mv	a0,s7
    80002eac:	f0f43c23          	sd	a5,-232(s0)
    80002eb0:	161060ef          	jal	80009810 <__fma>
    80002eb4:	248cb483          	ld	s1,584(s9)
    80002eb8:	f0843603          	ld	a2,-248(s0)
    80002ebc:	00050793          	mv	a5,a0
    80002ec0:	00048593          	mv	a1,s1
    80002ec4:	00098513          	mv	a0,s3
    80002ec8:	f0f43823          	sd	a5,-240(s0)
    80002ecc:	145060ef          	jal	80009810 <__fma>
    80002ed0:	f8043603          	ld	a2,-128(s0)
    80002ed4:	00050793          	mv	a5,a0
    80002ed8:	00048593          	mv	a1,s1
    80002edc:	00090513          	mv	a0,s2
    80002ee0:	f8f43023          	sd	a5,-128(s0)
    80002ee4:	12d060ef          	jal	80009810 <__fma>
    80002ee8:	f7843603          	ld	a2,-136(s0)
    80002eec:	00050793          	mv	a5,a0
    80002ef0:	00048593          	mv	a1,s1
    80002ef4:	000a8513          	mv	a0,s5
    80002ef8:	f6f43c23          	sd	a5,-136(s0)
    80002efc:	115060ef          	jal	80009810 <__fma>
    80002f00:	f7043603          	ld	a2,-144(s0)
    80002f04:	00050793          	mv	a5,a0
    80002f08:	00048593          	mv	a1,s1
    80002f0c:	000b0513          	mv	a0,s6
    80002f10:	f6f43823          	sd	a5,-144(s0)
    80002f14:	0fd060ef          	jal	80009810 <__fma>
    80002f18:	00050793          	mv	a5,a0
    80002f1c:	000a0613          	mv	a2,s4
    80002f20:	00048593          	mv	a1,s1
    80002f24:	000b8513          	mv	a0,s7
    80002f28:	f0f43423          	sd	a5,-248(s0)
    80002f2c:	0e5060ef          	jal	80009810 <__fma>
    80002f30:	010cb483          	ld	s1,16(s9)
    80002f34:	190d3983          	ld	s3,400(s10)
    80002f38:	f6843603          	ld	a2,-152(s0)
    80002f3c:	00050a13          	mv	s4,a0
    80002f40:	00098593          	mv	a1,s3
    80002f44:	00048513          	mv	a0,s1
    80002f48:	0c9060ef          	jal	80009810 <__fma>
    80002f4c:	198d3903          	ld	s2,408(s10)
    80002f50:	f6043603          	ld	a2,-160(s0)
    80002f54:	00050793          	mv	a5,a0
    80002f58:	00090593          	mv	a1,s2
    80002f5c:	00048513          	mv	a0,s1
    80002f60:	f6f43423          	sd	a5,-152(s0)
    80002f64:	0ad060ef          	jal	80009810 <__fma>
    80002f68:	1a0d3a83          	ld	s5,416(s10)
    80002f6c:	00050793          	mv	a5,a0
    80002f70:	000c0613          	mv	a2,s8
    80002f74:	000a8593          	mv	a1,s5
    80002f78:	00048513          	mv	a0,s1
    80002f7c:	00078c13          	mv	s8,a5
    80002f80:	091060ef          	jal	80009810 <__fma>
    80002f84:	1a8d3b03          	ld	s6,424(s10)
    80002f88:	f5843603          	ld	a2,-168(s0)
    80002f8c:	00050793          	mv	a5,a0
    80002f90:	000b0593          	mv	a1,s6
    80002f94:	00048513          	mv	a0,s1
    80002f98:	f6f43023          	sd	a5,-160(s0)
    80002f9c:	075060ef          	jal	80009810 <__fma>
    80002fa0:	1b0d3b83          	ld	s7,432(s10)
    80002fa4:	f5043603          	ld	a2,-176(s0)
    80002fa8:	00050793          	mv	a5,a0
    80002fac:	000b8593          	mv	a1,s7
    80002fb0:	00048513          	mv	a0,s1
    80002fb4:	f4f43c23          	sd	a5,-168(s0)
    80002fb8:	059060ef          	jal	80009810 <__fma>
    80002fbc:	0d0cb483          	ld	s1,208(s9)
    80002fc0:	f4843603          	ld	a2,-184(s0)
    80002fc4:	00050793          	mv	a5,a0
    80002fc8:	00048593          	mv	a1,s1
    80002fcc:	00098513          	mv	a0,s3
    80002fd0:	f4f43823          	sd	a5,-176(s0)
    80002fd4:	03d060ef          	jal	80009810 <__fma>
    80002fd8:	f4043603          	ld	a2,-192(s0)
    80002fdc:	00050793          	mv	a5,a0
    80002fe0:	00048593          	mv	a1,s1
    80002fe4:	00090513          	mv	a0,s2
    80002fe8:	f4f43423          	sd	a5,-184(s0)
    80002fec:	025060ef          	jal	80009810 <__fma>
    80002ff0:	00050793          	mv	a5,a0
    80002ff4:	000d8613          	mv	a2,s11
    80002ff8:	00048593          	mv	a1,s1
    80002ffc:	000a8513          	mv	a0,s5
    80003000:	00078d93          	mv	s11,a5
    80003004:	00d060ef          	jal	80009810 <__fma>
    80003008:	f3843603          	ld	a2,-200(s0)
    8000300c:	00050793          	mv	a5,a0
    80003010:	00048593          	mv	a1,s1
    80003014:	000b0513          	mv	a0,s6
    80003018:	f4f43023          	sd	a5,-192(s0)
    8000301c:	7f4060ef          	jal	80009810 <__fma>
    80003020:	f3043603          	ld	a2,-208(s0)
    80003024:	00050793          	mv	a5,a0
    80003028:	00048593          	mv	a1,s1
    8000302c:	000b8513          	mv	a0,s7
    80003030:	f2f43c23          	sd	a5,-200(s0)
    80003034:	7dc060ef          	jal	80009810 <__fma>
    80003038:	190cb483          	ld	s1,400(s9)
    8000303c:	f2843603          	ld	a2,-216(s0)
    80003040:	00050793          	mv	a5,a0
    80003044:	00048593          	mv	a1,s1
    80003048:	00098513          	mv	a0,s3
    8000304c:	f2f43823          	sd	a5,-208(s0)
    80003050:	7c0060ef          	jal	80009810 <__fma>
    80003054:	f2043603          	ld	a2,-224(s0)
    80003058:	00050793          	mv	a5,a0
    8000305c:	00048593          	mv	a1,s1
    80003060:	00090513          	mv	a0,s2
    80003064:	f2f43423          	sd	a5,-216(s0)
    80003068:	7a8060ef          	jal	80009810 <__fma>
    8000306c:	f8843603          	ld	a2,-120(s0)
    80003070:	00050793          	mv	a5,a0
    80003074:	00048593          	mv	a1,s1
    80003078:	000a8513          	mv	a0,s5
    8000307c:	f8f43423          	sd	a5,-120(s0)
    80003080:	790060ef          	jal	80009810 <__fma>
    80003084:	f1843603          	ld	a2,-232(s0)
    80003088:	00050793          	mv	a5,a0
    8000308c:	00048593          	mv	a1,s1
    80003090:	000b0513          	mv	a0,s6
    80003094:	f2f43023          	sd	a5,-224(s0)
    80003098:	778060ef          	jal	80009810 <__fma>
    8000309c:	f1043603          	ld	a2,-240(s0)
    800030a0:	00050793          	mv	a5,a0
    800030a4:	00048593          	mv	a1,s1
    800030a8:	000b8513          	mv	a0,s7
    800030ac:	f0f43c23          	sd	a5,-232(s0)
    800030b0:	760060ef          	jal	80009810 <__fma>
    800030b4:	250cb483          	ld	s1,592(s9)
    800030b8:	f8043603          	ld	a2,-128(s0)
    800030bc:	00050793          	mv	a5,a0
    800030c0:	00048593          	mv	a1,s1
    800030c4:	00098513          	mv	a0,s3
    800030c8:	f8f43023          	sd	a5,-128(s0)
    800030cc:	744060ef          	jal	80009810 <__fma>
    800030d0:	f7843603          	ld	a2,-136(s0)
    800030d4:	00050793          	mv	a5,a0
    800030d8:	00048593          	mv	a1,s1
    800030dc:	00090513          	mv	a0,s2
    800030e0:	f6f43c23          	sd	a5,-136(s0)
    800030e4:	72c060ef          	jal	80009810 <__fma>
    800030e8:	f7043603          	ld	a2,-144(s0)
    800030ec:	00050793          	mv	a5,a0
    800030f0:	00048593          	mv	a1,s1
    800030f4:	000a8513          	mv	a0,s5
    800030f8:	f6f43823          	sd	a5,-144(s0)
    800030fc:	714060ef          	jal	80009810 <__fma>
    80003100:	f0843603          	ld	a2,-248(s0)
    80003104:	00050793          	mv	a5,a0
    80003108:	00048593          	mv	a1,s1
    8000310c:	000b0513          	mv	a0,s6
    80003110:	f0f43823          	sd	a5,-240(s0)
    80003114:	6fc060ef          	jal	80009810 <__fma>
    80003118:	00050793          	mv	a5,a0
    8000311c:	000a0613          	mv	a2,s4
    80003120:	00048593          	mv	a1,s1
    80003124:	000b8513          	mv	a0,s7
    80003128:	f0f43423          	sd	a5,-248(s0)
    8000312c:	6e4060ef          	jal	80009810 <__fma>
    80003130:	018cb483          	ld	s1,24(s9)
    80003134:	258d3983          	ld	s3,600(s10)
    80003138:	f6843603          	ld	a2,-152(s0)
    8000313c:	00050a13          	mv	s4,a0
    80003140:	00098593          	mv	a1,s3
    80003144:	00048513          	mv	a0,s1
    80003148:	6c8060ef          	jal	80009810 <__fma>
    8000314c:	260d3903          	ld	s2,608(s10)
    80003150:	00050793          	mv	a5,a0
    80003154:	000c0613          	mv	a2,s8
    80003158:	00090593          	mv	a1,s2
    8000315c:	00048513          	mv	a0,s1
    80003160:	00078c13          	mv	s8,a5
    80003164:	6ac060ef          	jal	80009810 <__fma>
    80003168:	268d3a83          	ld	s5,616(s10)
    8000316c:	f6043603          	ld	a2,-160(s0)
    80003170:	00050793          	mv	a5,a0
    80003174:	000a8593          	mv	a1,s5
    80003178:	00048513          	mv	a0,s1
    8000317c:	f6f43423          	sd	a5,-152(s0)
    80003180:	690060ef          	jal	80009810 <__fma>
    80003184:	270d3b03          	ld	s6,624(s10)
    80003188:	f5843603          	ld	a2,-168(s0)
    8000318c:	00050793          	mv	a5,a0
    80003190:	000b0593          	mv	a1,s6
    80003194:	00048513          	mv	a0,s1
    80003198:	f6f43023          	sd	a5,-160(s0)
    8000319c:	674060ef          	jal	80009810 <__fma>
    800031a0:	278d3b83          	ld	s7,632(s10)
    800031a4:	f5043603          	ld	a2,-176(s0)
    800031a8:	00050793          	mv	a5,a0
    800031ac:	000b8593          	mv	a1,s7
    800031b0:	00048513          	mv	a0,s1
    800031b4:	f4f43c23          	sd	a5,-168(s0)
    800031b8:	658060ef          	jal	80009810 <__fma>
    800031bc:	0d8cb483          	ld	s1,216(s9)
    800031c0:	f4843603          	ld	a2,-184(s0)
    800031c4:	00050793          	mv	a5,a0
    800031c8:	00048593          	mv	a1,s1
    800031cc:	00098513          	mv	a0,s3
    800031d0:	f4f43823          	sd	a5,-176(s0)
    800031d4:	63c060ef          	jal	80009810 <__fma>
    800031d8:	00050793          	mv	a5,a0
    800031dc:	000d8613          	mv	a2,s11
    800031e0:	00048593          	mv	a1,s1
    800031e4:	00090513          	mv	a0,s2
    800031e8:	00078d93          	mv	s11,a5
    800031ec:	624060ef          	jal	80009810 <__fma>
    800031f0:	f4043603          	ld	a2,-192(s0)
    800031f4:	00050793          	mv	a5,a0
    800031f8:	00048593          	mv	a1,s1
    800031fc:	000a8513          	mv	a0,s5
    80003200:	f4f43423          	sd	a5,-184(s0)
    80003204:	60c060ef          	jal	80009810 <__fma>
    80003208:	f3843603          	ld	a2,-200(s0)
    8000320c:	00050793          	mv	a5,a0
    80003210:	00048593          	mv	a1,s1
    80003214:	000b0513          	mv	a0,s6
    80003218:	f4f43023          	sd	a5,-192(s0)
    8000321c:	5f4060ef          	jal	80009810 <__fma>
    80003220:	f3043603          	ld	a2,-208(s0)
    80003224:	00050793          	mv	a5,a0
    80003228:	00048593          	mv	a1,s1
    8000322c:	000b8513          	mv	a0,s7
    80003230:	f2f43c23          	sd	a5,-200(s0)
    80003234:	5dc060ef          	jal	80009810 <__fma>
    80003238:	198cb483          	ld	s1,408(s9)
    8000323c:	f2843603          	ld	a2,-216(s0)
    80003240:	00050793          	mv	a5,a0
    80003244:	00048593          	mv	a1,s1
    80003248:	00098513          	mv	a0,s3
    8000324c:	f2f43823          	sd	a5,-208(s0)
    80003250:	5c0060ef          	jal	80009810 <__fma>
    80003254:	f8843603          	ld	a2,-120(s0)
    80003258:	00050793          	mv	a5,a0
    8000325c:	00048593          	mv	a1,s1
    80003260:	00090513          	mv	a0,s2
    80003264:	f8f43423          	sd	a5,-120(s0)
    80003268:	5a8060ef          	jal	80009810 <__fma>
    8000326c:	f2043603          	ld	a2,-224(s0)
    80003270:	00050793          	mv	a5,a0
    80003274:	00048593          	mv	a1,s1
    80003278:	000a8513          	mv	a0,s5
    8000327c:	f2f43423          	sd	a5,-216(s0)
    80003280:	590060ef          	jal	80009810 <__fma>
    80003284:	f1843603          	ld	a2,-232(s0)
    80003288:	00050793          	mv	a5,a0
    8000328c:	00048593          	mv	a1,s1
    80003290:	000b0513          	mv	a0,s6
    80003294:	f2f43023          	sd	a5,-224(s0)
    80003298:	578060ef          	jal	80009810 <__fma>
    8000329c:	f8043603          	ld	a2,-128(s0)
    800032a0:	00050793          	mv	a5,a0
    800032a4:	00048593          	mv	a1,s1
    800032a8:	000b8513          	mv	a0,s7
    800032ac:	f8f43023          	sd	a5,-128(s0)
    800032b0:	560060ef          	jal	80009810 <__fma>
    800032b4:	258cb483          	ld	s1,600(s9)
    800032b8:	f7843603          	ld	a2,-136(s0)
    800032bc:	00050793          	mv	a5,a0
    800032c0:	00048593          	mv	a1,s1
    800032c4:	00098513          	mv	a0,s3
    800032c8:	f6f43c23          	sd	a5,-136(s0)
    800032cc:	544060ef          	jal	80009810 <__fma>
    800032d0:	f7043603          	ld	a2,-144(s0)
    800032d4:	00050793          	mv	a5,a0
    800032d8:	00048593          	mv	a1,s1
    800032dc:	00090513          	mv	a0,s2
    800032e0:	f6f43823          	sd	a5,-144(s0)
    800032e4:	52c060ef          	jal	80009810 <__fma>
    800032e8:	f1043603          	ld	a2,-240(s0)
    800032ec:	00050793          	mv	a5,a0
    800032f0:	00048593          	mv	a1,s1
    800032f4:	000a8513          	mv	a0,s5
    800032f8:	f0f43c23          	sd	a5,-232(s0)
    800032fc:	514060ef          	jal	80009810 <__fma>
    80003300:	f0843603          	ld	a2,-248(s0)
    80003304:	00050793          	mv	a5,a0
    80003308:	00048593          	mv	a1,s1
    8000330c:	000b0513          	mv	a0,s6
    80003310:	f0f43823          	sd	a5,-240(s0)
    80003314:	4fc060ef          	jal	80009810 <__fma>
    80003318:	00050793          	mv	a5,a0
    8000331c:	000a0613          	mv	a2,s4
    80003320:	00048593          	mv	a1,s1
    80003324:	000b8513          	mv	a0,s7
    80003328:	f0f43423          	sd	a5,-248(s0)
    8000332c:	4e4060ef          	jal	80009810 <__fma>
    80003330:	020cb483          	ld	s1,32(s9)
    80003334:	320d3983          	ld	s3,800(s10)
    80003338:	00050a13          	mv	s4,a0
    8000333c:	000c0613          	mv	a2,s8
    80003340:	00098593          	mv	a1,s3
    80003344:	00048513          	mv	a0,s1
    80003348:	4c8060ef          	jal	80009810 <__fma>
    8000334c:	328d3903          	ld	s2,808(s10)
    80003350:	f6843603          	ld	a2,-152(s0)
    80003354:	00050c13          	mv	s8,a0
    80003358:	00090593          	mv	a1,s2
    8000335c:	00048513          	mv	a0,s1
    80003360:	4b0060ef          	jal	80009810 <__fma>
    80003364:	330d3a83          	ld	s5,816(s10)
    80003368:	f6043603          	ld	a2,-160(s0)
    8000336c:	00050793          	mv	a5,a0
    80003370:	000a8593          	mv	a1,s5
    80003374:	00048513          	mv	a0,s1
    80003378:	f6f43423          	sd	a5,-152(s0)
    8000337c:	494060ef          	jal	80009810 <__fma>
    80003380:	338d3b03          	ld	s6,824(s10)
    80003384:	f5843603          	ld	a2,-168(s0)
    80003388:	00050793          	mv	a5,a0
    8000338c:	000b0593          	mv	a1,s6
    80003390:	00048513          	mv	a0,s1
    80003394:	f6f43023          	sd	a5,-160(s0)
    80003398:	478060ef          	jal	80009810 <__fma>
    8000339c:	340d3b83          	ld	s7,832(s10)
    800033a0:	f5043603          	ld	a2,-176(s0)
    800033a4:	00050793          	mv	a5,a0
    800033a8:	000b8593          	mv	a1,s7
    800033ac:	00048513          	mv	a0,s1
    800033b0:	f4f43c23          	sd	a5,-168(s0)
    800033b4:	45c060ef          	jal	80009810 <__fma>
    800033b8:	0e0cb483          	ld	s1,224(s9)
    800033bc:	00050793          	mv	a5,a0
    800033c0:	000d8613          	mv	a2,s11
    800033c4:	00048593          	mv	a1,s1
    800033c8:	00098513          	mv	a0,s3
    800033cc:	00078d93          	mv	s11,a5
    800033d0:	440060ef          	jal	80009810 <__fma>
    800033d4:	f4843603          	ld	a2,-184(s0)
    800033d8:	00050793          	mv	a5,a0
    800033dc:	00048593          	mv	a1,s1
    800033e0:	00090513          	mv	a0,s2
    800033e4:	f4f43823          	sd	a5,-176(s0)
    800033e8:	428060ef          	jal	80009810 <__fma>
    800033ec:	f4043603          	ld	a2,-192(s0)
    800033f0:	00050793          	mv	a5,a0
    800033f4:	00048593          	mv	a1,s1
    800033f8:	000a8513          	mv	a0,s5
    800033fc:	f4f43423          	sd	a5,-184(s0)
    80003400:	410060ef          	jal	80009810 <__fma>
    80003404:	f3843603          	ld	a2,-200(s0)
    80003408:	00050793          	mv	a5,a0
    8000340c:	00048593          	mv	a1,s1
    80003410:	000b0513          	mv	a0,s6
    80003414:	f4f43023          	sd	a5,-192(s0)
    80003418:	3f8060ef          	jal	80009810 <__fma>
    8000341c:	f3043603          	ld	a2,-208(s0)
    80003420:	00050793          	mv	a5,a0
    80003424:	00048593          	mv	a1,s1
    80003428:	000b8513          	mv	a0,s7
    8000342c:	f2f43c23          	sd	a5,-200(s0)
    80003430:	3e0060ef          	jal	80009810 <__fma>
    80003434:	1a0cb483          	ld	s1,416(s9)
    80003438:	f8843603          	ld	a2,-120(s0)
    8000343c:	00050793          	mv	a5,a0
    80003440:	00048593          	mv	a1,s1
    80003444:	00098513          	mv	a0,s3
    80003448:	f8f43423          	sd	a5,-120(s0)
    8000344c:	3c4060ef          	jal	80009810 <__fma>
    80003450:	f2843603          	ld	a2,-216(s0)
    80003454:	00050793          	mv	a5,a0
    80003458:	00048593          	mv	a1,s1
    8000345c:	00090513          	mv	a0,s2
    80003460:	f2f43823          	sd	a5,-208(s0)
    80003464:	3ac060ef          	jal	80009810 <__fma>
    80003468:	f2043603          	ld	a2,-224(s0)
    8000346c:	00050793          	mv	a5,a0
    80003470:	00048593          	mv	a1,s1
    80003474:	000a8513          	mv	a0,s5
    80003478:	f2f43423          	sd	a5,-216(s0)
    8000347c:	394060ef          	jal	80009810 <__fma>
    80003480:	f8043603          	ld	a2,-128(s0)
    80003484:	00050793          	mv	a5,a0
    80003488:	00048593          	mv	a1,s1
    8000348c:	000b0513          	mv	a0,s6
    80003490:	f8f43023          	sd	a5,-128(s0)
    80003494:	37c060ef          	jal	80009810 <__fma>
    80003498:	f7843603          	ld	a2,-136(s0)
    8000349c:	00050793          	mv	a5,a0
    800034a0:	00048593          	mv	a1,s1
    800034a4:	000b8513          	mv	a0,s7
    800034a8:	f6f43c23          	sd	a5,-136(s0)
    800034ac:	364060ef          	jal	80009810 <__fma>
    800034b0:	260cb483          	ld	s1,608(s9)
    800034b4:	f7043603          	ld	a2,-144(s0)
    800034b8:	00050793          	mv	a5,a0
    800034bc:	00048593          	mv	a1,s1
    800034c0:	00098513          	mv	a0,s3
    800034c4:	f6f43823          	sd	a5,-144(s0)
    800034c8:	348060ef          	jal	80009810 <__fma>
    800034cc:	f1843603          	ld	a2,-232(s0)
    800034d0:	00050793          	mv	a5,a0
    800034d4:	00048593          	mv	a1,s1
    800034d8:	00090513          	mv	a0,s2
    800034dc:	f0f43023          	sd	a5,-256(s0)
    800034e0:	330060ef          	jal	80009810 <__fma>
    800034e4:	f1043603          	ld	a2,-240(s0)
    800034e8:	00050793          	mv	a5,a0
    800034ec:	00048593          	mv	a1,s1
    800034f0:	000a8513          	mv	a0,s5
    800034f4:	f0f43823          	sd	a5,-240(s0)
    800034f8:	318060ef          	jal	80009810 <__fma>
    800034fc:	f0843603          	ld	a2,-248(s0)
    80003500:	00050793          	mv	a5,a0
    80003504:	00048593          	mv	a1,s1
    80003508:	000b0513          	mv	a0,s6
    8000350c:	f0f43423          	sd	a5,-248(s0)
    80003510:	300060ef          	jal	80009810 <__fma>
    80003514:	00050793          	mv	a5,a0
    80003518:	000a0613          	mv	a2,s4
    8000351c:	00048593          	mv	a1,s1
    80003520:	000b8513          	mv	a0,s7
    80003524:	eef43c23          	sd	a5,-264(s0)
    80003528:	2e8060ef          	jal	80009810 <__fma>
    8000352c:	028cb483          	ld	s1,40(s9)
    80003530:	3e8d3b03          	ld	s6,1000(s10)
    80003534:	00050793          	mv	a5,a0
    80003538:	000c0613          	mv	a2,s8
    8000353c:	00048513          	mv	a0,s1
    80003540:	000b0593          	mv	a1,s6
    80003544:	eef43823          	sd	a5,-272(s0)
    80003548:	2c8060ef          	jal	80009810 <__fma>
    8000354c:	3f0d3a83          	ld	s5,1008(s10)
    80003550:	f6843603          	ld	a2,-152(s0)
    80003554:	00050793          	mv	a5,a0
    80003558:	000a8593          	mv	a1,s5
    8000355c:	00048513          	mv	a0,s1
    80003560:	f6f43423          	sd	a5,-152(s0)
    80003564:	2ac060ef          	jal	80009810 <__fma>
    80003568:	3f8d3a03          	ld	s4,1016(s10)
    8000356c:	f6043603          	ld	a2,-160(s0)
    80003570:	00050793          	mv	a5,a0
    80003574:	000a0593          	mv	a1,s4
    80003578:	00048513          	mv	a0,s1
    8000357c:	f6f43023          	sd	a5,-160(s0)
    80003580:	290060ef          	jal	80009810 <__fma>
    80003584:	400d3983          	ld	s3,1024(s10)
    80003588:	f5843603          	ld	a2,-168(s0)
    8000358c:	00050793          	mv	a5,a0
    80003590:	00098593          	mv	a1,s3
    80003594:	00048513          	mv	a0,s1
    80003598:	f4f43c23          	sd	a5,-168(s0)
    8000359c:	274060ef          	jal	80009810 <__fma>
    800035a0:	408d3903          	ld	s2,1032(s10)
    800035a4:	000d8613          	mv	a2,s11
    800035a8:	00050b93          	mv	s7,a0
    800035ac:	00090593          	mv	a1,s2
    800035b0:	00048513          	mv	a0,s1
    800035b4:	25c060ef          	jal	80009810 <__fma>
    800035b8:	0e8cb483          	ld	s1,232(s9)
    800035bc:	f5043603          	ld	a2,-176(s0)
    800035c0:	00050c13          	mv	s8,a0
    800035c4:	00048593          	mv	a1,s1
    800035c8:	000b0513          	mv	a0,s6
    800035cc:	244060ef          	jal	80009810 <__fma>
    800035d0:	f4843603          	ld	a2,-184(s0)
    800035d4:	00050793          	mv	a5,a0
    800035d8:	00048593          	mv	a1,s1
    800035dc:	000a8513          	mv	a0,s5
    800035e0:	f4f43823          	sd	a5,-176(s0)
    800035e4:	22c060ef          	jal	80009810 <__fma>
    800035e8:	f4043603          	ld	a2,-192(s0)
    800035ec:	00050793          	mv	a5,a0
    800035f0:	00048593          	mv	a1,s1
    800035f4:	000a0513          	mv	a0,s4
    800035f8:	f4f43423          	sd	a5,-184(s0)
    800035fc:	214060ef          	jal	80009810 <__fma>
    80003600:	f3843603          	ld	a2,-200(s0)
    80003604:	00050793          	mv	a5,a0
    80003608:	00048593          	mv	a1,s1
    8000360c:	00098513          	mv	a0,s3
    80003610:	f4f43023          	sd	a5,-192(s0)
    80003614:	1fc060ef          	jal	80009810 <__fma>
    80003618:	f8843603          	ld	a2,-120(s0)
    8000361c:	00050793          	mv	a5,a0
    80003620:	00048593          	mv	a1,s1
    80003624:	00090513          	mv	a0,s2
    80003628:	f2f43c23          	sd	a5,-200(s0)
    8000362c:	1e4060ef          	jal	80009810 <__fma>
    80003630:	1a8cb483          	ld	s1,424(s9)
    80003634:	f3043603          	ld	a2,-208(s0)
    80003638:	00050d93          	mv	s11,a0
    8000363c:	00048593          	mv	a1,s1
    80003640:	000b0513          	mv	a0,s6
    80003644:	1cc060ef          	jal	80009810 <__fma>
    80003648:	f2843603          	ld	a2,-216(s0)
    8000364c:	00050793          	mv	a5,a0
    80003650:	00048593          	mv	a1,s1
    80003654:	000a8513          	mv	a0,s5
    80003658:	f2f43823          	sd	a5,-208(s0)
    8000365c:	1b4060ef          	jal	80009810 <__fma>
    80003660:	f8043603          	ld	a2,-128(s0)
    80003664:	00050793          	mv	a5,a0
    80003668:	00048593          	mv	a1,s1
    8000366c:	000a0513          	mv	a0,s4
    80003670:	f2f43423          	sd	a5,-216(s0)
    80003674:	19c060ef          	jal	80009810 <__fma>
    80003678:	f7843603          	ld	a2,-136(s0)
    8000367c:	00050793          	mv	a5,a0
    80003680:	00048593          	mv	a1,s1
    80003684:	00098513          	mv	a0,s3
    80003688:	f2f43023          	sd	a5,-224(s0)
    8000368c:	184060ef          	jal	80009810 <__fma>
    80003690:	f7043603          	ld	a2,-144(s0)
    80003694:	00050793          	mv	a5,a0
    80003698:	00048593          	mv	a1,s1
    8000369c:	00090513          	mv	a0,s2
    800036a0:	f0f43c23          	sd	a5,-232(s0)
    800036a4:	16c060ef          	jal	80009810 <__fma>
    800036a8:	268cb483          	ld	s1,616(s9)
    800036ac:	f0043603          	ld	a2,-256(s0)
    800036b0:	00050793          	mv	a5,a0
    800036b4:	00048593          	mv	a1,s1
    800036b8:	000b0513          	mv	a0,s6
    800036bc:	f8f43423          	sd	a5,-120(s0)
    800036c0:	150060ef          	jal	80009810 <__fma>
    800036c4:	f1043603          	ld	a2,-240(s0)
    800036c8:	00050793          	mv	a5,a0
    800036cc:	00048593          	mv	a1,s1
    800036d0:	000a8513          	mv	a0,s5
    800036d4:	f0f43823          	sd	a5,-240(s0)
    800036d8:	138060ef          	jal	80009810 <__fma>
    800036dc:	f0843603          	ld	a2,-248(s0)
    800036e0:	00050793          	mv	a5,a0
    800036e4:	00048593          	mv	a1,s1
    800036e8:	000a0513          	mv	a0,s4
    800036ec:	00078a13          	mv	s4,a5
    800036f0:	120060ef          	jal	80009810 <__fma>
    800036f4:	ef843603          	ld	a2,-264(s0)
    800036f8:	00050793          	mv	a5,a0
    800036fc:	00048593          	mv	a1,s1
    80003700:	00098513          	mv	a0,s3
    80003704:	f8f43023          	sd	a5,-128(s0)
    80003708:	108060ef          	jal	80009810 <__fma>
    8000370c:	ef043603          	ld	a2,-272(s0)
    80003710:	00050793          	mv	a5,a0
    80003714:	00048593          	mv	a1,s1
    80003718:	00090513          	mv	a0,s2
    8000371c:	f6f43c23          	sd	a5,-136(s0)
    80003720:	0f0060ef          	jal	80009810 <__fma>
    80003724:	ee843783          	ld	a5,-280(s0)
    80003728:	030c8c93          	addi	s9,s9,48
    8000372c:	f6a43823          	sd	a0,-144(s0)
    80003730:	4b0d0d13          	addi	s10,s10,1200
    80003734:	c0fc9063          	bne	s9,a5,80002b34 <mm_cb+0x888>
    80003738:	ed043483          	ld	s1,-304(s0)
    8000373c:	f1843703          	ld	a4,-232(s0)
    80003740:	f6043083          	ld	ra,-160(s0)
    80003744:	f5843383          	ld	t2,-168(s0)
    80003748:	1ae4b423          	sd	a4,424(s1)
    8000374c:	f5043f03          	ld	t5,-176(s0)
    80003750:	f4843e83          	ld	t4,-184(s0)
    80003754:	f4043e03          	ld	t3,-192(s0)
    80003758:	f3843303          	ld	t1,-200(s0)
    8000375c:	f3043803          	ld	a6,-208(s0)
    80003760:	f2843583          	ld	a1,-216(s0)
    80003764:	f2043683          	ld	a3,-224(s0)
    80003768:	f1043783          	ld	a5,-240(s0)
    8000376c:	f8843703          	ld	a4,-120(s0)
    80003770:	000c0f93          	mv	t6,s8
    80003774:	f6843c03          	ld	s8,-152(s0)
    80003778:	000a0613          	mv	a2,s4
    8000377c:	0014b423          	sd	ra,8(s1)
    80003780:	ed843a03          	ld	s4,-296(s0)
    80003784:	0184b023          	sd	s8,0(s1)
    80003788:	0074b823          	sd	t2,16(s1)
    8000378c:	0174bc23          	sd	s7,24(s1)
    80003790:	03f4b023          	sd	t6,32(s1)
    80003794:	0de4b423          	sd	t5,200(s1)
    80003798:	0dd4b823          	sd	t4,208(s1)
    8000379c:	0dc4bc23          	sd	t3,216(s1)
    800037a0:	0e64b023          	sd	t1,224(s1)
    800037a4:	0fb4b423          	sd	s11,232(s1)
    800037a8:	1904b823          	sd	a6,400(s1)
    800037ac:	18b4bc23          	sd	a1,408(s1)
    800037b0:	1ad4b023          	sd	a3,416(s1)
    800037b4:	1ae4b823          	sd	a4,432(s1)
    800037b8:	24f4bc23          	sd	a5,600(s1)
    800037bc:	26c4b023          	sd	a2,608(s1)
    800037c0:	f8043783          	ld	a5,-128(s0)
    800037c4:	028a0a13          	addi	s4,s4,40
    800037c8:	26a4bc23          	sd	a0,632(s1)
    800037cc:	26f4b423          	sd	a5,616(s1)
    800037d0:	f7843783          	ld	a5,-136(s0)
    800037d4:	02848493          	addi	s1,s1,40
    800037d8:	24f4b423          	sd	a5,584(s1)
    800037dc:	ec043783          	ld	a5,-320(s0)
    800037e0:	ab479263          	bne	a5,s4,80002a84 <mm_cb+0x7d8>
    800037e4:	01900793          	li	a5,25
    800037e8:	e9043483          	ld	s1,-368(s0)
    800037ec:	ec843a83          	ld	s5,-312(s0)
    800037f0:	00f13023          	sd	a5,0(sp)
    800037f4:	ec043783          	ld	a5,-320(s0)
    800037f8:	00048893          	mv	a7,s1
    800037fc:	01900813          	li	a6,25
    80003800:	01800713          	li	a4,24
    80003804:	000a8693          	mv	a3,s5
    80003808:	01800613          	li	a2,24
    8000380c:	00000593          	li	a1,0
    80003810:	00400513          	li	a0,4
    80003814:	fecfe0ef          	jal	80002000 <mm_naive>
    80003818:	300c8793          	addi	a5,s9,768
    8000381c:	eef43423          	sd	a5,-280(s0)
    80003820:	e6843783          	ld	a5,-408(s0)
    80003824:	32048493          	addi	s1,s1,800
    80003828:	a4979063          	bne	a5,s1,80002a68 <mm_cb+0x7bc>
    8000382c:	01900793          	li	a5,25
    80003830:	e3043683          	ld	a3,-464(s0)
    80003834:	e7043a83          	ld	s5,-400(s0)
    80003838:	e1043a03          	ld	s4,-496(s0)
    8000383c:	d3043c83          	ld	s9,-720(s0)
    80003840:	e1843903          	ld	s2,-488(s0)
    80003844:	cb043983          	ld	s3,-848(s0)
    80003848:	e6843c03          	ld	s8,-408(s0)
    8000384c:	ca843d83          	ld	s11,-856(s0)
    80003850:	ca043d03          	ld	s10,-864(s0)
    80003854:	00f13023          	sd	a5,0(sp)
    80003858:	d0043603          	ld	a2,-768(s0)
    8000385c:	000a8793          	mv	a5,s5
    80003860:	000c8893          	mv	a7,s9
    80003864:	00c686b3          	add	a3,a3,a2
    80003868:	01900813          	li	a6,25
    8000386c:	01800713          	li	a4,24
    80003870:	01800613          	li	a2,24
    80003874:	01900593          	li	a1,25
    80003878:	00000513          	li	a0,0
    8000387c:	f84fe0ef          	jal	80002000 <mm_naive>
    80003880:	e6043783          	ld	a5,-416(s0)
    80003884:	018a0a13          	addi	s4,s4,24
    80003888:	00fa7463          	bgeu	s4,a5,80003890 <mm_cb+0x15e4>
    8000388c:	964ff06f          	j	800029f0 <mm_cb+0x744>
    80003890:	e4043483          	ld	s1,-448(s0)
    80003894:	e3843e03          	ld	t3,-456(s0)
    80003898:	0c898793          	addi	a5,s3,200
    8000389c:	e6f43423          	sd	a5,-408(s0)
    800038a0:	e6043703          	ld	a4,-416(s0)
    800038a4:	e2043783          	ld	a5,-480(s0)
    800038a8:	00f77463          	bgeu	a4,a5,800038b0 <mm_cb+0x1604>
    800038ac:	6080106f          	j	80004eb4 <mm_cb+0x2c08>
    800038b0:	e0843783          	ld	a5,-504(s0)
    800038b4:	01948493          	addi	s1,s1,25
    800038b8:	e6843983          	ld	s3,-408(s0)
    800038bc:	00f4f463          	bgeu	s1,a5,800038c4 <mm_cb+0x1618>
    800038c0:	8e4ff06f          	j	800029a4 <mm_cb+0x6f8>
    800038c4:	e2843783          	ld	a5,-472(s0)
    800038c8:	e0843703          	ld	a4,-504(s0)
    800038cc:	cc843903          	ld	s2,-824(s0)
    800038d0:	cc043c03          	ld	s8,-832(s0)
    800038d4:	dd043a83          	ld	s5,-560(s0)
    800038d8:	cb843b03          	ld	s6,-840(s0)
    800038dc:	00f77463          	bgeu	a4,a5,800038e4 <mm_cb+0x1638>
    800038e0:	0010206f          	j	800060e0 <mm_cb+0x3e34>
    800038e4:	01bb08b3          	add	a7,s6,s11
    800038e8:	d6043783          	ld	a5,-672(s0)
    800038ec:	01890913          	addi	s2,s2,24
    800038f0:	da843a83          	ld	s5,-600(s0)
    800038f4:	00088b13          	mv	s6,a7
    800038f8:	00f97463          	bgeu	s2,a5,80003900 <mm_cb+0x1654>
    800038fc:	82cff06f          	j	80002928 <mm_cb+0x67c>
    80003900:	d6043983          	ld	s3,-672(s0)
    80003904:	cf843903          	ld	s2,-776(s0)
    80003908:	d9843303          	ld	t1,-616(s0)
    8000390c:	e4843603          	ld	a2,-440(s0)
    80003910:	cf043c03          	ld	s8,-784(s0)
    80003914:	e5843803          	ld	a6,-424(s0)
    80003918:	ce843b03          	ld	s6,-792(s0)
    8000391c:	00043583          	ld	a1,0(s0)
    80003920:	cd843483          	ld	s1,-808(s0)
    80003924:	cd043a03          	ld	s4,-816(s0)
    80003928:	d5043f83          	ld	t6,-688(s0)
    8000392c:	0129e463          	bltu	s3,s2,80003934 <mm_cb+0x1688>
    80003930:	4640106f          	j	80004d94 <mm_cb+0x2ae8>
    80003934:	e2843783          	ld	a5,-472(s0)
    80003938:	00079463          	bnez	a5,80003940 <mm_cb+0x1694>
    8000393c:	4580106f          	j	80004d94 <mm_cb+0x2ae8>
    80003940:	00ba07b3          	add	a5,s4,a1
    80003944:	00281713          	slli	a4,a6,0x2
    80003948:	010486b3          	add	a3,s1,a6
    8000394c:	01070733          	add	a4,a4,a6
    80003950:	00379e93          	slli	t4,a5,0x3
    80003954:	00369793          	slli	a5,a3,0x3
    80003958:	e6f43823          	sd	a5,-400(s0)
    8000395c:	00371793          	slli	a5,a4,0x3
    80003960:	e6f43423          	sd	a5,-408(s0)
    80003964:	01800793          	li	a5,24
    80003968:	02f977b3          	remu	a5,s2,a5
    8000396c:	010484b3          	add	s1,s1,a6
    80003970:	00649713          	slli	a4,s1,0x6
    80003974:	d6e43c23          	sd	a4,-648(s0)
    80003978:	000c0c93          	mv	s9,s8
    8000397c:	00000913          	li	s2,0
    80003980:	dcc43423          	sd	a2,-568(s0)
    80003984:	df043023          	sd	a6,-544(s0)
    80003988:	00058693          	mv	a3,a1
    8000398c:	ffc7f893          	andi	a7,a5,-4
    80003990:	03160733          	mul	a4,a2,a7
    80003994:	0037f793          	andi	a5,a5,3
    80003998:	d8f43823          	sd	a5,-624(s0)
    8000399c:	031587b3          	mul	a5,a1,a7
    800039a0:	00371713          	slli	a4,a4,0x3
    800039a4:	d8e43423          	sd	a4,-632(s0)
    800039a8:	00379d13          	slli	s10,a5,0x3
    800039ac:	03f98733          	mul	a4,s3,t6
    800039b0:	e9843783          	ld	a5,-360(s0)
    800039b4:	02f987b3          	mul	a5,s3,a5
    800039b8:	00eb0db3          	add	s11,s6,a4
    800039bc:	d7043703          	ld	a4,-656(s0)
    800039c0:	000d8f13          	mv	t5,s11
    800039c4:	d7643823          	sd	s6,-656(s0)
    800039c8:	00f70c33          	add	s8,a4,a5
    800039cc:	e2043783          	ld	a5,-480(s0)
    800039d0:	00079463          	bnez	a5,800039d8 <mm_cb+0x172c>
    800039d4:	39c0106f          	j	80004d70 <mm_cb+0x2ac4>
    800039d8:	e2843783          	ld	a5,-472(s0)
    800039dc:	41278533          	sub	a0,a5,s2
    800039e0:	01900793          	li	a5,25
    800039e4:	00050b13          	mv	s6,a0
    800039e8:	00a7f463          	bgeu	a5,a0,800039f0 <mm_cb+0x1744>
    800039ec:	01900b13          	li	s6,25
    800039f0:	00500713          	li	a4,5
    800039f4:	02eb57b3          	divu	a5,s6,a4
    800039f8:	01ed0633          	add	a2,s10,t5
    800039fc:	d3443823          	sd	s4,-720(s0)
    80003a00:	d8c43023          	sd	a2,-640(s0)
    80003a04:	000c0493          	mv	s1,s8
    80003a08:	df943823          	sd	s9,-528(s0)
    80003a0c:	00000a93          	li	s5,0
    80003a10:	d6a43423          	sd	a0,-664(s0)
    80003a14:	d6643023          	sd	t1,-672(s0)
    80003a18:	d5343c23          	sd	s3,-680(s0)
    80003a1c:	d5243823          	sd	s2,-688(s0)
    80003a20:	dd143c23          	sd	a7,-552(s0)
    80003a24:	d5a43423          	sd	s10,-696(s0)
    80003a28:	000f0b93          	mv	s7,t5
    80003a2c:	d5943023          	sd	s9,-704(s0)
    80003a30:	d3843c23          	sd	s8,-712(s0)
    80003a34:	ddd43023          	sd	t4,-576(s0)
    80003a38:	00068a13          	mv	s4,a3
    80003a3c:	dbf43c23          	sd	t6,-584(s0)
    80003a40:	02eb7733          	remu	a4,s6,a4
    80003a44:	dae43423          	sd	a4,-600(s0)
    80003a48:	00279713          	slli	a4,a5,0x2
    80003a4c:	00f700b3          	add	ra,a4,a5
    80003a50:	00309793          	slli	a5,ra,0x3
    80003a54:	dcf43823          	sd	a5,-560(s0)
    80003a58:	e0143823          	sd	ra,-496(s0)
    80003a5c:	e2043783          	ld	a5,-480(s0)
    80003a60:	415789b3          	sub	s3,a5,s5
    80003a64:	01800793          	li	a5,24
    80003a68:	0137f463          	bgeu	a5,s3,80003a70 <mm_cb+0x17c4>
    80003a6c:	01800993          	li	s3,24
    80003a70:	dd843783          	ld	a5,-552(s0)
    80003a74:	00079463          	bnez	a5,80003a7c <mm_cb+0x17d0>
    80003a78:	2780106f          	j	80004cf0 <mm_cb+0x2a44>
    80003a7c:	df043683          	ld	a3,-528(s0)
    80003a80:	dd043703          	ld	a4,-560(s0)
    80003a84:	00399793          	slli	a5,s3,0x3
    80003a88:	00f487b3          	add	a5,s1,a5
    80003a8c:	00d70733          	add	a4,a4,a3
    80003a90:	e8f43823          	sd	a5,-368(s0)
    80003a94:	00600793          	li	a5,6
    80003a98:	d8e43c23          	sd	a4,-616(s0)
    80003a9c:	02f9d733          	divu	a4,s3,a5
    80003aa0:	de043783          	ld	a5,-544(s0)
    80003aa4:	00000313          	li	t1,0
    80003aa8:	db343823          	sd	s3,-592(s0)
    80003aac:	000b8913          	mv	s2,s7
    80003ab0:	00048693          	mv	a3,s1
    80003ab4:	d3643423          	sd	s6,-728(s0)
    80003ab8:	d3543023          	sd	s5,-736(s0)
    80003abc:	00030993          	mv	s3,t1
    80003ac0:	d1743c23          	sd	s7,-744(s0)
    80003ac4:	d0943823          	sd	s1,-752(s0)
    80003ac8:	02e78633          	mul	a2,a5,a4
    80003acc:	00171793          	slli	a5,a4,0x1
    80003ad0:	00e787b3          	add	a5,a5,a4
    80003ad4:	00479793          	slli	a5,a5,0x4
    80003ad8:	00f487b3          	add	a5,s1,a5
    80003adc:	eaf43023          	sd	a5,-352(s0)
    80003ae0:	00161793          	slli	a5,a2,0x1
    80003ae4:	00c787b3          	add	a5,a5,a2
    80003ae8:	00479793          	slli	a5,a5,0x4
    80003aec:	e0f43c23          	sd	a5,-488(s0)
    80003af0:	d6843783          	ld	a5,-664(s0)
    80003af4:	00400713          	li	a4,4
    80003af8:	00f76463          	bltu	a4,a5,80003b00 <mm_cb+0x1854>
    80003afc:	1780106f          	j	80004c74 <mm_cb+0x29c8>
    80003b00:	db843783          	ld	a5,-584(s0)
    80003b04:	df043703          	ld	a4,-528(s0)
    80003b08:	d1343423          	sd	s3,-760(s0)
    80003b0c:	00f90ab3          	add	s5,s2,a5
    80003b10:	e0043783          	ld	a5,-512(s0)
    80003b14:	01443023          	sd	s4,0(s0)
    80003b18:	00090c13          	mv	s8,s2
    80003b1c:	00f90b33          	add	s6,s2,a5
    80003b20:	dc043783          	ld	a5,-576(s0)
    80003b24:	e6043023          	sd	zero,-416(s0)
    80003b28:	d1243023          	sd	s2,-768(s0)
    80003b2c:	00f90bb3          	add	s7,s2,a5
    80003b30:	00068993          	mv	s3,a3
    80003b34:	00070a13          	mv	s4,a4
    80003b38:	010c3783          	ld	a5,16(s8)
    80003b3c:	000c3d03          	ld	s10,0(s8)
    80003b40:	008c3c83          	ld	s9,8(s8)
    80003b44:	f6f43423          	sd	a5,-152(s0)
    80003b48:	018c3783          	ld	a5,24(s8)
    80003b4c:	f6f43023          	sd	a5,-160(s0)
    80003b50:	020c3783          	ld	a5,32(s8)
    80003b54:	f4f43c23          	sd	a5,-168(s0)
    80003b58:	000ab783          	ld	a5,0(s5)
    80003b5c:	f4f43823          	sd	a5,-176(s0)
    80003b60:	008ab783          	ld	a5,8(s5)
    80003b64:	f4f43423          	sd	a5,-184(s0)
    80003b68:	010ab783          	ld	a5,16(s5)
    80003b6c:	f4f43023          	sd	a5,-192(s0)
    80003b70:	018ab783          	ld	a5,24(s5)
    80003b74:	f2f43c23          	sd	a5,-200(s0)
    80003b78:	020ab783          	ld	a5,32(s5)
    80003b7c:	f2f43823          	sd	a5,-208(s0)
    80003b80:	000b3783          	ld	a5,0(s6)
    80003b84:	f2f43423          	sd	a5,-216(s0)
    80003b88:	008b3783          	ld	a5,8(s6)
    80003b8c:	f2f43023          	sd	a5,-224(s0)
    80003b90:	010b3783          	ld	a5,16(s6)
    80003b94:	f0f43c23          	sd	a5,-232(s0)
    80003b98:	018b3783          	ld	a5,24(s6)
    80003b9c:	f0f43823          	sd	a5,-240(s0)
    80003ba0:	020b3783          	ld	a5,32(s6)
    80003ba4:	f0f43423          	sd	a5,-248(s0)
    80003ba8:	000bb783          	ld	a5,0(s7)
    80003bac:	f0f43023          	sd	a5,-256(s0)
    80003bb0:	008bb783          	ld	a5,8(s7)
    80003bb4:	eef43c23          	sd	a5,-264(s0)
    80003bb8:	010bb783          	ld	a5,16(s7)
    80003bbc:	eef43823          	sd	a5,-272(s0)
    80003bc0:	018bb783          	ld	a5,24(s7)
    80003bc4:	eef43423          	sd	a5,-280(s0)
    80003bc8:	020bb783          	ld	a5,32(s7)
    80003bcc:	ecf43c23          	sd	a5,-296(s0)
    80003bd0:	ea043783          	ld	a5,-352(s0)
    80003bd4:	54f9fce3          	bgeu	s3,a5,8000492c <mm_cb+0x2680>
    80003bd8:	e9843783          	ld	a5,-360(s0)
    80003bdc:	f9343423          	sd	s3,-120(s0)
    80003be0:	e5343c23          	sd	s3,-424(s0)
    80003be4:	00f987b3          	add	a5,s3,a5
    80003be8:	f8f43023          	sd	a5,-128(s0)
    80003bec:	ee043783          	ld	a5,-288(s0)
    80003bf0:	e5443823          	sd	s4,-432(s0)
    80003bf4:	e5743423          	sd	s7,-440(s0)
    80003bf8:	00f987b3          	add	a5,s3,a5
    80003bfc:	f6f43c23          	sd	a5,-136(s0)
    80003c00:	e8843783          	ld	a5,-376(s0)
    80003c04:	e5643023          	sd	s6,-448(s0)
    80003c08:	e3543c23          	sd	s5,-456(s0)
    80003c0c:	00f987b3          	add	a5,s3,a5
    80003c10:	f6f43823          	sd	a5,-144(s0)
    80003c14:	e3843823          	sd	s8,-464(s0)
    80003c18:	000a0793          	mv	a5,s4
    80003c1c:	eb043683          	ld	a3,-336(s0)
    80003c20:	f8843703          	ld	a4,-120(s0)
    80003c24:	0007bd83          	ld	s11,0(a5)
    80003c28:	00d789b3          	add	s3,a5,a3
    80003c2c:	e8043683          	ld	a3,-384(s0)
    80003c30:	00073a03          	ld	s4,0(a4)
    80003c34:	e6843803          	ld	a6,-408(s0)
    80003c38:	00d78933          	add	s2,a5,a3
    80003c3c:	e7043683          	ld	a3,-400(s0)
    80003c40:	01078833          	add	a6,a5,a6
    80003c44:	000d0613          	mv	a2,s10
    80003c48:	00d78bb3          	add	s7,a5,a3
    80003c4c:	eb843683          	ld	a3,-328(s0)
    80003c50:	000d8593          	mv	a1,s11
    80003c54:	000a0513          	mv	a0,s4
    80003c58:	00d786b3          	add	a3,a5,a3
    80003c5c:	ed043023          	sd	a6,-320(s0)
    80003c60:	ecd43423          	sd	a3,-312(s0)
    80003c64:	ed743823          	sd	s7,-304(s0)
    80003c68:	eaf43423          	sd	a5,-344(s0)
    80003c6c:	3a5050ef          	jal	80009810 <__fma>
    80003c70:	ea843783          	ld	a5,-344(s0)
    80003c74:	00050493          	mv	s1,a0
    80003c78:	000c8613          	mv	a2,s9
    80003c7c:	0087bc03          	ld	s8,8(a5)
    80003c80:	000a0513          	mv	a0,s4
    80003c84:	000c0593          	mv	a1,s8
    80003c88:	389050ef          	jal	80009810 <__fma>
    80003c8c:	ea843783          	ld	a5,-344(s0)
    80003c90:	f6843603          	ld	a2,-152(s0)
    80003c94:	00050d13          	mv	s10,a0
    80003c98:	0107bb83          	ld	s7,16(a5)
    80003c9c:	000a0513          	mv	a0,s4
    80003ca0:	000b8593          	mv	a1,s7
    80003ca4:	36d050ef          	jal	80009810 <__fma>
    80003ca8:	ea843783          	ld	a5,-344(s0)
    80003cac:	f6043603          	ld	a2,-160(s0)
    80003cb0:	00050c93          	mv	s9,a0
    80003cb4:	0187bb03          	ld	s6,24(a5)
    80003cb8:	000a0513          	mv	a0,s4
    80003cbc:	f6f43423          	sd	a5,-152(s0)
    80003cc0:	000b0593          	mv	a1,s6
    80003cc4:	34d050ef          	jal	80009810 <__fma>
    80003cc8:	f6843783          	ld	a5,-152(s0)
    80003ccc:	f5843603          	ld	a2,-168(s0)
    80003cd0:	00050713          	mv	a4,a0
    80003cd4:	0207ba83          	ld	s5,32(a5)
    80003cd8:	000a0513          	mv	a0,s4
    80003cdc:	f6e43423          	sd	a4,-152(s0)
    80003ce0:	000a8593          	mv	a1,s5
    80003ce4:	32d050ef          	jal	80009810 <__fma>
    80003ce8:	f8043683          	ld	a3,-128(s0)
    80003cec:	f5043603          	ld	a2,-176(s0)
    80003cf0:	00050713          	mv	a4,a0
    80003cf4:	0006ba03          	ld	s4,0(a3)
    80003cf8:	000d8513          	mv	a0,s11
    80003cfc:	f6e43023          	sd	a4,-160(s0)
    80003d00:	000a0593          	mv	a1,s4
    80003d04:	30d050ef          	jal	80009810 <__fma>
    80003d08:	f4843603          	ld	a2,-184(s0)
    80003d0c:	00050713          	mv	a4,a0
    80003d10:	000a0593          	mv	a1,s4
    80003d14:	000c0513          	mv	a0,s8
    80003d18:	f4e43c23          	sd	a4,-168(s0)
    80003d1c:	2f5050ef          	jal	80009810 <__fma>
    80003d20:	f4043603          	ld	a2,-192(s0)
    80003d24:	00050713          	mv	a4,a0
    80003d28:	000a0593          	mv	a1,s4
    80003d2c:	000b8513          	mv	a0,s7
    80003d30:	f4e43823          	sd	a4,-176(s0)
    80003d34:	2dd050ef          	jal	80009810 <__fma>
    80003d38:	f3843603          	ld	a2,-200(s0)
    80003d3c:	00050713          	mv	a4,a0
    80003d40:	000a0593          	mv	a1,s4
    80003d44:	000b0513          	mv	a0,s6
    80003d48:	f4e43423          	sd	a4,-184(s0)
    80003d4c:	2c5050ef          	jal	80009810 <__fma>
    80003d50:	f3043603          	ld	a2,-208(s0)
    80003d54:	00050713          	mv	a4,a0
    80003d58:	000a0593          	mv	a1,s4
    80003d5c:	000a8513          	mv	a0,s5
    80003d60:	f4e43023          	sd	a4,-192(s0)
    80003d64:	2ad050ef          	jal	80009810 <__fma>
    80003d68:	f7843583          	ld	a1,-136(s0)
    80003d6c:	f2843603          	ld	a2,-216(s0)
    80003d70:	00050713          	mv	a4,a0
    80003d74:	0005ba03          	ld	s4,0(a1)
    80003d78:	000d8513          	mv	a0,s11
    80003d7c:	f2e43c23          	sd	a4,-200(s0)
    80003d80:	000a0593          	mv	a1,s4
    80003d84:	28d050ef          	jal	80009810 <__fma>
    80003d88:	f2043603          	ld	a2,-224(s0)
    80003d8c:	00050713          	mv	a4,a0
    80003d90:	000a0593          	mv	a1,s4
    80003d94:	000c0513          	mv	a0,s8
    80003d98:	f2e43823          	sd	a4,-208(s0)
    80003d9c:	275050ef          	jal	80009810 <__fma>
    80003da0:	f1843603          	ld	a2,-232(s0)
    80003da4:	00050713          	mv	a4,a0
    80003da8:	000a0593          	mv	a1,s4
    80003dac:	000b8513          	mv	a0,s7
    80003db0:	f2e43423          	sd	a4,-216(s0)
    80003db4:	25d050ef          	jal	80009810 <__fma>
    80003db8:	f1043603          	ld	a2,-240(s0)
    80003dbc:	00050713          	mv	a4,a0
    80003dc0:	000a0593          	mv	a1,s4
    80003dc4:	000b0513          	mv	a0,s6
    80003dc8:	f2e43023          	sd	a4,-224(s0)
    80003dcc:	245050ef          	jal	80009810 <__fma>
    80003dd0:	f0843603          	ld	a2,-248(s0)
    80003dd4:	00050713          	mv	a4,a0
    80003dd8:	000a0593          	mv	a1,s4
    80003ddc:	000a8513          	mv	a0,s5
    80003de0:	f0e43c23          	sd	a4,-232(s0)
    80003de4:	22d050ef          	jal	80009810 <__fma>
    80003de8:	00050713          	mv	a4,a0
    80003dec:	f7043503          	ld	a0,-144(s0)
    80003df0:	f0043603          	ld	a2,-256(s0)
    80003df4:	00053a03          	ld	s4,0(a0)
    80003df8:	000d8513          	mv	a0,s11
    80003dfc:	00070d93          	mv	s11,a4
    80003e00:	000a0593          	mv	a1,s4
    80003e04:	20d050ef          	jal	80009810 <__fma>
    80003e08:	ef843603          	ld	a2,-264(s0)
    80003e0c:	00050713          	mv	a4,a0
    80003e10:	000a0593          	mv	a1,s4
    80003e14:	000c0513          	mv	a0,s8
    80003e18:	f0e43823          	sd	a4,-240(s0)
    80003e1c:	1f5050ef          	jal	80009810 <__fma>
    80003e20:	ef043603          	ld	a2,-272(s0)
    80003e24:	00050713          	mv	a4,a0
    80003e28:	000a0593          	mv	a1,s4
    80003e2c:	000b8513          	mv	a0,s7
    80003e30:	f0e43423          	sd	a4,-248(s0)
    80003e34:	1dd050ef          	jal	80009810 <__fma>
    80003e38:	ee843603          	ld	a2,-280(s0)
    80003e3c:	00050713          	mv	a4,a0
    80003e40:	000a0593          	mv	a1,s4
    80003e44:	000b0513          	mv	a0,s6
    80003e48:	f0e43023          	sd	a4,-256(s0)
    80003e4c:	1c5050ef          	jal	80009810 <__fma>
    80003e50:	ed843603          	ld	a2,-296(s0)
    80003e54:	00050713          	mv	a4,a0
    80003e58:	000a0593          	mv	a1,s4
    80003e5c:	000a8513          	mv	a0,s5
    80003e60:	eee43c23          	sd	a4,-264(s0)
    80003e64:	1ad050ef          	jal	80009810 <__fma>
    80003e68:	f8843783          	ld	a5,-120(s0)
    80003e6c:	0009ba83          	ld	s5,0(s3)
    80003e70:	00050713          	mv	a4,a0
    80003e74:	0087ba03          	ld	s4,8(a5)
    80003e78:	00048613          	mv	a2,s1
    80003e7c:	000a8593          	mv	a1,s5
    80003e80:	000a0513          	mv	a0,s4
    80003e84:	00070493          	mv	s1,a4
    80003e88:	189050ef          	jal	80009810 <__fma>
    80003e8c:	0089bb03          	ld	s6,8(s3)
    80003e90:	00050713          	mv	a4,a0
    80003e94:	000d0613          	mv	a2,s10
    80003e98:	000b0593          	mv	a1,s6
    80003e9c:	000a0513          	mv	a0,s4
    80003ea0:	00070d13          	mv	s10,a4
    80003ea4:	16d050ef          	jal	80009810 <__fma>
    80003ea8:	0109bb83          	ld	s7,16(s3)
    80003eac:	00050713          	mv	a4,a0
    80003eb0:	000c8613          	mv	a2,s9
    80003eb4:	000b8593          	mv	a1,s7
    80003eb8:	000a0513          	mv	a0,s4
    80003ebc:	00070c93          	mv	s9,a4
    80003ec0:	151050ef          	jal	80009810 <__fma>
    80003ec4:	0189bc03          	ld	s8,24(s3)
    80003ec8:	f6843603          	ld	a2,-152(s0)
    80003ecc:	00050713          	mv	a4,a0
    80003ed0:	000c0593          	mv	a1,s8
    80003ed4:	000a0513          	mv	a0,s4
    80003ed8:	f6e43423          	sd	a4,-152(s0)
    80003edc:	135050ef          	jal	80009810 <__fma>
    80003ee0:	0209b983          	ld	s3,32(s3)
    80003ee4:	f6043603          	ld	a2,-160(s0)
    80003ee8:	00050713          	mv	a4,a0
    80003eec:	00098593          	mv	a1,s3
    80003ef0:	000a0513          	mv	a0,s4
    80003ef4:	f6e43023          	sd	a4,-160(s0)
    80003ef8:	119050ef          	jal	80009810 <__fma>
    80003efc:	f8043683          	ld	a3,-128(s0)
    80003f00:	f5843603          	ld	a2,-168(s0)
    80003f04:	00050713          	mv	a4,a0
    80003f08:	0086ba03          	ld	s4,8(a3)
    80003f0c:	000a8513          	mv	a0,s5
    80003f10:	f4e43c23          	sd	a4,-168(s0)
    80003f14:	000a0593          	mv	a1,s4
    80003f18:	0f9050ef          	jal	80009810 <__fma>
    80003f1c:	f5043603          	ld	a2,-176(s0)
    80003f20:	00050713          	mv	a4,a0
    80003f24:	000a0593          	mv	a1,s4
    80003f28:	000b0513          	mv	a0,s6
    80003f2c:	f4e43823          	sd	a4,-176(s0)
    80003f30:	0e1050ef          	jal	80009810 <__fma>
    80003f34:	f4843603          	ld	a2,-184(s0)
    80003f38:	00050713          	mv	a4,a0
    80003f3c:	000a0593          	mv	a1,s4
    80003f40:	000b8513          	mv	a0,s7
    80003f44:	f4e43423          	sd	a4,-184(s0)
    80003f48:	0c9050ef          	jal	80009810 <__fma>
    80003f4c:	f4043603          	ld	a2,-192(s0)
    80003f50:	00050713          	mv	a4,a0
    80003f54:	000a0593          	mv	a1,s4
    80003f58:	000c0513          	mv	a0,s8
    80003f5c:	f4e43023          	sd	a4,-192(s0)
    80003f60:	0b1050ef          	jal	80009810 <__fma>
    80003f64:	f3843603          	ld	a2,-200(s0)
    80003f68:	00050713          	mv	a4,a0
    80003f6c:	000a0593          	mv	a1,s4
    80003f70:	00098513          	mv	a0,s3
    80003f74:	f2e43c23          	sd	a4,-200(s0)
    80003f78:	099050ef          	jal	80009810 <__fma>
    80003f7c:	f7843583          	ld	a1,-136(s0)
    80003f80:	f3043603          	ld	a2,-208(s0)
    80003f84:	00050713          	mv	a4,a0
    80003f88:	0085ba03          	ld	s4,8(a1)
    80003f8c:	000a8513          	mv	a0,s5
    80003f90:	f2e43823          	sd	a4,-208(s0)
    80003f94:	000a0593          	mv	a1,s4
    80003f98:	079050ef          	jal	80009810 <__fma>
    80003f9c:	f2843603          	ld	a2,-216(s0)
    80003fa0:	00050713          	mv	a4,a0
    80003fa4:	000a0593          	mv	a1,s4
    80003fa8:	000b0513          	mv	a0,s6
    80003fac:	f2e43423          	sd	a4,-216(s0)
    80003fb0:	061050ef          	jal	80009810 <__fma>
    80003fb4:	f2043603          	ld	a2,-224(s0)
    80003fb8:	00050713          	mv	a4,a0
    80003fbc:	000a0593          	mv	a1,s4
    80003fc0:	000b8513          	mv	a0,s7
    80003fc4:	f2e43023          	sd	a4,-224(s0)
    80003fc8:	049050ef          	jal	80009810 <__fma>
    80003fcc:	f1843603          	ld	a2,-232(s0)
    80003fd0:	00050713          	mv	a4,a0
    80003fd4:	000a0593          	mv	a1,s4
    80003fd8:	000c0513          	mv	a0,s8
    80003fdc:	f0e43c23          	sd	a4,-232(s0)
    80003fe0:	031050ef          	jal	80009810 <__fma>
    80003fe4:	00050713          	mv	a4,a0
    80003fe8:	000d8613          	mv	a2,s11
    80003fec:	000a0593          	mv	a1,s4
    80003ff0:	00098513          	mv	a0,s3
    80003ff4:	00070d93          	mv	s11,a4
    80003ff8:	019050ef          	jal	80009810 <__fma>
    80003ffc:	00050713          	mv	a4,a0
    80004000:	f7043503          	ld	a0,-144(s0)
    80004004:	f1043603          	ld	a2,-240(s0)
    80004008:	f0e43823          	sd	a4,-240(s0)
    8000400c:	00853a03          	ld	s4,8(a0)
    80004010:	000a8513          	mv	a0,s5
    80004014:	000a0593          	mv	a1,s4
    80004018:	7f8050ef          	jal	80009810 <__fma>
    8000401c:	f0843603          	ld	a2,-248(s0)
    80004020:	00050713          	mv	a4,a0
    80004024:	000a0593          	mv	a1,s4
    80004028:	000b0513          	mv	a0,s6
    8000402c:	f0e43423          	sd	a4,-248(s0)
    80004030:	7e0050ef          	jal	80009810 <__fma>
    80004034:	f0043603          	ld	a2,-256(s0)
    80004038:	00050713          	mv	a4,a0
    8000403c:	000a0593          	mv	a1,s4
    80004040:	000b8513          	mv	a0,s7
    80004044:	f0e43023          	sd	a4,-256(s0)
    80004048:	7c8050ef          	jal	80009810 <__fma>
    8000404c:	ef843603          	ld	a2,-264(s0)
    80004050:	00050713          	mv	a4,a0
    80004054:	000a0593          	mv	a1,s4
    80004058:	000c0513          	mv	a0,s8
    8000405c:	00070c13          	mv	s8,a4
    80004060:	7b0050ef          	jal	80009810 <__fma>
    80004064:	00050713          	mv	a4,a0
    80004068:	00048613          	mv	a2,s1
    8000406c:	000a0593          	mv	a1,s4
    80004070:	00098513          	mv	a0,s3
    80004074:	00070493          	mv	s1,a4
    80004078:	798050ef          	jal	80009810 <__fma>
    8000407c:	f8843783          	ld	a5,-120(s0)
    80004080:	00093a03          	ld	s4,0(s2)
    80004084:	00050713          	mv	a4,a0
    80004088:	0107b983          	ld	s3,16(a5)
    8000408c:	000d0613          	mv	a2,s10
    80004090:	000a0593          	mv	a1,s4
    80004094:	00098513          	mv	a0,s3
    80004098:	00070d13          	mv	s10,a4
    8000409c:	774050ef          	jal	80009810 <__fma>
    800040a0:	00893a83          	ld	s5,8(s2)
    800040a4:	00050713          	mv	a4,a0
    800040a8:	000c8613          	mv	a2,s9
    800040ac:	000a8593          	mv	a1,s5
    800040b0:	00098513          	mv	a0,s3
    800040b4:	00070c93          	mv	s9,a4
    800040b8:	758050ef          	jal	80009810 <__fma>
    800040bc:	01093b03          	ld	s6,16(s2)
    800040c0:	f6843603          	ld	a2,-152(s0)
    800040c4:	00050713          	mv	a4,a0
    800040c8:	000b0593          	mv	a1,s6
    800040cc:	00098513          	mv	a0,s3
    800040d0:	f6e43423          	sd	a4,-152(s0)
    800040d4:	73c050ef          	jal	80009810 <__fma>
    800040d8:	01893b83          	ld	s7,24(s2)
    800040dc:	f6043603          	ld	a2,-160(s0)
    800040e0:	00050713          	mv	a4,a0
    800040e4:	000b8593          	mv	a1,s7
    800040e8:	00098513          	mv	a0,s3
    800040ec:	f6e43023          	sd	a4,-160(s0)
    800040f0:	720050ef          	jal	80009810 <__fma>
    800040f4:	02093903          	ld	s2,32(s2)
    800040f8:	f5843603          	ld	a2,-168(s0)
    800040fc:	00050713          	mv	a4,a0
    80004100:	00090593          	mv	a1,s2
    80004104:	00098513          	mv	a0,s3
    80004108:	f4e43c23          	sd	a4,-168(s0)
    8000410c:	704050ef          	jal	80009810 <__fma>
    80004110:	f8043683          	ld	a3,-128(s0)
    80004114:	f5043603          	ld	a2,-176(s0)
    80004118:	00050713          	mv	a4,a0
    8000411c:	0106b983          	ld	s3,16(a3)
    80004120:	000a0513          	mv	a0,s4
    80004124:	f4e43823          	sd	a4,-176(s0)
    80004128:	00098593          	mv	a1,s3
    8000412c:	6e4050ef          	jal	80009810 <__fma>
    80004130:	f4843603          	ld	a2,-184(s0)
    80004134:	00050713          	mv	a4,a0
    80004138:	00098593          	mv	a1,s3
    8000413c:	000a8513          	mv	a0,s5
    80004140:	f4e43423          	sd	a4,-184(s0)
    80004144:	6cc050ef          	jal	80009810 <__fma>
    80004148:	f4043603          	ld	a2,-192(s0)
    8000414c:	00050713          	mv	a4,a0
    80004150:	00098593          	mv	a1,s3
    80004154:	000b0513          	mv	a0,s6
    80004158:	f4e43023          	sd	a4,-192(s0)
    8000415c:	6b4050ef          	jal	80009810 <__fma>
    80004160:	f3843603          	ld	a2,-200(s0)
    80004164:	00050713          	mv	a4,a0
    80004168:	00098593          	mv	a1,s3
    8000416c:	000b8513          	mv	a0,s7
    80004170:	f2e43c23          	sd	a4,-200(s0)
    80004174:	69c050ef          	jal	80009810 <__fma>
    80004178:	f3043603          	ld	a2,-208(s0)
    8000417c:	00050713          	mv	a4,a0
    80004180:	00098593          	mv	a1,s3
    80004184:	00090513          	mv	a0,s2
    80004188:	f2e43823          	sd	a4,-208(s0)
    8000418c:	684050ef          	jal	80009810 <__fma>
    80004190:	f7843583          	ld	a1,-136(s0)
    80004194:	f2843603          	ld	a2,-216(s0)
    80004198:	00050713          	mv	a4,a0
    8000419c:	0105b983          	ld	s3,16(a1)
    800041a0:	000a0513          	mv	a0,s4
    800041a4:	f2e43423          	sd	a4,-216(s0)
    800041a8:	00098593          	mv	a1,s3
    800041ac:	664050ef          	jal	80009810 <__fma>
    800041b0:	f2043603          	ld	a2,-224(s0)
    800041b4:	00050713          	mv	a4,a0
    800041b8:	00098593          	mv	a1,s3
    800041bc:	000a8513          	mv	a0,s5
    800041c0:	f2e43023          	sd	a4,-224(s0)
    800041c4:	64c050ef          	jal	80009810 <__fma>
    800041c8:	f1843603          	ld	a2,-232(s0)
    800041cc:	00050713          	mv	a4,a0
    800041d0:	00098593          	mv	a1,s3
    800041d4:	000b0513          	mv	a0,s6
    800041d8:	f0e43c23          	sd	a4,-232(s0)
    800041dc:	634050ef          	jal	80009810 <__fma>
    800041e0:	00050713          	mv	a4,a0
    800041e4:	000d8613          	mv	a2,s11
    800041e8:	00098593          	mv	a1,s3
    800041ec:	000b8513          	mv	a0,s7
    800041f0:	00070d93          	mv	s11,a4
    800041f4:	61c050ef          	jal	80009810 <__fma>
    800041f8:	f1043603          	ld	a2,-240(s0)
    800041fc:	00050713          	mv	a4,a0
    80004200:	00098593          	mv	a1,s3
    80004204:	00090513          	mv	a0,s2
    80004208:	f0e43823          	sd	a4,-240(s0)
    8000420c:	604050ef          	jal	80009810 <__fma>
    80004210:	00050713          	mv	a4,a0
    80004214:	f7043503          	ld	a0,-144(s0)
    80004218:	f0843603          	ld	a2,-248(s0)
    8000421c:	f0e43423          	sd	a4,-248(s0)
    80004220:	01053983          	ld	s3,16(a0)
    80004224:	000a0513          	mv	a0,s4
    80004228:	00098593          	mv	a1,s3
    8000422c:	5e4050ef          	jal	80009810 <__fma>
    80004230:	f0043603          	ld	a2,-256(s0)
    80004234:	00050713          	mv	a4,a0
    80004238:	00098593          	mv	a1,s3
    8000423c:	000a8513          	mv	a0,s5
    80004240:	f0e43023          	sd	a4,-256(s0)
    80004244:	5cc050ef          	jal	80009810 <__fma>
    80004248:	00050713          	mv	a4,a0
    8000424c:	000c0613          	mv	a2,s8
    80004250:	00098593          	mv	a1,s3
    80004254:	000b0513          	mv	a0,s6
    80004258:	00070c13          	mv	s8,a4
    8000425c:	5b4050ef          	jal	80009810 <__fma>
    80004260:	00050713          	mv	a4,a0
    80004264:	00048613          	mv	a2,s1
    80004268:	00098593          	mv	a1,s3
    8000426c:	000b8513          	mv	a0,s7
    80004270:	00070493          	mv	s1,a4
    80004274:	59c050ef          	jal	80009810 <__fma>
    80004278:	00050713          	mv	a4,a0
    8000427c:	000d0613          	mv	a2,s10
    80004280:	00098593          	mv	a1,s3
    80004284:	00090513          	mv	a0,s2
    80004288:	00070d13          	mv	s10,a4
    8000428c:	584050ef          	jal	80009810 <__fma>
    80004290:	f8843783          	ld	a5,-120(s0)
    80004294:	ed043b83          	ld	s7,-304(s0)
    80004298:	00050713          	mv	a4,a0
    8000429c:	0187b903          	ld	s2,24(a5)
    800042a0:	000bb983          	ld	s3,0(s7)
    800042a4:	000c8613          	mv	a2,s9
    800042a8:	00090513          	mv	a0,s2
    800042ac:	00098593          	mv	a1,s3
    800042b0:	00070c93          	mv	s9,a4
    800042b4:	55c050ef          	jal	80009810 <__fma>
    800042b8:	008bba03          	ld	s4,8(s7)
    800042bc:	f6843603          	ld	a2,-152(s0)
    800042c0:	00050713          	mv	a4,a0
    800042c4:	000a0593          	mv	a1,s4
    800042c8:	00090513          	mv	a0,s2
    800042cc:	f6e43423          	sd	a4,-152(s0)
    800042d0:	540050ef          	jal	80009810 <__fma>
    800042d4:	010bba83          	ld	s5,16(s7)
    800042d8:	f6043603          	ld	a2,-160(s0)
    800042dc:	00050713          	mv	a4,a0
    800042e0:	000a8593          	mv	a1,s5
    800042e4:	00090513          	mv	a0,s2
    800042e8:	f6e43023          	sd	a4,-160(s0)
    800042ec:	524050ef          	jal	80009810 <__fma>
    800042f0:	018bbb03          	ld	s6,24(s7)
    800042f4:	f5843603          	ld	a2,-168(s0)
    800042f8:	00050713          	mv	a4,a0
    800042fc:	000b0593          	mv	a1,s6
    80004300:	00090513          	mv	a0,s2
    80004304:	f4e43c23          	sd	a4,-168(s0)
    80004308:	508050ef          	jal	80009810 <__fma>
    8000430c:	020bbb83          	ld	s7,32(s7)
    80004310:	f5043603          	ld	a2,-176(s0)
    80004314:	00050713          	mv	a4,a0
    80004318:	000b8593          	mv	a1,s7
    8000431c:	00090513          	mv	a0,s2
    80004320:	f4e43823          	sd	a4,-176(s0)
    80004324:	4ec050ef          	jal	80009810 <__fma>
    80004328:	f8043683          	ld	a3,-128(s0)
    8000432c:	f4843603          	ld	a2,-184(s0)
    80004330:	00050713          	mv	a4,a0
    80004334:	0186b903          	ld	s2,24(a3)
    80004338:	00098513          	mv	a0,s3
    8000433c:	f4e43423          	sd	a4,-184(s0)
    80004340:	00090593          	mv	a1,s2
    80004344:	4cc050ef          	jal	80009810 <__fma>
    80004348:	f4043603          	ld	a2,-192(s0)
    8000434c:	00050713          	mv	a4,a0
    80004350:	00090593          	mv	a1,s2
    80004354:	000a0513          	mv	a0,s4
    80004358:	f4e43023          	sd	a4,-192(s0)
    8000435c:	4b4050ef          	jal	80009810 <__fma>
    80004360:	f3843603          	ld	a2,-200(s0)
    80004364:	00050713          	mv	a4,a0
    80004368:	00090593          	mv	a1,s2
    8000436c:	000a8513          	mv	a0,s5
    80004370:	f2e43c23          	sd	a4,-200(s0)
    80004374:	49c050ef          	jal	80009810 <__fma>
    80004378:	f3043603          	ld	a2,-208(s0)
    8000437c:	00050713          	mv	a4,a0
    80004380:	00090593          	mv	a1,s2
    80004384:	000b0513          	mv	a0,s6
    80004388:	f2e43823          	sd	a4,-208(s0)
    8000438c:	484050ef          	jal	80009810 <__fma>
    80004390:	f2843603          	ld	a2,-216(s0)
    80004394:	00050713          	mv	a4,a0
    80004398:	00090593          	mv	a1,s2
    8000439c:	000b8513          	mv	a0,s7
    800043a0:	f2e43423          	sd	a4,-216(s0)
    800043a4:	46c050ef          	jal	80009810 <__fma>
    800043a8:	f7843583          	ld	a1,-136(s0)
    800043ac:	f2043603          	ld	a2,-224(s0)
    800043b0:	00050713          	mv	a4,a0
    800043b4:	0185b903          	ld	s2,24(a1)
    800043b8:	00098513          	mv	a0,s3
    800043bc:	f2e43023          	sd	a4,-224(s0)
    800043c0:	00090593          	mv	a1,s2
    800043c4:	44c050ef          	jal	80009810 <__fma>
    800043c8:	f1843603          	ld	a2,-232(s0)
    800043cc:	00050713          	mv	a4,a0
    800043d0:	00090593          	mv	a1,s2
    800043d4:	000a0513          	mv	a0,s4
    800043d8:	f0e43c23          	sd	a4,-232(s0)
    800043dc:	434050ef          	jal	80009810 <__fma>
    800043e0:	00050713          	mv	a4,a0
    800043e4:	000d8613          	mv	a2,s11
    800043e8:	00090593          	mv	a1,s2
    800043ec:	000a8513          	mv	a0,s5
    800043f0:	00070d93          	mv	s11,a4
    800043f4:	41c050ef          	jal	80009810 <__fma>
    800043f8:	f1043603          	ld	a2,-240(s0)
    800043fc:	00050713          	mv	a4,a0
    80004400:	00090593          	mv	a1,s2
    80004404:	000b0513          	mv	a0,s6
    80004408:	f0e43823          	sd	a4,-240(s0)
    8000440c:	404050ef          	jal	80009810 <__fma>
    80004410:	f0843603          	ld	a2,-248(s0)
    80004414:	00050713          	mv	a4,a0
    80004418:	00090593          	mv	a1,s2
    8000441c:	000b8513          	mv	a0,s7
    80004420:	f0e43423          	sd	a4,-248(s0)
    80004424:	3ec050ef          	jal	80009810 <__fma>
    80004428:	00050713          	mv	a4,a0
    8000442c:	f7043503          	ld	a0,-144(s0)
    80004430:	f0043603          	ld	a2,-256(s0)
    80004434:	f0e43023          	sd	a4,-256(s0)
    80004438:	01853903          	ld	s2,24(a0)
    8000443c:	00098513          	mv	a0,s3
    80004440:	00090593          	mv	a1,s2
    80004444:	3cc050ef          	jal	80009810 <__fma>
    80004448:	00050713          	mv	a4,a0
    8000444c:	000c0613          	mv	a2,s8
    80004450:	00090593          	mv	a1,s2
    80004454:	000a0513          	mv	a0,s4
    80004458:	00070c13          	mv	s8,a4
    8000445c:	3b4050ef          	jal	80009810 <__fma>
    80004460:	00050713          	mv	a4,a0
    80004464:	00048613          	mv	a2,s1
    80004468:	00090593          	mv	a1,s2
    8000446c:	000a8513          	mv	a0,s5
    80004470:	00070493          	mv	s1,a4
    80004474:	39c050ef          	jal	80009810 <__fma>
    80004478:	00050713          	mv	a4,a0
    8000447c:	000d0613          	mv	a2,s10
    80004480:	00090593          	mv	a1,s2
    80004484:	000b0513          	mv	a0,s6
    80004488:	00070d13          	mv	s10,a4
    8000448c:	384050ef          	jal	80009810 <__fma>
    80004490:	00050713          	mv	a4,a0
    80004494:	000c8613          	mv	a2,s9
    80004498:	00090593          	mv	a1,s2
    8000449c:	000b8513          	mv	a0,s7
    800044a0:	00070c93          	mv	s9,a4
    800044a4:	36c050ef          	jal	80009810 <__fma>
    800044a8:	f8843783          	ld	a5,-120(s0)
    800044ac:	ec843b83          	ld	s7,-312(s0)
    800044b0:	f6843603          	ld	a2,-152(s0)
    800044b4:	0207b903          	ld	s2,32(a5)
    800044b8:	000bb983          	ld	s3,0(s7)
    800044bc:	00050713          	mv	a4,a0
    800044c0:	00090513          	mv	a0,s2
    800044c4:	00098593          	mv	a1,s3
    800044c8:	f6e43423          	sd	a4,-152(s0)
    800044cc:	344050ef          	jal	80009810 <__fma>
    800044d0:	008bba03          	ld	s4,8(s7)
    800044d4:	f6043603          	ld	a2,-160(s0)
    800044d8:	00050713          	mv	a4,a0
    800044dc:	000a0593          	mv	a1,s4
    800044e0:	00090513          	mv	a0,s2
    800044e4:	f6e43023          	sd	a4,-160(s0)
    800044e8:	328050ef          	jal	80009810 <__fma>
    800044ec:	010bba83          	ld	s5,16(s7)
    800044f0:	f5843603          	ld	a2,-168(s0)
    800044f4:	00050713          	mv	a4,a0
    800044f8:	000a8593          	mv	a1,s5
    800044fc:	00090513          	mv	a0,s2
    80004500:	f4e43c23          	sd	a4,-168(s0)
    80004504:	30c050ef          	jal	80009810 <__fma>
    80004508:	018bbb03          	ld	s6,24(s7)
    8000450c:	f5043603          	ld	a2,-176(s0)
    80004510:	00050713          	mv	a4,a0
    80004514:	000b0593          	mv	a1,s6
    80004518:	00090513          	mv	a0,s2
    8000451c:	f4e43823          	sd	a4,-176(s0)
    80004520:	2f0050ef          	jal	80009810 <__fma>
    80004524:	020bbb83          	ld	s7,32(s7)
    80004528:	f4843603          	ld	a2,-184(s0)
    8000452c:	00050713          	mv	a4,a0
    80004530:	000b8593          	mv	a1,s7
    80004534:	00090513          	mv	a0,s2
    80004538:	f4e43423          	sd	a4,-184(s0)
    8000453c:	2d4050ef          	jal	80009810 <__fma>
    80004540:	f8043683          	ld	a3,-128(s0)
    80004544:	f4043603          	ld	a2,-192(s0)
    80004548:	00050713          	mv	a4,a0
    8000454c:	0206b903          	ld	s2,32(a3)
    80004550:	00098513          	mv	a0,s3
    80004554:	f4e43023          	sd	a4,-192(s0)
    80004558:	00090593          	mv	a1,s2
    8000455c:	2b4050ef          	jal	80009810 <__fma>
    80004560:	f3843603          	ld	a2,-200(s0)
    80004564:	00050713          	mv	a4,a0
    80004568:	00090593          	mv	a1,s2
    8000456c:	000a0513          	mv	a0,s4
    80004570:	f2e43c23          	sd	a4,-200(s0)
    80004574:	29c050ef          	jal	80009810 <__fma>
    80004578:	f3043603          	ld	a2,-208(s0)
    8000457c:	00050713          	mv	a4,a0
    80004580:	00090593          	mv	a1,s2
    80004584:	000a8513          	mv	a0,s5
    80004588:	f2e43823          	sd	a4,-208(s0)
    8000458c:	284050ef          	jal	80009810 <__fma>
    80004590:	f2843603          	ld	a2,-216(s0)
    80004594:	00050713          	mv	a4,a0
    80004598:	00090593          	mv	a1,s2
    8000459c:	000b0513          	mv	a0,s6
    800045a0:	f2e43423          	sd	a4,-216(s0)
    800045a4:	26c050ef          	jal	80009810 <__fma>
    800045a8:	f2043603          	ld	a2,-224(s0)
    800045ac:	00050713          	mv	a4,a0
    800045b0:	00090593          	mv	a1,s2
    800045b4:	000b8513          	mv	a0,s7
    800045b8:	f2e43023          	sd	a4,-224(s0)
    800045bc:	254050ef          	jal	80009810 <__fma>
    800045c0:	f7843583          	ld	a1,-136(s0)
    800045c4:	f1843603          	ld	a2,-232(s0)
    800045c8:	00050713          	mv	a4,a0
    800045cc:	0205b903          	ld	s2,32(a1)
    800045d0:	00098513          	mv	a0,s3
    800045d4:	f0e43c23          	sd	a4,-232(s0)
    800045d8:	00090593          	mv	a1,s2
    800045dc:	234050ef          	jal	80009810 <__fma>
    800045e0:	00050713          	mv	a4,a0
    800045e4:	000d8613          	mv	a2,s11
    800045e8:	00090593          	mv	a1,s2
    800045ec:	000a0513          	mv	a0,s4
    800045f0:	00070d93          	mv	s11,a4
    800045f4:	21c050ef          	jal	80009810 <__fma>
    800045f8:	f1043603          	ld	a2,-240(s0)
    800045fc:	00050713          	mv	a4,a0
    80004600:	00090593          	mv	a1,s2
    80004604:	000a8513          	mv	a0,s5
    80004608:	f0e43823          	sd	a4,-240(s0)
    8000460c:	204050ef          	jal	80009810 <__fma>
    80004610:	f0843603          	ld	a2,-248(s0)
    80004614:	00050713          	mv	a4,a0
    80004618:	00090593          	mv	a1,s2
    8000461c:	000b0513          	mv	a0,s6
    80004620:	f0e43423          	sd	a4,-248(s0)
    80004624:	1ec050ef          	jal	80009810 <__fma>
    80004628:	f0043603          	ld	a2,-256(s0)
    8000462c:	00050713          	mv	a4,a0
    80004630:	00090593          	mv	a1,s2
    80004634:	000b8513          	mv	a0,s7
    80004638:	f0e43023          	sd	a4,-256(s0)
    8000463c:	1d4050ef          	jal	80009810 <__fma>
    80004640:	00050713          	mv	a4,a0
    80004644:	f7043503          	ld	a0,-144(s0)
    80004648:	000c0613          	mv	a2,s8
    8000464c:	00070c13          	mv	s8,a4
    80004650:	02053903          	ld	s2,32(a0)
    80004654:	00098513          	mv	a0,s3
    80004658:	00090593          	mv	a1,s2
    8000465c:	1b4050ef          	jal	80009810 <__fma>
    80004660:	00050713          	mv	a4,a0
    80004664:	00048613          	mv	a2,s1
    80004668:	00090593          	mv	a1,s2
    8000466c:	000a0513          	mv	a0,s4
    80004670:	00070493          	mv	s1,a4
    80004674:	19c050ef          	jal	80009810 <__fma>
    80004678:	00050713          	mv	a4,a0
    8000467c:	000d0613          	mv	a2,s10
    80004680:	00090593          	mv	a1,s2
    80004684:	000a8513          	mv	a0,s5
    80004688:	eee43c23          	sd	a4,-264(s0)
    8000468c:	184050ef          	jal	80009810 <__fma>
    80004690:	00050713          	mv	a4,a0
    80004694:	000c8613          	mv	a2,s9
    80004698:	00090593          	mv	a1,s2
    8000469c:	000b0513          	mv	a0,s6
    800046a0:	eee43823          	sd	a4,-272(s0)
    800046a4:	16c050ef          	jal	80009810 <__fma>
    800046a8:	f6843603          	ld	a2,-152(s0)
    800046ac:	00050713          	mv	a4,a0
    800046b0:	00090593          	mv	a1,s2
    800046b4:	000b8513          	mv	a0,s7
    800046b8:	eee43423          	sd	a4,-280(s0)
    800046bc:	154050ef          	jal	80009810 <__fma>
    800046c0:	f8843783          	ld	a5,-120(s0)
    800046c4:	ec043b83          	ld	s7,-320(s0)
    800046c8:	f6043603          	ld	a2,-160(s0)
    800046cc:	0287b903          	ld	s2,40(a5)
    800046d0:	000bb983          	ld	s3,0(s7)
    800046d4:	00050713          	mv	a4,a0
    800046d8:	00090513          	mv	a0,s2
    800046dc:	00098593          	mv	a1,s3
    800046e0:	ece43c23          	sd	a4,-296(s0)
    800046e4:	12c050ef          	jal	80009810 <__fma>
    800046e8:	008bba03          	ld	s4,8(s7)
    800046ec:	f5843603          	ld	a2,-168(s0)
    800046f0:	00050d13          	mv	s10,a0
    800046f4:	000a0593          	mv	a1,s4
    800046f8:	00090513          	mv	a0,s2
    800046fc:	114050ef          	jal	80009810 <__fma>
    80004700:	010bba83          	ld	s5,16(s7)
    80004704:	f5043603          	ld	a2,-176(s0)
    80004708:	00050c93          	mv	s9,a0
    8000470c:	000a8593          	mv	a1,s5
    80004710:	00090513          	mv	a0,s2
    80004714:	0fc050ef          	jal	80009810 <__fma>
    80004718:	018bbb03          	ld	s6,24(s7)
    8000471c:	f4843603          	ld	a2,-184(s0)
    80004720:	00050713          	mv	a4,a0
    80004724:	000b0593          	mv	a1,s6
    80004728:	00090513          	mv	a0,s2
    8000472c:	f6e43423          	sd	a4,-152(s0)
    80004730:	0e0050ef          	jal	80009810 <__fma>
    80004734:	020bbb83          	ld	s7,32(s7)
    80004738:	f4043603          	ld	a2,-192(s0)
    8000473c:	00050713          	mv	a4,a0
    80004740:	000b8593          	mv	a1,s7
    80004744:	00090513          	mv	a0,s2
    80004748:	f6e43023          	sd	a4,-160(s0)
    8000474c:	0c4050ef          	jal	80009810 <__fma>
    80004750:	f8043683          	ld	a3,-128(s0)
    80004754:	f3843603          	ld	a2,-200(s0)
    80004758:	00050713          	mv	a4,a0
    8000475c:	0286b903          	ld	s2,40(a3)
    80004760:	00098513          	mv	a0,s3
    80004764:	f4e43c23          	sd	a4,-168(s0)
    80004768:	00090593          	mv	a1,s2
    8000476c:	0a4050ef          	jal	80009810 <__fma>
    80004770:	f3043603          	ld	a2,-208(s0)
    80004774:	00050713          	mv	a4,a0
    80004778:	00090593          	mv	a1,s2
    8000477c:	000a0513          	mv	a0,s4
    80004780:	f4e43823          	sd	a4,-176(s0)
    80004784:	08c050ef          	jal	80009810 <__fma>
    80004788:	f2843603          	ld	a2,-216(s0)
    8000478c:	00050713          	mv	a4,a0
    80004790:	00090593          	mv	a1,s2
    80004794:	000a8513          	mv	a0,s5
    80004798:	f4e43423          	sd	a4,-184(s0)
    8000479c:	074050ef          	jal	80009810 <__fma>
    800047a0:	f2043603          	ld	a2,-224(s0)
    800047a4:	00050713          	mv	a4,a0
    800047a8:	00090593          	mv	a1,s2
    800047ac:	000b0513          	mv	a0,s6
    800047b0:	f4e43023          	sd	a4,-192(s0)
    800047b4:	05c050ef          	jal	80009810 <__fma>
    800047b8:	f1843603          	ld	a2,-232(s0)
    800047bc:	00050713          	mv	a4,a0
    800047c0:	00090593          	mv	a1,s2
    800047c4:	000b8513          	mv	a0,s7
    800047c8:	f2e43c23          	sd	a4,-200(s0)
    800047cc:	044050ef          	jal	80009810 <__fma>
    800047d0:	f7843583          	ld	a1,-136(s0)
    800047d4:	00050713          	mv	a4,a0
    800047d8:	000d8613          	mv	a2,s11
    800047dc:	0285b903          	ld	s2,40(a1)
    800047e0:	00098513          	mv	a0,s3
    800047e4:	f2e43823          	sd	a4,-208(s0)
    800047e8:	00090593          	mv	a1,s2
    800047ec:	024050ef          	jal	80009810 <__fma>
    800047f0:	f1043603          	ld	a2,-240(s0)
    800047f4:	00050713          	mv	a4,a0
    800047f8:	00090593          	mv	a1,s2
    800047fc:	000a0513          	mv	a0,s4
    80004800:	f2e43423          	sd	a4,-216(s0)
    80004804:	00c050ef          	jal	80009810 <__fma>
    80004808:	f0843603          	ld	a2,-248(s0)
    8000480c:	00050713          	mv	a4,a0
    80004810:	00090593          	mv	a1,s2
    80004814:	000a8513          	mv	a0,s5
    80004818:	f2e43023          	sd	a4,-224(s0)
    8000481c:	7f5040ef          	jal	80009810 <__fma>
    80004820:	f0043603          	ld	a2,-256(s0)
    80004824:	00050713          	mv	a4,a0
    80004828:	00090593          	mv	a1,s2
    8000482c:	000b0513          	mv	a0,s6
    80004830:	f0e43c23          	sd	a4,-232(s0)
    80004834:	7dd040ef          	jal	80009810 <__fma>
    80004838:	00050713          	mv	a4,a0
    8000483c:	000c0613          	mv	a2,s8
    80004840:	00090593          	mv	a1,s2
    80004844:	000b8513          	mv	a0,s7
    80004848:	f0e43823          	sd	a4,-240(s0)
    8000484c:	7c5040ef          	jal	80009810 <__fma>
    80004850:	f7043c03          	ld	s8,-144(s0)
    80004854:	00050713          	mv	a4,a0
    80004858:	00048613          	mv	a2,s1
    8000485c:	028c3903          	ld	s2,40(s8)
    80004860:	00098513          	mv	a0,s3
    80004864:	f0e43423          	sd	a4,-248(s0)
    80004868:	00090593          	mv	a1,s2
    8000486c:	7a5040ef          	jal	80009810 <__fma>
    80004870:	ef843603          	ld	a2,-264(s0)
    80004874:	00050713          	mv	a4,a0
    80004878:	00090593          	mv	a1,s2
    8000487c:	000a0513          	mv	a0,s4
    80004880:	f0e43023          	sd	a4,-256(s0)
    80004884:	78d040ef          	jal	80009810 <__fma>
    80004888:	ef043603          	ld	a2,-272(s0)
    8000488c:	00050713          	mv	a4,a0
    80004890:	00090593          	mv	a1,s2
    80004894:	000a8513          	mv	a0,s5
    80004898:	eee43c23          	sd	a4,-264(s0)
    8000489c:	775040ef          	jal	80009810 <__fma>
    800048a0:	ee843603          	ld	a2,-280(s0)
    800048a4:	00050713          	mv	a4,a0
    800048a8:	00090593          	mv	a1,s2
    800048ac:	000b0513          	mv	a0,s6
    800048b0:	eee43823          	sd	a4,-272(s0)
    800048b4:	75d040ef          	jal	80009810 <__fma>
    800048b8:	ed843603          	ld	a2,-296(s0)
    800048bc:	00050713          	mv	a4,a0
    800048c0:	00090593          	mv	a1,s2
    800048c4:	000b8513          	mv	a0,s7
    800048c8:	eee43423          	sd	a4,-280(s0)
    800048cc:	745040ef          	jal	80009810 <__fma>
    800048d0:	f8043683          	ld	a3,-128(s0)
    800048d4:	f7843583          	ld	a1,-136(s0)
    800048d8:	f8843783          	ld	a5,-120(s0)
    800048dc:	03068693          	addi	a3,a3,48
    800048e0:	f8d43023          	sd	a3,-128(s0)
    800048e4:	03058693          	addi	a3,a1,48
    800048e8:	f6d43c23          	sd	a3,-136(s0)
    800048ec:	030c0693          	addi	a3,s8,48
    800048f0:	03078713          	addi	a4,a5,48
    800048f4:	e7843603          	ld	a2,-392(s0)
    800048f8:	ea843783          	ld	a5,-344(s0)
    800048fc:	f6d43823          	sd	a3,-144(s0)
    80004900:	ea043683          	ld	a3,-352(s0)
    80004904:	f8e43423          	sd	a4,-120(s0)
    80004908:	eca43c23          	sd	a0,-296(s0)
    8000490c:	00c787b3          	add	a5,a5,a2
    80004910:	b0d76663          	bltu	a4,a3,80003c1c <mm_cb+0x1970>
    80004914:	e5843983          	ld	s3,-424(s0)
    80004918:	e5043a03          	ld	s4,-432(s0)
    8000491c:	e4843b83          	ld	s7,-440(s0)
    80004920:	e4043b03          	ld	s6,-448(s0)
    80004924:	e3843a83          	ld	s5,-456(s0)
    80004928:	e3043c03          	ld	s8,-464(s0)
    8000492c:	e1843783          	ld	a5,-488(s0)
    80004930:	e9043703          	ld	a4,-368(s0)
    80004934:	01478933          	add	s2,a5,s4
    80004938:	ea043783          	ld	a5,-352(s0)
    8000493c:	26e7f263          	bgeu	a5,a4,80004ba0 <mm_cb+0x28f4>
    80004940:	ed843d83          	ld	s11,-296(s0)
    80004944:	00078493          	mv	s1,a5
    80004948:	f9343423          	sd	s3,-120(s0)
    8000494c:	f9443023          	sd	s4,-128(s0)
    80004950:	f7743c23          	sd	s7,-136(s0)
    80004954:	f7643823          	sd	s6,-144(s0)
    80004958:	ed543823          	sd	s5,-304(s0)
    8000495c:	ed843423          	sd	s8,-312(s0)
    80004960:	0004b983          	ld	s3,0(s1)
    80004964:	00093c03          	ld	s8,0(s2)
    80004968:	000d0613          	mv	a2,s10
    8000496c:	00098513          	mv	a0,s3
    80004970:	000c0593          	mv	a1,s8
    80004974:	69d040ef          	jal	80009810 <__fma>
    80004978:	00893b83          	ld	s7,8(s2)
    8000497c:	000c8613          	mv	a2,s9
    80004980:	00050d13          	mv	s10,a0
    80004984:	000b8593          	mv	a1,s7
    80004988:	00098513          	mv	a0,s3
    8000498c:	685040ef          	jal	80009810 <__fma>
    80004990:	01093b03          	ld	s6,16(s2)
    80004994:	f6843603          	ld	a2,-152(s0)
    80004998:	00050c93          	mv	s9,a0
    8000499c:	000b0593          	mv	a1,s6
    800049a0:	00098513          	mv	a0,s3
    800049a4:	66d040ef          	jal	80009810 <__fma>
    800049a8:	01893a83          	ld	s5,24(s2)
    800049ac:	f6043603          	ld	a2,-160(s0)
    800049b0:	00050793          	mv	a5,a0
    800049b4:	000a8593          	mv	a1,s5
    800049b8:	00098513          	mv	a0,s3
    800049bc:	f6f43423          	sd	a5,-152(s0)
    800049c0:	651040ef          	jal	80009810 <__fma>
    800049c4:	02093a03          	ld	s4,32(s2)
    800049c8:	f5843603          	ld	a2,-168(s0)
    800049cc:	00050793          	mv	a5,a0
    800049d0:	000a0593          	mv	a1,s4
    800049d4:	00098513          	mv	a0,s3
    800049d8:	f6f43023          	sd	a5,-160(s0)
    800049dc:	635040ef          	jal	80009810 <__fma>
    800049e0:	e9843703          	ld	a4,-360(s0)
    800049e4:	f5043603          	ld	a2,-176(s0)
    800049e8:	00050793          	mv	a5,a0
    800049ec:	00e48733          	add	a4,s1,a4
    800049f0:	00073983          	ld	s3,0(a4)
    800049f4:	000c0513          	mv	a0,s8
    800049f8:	f4f43c23          	sd	a5,-168(s0)
    800049fc:	00098593          	mv	a1,s3
    80004a00:	611040ef          	jal	80009810 <__fma>
    80004a04:	f4843603          	ld	a2,-184(s0)
    80004a08:	00050793          	mv	a5,a0
    80004a0c:	00098593          	mv	a1,s3
    80004a10:	000b8513          	mv	a0,s7
    80004a14:	f4f43823          	sd	a5,-176(s0)
    80004a18:	5f9040ef          	jal	80009810 <__fma>
    80004a1c:	f4043603          	ld	a2,-192(s0)
    80004a20:	00050793          	mv	a5,a0
    80004a24:	00098593          	mv	a1,s3
    80004a28:	000b0513          	mv	a0,s6
    80004a2c:	f4f43423          	sd	a5,-184(s0)
    80004a30:	5e1040ef          	jal	80009810 <__fma>
    80004a34:	f3843603          	ld	a2,-200(s0)
    80004a38:	00050793          	mv	a5,a0
    80004a3c:	00098593          	mv	a1,s3
    80004a40:	000a8513          	mv	a0,s5
    80004a44:	f4f43023          	sd	a5,-192(s0)
    80004a48:	5c9040ef          	jal	80009810 <__fma>
    80004a4c:	f3043603          	ld	a2,-208(s0)
    80004a50:	00050793          	mv	a5,a0
    80004a54:	00098593          	mv	a1,s3
    80004a58:	000a0513          	mv	a0,s4
    80004a5c:	f2f43c23          	sd	a5,-200(s0)
    80004a60:	5b1040ef          	jal	80009810 <__fma>
    80004a64:	ee043703          	ld	a4,-288(s0)
    80004a68:	f2843603          	ld	a2,-216(s0)
    80004a6c:	00050793          	mv	a5,a0
    80004a70:	00e48733          	add	a4,s1,a4
    80004a74:	00073983          	ld	s3,0(a4)
    80004a78:	000c0513          	mv	a0,s8
    80004a7c:	f2f43823          	sd	a5,-208(s0)
    80004a80:	00098593          	mv	a1,s3
    80004a84:	58d040ef          	jal	80009810 <__fma>
    80004a88:	f2043603          	ld	a2,-224(s0)
    80004a8c:	00050793          	mv	a5,a0
    80004a90:	00098593          	mv	a1,s3
    80004a94:	000b8513          	mv	a0,s7
    80004a98:	f2f43423          	sd	a5,-216(s0)
    80004a9c:	575040ef          	jal	80009810 <__fma>
    80004aa0:	f1843603          	ld	a2,-232(s0)
    80004aa4:	00050793          	mv	a5,a0
    80004aa8:	00098593          	mv	a1,s3
    80004aac:	000b0513          	mv	a0,s6
    80004ab0:	f2f43023          	sd	a5,-224(s0)
    80004ab4:	55d040ef          	jal	80009810 <__fma>
    80004ab8:	f1043603          	ld	a2,-240(s0)
    80004abc:	00050793          	mv	a5,a0
    80004ac0:	00098593          	mv	a1,s3
    80004ac4:	000a8513          	mv	a0,s5
    80004ac8:	f0f43c23          	sd	a5,-232(s0)
    80004acc:	545040ef          	jal	80009810 <__fma>
    80004ad0:	f0843603          	ld	a2,-248(s0)
    80004ad4:	00050793          	mv	a5,a0
    80004ad8:	00098593          	mv	a1,s3
    80004adc:	000a0513          	mv	a0,s4
    80004ae0:	f0f43823          	sd	a5,-240(s0)
    80004ae4:	52d040ef          	jal	80009810 <__fma>
    80004ae8:	e8843703          	ld	a4,-376(s0)
    80004aec:	f0043603          	ld	a2,-256(s0)
    80004af0:	00050793          	mv	a5,a0
    80004af4:	00e48733          	add	a4,s1,a4
    80004af8:	00073983          	ld	s3,0(a4)
    80004afc:	000c0513          	mv	a0,s8
    80004b00:	f0f43423          	sd	a5,-248(s0)
    80004b04:	00098593          	mv	a1,s3
    80004b08:	509040ef          	jal	80009810 <__fma>
    80004b0c:	ef843603          	ld	a2,-264(s0)
    80004b10:	00050793          	mv	a5,a0
    80004b14:	00098593          	mv	a1,s3
    80004b18:	000b8513          	mv	a0,s7
    80004b1c:	f0f43023          	sd	a5,-256(s0)
    80004b20:	4f1040ef          	jal	80009810 <__fma>
    80004b24:	ef043603          	ld	a2,-272(s0)
    80004b28:	00050793          	mv	a5,a0
    80004b2c:	00098593          	mv	a1,s3
    80004b30:	000b0513          	mv	a0,s6
    80004b34:	eef43c23          	sd	a5,-264(s0)
    80004b38:	4d9040ef          	jal	80009810 <__fma>
    80004b3c:	ee843603          	ld	a2,-280(s0)
    80004b40:	00050793          	mv	a5,a0
    80004b44:	00098593          	mv	a1,s3
    80004b48:	000a8513          	mv	a0,s5
    80004b4c:	eef43823          	sd	a5,-272(s0)
    80004b50:	4c1040ef          	jal	80009810 <__fma>
    80004b54:	00050793          	mv	a5,a0
    80004b58:	000d8613          	mv	a2,s11
    80004b5c:	00098593          	mv	a1,s3
    80004b60:	000a0513          	mv	a0,s4
    80004b64:	eef43423          	sd	a5,-280(s0)
    80004b68:	4a9040ef          	jal	80009810 <__fma>
    80004b6c:	eb043783          	ld	a5,-336(s0)
    80004b70:	00848493          	addi	s1,s1,8
    80004b74:	00050d93          	mv	s11,a0
    80004b78:	00f90933          	add	s2,s2,a5
    80004b7c:	e9043783          	ld	a5,-368(s0)
    80004b80:	def4e0e3          	bltu	s1,a5,80004960 <mm_cb+0x26b4>
    80004b84:	f8843983          	ld	s3,-120(s0)
    80004b88:	f8043a03          	ld	s4,-128(s0)
    80004b8c:	f7843b83          	ld	s7,-136(s0)
    80004b90:	f7043b03          	ld	s6,-144(s0)
    80004b94:	ed043a83          	ld	s5,-304(s0)
    80004b98:	ec843c03          	ld	s8,-312(s0)
    80004b9c:	eca43c23          	sd	a0,-296(s0)
    80004ba0:	f6843783          	ld	a5,-152(s0)
    80004ba4:	01ac3023          	sd	s10,0(s8)
    80004ba8:	019c3423          	sd	s9,8(s8)
    80004bac:	00fc3823          	sd	a5,16(s8)
    80004bb0:	f6043783          	ld	a5,-160(s0)
    80004bb4:	028c0c13          	addi	s8,s8,40
    80004bb8:	028a8a93          	addi	s5,s5,40
    80004bbc:	fefc3823          	sd	a5,-16(s8)
    80004bc0:	f5843783          	ld	a5,-168(s0)
    80004bc4:	028b0b13          	addi	s6,s6,40
    80004bc8:	028b8b93          	addi	s7,s7,40
    80004bcc:	fefc3c23          	sd	a5,-8(s8)
    80004bd0:	f5043783          	ld	a5,-176(s0)
    80004bd4:	028a0a13          	addi	s4,s4,40
    80004bd8:	fcfabc23          	sd	a5,-40(s5)
    80004bdc:	f4843783          	ld	a5,-184(s0)
    80004be0:	fefab023          	sd	a5,-32(s5)
    80004be4:	f4043783          	ld	a5,-192(s0)
    80004be8:	fefab423          	sd	a5,-24(s5)
    80004bec:	f3843783          	ld	a5,-200(s0)
    80004bf0:	fefab823          	sd	a5,-16(s5)
    80004bf4:	f3043783          	ld	a5,-208(s0)
    80004bf8:	fefabc23          	sd	a5,-8(s5)
    80004bfc:	f2843783          	ld	a5,-216(s0)
    80004c00:	fcfb3c23          	sd	a5,-40(s6)
    80004c04:	f2043783          	ld	a5,-224(s0)
    80004c08:	fefb3023          	sd	a5,-32(s6)
    80004c0c:	f1843783          	ld	a5,-232(s0)
    80004c10:	fefb3423          	sd	a5,-24(s6)
    80004c14:	f1043783          	ld	a5,-240(s0)
    80004c18:	fefb3823          	sd	a5,-16(s6)
    80004c1c:	f0843783          	ld	a5,-248(s0)
    80004c20:	fefb3c23          	sd	a5,-8(s6)
    80004c24:	f0043783          	ld	a5,-256(s0)
    80004c28:	fcfbbc23          	sd	a5,-40(s7)
    80004c2c:	ef843783          	ld	a5,-264(s0)
    80004c30:	fefbb023          	sd	a5,-32(s7)
    80004c34:	ef043783          	ld	a5,-272(s0)
    80004c38:	e1043703          	ld	a4,-496(s0)
    80004c3c:	fefbb423          	sd	a5,-24(s7)
    80004c40:	ee843783          	ld	a5,-280(s0)
    80004c44:	fefbb823          	sd	a5,-16(s7)
    80004c48:	ed843783          	ld	a5,-296(s0)
    80004c4c:	fefbbc23          	sd	a5,-8(s7)
    80004c50:	e6043783          	ld	a5,-416(s0)
    80004c54:	00578793          	addi	a5,a5,5
    80004c58:	e6f43023          	sd	a5,-416(s0)
    80004c5c:	00e7f463          	bgeu	a5,a4,80004c64 <mm_cb+0x29b8>
    80004c60:	ed9fe06f          	j	80003b38 <mm_cb+0x188c>
    80004c64:	00098693          	mv	a3,s3
    80004c68:	d0043903          	ld	s2,-768(s0)
    80004c6c:	d0843983          	ld	s3,-760(s0)
    80004c70:	00043a03          	ld	s4,0(s0)
    80004c74:	01413023          	sd	s4,0(sp)
    80004c78:	dd043783          	ld	a5,-560(s0)
    80004c7c:	dc843703          	ld	a4,-568(s0)
    80004c80:	de043803          	ld	a6,-544(s0)
    80004c84:	012788b3          	add	a7,a5,s2
    80004c88:	db043603          	ld	a2,-592(s0)
    80004c8c:	d9843783          	ld	a5,-616(s0)
    80004c90:	da843583          	ld	a1,-600(s0)
    80004c94:	f8d43423          	sd	a3,-120(s0)
    80004c98:	00400513          	li	a0,4
    80004c9c:	b64fd0ef          	jal	80002000 <mm_naive>
    80004ca0:	de843783          	ld	a5,-536(s0)
    80004ca4:	ea043703          	ld	a4,-352(s0)
    80004ca8:	f8843683          	ld	a3,-120(s0)
    80004cac:	00498993          	addi	s3,s3,4
    80004cb0:	00f70733          	add	a4,a4,a5
    80004cb4:	eae43023          	sd	a4,-352(s0)
    80004cb8:	e9043703          	ld	a4,-368(s0)
    80004cbc:	00f686b3          	add	a3,a3,a5
    80004cc0:	00f707b3          	add	a5,a4,a5
    80004cc4:	e8f43823          	sd	a5,-368(s0)
    80004cc8:	da043783          	ld	a5,-608(s0)
    80004ccc:	00f90933          	add	s2,s2,a5
    80004cd0:	dd843783          	ld	a5,-552(s0)
    80004cd4:	00f9f463          	bgeu	s3,a5,80004cdc <mm_cb+0x2a30>
    80004cd8:	e19fe06f          	j	80003af0 <mm_cb+0x1844>
    80004cdc:	d2843b03          	ld	s6,-728(s0)
    80004ce0:	db043983          	ld	s3,-592(s0)
    80004ce4:	d2043a83          	ld	s5,-736(s0)
    80004ce8:	d1843b83          	ld	s7,-744(s0)
    80004cec:	d1043483          	ld	s1,-752(s0)
    80004cf0:	01413023          	sd	s4,0(sp)
    80004cf4:	df043903          	ld	s2,-528(s0)
    80004cf8:	d8843683          	ld	a3,-632(s0)
    80004cfc:	dc843703          	ld	a4,-568(s0)
    80004d00:	d8043883          	ld	a7,-640(s0)
    80004d04:	de043803          	ld	a6,-544(s0)
    80004d08:	d9043503          	ld	a0,-624(s0)
    80004d0c:	00090793          	mv	a5,s2
    80004d10:	009686b3          	add	a3,a3,s1
    80004d14:	00098613          	mv	a2,s3
    80004d18:	000b0593          	mv	a1,s6
    80004d1c:	ae4fd0ef          	jal	80002000 <mm_naive>
    80004d20:	d7843703          	ld	a4,-648(s0)
    80004d24:	018a8a93          	addi	s5,s5,24
    80004d28:	0c048493          	addi	s1,s1,192
    80004d2c:	00e907b3          	add	a5,s2,a4
    80004d30:	def43823          	sd	a5,-528(s0)
    80004d34:	e2043783          	ld	a5,-480(s0)
    80004d38:	00faf463          	bgeu	s5,a5,80004d40 <mm_cb+0x2a94>
    80004d3c:	d21fe06f          	j	80003a5c <mm_cb+0x17b0>
    80004d40:	000a0693          	mv	a3,s4
    80004d44:	d6043303          	ld	t1,-672(s0)
    80004d48:	d5843983          	ld	s3,-680(s0)
    80004d4c:	d5043903          	ld	s2,-688(s0)
    80004d50:	dd843883          	ld	a7,-552(s0)
    80004d54:	d4843d03          	ld	s10,-696(s0)
    80004d58:	d4043c83          	ld	s9,-704(s0)
    80004d5c:	d3843c03          	ld	s8,-712(s0)
    80004d60:	dc043e83          	ld	t4,-576(s0)
    80004d64:	d3043a03          	ld	s4,-720(s0)
    80004d68:	db843f83          	ld	t6,-584(s0)
    80004d6c:	000b8f13          	mv	t5,s7
    80004d70:	e2843783          	ld	a5,-472(s0)
    80004d74:	01990913          	addi	s2,s2,25
    80004d78:	0c8c8c93          	addi	s9,s9,200
    80004d7c:	0c8f0f13          	addi	t5,t5,200
    80004d80:	00f97463          	bgeu	s2,a5,80004d88 <mm_cb+0x2adc>
    80004d84:	c49fe06f          	j	800039cc <mm_cb+0x1720>
    80004d88:	d7043b03          	ld	s6,-656(s0)
    80004d8c:	00068593          	mv	a1,a3
    80004d90:	0e098263          	beqz	s3,80004e74 <mm_cb+0x2bc8>
    80004d94:	00ba07b3          	add	a5,s4,a1
    80004d98:	00001837          	lui	a6,0x1
    80004d9c:	00679793          	slli	a5,a5,0x6
    80004da0:	000b0713          	mv	a4,s6
    80004da4:	00000593          	li	a1,0
    80004da8:	01800f13          	li	t5,24
    80004dac:	01900393          	li	t2,25
    80004db0:	2c080813          	addi	a6,a6,704 # 12c0 <buflen.1+0x1240>
    80004db4:	25800293          	li	t0,600
    80004db8:	e2843683          	ld	a3,-472(s0)
    80004dbc:	0adf7663          	bgeu	t5,a3,80004e68 <mm_cb+0x2bbc>
    80004dc0:	03e5d6b3          	divu	a3,a1,t5
    80004dc4:	00070e13          	mv	t3,a4
    80004dc8:	00000513          	li	a0,0
    80004dcc:	026686b3          	mul	a3,a3,t1
    80004dd0:	df843603          	ld	a2,-520(s0)
    80004dd4:	0c0e0c93          	addi	s9,t3,192
    80004dd8:	00000913          	li	s2,0
    80004ddc:	027554b3          	divu	s1,a0,t2
    80004de0:	00d484b3          	add	s1,s1,a3
    80004de4:	030484b3          	mul	s1,s1,a6
    80004de8:	009604b3          	add	s1,a2,s1
    80004dec:	f40c8613          	addi	a2,s9,-192
    80004df0:	00048893          	mv	a7,s1
    80004df4:	0008bd83          	ld	s11,0(a7)
    80004df8:	0088bd03          	ld	s10,8(a7)
    80004dfc:	0108bc03          	ld	s8,16(a7)
    80004e00:	0188bb83          	ld	s7,24(a7)
    80004e04:	0208bb03          	ld	s6,32(a7)
    80004e08:	0288ba83          	ld	s5,40(a7)
    80004e0c:	0308ba03          	ld	s4,48(a7)
    80004e10:	0388be83          	ld	t4,56(a7)
    80004e14:	04060613          	addi	a2,a2,64
    80004e18:	fdb63023          	sd	s11,-64(a2)
    80004e1c:	fda63423          	sd	s10,-56(a2)
    80004e20:	fd863823          	sd	s8,-48(a2)
    80004e24:	fd763c23          	sd	s7,-40(a2)
    80004e28:	ff663023          	sd	s6,-32(a2)
    80004e2c:	ff563423          	sd	s5,-24(a2)
    80004e30:	ff463823          	sd	s4,-16(a2)
    80004e34:	ffd63c23          	sd	t4,-8(a2)
    80004e38:	04088893          	addi	a7,a7,64
    80004e3c:	fb961ce3          	bne	a2,s9,80004df4 <mm_cb+0x2b48>
    80004e40:	0c04b883          	ld	a7,192(s1)
    80004e44:	01990913          	addi	s2,s2,25
    80004e48:	0c848493          	addi	s1,s1,200
    80004e4c:	01163023          	sd	a7,0(a2)
    80004e50:	01f60cb3          	add	s9,a2,t6
    80004e54:	f8591ce3          	bne	s2,t0,80004dec <mm_cb+0x2b40>
    80004e58:	e0843603          	ld	a2,-504(s0)
    80004e5c:	01950513          	addi	a0,a0,25
    80004e60:	0c8e0e13          	addi	t3,t3,200
    80004e64:	f6c566e3          	bltu	a0,a2,80004dd0 <mm_cb+0x2b24>
    80004e68:	01858593          	addi	a1,a1,24
    80004e6c:	00f70733          	add	a4,a4,a5
    80004e70:	f535e4e3          	bltu	a1,s3,80004db8 <mm_cb+0x2b0c>
    80004e74:	c7040113          	addi	sp,s0,-912
    80004e78:	38813083          	ld	ra,904(sp)
    80004e7c:	38013403          	ld	s0,896(sp)
    80004e80:	37813483          	ld	s1,888(sp)
    80004e84:	37013903          	ld	s2,880(sp)
    80004e88:	36813983          	ld	s3,872(sp)
    80004e8c:	36013a03          	ld	s4,864(sp)
    80004e90:	35813a83          	ld	s5,856(sp)
    80004e94:	35013b03          	ld	s6,848(sp)
    80004e98:	34813b83          	ld	s7,840(sp)
    80004e9c:	34013c03          	ld	s8,832(sp)
    80004ea0:	33813c83          	ld	s9,824(sp)
    80004ea4:	33013d03          	ld	s10,816(sp)
    80004ea8:	32813d83          	ld	s11,808(sp)
    80004eac:	39010113          	addi	sp,sp,912
    80004eb0:	00008067          	ret
    80004eb4:	01900793          	li	a5,25
    80004eb8:	02f4d7b3          	divu	a5,s1,a5
    80004ebc:	d7843683          	ld	a3,-648(s0)
    80004ec0:	00349713          	slli	a4,s1,0x3
    80004ec4:	dd043a83          	ld	s5,-560(s0)
    80004ec8:	00d70733          	add	a4,a4,a3
    80004ecc:	de043683          	ld	a3,-544(s0)
    80004ed0:	d2e43823          	sd	a4,-720(s0)
    80004ed4:	db043703          	ld	a4,-592(s0)
    80004ed8:	00000a13          	li	s4,0
    80004edc:	ca943423          	sd	s1,-856(s0)
    80004ee0:	e6e43823          	sd	a4,-400(s0)
    80004ee4:	d3843703          	ld	a4,-712(s0)
    80004ee8:	cb343023          	sd	s3,-864(s0)
    80004eec:	c9b43c23          	sd	s11,-872(s0)
    80004ef0:	00d787b3          	add	a5,a5,a3
    80004ef4:	df043683          	ld	a3,-528(s0)
    80004ef8:	02d787b3          	mul	a5,a5,a3
    80004efc:	df843683          	ld	a3,-520(s0)
    80004f00:	00f68c33          	add	s8,a3,a5
    80004f04:	0c8c0913          	addi	s2,s8,200
    80004f08:	cb843823          	sd	s8,-848(s0)
    80004f0c:	e5043783          	ld	a5,-432(s0)
    80004f10:	d3043b83          	ld	s7,-720(s0)
    80004f14:	f3890b13          	addi	s6,s2,-200
    80004f18:	015786b3          	add	a3,a5,s5
    80004f1c:	00e787b3          	add	a5,a5,a4
    80004f20:	e0d43c23          	sd	a3,-488(s0)
    80004f24:	e2f43823          	sd	a5,-464(s0)
    80004f28:	c9443823          	sd	s4,-880(s0)
    80004f2c:	e8e43823          	sd	a4,-368(s0)
    80004f30:	c9243423          	sd	s2,-888(s0)
    80004f34:	e1543823          	sd	s5,-496(s0)
    80004f38:	010b3783          	ld	a5,16(s6)
    80004f3c:	000b3d03          	ld	s10,0(s6)
    80004f40:	008b3603          	ld	a2,8(s6)
    80004f44:	f6f43423          	sd	a5,-152(s0)
    80004f48:	018b3783          	ld	a5,24(s6)
    80004f4c:	f6f43023          	sd	a5,-160(s0)
    80004f50:	020b3783          	ld	a5,32(s6)
    80004f54:	f4f43c23          	sd	a5,-168(s0)
    80004f58:	0c8b3783          	ld	a5,200(s6)
    80004f5c:	f4f43823          	sd	a5,-176(s0)
    80004f60:	0d0b3783          	ld	a5,208(s6)
    80004f64:	f4f43423          	sd	a5,-184(s0)
    80004f68:	0d8b3783          	ld	a5,216(s6)
    80004f6c:	f4f43023          	sd	a5,-192(s0)
    80004f70:	0e0b3783          	ld	a5,224(s6)
    80004f74:	f2f43c23          	sd	a5,-200(s0)
    80004f78:	0e8b3783          	ld	a5,232(s6)
    80004f7c:	f6f43823          	sd	a5,-144(s0)
    80004f80:	190b3783          	ld	a5,400(s6)
    80004f84:	f2f43823          	sd	a5,-208(s0)
    80004f88:	198b3783          	ld	a5,408(s6)
    80004f8c:	f2f43423          	sd	a5,-216(s0)
    80004f90:	1a0b3783          	ld	a5,416(s6)
    80004f94:	f2f43023          	sd	a5,-224(s0)
    80004f98:	1a8b3783          	ld	a5,424(s6)
    80004f9c:	f0f43c23          	sd	a5,-232(s0)
    80004fa0:	1b0b3783          	ld	a5,432(s6)
    80004fa4:	f6f43c23          	sd	a5,-136(s0)
    80004fa8:	258b3783          	ld	a5,600(s6)
    80004fac:	f0f43823          	sd	a5,-240(s0)
    80004fb0:	260b3783          	ld	a5,608(s6)
    80004fb4:	f0f43423          	sd	a5,-248(s0)
    80004fb8:	268b3783          	ld	a5,616(s6)
    80004fbc:	e1043483          	ld	s1,-496(s0)
    80004fc0:	ef743423          	sd	s7,-280(s0)
    80004fc4:	f0f43023          	sd	a5,-256(s0)
    80004fc8:	270b3783          	ld	a5,624(s6)
    80004fcc:	eef43c23          	sd	a5,-264(s0)
    80004fd0:	278b3783          	ld	a5,632(s6)
    80004fd4:	eef43823          	sd	a5,-272(s0)
    80004fd8:	e9043783          	ld	a5,-368(s0)
    80004fdc:	50f4fae3          	bgeu	s1,a5,80005cf0 <mm_cb+0x3a44>
    80004fe0:	ea843783          	ld	a5,-344(s0)
    80004fe4:	00060a13          	mv	s4,a2
    80004fe8:	f8943023          	sd	s1,-128(s0)
    80004fec:	01778ab3          	add	s5,a5,s7
    80004ff0:	e1843783          	ld	a5,-488(s0)
    80004ff4:	e5743023          	sd	s7,-448(s0)
    80004ff8:	e3643c23          	sd	s6,-456(s0)
    80004ffc:	f8f43423          	sd	a5,-120(s0)
    80005000:	ee843b03          	ld	s6,-280(s0)
    80005004:	f8043783          	ld	a5,-128(s0)
    80005008:	eb843683          	ld	a3,-328(s0)
    8000500c:	000b3c83          	ld	s9,0(s6)
    80005010:	0007b983          	ld	s3,0(a5)
    80005014:	015e04b3          	add	s1,t3,s5
    80005018:	009e0bb3          	add	s7,t3,s1
    8000501c:	016686b3          	add	a3,a3,s6
    80005020:	000d0613          	mv	a2,s10
    80005024:	000c8593          	mv	a1,s9
    80005028:	00098513          	mv	a0,s3
    8000502c:	016e0933          	add	s2,t3,s6
    80005030:	edc43023          	sd	t3,-320(s0)
    80005034:	ecd43823          	sd	a3,-304(s0)
    80005038:	ed743c23          	sd	s7,-296(s0)
    8000503c:	7d4040ef          	jal	80009810 <__fma>
    80005040:	008b3c03          	ld	s8,8(s6)
    80005044:	00050d93          	mv	s11,a0
    80005048:	000a0613          	mv	a2,s4
    8000504c:	000c0593          	mv	a1,s8
    80005050:	00098513          	mv	a0,s3
    80005054:	7bc040ef          	jal	80009810 <__fma>
    80005058:	010b3b83          	ld	s7,16(s6)
    8000505c:	f6843603          	ld	a2,-152(s0)
    80005060:	00050d13          	mv	s10,a0
    80005064:	000b8593          	mv	a1,s7
    80005068:	00098513          	mv	a0,s3
    8000506c:	7a4040ef          	jal	80009810 <__fma>
    80005070:	000b0a13          	mv	s4,s6
    80005074:	018b3b03          	ld	s6,24(s6)
    80005078:	f6043603          	ld	a2,-160(s0)
    8000507c:	00050793          	mv	a5,a0
    80005080:	000b0593          	mv	a1,s6
    80005084:	00098513          	mv	a0,s3
    80005088:	f6f43423          	sd	a5,-152(s0)
    8000508c:	784040ef          	jal	80009810 <__fma>
    80005090:	020a3a03          	ld	s4,32(s4)
    80005094:	f5843603          	ld	a2,-168(s0)
    80005098:	00050793          	mv	a5,a0
    8000509c:	000a0593          	mv	a1,s4
    800050a0:	00098513          	mv	a0,s3
    800050a4:	f6f43023          	sd	a5,-160(s0)
    800050a8:	768040ef          	jal	80009810 <__fma>
    800050ac:	f8843683          	ld	a3,-120(s0)
    800050b0:	f5043603          	ld	a2,-176(s0)
    800050b4:	00050793          	mv	a5,a0
    800050b8:	0006b983          	ld	s3,0(a3)
    800050bc:	000c8513          	mv	a0,s9
    800050c0:	f4f43c23          	sd	a5,-168(s0)
    800050c4:	00098593          	mv	a1,s3
    800050c8:	748040ef          	jal	80009810 <__fma>
    800050cc:	f4843603          	ld	a2,-184(s0)
    800050d0:	00050793          	mv	a5,a0
    800050d4:	00098593          	mv	a1,s3
    800050d8:	000c0513          	mv	a0,s8
    800050dc:	f4f43823          	sd	a5,-176(s0)
    800050e0:	730040ef          	jal	80009810 <__fma>
    800050e4:	f4043603          	ld	a2,-192(s0)
    800050e8:	00050793          	mv	a5,a0
    800050ec:	00098593          	mv	a1,s3
    800050f0:	000b8513          	mv	a0,s7
    800050f4:	f4f43423          	sd	a5,-184(s0)
    800050f8:	718040ef          	jal	80009810 <__fma>
    800050fc:	f3843603          	ld	a2,-200(s0)
    80005100:	00050793          	mv	a5,a0
    80005104:	00098593          	mv	a1,s3
    80005108:	000b0513          	mv	a0,s6
    8000510c:	f4f43023          	sd	a5,-192(s0)
    80005110:	700040ef          	jal	80009810 <__fma>
    80005114:	f7043603          	ld	a2,-144(s0)
    80005118:	00050793          	mv	a5,a0
    8000511c:	00098593          	mv	a1,s3
    80005120:	000a0513          	mv	a0,s4
    80005124:	f2f43c23          	sd	a5,-200(s0)
    80005128:	6e8040ef          	jal	80009810 <__fma>
    8000512c:	f8043703          	ld	a4,-128(s0)
    80005130:	ee043583          	ld	a1,-288(s0)
    80005134:	00050793          	mv	a5,a0
    80005138:	000c8513          	mv	a0,s9
    8000513c:	00b705b3          	add	a1,a4,a1
    80005140:	f6b43823          	sd	a1,-144(s0)
    80005144:	0005b983          	ld	s3,0(a1)
    80005148:	f3043603          	ld	a2,-208(s0)
    8000514c:	f2f43823          	sd	a5,-208(s0)
    80005150:	00098593          	mv	a1,s3
    80005154:	6bc040ef          	jal	80009810 <__fma>
    80005158:	f2843603          	ld	a2,-216(s0)
    8000515c:	00050793          	mv	a5,a0
    80005160:	00098593          	mv	a1,s3
    80005164:	000c0513          	mv	a0,s8
    80005168:	f2f43423          	sd	a5,-216(s0)
    8000516c:	6a4040ef          	jal	80009810 <__fma>
    80005170:	f2043603          	ld	a2,-224(s0)
    80005174:	00050793          	mv	a5,a0
    80005178:	00098593          	mv	a1,s3
    8000517c:	000b8513          	mv	a0,s7
    80005180:	f2f43023          	sd	a5,-224(s0)
    80005184:	68c040ef          	jal	80009810 <__fma>
    80005188:	f1843603          	ld	a2,-232(s0)
    8000518c:	00050793          	mv	a5,a0
    80005190:	00098593          	mv	a1,s3
    80005194:	000b0513          	mv	a0,s6
    80005198:	f0f43c23          	sd	a5,-232(s0)
    8000519c:	674040ef          	jal	80009810 <__fma>
    800051a0:	f7843603          	ld	a2,-136(s0)
    800051a4:	00050793          	mv	a5,a0
    800051a8:	00098593          	mv	a1,s3
    800051ac:	000a0513          	mv	a0,s4
    800051b0:	ecf43423          	sd	a5,-312(s0)
    800051b4:	65c040ef          	jal	80009810 <__fma>
    800051b8:	f8843683          	ld	a3,-120(s0)
    800051bc:	00050793          	mv	a5,a0
    800051c0:	ee043503          	ld	a0,-288(s0)
    800051c4:	f1043603          	ld	a2,-240(s0)
    800051c8:	00a68533          	add	a0,a3,a0
    800051cc:	00053983          	ld	s3,0(a0)
    800051d0:	f6a43c23          	sd	a0,-136(s0)
    800051d4:	000c8513          	mv	a0,s9
    800051d8:	00098593          	mv	a1,s3
    800051dc:	00078c93          	mv	s9,a5
    800051e0:	630040ef          	jal	80009810 <__fma>
    800051e4:	f0843603          	ld	a2,-248(s0)
    800051e8:	00050793          	mv	a5,a0
    800051ec:	00098593          	mv	a1,s3
    800051f0:	000c0513          	mv	a0,s8
    800051f4:	f0f43823          	sd	a5,-240(s0)
    800051f8:	618040ef          	jal	80009810 <__fma>
    800051fc:	f0043603          	ld	a2,-256(s0)
    80005200:	00050793          	mv	a5,a0
    80005204:	00098593          	mv	a1,s3
    80005208:	000b8513          	mv	a0,s7
    8000520c:	f0f43423          	sd	a5,-248(s0)
    80005210:	600040ef          	jal	80009810 <__fma>
    80005214:	ef843603          	ld	a2,-264(s0)
    80005218:	00050793          	mv	a5,a0
    8000521c:	00098593          	mv	a1,s3
    80005220:	000b0513          	mv	a0,s6
    80005224:	f0f43023          	sd	a5,-256(s0)
    80005228:	5e8040ef          	jal	80009810 <__fma>
    8000522c:	ef043603          	ld	a2,-272(s0)
    80005230:	00050793          	mv	a5,a0
    80005234:	00098593          	mv	a1,s3
    80005238:	000a0513          	mv	a0,s4
    8000523c:	eef43c23          	sd	a5,-264(s0)
    80005240:	5d0040ef          	jal	80009810 <__fma>
    80005244:	f8043703          	ld	a4,-128(s0)
    80005248:	000aba03          	ld	s4,0(s5)
    8000524c:	00050793          	mv	a5,a0
    80005250:	00873983          	ld	s3,8(a4)
    80005254:	000d8613          	mv	a2,s11
    80005258:	000a0593          	mv	a1,s4
    8000525c:	00098513          	mv	a0,s3
    80005260:	00078d93          	mv	s11,a5
    80005264:	5ac040ef          	jal	80009810 <__fma>
    80005268:	008abb03          	ld	s6,8(s5)
    8000526c:	00050793          	mv	a5,a0
    80005270:	000d0613          	mv	a2,s10
    80005274:	000b0593          	mv	a1,s6
    80005278:	00098513          	mv	a0,s3
    8000527c:	00078d13          	mv	s10,a5
    80005280:	590040ef          	jal	80009810 <__fma>
    80005284:	010abb83          	ld	s7,16(s5)
    80005288:	f6843603          	ld	a2,-152(s0)
    8000528c:	00050793          	mv	a5,a0
    80005290:	000b8593          	mv	a1,s7
    80005294:	00098513          	mv	a0,s3
    80005298:	f6f43423          	sd	a5,-152(s0)
    8000529c:	574040ef          	jal	80009810 <__fma>
    800052a0:	018abc03          	ld	s8,24(s5)
    800052a4:	f6043603          	ld	a2,-160(s0)
    800052a8:	00050793          	mv	a5,a0
    800052ac:	000c0593          	mv	a1,s8
    800052b0:	00098513          	mv	a0,s3
    800052b4:	f6f43023          	sd	a5,-160(s0)
    800052b8:	558040ef          	jal	80009810 <__fma>
    800052bc:	020aba83          	ld	s5,32(s5)
    800052c0:	f5843603          	ld	a2,-168(s0)
    800052c4:	00050793          	mv	a5,a0
    800052c8:	000a8593          	mv	a1,s5
    800052cc:	00098513          	mv	a0,s3
    800052d0:	f4f43c23          	sd	a5,-168(s0)
    800052d4:	53c040ef          	jal	80009810 <__fma>
    800052d8:	f8843683          	ld	a3,-120(s0)
    800052dc:	f5043603          	ld	a2,-176(s0)
    800052e0:	00050793          	mv	a5,a0
    800052e4:	0086b983          	ld	s3,8(a3)
    800052e8:	000a0513          	mv	a0,s4
    800052ec:	f4f43823          	sd	a5,-176(s0)
    800052f0:	00098593          	mv	a1,s3
    800052f4:	51c040ef          	jal	80009810 <__fma>
    800052f8:	f4843603          	ld	a2,-184(s0)
    800052fc:	00050793          	mv	a5,a0
    80005300:	00098593          	mv	a1,s3
    80005304:	000b0513          	mv	a0,s6
    80005308:	f4f43423          	sd	a5,-184(s0)
    8000530c:	504040ef          	jal	80009810 <__fma>
    80005310:	f4043603          	ld	a2,-192(s0)
    80005314:	00050793          	mv	a5,a0
    80005318:	00098593          	mv	a1,s3
    8000531c:	000b8513          	mv	a0,s7
    80005320:	f4f43023          	sd	a5,-192(s0)
    80005324:	4ec040ef          	jal	80009810 <__fma>
    80005328:	f3843603          	ld	a2,-200(s0)
    8000532c:	00050793          	mv	a5,a0
    80005330:	00098593          	mv	a1,s3
    80005334:	000c0513          	mv	a0,s8
    80005338:	f2f43c23          	sd	a5,-200(s0)
    8000533c:	4d4040ef          	jal	80009810 <__fma>
    80005340:	f3043603          	ld	a2,-208(s0)
    80005344:	00050793          	mv	a5,a0
    80005348:	00098593          	mv	a1,s3
    8000534c:	000a8513          	mv	a0,s5
    80005350:	f2f43823          	sd	a5,-208(s0)
    80005354:	4bc040ef          	jal	80009810 <__fma>
    80005358:	f7043583          	ld	a1,-144(s0)
    8000535c:	f2843603          	ld	a2,-216(s0)
    80005360:	00050793          	mv	a5,a0
    80005364:	0085b983          	ld	s3,8(a1)
    80005368:	000a0513          	mv	a0,s4
    8000536c:	f2f43423          	sd	a5,-216(s0)
    80005370:	00098593          	mv	a1,s3
    80005374:	49c040ef          	jal	80009810 <__fma>
    80005378:	f2043603          	ld	a2,-224(s0)
    8000537c:	00050793          	mv	a5,a0
    80005380:	00098593          	mv	a1,s3
    80005384:	000b0513          	mv	a0,s6
    80005388:	f2f43023          	sd	a5,-224(s0)
    8000538c:	484040ef          	jal	80009810 <__fma>
    80005390:	f1843603          	ld	a2,-232(s0)
    80005394:	00050793          	mv	a5,a0
    80005398:	00098593          	mv	a1,s3
    8000539c:	000b8513          	mv	a0,s7
    800053a0:	f0f43c23          	sd	a5,-232(s0)
    800053a4:	46c040ef          	jal	80009810 <__fma>
    800053a8:	ec843603          	ld	a2,-312(s0)
    800053ac:	00050793          	mv	a5,a0
    800053b0:	00098593          	mv	a1,s3
    800053b4:	000c0513          	mv	a0,s8
    800053b8:	eef43823          	sd	a5,-272(s0)
    800053bc:	454040ef          	jal	80009810 <__fma>
    800053c0:	00050793          	mv	a5,a0
    800053c4:	000c8613          	mv	a2,s9
    800053c8:	00098593          	mv	a1,s3
    800053cc:	000a8513          	mv	a0,s5
    800053d0:	00078c93          	mv	s9,a5
    800053d4:	43c040ef          	jal	80009810 <__fma>
    800053d8:	00050793          	mv	a5,a0
    800053dc:	f7843503          	ld	a0,-136(s0)
    800053e0:	00853983          	ld	s3,8(a0)
    800053e4:	f1043603          	ld	a2,-240(s0)
    800053e8:	000a0513          	mv	a0,s4
    800053ec:	00098593          	mv	a1,s3
    800053f0:	f0f43823          	sd	a5,-240(s0)
    800053f4:	41c040ef          	jal	80009810 <__fma>
    800053f8:	f0843603          	ld	a2,-248(s0)
    800053fc:	00050793          	mv	a5,a0
    80005400:	00098593          	mv	a1,s3
    80005404:	000b0513          	mv	a0,s6
    80005408:	f0f43423          	sd	a5,-248(s0)
    8000540c:	404040ef          	jal	80009810 <__fma>
    80005410:	f0043603          	ld	a2,-256(s0)
    80005414:	00050793          	mv	a5,a0
    80005418:	00098593          	mv	a1,s3
    8000541c:	000b8513          	mv	a0,s7
    80005420:	f0f43023          	sd	a5,-256(s0)
    80005424:	3ec040ef          	jal	80009810 <__fma>
    80005428:	ef843603          	ld	a2,-264(s0)
    8000542c:	00050793          	mv	a5,a0
    80005430:	00098593          	mv	a1,s3
    80005434:	000c0513          	mv	a0,s8
    80005438:	00078c13          	mv	s8,a5
    8000543c:	3d4040ef          	jal	80009810 <__fma>
    80005440:	00050793          	mv	a5,a0
    80005444:	000d8613          	mv	a2,s11
    80005448:	00098593          	mv	a1,s3
    8000544c:	000a8513          	mv	a0,s5
    80005450:	00078d93          	mv	s11,a5
    80005454:	3bc040ef          	jal	80009810 <__fma>
    80005458:	f8043703          	ld	a4,-128(s0)
    8000545c:	00093a03          	ld	s4,0(s2)
    80005460:	00050793          	mv	a5,a0
    80005464:	01073983          	ld	s3,16(a4)
    80005468:	000d0613          	mv	a2,s10
    8000546c:	000a0593          	mv	a1,s4
    80005470:	00098513          	mv	a0,s3
    80005474:	00078d13          	mv	s10,a5
    80005478:	398040ef          	jal	80009810 <__fma>
    8000547c:	00893a83          	ld	s5,8(s2)
    80005480:	f6843603          	ld	a2,-152(s0)
    80005484:	00050793          	mv	a5,a0
    80005488:	000a8593          	mv	a1,s5
    8000548c:	00098513          	mv	a0,s3
    80005490:	f6f43423          	sd	a5,-152(s0)
    80005494:	37c040ef          	jal	80009810 <__fma>
    80005498:	01093b03          	ld	s6,16(s2)
    8000549c:	f6043603          	ld	a2,-160(s0)
    800054a0:	00050793          	mv	a5,a0
    800054a4:	000b0593          	mv	a1,s6
    800054a8:	00098513          	mv	a0,s3
    800054ac:	f6f43023          	sd	a5,-160(s0)
    800054b0:	360040ef          	jal	80009810 <__fma>
    800054b4:	01893b83          	ld	s7,24(s2)
    800054b8:	f5843603          	ld	a2,-168(s0)
    800054bc:	00050793          	mv	a5,a0
    800054c0:	000b8593          	mv	a1,s7
    800054c4:	00098513          	mv	a0,s3
    800054c8:	f4f43c23          	sd	a5,-168(s0)
    800054cc:	344040ef          	jal	80009810 <__fma>
    800054d0:	02093903          	ld	s2,32(s2)
    800054d4:	f5043603          	ld	a2,-176(s0)
    800054d8:	00050793          	mv	a5,a0
    800054dc:	00090593          	mv	a1,s2
    800054e0:	00098513          	mv	a0,s3
    800054e4:	f4f43823          	sd	a5,-176(s0)
    800054e8:	328040ef          	jal	80009810 <__fma>
    800054ec:	f8843683          	ld	a3,-120(s0)
    800054f0:	f4843603          	ld	a2,-184(s0)
    800054f4:	00050793          	mv	a5,a0
    800054f8:	0106b983          	ld	s3,16(a3)
    800054fc:	000a0513          	mv	a0,s4
    80005500:	f4f43423          	sd	a5,-184(s0)
    80005504:	00098593          	mv	a1,s3
    80005508:	308040ef          	jal	80009810 <__fma>
    8000550c:	f4043603          	ld	a2,-192(s0)
    80005510:	00050793          	mv	a5,a0
    80005514:	00098593          	mv	a1,s3
    80005518:	000a8513          	mv	a0,s5
    8000551c:	f4f43023          	sd	a5,-192(s0)
    80005520:	2f0040ef          	jal	80009810 <__fma>
    80005524:	f3843603          	ld	a2,-200(s0)
    80005528:	00050793          	mv	a5,a0
    8000552c:	00098593          	mv	a1,s3
    80005530:	000b0513          	mv	a0,s6
    80005534:	f2f43c23          	sd	a5,-200(s0)
    80005538:	2d8040ef          	jal	80009810 <__fma>
    8000553c:	f3043603          	ld	a2,-208(s0)
    80005540:	00050793          	mv	a5,a0
    80005544:	00098593          	mv	a1,s3
    80005548:	000b8513          	mv	a0,s7
    8000554c:	f2f43823          	sd	a5,-208(s0)
    80005550:	2c0040ef          	jal	80009810 <__fma>
    80005554:	f2843603          	ld	a2,-216(s0)
    80005558:	00050793          	mv	a5,a0
    8000555c:	00098593          	mv	a1,s3
    80005560:	00090513          	mv	a0,s2
    80005564:	f2f43423          	sd	a5,-216(s0)
    80005568:	2a8040ef          	jal	80009810 <__fma>
    8000556c:	f7043583          	ld	a1,-144(s0)
    80005570:	f2043603          	ld	a2,-224(s0)
    80005574:	00050793          	mv	a5,a0
    80005578:	0105b983          	ld	s3,16(a1)
    8000557c:	000a0513          	mv	a0,s4
    80005580:	f2f43023          	sd	a5,-224(s0)
    80005584:	00098593          	mv	a1,s3
    80005588:	288040ef          	jal	80009810 <__fma>
    8000558c:	f1843603          	ld	a2,-232(s0)
    80005590:	00050793          	mv	a5,a0
    80005594:	00098593          	mv	a1,s3
    80005598:	000a8513          	mv	a0,s5
    8000559c:	f0f43c23          	sd	a5,-232(s0)
    800055a0:	270040ef          	jal	80009810 <__fma>
    800055a4:	ef043603          	ld	a2,-272(s0)
    800055a8:	00050793          	mv	a5,a0
    800055ac:	00098593          	mv	a1,s3
    800055b0:	000b0513          	mv	a0,s6
    800055b4:	eef43c23          	sd	a5,-264(s0)
    800055b8:	258040ef          	jal	80009810 <__fma>
    800055bc:	00050793          	mv	a5,a0
    800055c0:	000c8613          	mv	a2,s9
    800055c4:	00098593          	mv	a1,s3
    800055c8:	000b8513          	mv	a0,s7
    800055cc:	00078c93          	mv	s9,a5
    800055d0:	240040ef          	jal	80009810 <__fma>
    800055d4:	f1043603          	ld	a2,-240(s0)
    800055d8:	00050793          	mv	a5,a0
    800055dc:	00098593          	mv	a1,s3
    800055e0:	00090513          	mv	a0,s2
    800055e4:	f0f43823          	sd	a5,-240(s0)
    800055e8:	228040ef          	jal	80009810 <__fma>
    800055ec:	00050793          	mv	a5,a0
    800055f0:	f7843503          	ld	a0,-136(s0)
    800055f4:	f0843603          	ld	a2,-248(s0)
    800055f8:	f0f43423          	sd	a5,-248(s0)
    800055fc:	01053983          	ld	s3,16(a0)
    80005600:	000a0513          	mv	a0,s4
    80005604:	00098593          	mv	a1,s3
    80005608:	208040ef          	jal	80009810 <__fma>
    8000560c:	f0043603          	ld	a2,-256(s0)
    80005610:	00050793          	mv	a5,a0
    80005614:	00098593          	mv	a1,s3
    80005618:	000a8513          	mv	a0,s5
    8000561c:	f0f43023          	sd	a5,-256(s0)
    80005620:	1f0040ef          	jal	80009810 <__fma>
    80005624:	00050793          	mv	a5,a0
    80005628:	000c0613          	mv	a2,s8
    8000562c:	00098593          	mv	a1,s3
    80005630:	000b0513          	mv	a0,s6
    80005634:	00078c13          	mv	s8,a5
    80005638:	1d8040ef          	jal	80009810 <__fma>
    8000563c:	00050793          	mv	a5,a0
    80005640:	000d8613          	mv	a2,s11
    80005644:	00098593          	mv	a1,s3
    80005648:	000b8513          	mv	a0,s7
    8000564c:	00078b93          	mv	s7,a5
    80005650:	1c0040ef          	jal	80009810 <__fma>
    80005654:	00050793          	mv	a5,a0
    80005658:	000d0613          	mv	a2,s10
    8000565c:	00098593          	mv	a1,s3
    80005660:	00090513          	mv	a0,s2
    80005664:	00078d13          	mv	s10,a5
    80005668:	1a8040ef          	jal	80009810 <__fma>
    8000566c:	f8043703          	ld	a4,-128(s0)
    80005670:	0004b983          	ld	s3,0(s1)
    80005674:	f6843603          	ld	a2,-152(s0)
    80005678:	01873903          	ld	s2,24(a4)
    8000567c:	00050d93          	mv	s11,a0
    80005680:	00098593          	mv	a1,s3
    80005684:	00090513          	mv	a0,s2
    80005688:	188040ef          	jal	80009810 <__fma>
    8000568c:	0084ba03          	ld	s4,8(s1)
    80005690:	f6043603          	ld	a2,-160(s0)
    80005694:	00050793          	mv	a5,a0
    80005698:	000a0593          	mv	a1,s4
    8000569c:	00090513          	mv	a0,s2
    800056a0:	f6f43423          	sd	a5,-152(s0)
    800056a4:	16c040ef          	jal	80009810 <__fma>
    800056a8:	0104ba83          	ld	s5,16(s1)
    800056ac:	f5843603          	ld	a2,-168(s0)
    800056b0:	00050793          	mv	a5,a0
    800056b4:	000a8593          	mv	a1,s5
    800056b8:	00090513          	mv	a0,s2
    800056bc:	f6f43023          	sd	a5,-160(s0)
    800056c0:	150040ef          	jal	80009810 <__fma>
    800056c4:	0184bb03          	ld	s6,24(s1)
    800056c8:	f5043603          	ld	a2,-176(s0)
    800056cc:	00050793          	mv	a5,a0
    800056d0:	000b0593          	mv	a1,s6
    800056d4:	00090513          	mv	a0,s2
    800056d8:	f4f43c23          	sd	a5,-168(s0)
    800056dc:	134040ef          	jal	80009810 <__fma>
    800056e0:	0204b483          	ld	s1,32(s1)
    800056e4:	f4843603          	ld	a2,-184(s0)
    800056e8:	00050793          	mv	a5,a0
    800056ec:	00048593          	mv	a1,s1
    800056f0:	00090513          	mv	a0,s2
    800056f4:	f4f43823          	sd	a5,-176(s0)
    800056f8:	118040ef          	jal	80009810 <__fma>
    800056fc:	f8843683          	ld	a3,-120(s0)
    80005700:	f4043603          	ld	a2,-192(s0)
    80005704:	00050793          	mv	a5,a0
    80005708:	0186b903          	ld	s2,24(a3)
    8000570c:	00098513          	mv	a0,s3
    80005710:	f4f43423          	sd	a5,-184(s0)
    80005714:	00090593          	mv	a1,s2
    80005718:	0f8040ef          	jal	80009810 <__fma>
    8000571c:	f3843603          	ld	a2,-200(s0)
    80005720:	00050793          	mv	a5,a0
    80005724:	00090593          	mv	a1,s2
    80005728:	000a0513          	mv	a0,s4
    8000572c:	f4f43023          	sd	a5,-192(s0)
    80005730:	0e0040ef          	jal	80009810 <__fma>
    80005734:	f3043603          	ld	a2,-208(s0)
    80005738:	00050793          	mv	a5,a0
    8000573c:	00090593          	mv	a1,s2
    80005740:	000a8513          	mv	a0,s5
    80005744:	f2f43c23          	sd	a5,-200(s0)
    80005748:	0c8040ef          	jal	80009810 <__fma>
    8000574c:	f2843603          	ld	a2,-216(s0)
    80005750:	00050793          	mv	a5,a0
    80005754:	00090593          	mv	a1,s2
    80005758:	000b0513          	mv	a0,s6
    8000575c:	f2f43823          	sd	a5,-208(s0)
    80005760:	0b0040ef          	jal	80009810 <__fma>
    80005764:	f2043603          	ld	a2,-224(s0)
    80005768:	00050793          	mv	a5,a0
    8000576c:	00090593          	mv	a1,s2
    80005770:	00048513          	mv	a0,s1
    80005774:	f2f43423          	sd	a5,-216(s0)
    80005778:	098040ef          	jal	80009810 <__fma>
    8000577c:	f7043583          	ld	a1,-144(s0)
    80005780:	f1843603          	ld	a2,-232(s0)
    80005784:	00050793          	mv	a5,a0
    80005788:	0185b903          	ld	s2,24(a1)
    8000578c:	00098513          	mv	a0,s3
    80005790:	f2f43023          	sd	a5,-224(s0)
    80005794:	00090593          	mv	a1,s2
    80005798:	078040ef          	jal	80009810 <__fma>
    8000579c:	ef843603          	ld	a2,-264(s0)
    800057a0:	00050793          	mv	a5,a0
    800057a4:	00090593          	mv	a1,s2
    800057a8:	000a0513          	mv	a0,s4
    800057ac:	f0f43c23          	sd	a5,-232(s0)
    800057b0:	060040ef          	jal	80009810 <__fma>
    800057b4:	00050793          	mv	a5,a0
    800057b8:	000c8613          	mv	a2,s9
    800057bc:	00090593          	mv	a1,s2
    800057c0:	000a8513          	mv	a0,s5
    800057c4:	00078c93          	mv	s9,a5
    800057c8:	048040ef          	jal	80009810 <__fma>
    800057cc:	f1043603          	ld	a2,-240(s0)
    800057d0:	00050793          	mv	a5,a0
    800057d4:	00090593          	mv	a1,s2
    800057d8:	000b0513          	mv	a0,s6
    800057dc:	f0f43823          	sd	a5,-240(s0)
    800057e0:	030040ef          	jal	80009810 <__fma>
    800057e4:	f0843603          	ld	a2,-248(s0)
    800057e8:	00050793          	mv	a5,a0
    800057ec:	00090593          	mv	a1,s2
    800057f0:	00048513          	mv	a0,s1
    800057f4:	f0f43423          	sd	a5,-248(s0)
    800057f8:	018040ef          	jal	80009810 <__fma>
    800057fc:	00050793          	mv	a5,a0
    80005800:	f7843503          	ld	a0,-136(s0)
    80005804:	f0043603          	ld	a2,-256(s0)
    80005808:	f0f43023          	sd	a5,-256(s0)
    8000580c:	01853903          	ld	s2,24(a0)
    80005810:	00098513          	mv	a0,s3
    80005814:	00090593          	mv	a1,s2
    80005818:	7f9030ef          	jal	80009810 <__fma>
    8000581c:	00050793          	mv	a5,a0
    80005820:	000c0613          	mv	a2,s8
    80005824:	00090593          	mv	a1,s2
    80005828:	000a0513          	mv	a0,s4
    8000582c:	00078c13          	mv	s8,a5
    80005830:	7e1030ef          	jal	80009810 <__fma>
    80005834:	00050793          	mv	a5,a0
    80005838:	000b8613          	mv	a2,s7
    8000583c:	00090593          	mv	a1,s2
    80005840:	000a8513          	mv	a0,s5
    80005844:	00078b93          	mv	s7,a5
    80005848:	7c9030ef          	jal	80009810 <__fma>
    8000584c:	00050793          	mv	a5,a0
    80005850:	000d0613          	mv	a2,s10
    80005854:	00090593          	mv	a1,s2
    80005858:	000b0513          	mv	a0,s6
    8000585c:	00078d13          	mv	s10,a5
    80005860:	7b1030ef          	jal	80009810 <__fma>
    80005864:	00050793          	mv	a5,a0
    80005868:	000d8613          	mv	a2,s11
    8000586c:	00090593          	mv	a1,s2
    80005870:	00048513          	mv	a0,s1
    80005874:	00078d93          	mv	s11,a5
    80005878:	799030ef          	jal	80009810 <__fma>
    8000587c:	f8043703          	ld	a4,-128(s0)
    80005880:	ed043b03          	ld	s6,-304(s0)
    80005884:	f6843603          	ld	a2,-152(s0)
    80005888:	02073483          	ld	s1,32(a4)
    8000588c:	000b3903          	ld	s2,0(s6)
    80005890:	00050793          	mv	a5,a0
    80005894:	00048513          	mv	a0,s1
    80005898:	00090593          	mv	a1,s2
    8000589c:	f6f43423          	sd	a5,-152(s0)
    800058a0:	771030ef          	jal	80009810 <__fma>
    800058a4:	008b3983          	ld	s3,8(s6)
    800058a8:	f6043603          	ld	a2,-160(s0)
    800058ac:	00050793          	mv	a5,a0
    800058b0:	00098593          	mv	a1,s3
    800058b4:	00048513          	mv	a0,s1
    800058b8:	f6f43023          	sd	a5,-160(s0)
    800058bc:	755030ef          	jal	80009810 <__fma>
    800058c0:	010b3a03          	ld	s4,16(s6)
    800058c4:	f5843603          	ld	a2,-168(s0)
    800058c8:	00050793          	mv	a5,a0
    800058cc:	000a0593          	mv	a1,s4
    800058d0:	00048513          	mv	a0,s1
    800058d4:	f4f43c23          	sd	a5,-168(s0)
    800058d8:	739030ef          	jal	80009810 <__fma>
    800058dc:	018b3a83          	ld	s5,24(s6)
    800058e0:	f5043603          	ld	a2,-176(s0)
    800058e4:	00050793          	mv	a5,a0
    800058e8:	000a8593          	mv	a1,s5
    800058ec:	00048513          	mv	a0,s1
    800058f0:	f4f43823          	sd	a5,-176(s0)
    800058f4:	71d030ef          	jal	80009810 <__fma>
    800058f8:	020b3b03          	ld	s6,32(s6)
    800058fc:	f4843603          	ld	a2,-184(s0)
    80005900:	00050793          	mv	a5,a0
    80005904:	000b0593          	mv	a1,s6
    80005908:	00048513          	mv	a0,s1
    8000590c:	f4f43423          	sd	a5,-184(s0)
    80005910:	701030ef          	jal	80009810 <__fma>
    80005914:	f8843683          	ld	a3,-120(s0)
    80005918:	f4043603          	ld	a2,-192(s0)
    8000591c:	00050793          	mv	a5,a0
    80005920:	0206b483          	ld	s1,32(a3)
    80005924:	00090513          	mv	a0,s2
    80005928:	f4f43023          	sd	a5,-192(s0)
    8000592c:	00048593          	mv	a1,s1
    80005930:	6e1030ef          	jal	80009810 <__fma>
    80005934:	f3843603          	ld	a2,-200(s0)
    80005938:	00050793          	mv	a5,a0
    8000593c:	00048593          	mv	a1,s1
    80005940:	00098513          	mv	a0,s3
    80005944:	f2f43c23          	sd	a5,-200(s0)
    80005948:	6c9030ef          	jal	80009810 <__fma>
    8000594c:	f3043603          	ld	a2,-208(s0)
    80005950:	00050793          	mv	a5,a0
    80005954:	00048593          	mv	a1,s1
    80005958:	000a0513          	mv	a0,s4
    8000595c:	f2f43823          	sd	a5,-208(s0)
    80005960:	6b1030ef          	jal	80009810 <__fma>
    80005964:	f2843603          	ld	a2,-216(s0)
    80005968:	00050793          	mv	a5,a0
    8000596c:	00048593          	mv	a1,s1
    80005970:	000a8513          	mv	a0,s5
    80005974:	f2f43423          	sd	a5,-216(s0)
    80005978:	699030ef          	jal	80009810 <__fma>
    8000597c:	f2043603          	ld	a2,-224(s0)
    80005980:	00050793          	mv	a5,a0
    80005984:	00048593          	mv	a1,s1
    80005988:	000b0513          	mv	a0,s6
    8000598c:	f2f43023          	sd	a5,-224(s0)
    80005990:	681030ef          	jal	80009810 <__fma>
    80005994:	f7043583          	ld	a1,-144(s0)
    80005998:	f1843603          	ld	a2,-232(s0)
    8000599c:	00050793          	mv	a5,a0
    800059a0:	0205b483          	ld	s1,32(a1)
    800059a4:	00090513          	mv	a0,s2
    800059a8:	f0f43c23          	sd	a5,-232(s0)
    800059ac:	00048593          	mv	a1,s1
    800059b0:	661030ef          	jal	80009810 <__fma>
    800059b4:	00050793          	mv	a5,a0
    800059b8:	000c8613          	mv	a2,s9
    800059bc:	00048593          	mv	a1,s1
    800059c0:	00098513          	mv	a0,s3
    800059c4:	00078c93          	mv	s9,a5
    800059c8:	649030ef          	jal	80009810 <__fma>
    800059cc:	f1043603          	ld	a2,-240(s0)
    800059d0:	00050793          	mv	a5,a0
    800059d4:	00048593          	mv	a1,s1
    800059d8:	000a0513          	mv	a0,s4
    800059dc:	f0f43823          	sd	a5,-240(s0)
    800059e0:	631030ef          	jal	80009810 <__fma>
    800059e4:	f0843603          	ld	a2,-248(s0)
    800059e8:	00050793          	mv	a5,a0
    800059ec:	00048593          	mv	a1,s1
    800059f0:	000a8513          	mv	a0,s5
    800059f4:	f0f43423          	sd	a5,-248(s0)
    800059f8:	619030ef          	jal	80009810 <__fma>
    800059fc:	f0043603          	ld	a2,-256(s0)
    80005a00:	00050793          	mv	a5,a0
    80005a04:	00048593          	mv	a1,s1
    80005a08:	000b0513          	mv	a0,s6
    80005a0c:	f0f43023          	sd	a5,-256(s0)
    80005a10:	601030ef          	jal	80009810 <__fma>
    80005a14:	00050793          	mv	a5,a0
    80005a18:	f7843503          	ld	a0,-136(s0)
    80005a1c:	000c0613          	mv	a2,s8
    80005a20:	00078c13          	mv	s8,a5
    80005a24:	02053483          	ld	s1,32(a0)
    80005a28:	00090513          	mv	a0,s2
    80005a2c:	00048593          	mv	a1,s1
    80005a30:	5e1030ef          	jal	80009810 <__fma>
    80005a34:	00050793          	mv	a5,a0
    80005a38:	000b8613          	mv	a2,s7
    80005a3c:	00048593          	mv	a1,s1
    80005a40:	00098513          	mv	a0,s3
    80005a44:	eef43c23          	sd	a5,-264(s0)
    80005a48:	5c9030ef          	jal	80009810 <__fma>
    80005a4c:	00050793          	mv	a5,a0
    80005a50:	000d0613          	mv	a2,s10
    80005a54:	00048593          	mv	a1,s1
    80005a58:	000a0513          	mv	a0,s4
    80005a5c:	eef43823          	sd	a5,-272(s0)
    80005a60:	5b1030ef          	jal	80009810 <__fma>
    80005a64:	00050793          	mv	a5,a0
    80005a68:	000d8613          	mv	a2,s11
    80005a6c:	00048593          	mv	a1,s1
    80005a70:	000a8513          	mv	a0,s5
    80005a74:	00078d93          	mv	s11,a5
    80005a78:	599030ef          	jal	80009810 <__fma>
    80005a7c:	f6843603          	ld	a2,-152(s0)
    80005a80:	00050793          	mv	a5,a0
    80005a84:	00048593          	mv	a1,s1
    80005a88:	000b0513          	mv	a0,s6
    80005a8c:	ecf43823          	sd	a5,-304(s0)
    80005a90:	581030ef          	jal	80009810 <__fma>
    80005a94:	f8043703          	ld	a4,-128(s0)
    80005a98:	ed843b83          	ld	s7,-296(s0)
    80005a9c:	f6043603          	ld	a2,-160(s0)
    80005aa0:	02873483          	ld	s1,40(a4)
    80005aa4:	000bb903          	ld	s2,0(s7)
    80005aa8:	00050793          	mv	a5,a0
    80005aac:	00048513          	mv	a0,s1
    80005ab0:	00090593          	mv	a1,s2
    80005ab4:	ecf43423          	sd	a5,-312(s0)
    80005ab8:	559030ef          	jal	80009810 <__fma>
    80005abc:	008bb983          	ld	s3,8(s7)
    80005ac0:	f5843603          	ld	a2,-168(s0)
    80005ac4:	00050d13          	mv	s10,a0
    80005ac8:	00098593          	mv	a1,s3
    80005acc:	00048513          	mv	a0,s1
    80005ad0:	541030ef          	jal	80009810 <__fma>
    80005ad4:	010bba83          	ld	s5,16(s7)
    80005ad8:	f5043603          	ld	a2,-176(s0)
    80005adc:	00050a13          	mv	s4,a0
    80005ae0:	000a8593          	mv	a1,s5
    80005ae4:	00048513          	mv	a0,s1
    80005ae8:	529030ef          	jal	80009810 <__fma>
    80005aec:	018bbb03          	ld	s6,24(s7)
    80005af0:	f4843603          	ld	a2,-184(s0)
    80005af4:	00050793          	mv	a5,a0
    80005af8:	000b0593          	mv	a1,s6
    80005afc:	00048513          	mv	a0,s1
    80005b00:	f6f43423          	sd	a5,-152(s0)
    80005b04:	50d030ef          	jal	80009810 <__fma>
    80005b08:	020bbb83          	ld	s7,32(s7)
    80005b0c:	f4043603          	ld	a2,-192(s0)
    80005b10:	00050793          	mv	a5,a0
    80005b14:	000b8593          	mv	a1,s7
    80005b18:	00048513          	mv	a0,s1
    80005b1c:	f6f43023          	sd	a5,-160(s0)
    80005b20:	4f1030ef          	jal	80009810 <__fma>
    80005b24:	f8843683          	ld	a3,-120(s0)
    80005b28:	f3843603          	ld	a2,-200(s0)
    80005b2c:	00050793          	mv	a5,a0
    80005b30:	0286b483          	ld	s1,40(a3)
    80005b34:	00090513          	mv	a0,s2
    80005b38:	f4f43c23          	sd	a5,-168(s0)
    80005b3c:	00048593          	mv	a1,s1
    80005b40:	4d1030ef          	jal	80009810 <__fma>
    80005b44:	f3043603          	ld	a2,-208(s0)
    80005b48:	00050793          	mv	a5,a0
    80005b4c:	00048593          	mv	a1,s1
    80005b50:	00098513          	mv	a0,s3
    80005b54:	f4f43823          	sd	a5,-176(s0)
    80005b58:	4b9030ef          	jal	80009810 <__fma>
    80005b5c:	f2843603          	ld	a2,-216(s0)
    80005b60:	00050793          	mv	a5,a0
    80005b64:	00048593          	mv	a1,s1
    80005b68:	000a8513          	mv	a0,s5
    80005b6c:	f4f43423          	sd	a5,-184(s0)
    80005b70:	4a1030ef          	jal	80009810 <__fma>
    80005b74:	f2043603          	ld	a2,-224(s0)
    80005b78:	00050793          	mv	a5,a0
    80005b7c:	00048593          	mv	a1,s1
    80005b80:	000b0513          	mv	a0,s6
    80005b84:	f4f43023          	sd	a5,-192(s0)
    80005b88:	489030ef          	jal	80009810 <__fma>
    80005b8c:	f1843603          	ld	a2,-232(s0)
    80005b90:	00050793          	mv	a5,a0
    80005b94:	00048593          	mv	a1,s1
    80005b98:	000b8513          	mv	a0,s7
    80005b9c:	f2f43c23          	sd	a5,-200(s0)
    80005ba0:	471030ef          	jal	80009810 <__fma>
    80005ba4:	f7043583          	ld	a1,-144(s0)
    80005ba8:	00050793          	mv	a5,a0
    80005bac:	000c8613          	mv	a2,s9
    80005bb0:	0285b483          	ld	s1,40(a1)
    80005bb4:	00090513          	mv	a0,s2
    80005bb8:	f6f43823          	sd	a5,-144(s0)
    80005bbc:	00048593          	mv	a1,s1
    80005bc0:	451030ef          	jal	80009810 <__fma>
    80005bc4:	f1043603          	ld	a2,-240(s0)
    80005bc8:	00050793          	mv	a5,a0
    80005bcc:	00048593          	mv	a1,s1
    80005bd0:	00098513          	mv	a0,s3
    80005bd4:	f2f43823          	sd	a5,-208(s0)
    80005bd8:	439030ef          	jal	80009810 <__fma>
    80005bdc:	f0843603          	ld	a2,-248(s0)
    80005be0:	00050793          	mv	a5,a0
    80005be4:	00048593          	mv	a1,s1
    80005be8:	000a8513          	mv	a0,s5
    80005bec:	f2f43423          	sd	a5,-216(s0)
    80005bf0:	421030ef          	jal	80009810 <__fma>
    80005bf4:	f0043603          	ld	a2,-256(s0)
    80005bf8:	00050793          	mv	a5,a0
    80005bfc:	00048593          	mv	a1,s1
    80005c00:	000b0513          	mv	a0,s6
    80005c04:	f2f43023          	sd	a5,-224(s0)
    80005c08:	409030ef          	jal	80009810 <__fma>
    80005c0c:	00050793          	mv	a5,a0
    80005c10:	00048593          	mv	a1,s1
    80005c14:	000c0613          	mv	a2,s8
    80005c18:	000b8513          	mv	a0,s7
    80005c1c:	f0f43c23          	sd	a5,-232(s0)
    80005c20:	3f1030ef          	jal	80009810 <__fma>
    80005c24:	00050793          	mv	a5,a0
    80005c28:	f7843503          	ld	a0,-136(s0)
    80005c2c:	ef843603          	ld	a2,-264(s0)
    80005c30:	f6f43c23          	sd	a5,-136(s0)
    80005c34:	02853483          	ld	s1,40(a0)
    80005c38:	00090513          	mv	a0,s2
    80005c3c:	00048593          	mv	a1,s1
    80005c40:	3d1030ef          	jal	80009810 <__fma>
    80005c44:	ef043603          	ld	a2,-272(s0)
    80005c48:	00050793          	mv	a5,a0
    80005c4c:	00048593          	mv	a1,s1
    80005c50:	00098513          	mv	a0,s3
    80005c54:	f0f43823          	sd	a5,-240(s0)
    80005c58:	3b9030ef          	jal	80009810 <__fma>
    80005c5c:	00050793          	mv	a5,a0
    80005c60:	000d8613          	mv	a2,s11
    80005c64:	00048593          	mv	a1,s1
    80005c68:	000a8513          	mv	a0,s5
    80005c6c:	f0f43423          	sd	a5,-248(s0)
    80005c70:	3a1030ef          	jal	80009810 <__fma>
    80005c74:	ed043603          	ld	a2,-304(s0)
    80005c78:	00050793          	mv	a5,a0
    80005c7c:	00048593          	mv	a1,s1
    80005c80:	000b0513          	mv	a0,s6
    80005c84:	f0f43023          	sd	a5,-256(s0)
    80005c88:	389030ef          	jal	80009810 <__fma>
    80005c8c:	ec843603          	ld	a2,-312(s0)
    80005c90:	00050793          	mv	a5,a0
    80005c94:	00048593          	mv	a1,s1
    80005c98:	000b8513          	mv	a0,s7
    80005c9c:	eef43c23          	sd	a5,-264(s0)
    80005ca0:	371030ef          	jal	80009810 <__fma>
    80005ca4:	f8043703          	ld	a4,-128(s0)
    80005ca8:	ee843b03          	ld	s6,-280(s0)
    80005cac:	f8843683          	ld	a3,-120(s0)
    80005cb0:	03070793          	addi	a5,a4,48
    80005cb4:	ea043703          	ld	a4,-352(s0)
    80005cb8:	ed843b83          	ld	s7,-296(s0)
    80005cbc:	ec043e03          	ld	t3,-320(s0)
    80005cc0:	00eb0733          	add	a4,s6,a4
    80005cc4:	eee43423          	sd	a4,-280(s0)
    80005cc8:	03068713          	addi	a4,a3,48
    80005ccc:	f8e43423          	sd	a4,-120(s0)
    80005cd0:	e9043703          	ld	a4,-368(s0)
    80005cd4:	f8f43023          	sd	a5,-128(s0)
    80005cd8:	eea43823          	sd	a0,-272(s0)
    80005cdc:	017e0ab3          	add	s5,t3,s7
    80005ce0:	b2e7e063          	bltu	a5,a4,80005000 <mm_cb+0x2d54>
    80005ce4:	e4043b83          	ld	s7,-448(s0)
    80005ce8:	e3843b03          	ld	s6,-456(s0)
    80005cec:	000a0613          	mv	a2,s4
    80005cf0:	dc043783          	ld	a5,-576(s0)
    80005cf4:	e9043c83          	ld	s9,-368(s0)
    80005cf8:	017784b3          	add	s1,a5,s7
    80005cfc:	e7043783          	ld	a5,-400(s0)
    80005d00:	24fcfa63          	bgeu	s9,a5,80005f54 <mm_cb+0x3ca8>
    80005d04:	e3043c03          	ld	s8,-464(s0)
    80005d08:	f9c43423          	sd	t3,-120(s0)
    80005d0c:	00060d93          	mv	s11,a2
    80005d10:	000c0793          	mv	a5,s8
    80005d14:	f9743023          	sd	s7,-128(s0)
    80005d18:	000c8c13          	mv	s8,s9
    80005d1c:	ef643423          	sd	s6,-280(s0)
    80005d20:	00078c93          	mv	s9,a5
    80005d24:	000c3903          	ld	s2,0(s8)
    80005d28:	0004bb83          	ld	s7,0(s1)
    80005d2c:	000d0613          	mv	a2,s10
    80005d30:	00090513          	mv	a0,s2
    80005d34:	000b8593          	mv	a1,s7
    80005d38:	2d9030ef          	jal	80009810 <__fma>
    80005d3c:	0084bb03          	ld	s6,8(s1)
    80005d40:	000d8613          	mv	a2,s11
    80005d44:	00050d13          	mv	s10,a0
    80005d48:	000b0593          	mv	a1,s6
    80005d4c:	00090513          	mv	a0,s2
    80005d50:	2c1030ef          	jal	80009810 <__fma>
    80005d54:	0104ba83          	ld	s5,16(s1)
    80005d58:	f6843603          	ld	a2,-152(s0)
    80005d5c:	00050d93          	mv	s11,a0
    80005d60:	000a8593          	mv	a1,s5
    80005d64:	00090513          	mv	a0,s2
    80005d68:	2a9030ef          	jal	80009810 <__fma>
    80005d6c:	0184ba03          	ld	s4,24(s1)
    80005d70:	f6043603          	ld	a2,-160(s0)
    80005d74:	00050713          	mv	a4,a0
    80005d78:	000a0593          	mv	a1,s4
    80005d7c:	00090513          	mv	a0,s2
    80005d80:	f6e43423          	sd	a4,-152(s0)
    80005d84:	28d030ef          	jal	80009810 <__fma>
    80005d88:	0204b983          	ld	s3,32(s1)
    80005d8c:	f5843603          	ld	a2,-168(s0)
    80005d90:	00050713          	mv	a4,a0
    80005d94:	00098593          	mv	a1,s3
    80005d98:	00090513          	mv	a0,s2
    80005d9c:	f6e43023          	sd	a4,-160(s0)
    80005da0:	271030ef          	jal	80009810 <__fma>
    80005da4:	000cb903          	ld	s2,0(s9)
    80005da8:	f5043603          	ld	a2,-176(s0)
    80005dac:	00050713          	mv	a4,a0
    80005db0:	00090593          	mv	a1,s2
    80005db4:	000b8513          	mv	a0,s7
    80005db8:	f4e43c23          	sd	a4,-168(s0)
    80005dbc:	255030ef          	jal	80009810 <__fma>
    80005dc0:	f4843603          	ld	a2,-184(s0)
    80005dc4:	00050713          	mv	a4,a0
    80005dc8:	00090593          	mv	a1,s2
    80005dcc:	000b0513          	mv	a0,s6
    80005dd0:	f4e43823          	sd	a4,-176(s0)
    80005dd4:	23d030ef          	jal	80009810 <__fma>
    80005dd8:	f4043603          	ld	a2,-192(s0)
    80005ddc:	00050713          	mv	a4,a0
    80005de0:	00090593          	mv	a1,s2
    80005de4:	000a8513          	mv	a0,s5
    80005de8:	f4e43423          	sd	a4,-184(s0)
    80005dec:	225030ef          	jal	80009810 <__fma>
    80005df0:	f3843603          	ld	a2,-200(s0)
    80005df4:	00050713          	mv	a4,a0
    80005df8:	00090593          	mv	a1,s2
    80005dfc:	000a0513          	mv	a0,s4
    80005e00:	f4e43023          	sd	a4,-192(s0)
    80005e04:	20d030ef          	jal	80009810 <__fma>
    80005e08:	f7043603          	ld	a2,-144(s0)
    80005e0c:	00050713          	mv	a4,a0
    80005e10:	00090593          	mv	a1,s2
    80005e14:	00098513          	mv	a0,s3
    80005e18:	f2e43c23          	sd	a4,-200(s0)
    80005e1c:	1f5030ef          	jal	80009810 <__fma>
    80005e20:	ee043783          	ld	a5,-288(s0)
    80005e24:	f3043603          	ld	a2,-208(s0)
    80005e28:	00050713          	mv	a4,a0
    80005e2c:	00fc06b3          	add	a3,s8,a5
    80005e30:	0006b903          	ld	s2,0(a3)
    80005e34:	000b8513          	mv	a0,s7
    80005e38:	f6e43823          	sd	a4,-144(s0)
    80005e3c:	00090593          	mv	a1,s2
    80005e40:	1d1030ef          	jal	80009810 <__fma>
    80005e44:	f2843603          	ld	a2,-216(s0)
    80005e48:	00050713          	mv	a4,a0
    80005e4c:	00090593          	mv	a1,s2
    80005e50:	000b0513          	mv	a0,s6
    80005e54:	f2e43823          	sd	a4,-208(s0)
    80005e58:	1b9030ef          	jal	80009810 <__fma>
    80005e5c:	f2043603          	ld	a2,-224(s0)
    80005e60:	00050713          	mv	a4,a0
    80005e64:	00090593          	mv	a1,s2
    80005e68:	000a8513          	mv	a0,s5
    80005e6c:	f2e43423          	sd	a4,-216(s0)
    80005e70:	1a1030ef          	jal	80009810 <__fma>
    80005e74:	f1843603          	ld	a2,-232(s0)
    80005e78:	00050713          	mv	a4,a0
    80005e7c:	00090593          	mv	a1,s2
    80005e80:	000a0513          	mv	a0,s4
    80005e84:	f2e43023          	sd	a4,-224(s0)
    80005e88:	189030ef          	jal	80009810 <__fma>
    80005e8c:	f7843603          	ld	a2,-136(s0)
    80005e90:	00050713          	mv	a4,a0
    80005e94:	00090593          	mv	a1,s2
    80005e98:	00098513          	mv	a0,s3
    80005e9c:	f0e43c23          	sd	a4,-232(s0)
    80005ea0:	171030ef          	jal	80009810 <__fma>
    80005ea4:	ee043783          	ld	a5,-288(s0)
    80005ea8:	f1043603          	ld	a2,-240(s0)
    80005eac:	00050713          	mv	a4,a0
    80005eb0:	00fc86b3          	add	a3,s9,a5
    80005eb4:	0006b903          	ld	s2,0(a3)
    80005eb8:	000b8513          	mv	a0,s7
    80005ebc:	f6e43c23          	sd	a4,-136(s0)
    80005ec0:	00090593          	mv	a1,s2
    80005ec4:	14d030ef          	jal	80009810 <__fma>
    80005ec8:	f0843603          	ld	a2,-248(s0)
    80005ecc:	00050713          	mv	a4,a0
    80005ed0:	00090593          	mv	a1,s2
    80005ed4:	000b0513          	mv	a0,s6
    80005ed8:	f0e43823          	sd	a4,-240(s0)
    80005edc:	135030ef          	jal	80009810 <__fma>
    80005ee0:	f0043603          	ld	a2,-256(s0)
    80005ee4:	00050713          	mv	a4,a0
    80005ee8:	00090593          	mv	a1,s2
    80005eec:	000a8513          	mv	a0,s5
    80005ef0:	f0e43423          	sd	a4,-248(s0)
    80005ef4:	11d030ef          	jal	80009810 <__fma>
    80005ef8:	ef843603          	ld	a2,-264(s0)
    80005efc:	00050713          	mv	a4,a0
    80005f00:	00090593          	mv	a1,s2
    80005f04:	000a0513          	mv	a0,s4
    80005f08:	f0e43023          	sd	a4,-256(s0)
    80005f0c:	105030ef          	jal	80009810 <__fma>
    80005f10:	ef043603          	ld	a2,-272(s0)
    80005f14:	00050713          	mv	a4,a0
    80005f18:	00090593          	mv	a1,s2
    80005f1c:	00098513          	mv	a0,s3
    80005f20:	eee43c23          	sd	a4,-264(s0)
    80005f24:	0ed030ef          	jal	80009810 <__fma>
    80005f28:	ea843783          	ld	a5,-344(s0)
    80005f2c:	008c0c13          	addi	s8,s8,8
    80005f30:	eea43823          	sd	a0,-272(s0)
    80005f34:	00f484b3          	add	s1,s1,a5
    80005f38:	e7043783          	ld	a5,-400(s0)
    80005f3c:	008c8c93          	addi	s9,s9,8
    80005f40:	defc62e3          	bltu	s8,a5,80005d24 <mm_cb+0x3a78>
    80005f44:	f8843e03          	ld	t3,-120(s0)
    80005f48:	f8043b83          	ld	s7,-128(s0)
    80005f4c:	ee843b03          	ld	s6,-280(s0)
    80005f50:	000d8613          	mv	a2,s11
    80005f54:	f6843783          	ld	a5,-152(s0)
    80005f58:	01ab3023          	sd	s10,0(s6)
    80005f5c:	00cb3423          	sd	a2,8(s6)
    80005f60:	00fb3823          	sd	a5,16(s6)
    80005f64:	f6043783          	ld	a5,-160(s0)
    80005f68:	028b8b93          	addi	s7,s7,40
    80005f6c:	028b0b13          	addi	s6,s6,40
    80005f70:	fefb3823          	sd	a5,-16(s6)
    80005f74:	f5843783          	ld	a5,-168(s0)
    80005f78:	fefb3c23          	sd	a5,-8(s6)
    80005f7c:	f5043783          	ld	a5,-176(s0)
    80005f80:	0afb3023          	sd	a5,160(s6)
    80005f84:	f4843783          	ld	a5,-184(s0)
    80005f88:	0afb3423          	sd	a5,168(s6)
    80005f8c:	f4043783          	ld	a5,-192(s0)
    80005f90:	0afb3823          	sd	a5,176(s6)
    80005f94:	f3843783          	ld	a5,-200(s0)
    80005f98:	0afb3c23          	sd	a5,184(s6)
    80005f9c:	f7043783          	ld	a5,-144(s0)
    80005fa0:	0cfb3023          	sd	a5,192(s6)
    80005fa4:	f3043783          	ld	a5,-208(s0)
    80005fa8:	16fb3423          	sd	a5,360(s6)
    80005fac:	f2843783          	ld	a5,-216(s0)
    80005fb0:	16fb3823          	sd	a5,368(s6)
    80005fb4:	f2043783          	ld	a5,-224(s0)
    80005fb8:	16fb3c23          	sd	a5,376(s6)
    80005fbc:	f1843783          	ld	a5,-232(s0)
    80005fc0:	18fb3023          	sd	a5,384(s6)
    80005fc4:	f7843783          	ld	a5,-136(s0)
    80005fc8:	18fb3423          	sd	a5,392(s6)
    80005fcc:	f1043783          	ld	a5,-240(s0)
    80005fd0:	22fb3823          	sd	a5,560(s6)
    80005fd4:	f0843783          	ld	a5,-248(s0)
    80005fd8:	22fb3c23          	sd	a5,568(s6)
    80005fdc:	f0043783          	ld	a5,-256(s0)
    80005fe0:	24fb3023          	sd	a5,576(s6)
    80005fe4:	ef843783          	ld	a5,-264(s0)
    80005fe8:	24fb3423          	sd	a5,584(s6)
    80005fec:	ef043783          	ld	a5,-272(s0)
    80005ff0:	24fb3823          	sd	a5,592(s6)
    80005ff4:	e6843783          	ld	a5,-408(s0)
    80005ff8:	01778463          	beq	a5,s7,80006000 <mm_cb+0x3d54>
    80005ffc:	f3dfe06f          	j	80004f38 <mm_cb+0x2c8c>
    80006000:	f9c43423          	sd	t3,-120(s0)
    80006004:	01900793          	li	a5,25
    80006008:	c8843903          	ld	s2,-888(s0)
    8000600c:	e1043a83          	ld	s5,-496(s0)
    80006010:	c9043a03          	ld	s4,-880(s0)
    80006014:	00f13023          	sd	a5,0(sp)
    80006018:	e6843783          	ld	a5,-408(s0)
    8000601c:	e4843703          	ld	a4,-440(s0)
    80006020:	e5843803          	ld	a6,-424(s0)
    80006024:	d5843603          	ld	a2,-680(s0)
    80006028:	000a8693          	mv	a3,s5
    8000602c:	00090893          	mv	a7,s2
    80006030:	00000593          	li	a1,0
    80006034:	00400513          	li	a0,4
    80006038:	fc9fb0ef          	jal	80002000 <mm_naive>
    8000603c:	d1843783          	ld	a5,-744(s0)
    80006040:	e1843703          	ld	a4,-488(s0)
    80006044:	de843683          	ld	a3,-536(s0)
    80006048:	064a0a13          	addi	s4,s4,100
    8000604c:	00e78ab3          	add	s5,a5,a4
    80006050:	e3043703          	ld	a4,-464(s0)
    80006054:	f8843e03          	ld	t3,-120(s0)
    80006058:	32090913          	addi	s2,s2,800
    8000605c:	00e78733          	add	a4,a5,a4
    80006060:	e7043783          	ld	a5,-400(s0)
    80006064:	00d787b3          	add	a5,a5,a3
    80006068:	e6f43823          	sd	a5,-400(s0)
    8000606c:	25800793          	li	a5,600
    80006070:	00fa0463          	beq	s4,a5,80006078 <mm_cb+0x3dcc>
    80006074:	e99fe06f          	j	80004f0c <mm_cb+0x2c60>
    80006078:	f9c43423          	sd	t3,-120(s0)
    8000607c:	01900793          	li	a5,25
    80006080:	cb043c03          	ld	s8,-848(s0)
    80006084:	ca043983          	ld	s3,-864(s0)
    80006088:	ca843483          	ld	s1,-856(s0)
    8000608c:	c9843d83          	ld	s11,-872(s0)
    80006090:	00f13023          	sd	a5,0(sp)
    80006094:	df043783          	ld	a5,-528(s0)
    80006098:	e5843803          	ld	a6,-424(s0)
    8000609c:	e4843703          	ld	a4,-440(s0)
    800060a0:	da843683          	ld	a3,-600(s0)
    800060a4:	d5843603          	ld	a2,-680(s0)
    800060a8:	00fc08b3          	add	a7,s8,a5
    800060ac:	01900593          	li	a1,25
    800060b0:	00098793          	mv	a5,s3
    800060b4:	00000513          	li	a0,0
    800060b8:	f49fb0ef          	jal	80002000 <mm_naive>
    800060bc:	f8843e03          	ld	t3,-120(s0)
    800060c0:	ff0fd06f          	j	800038b0 <mm_cb+0x1604>
    800060c4:	db843783          	ld	a5,-584(s0)
    800060c8:	e0843703          	ld	a4,-504(s0)
    800060cc:	00fa87b3          	add	a5,s5,a5
    800060d0:	daf43423          	sd	a5,-600(s0)
    800060d4:	e2843783          	ld	a5,-472(s0)
    800060d8:	00f76463          	bltu	a4,a5,800060e0 <mm_cb+0x3e34>
    800060dc:	809fd06f          	j	800038e4 <mm_cb+0x1638>
    800060e0:	e2043783          	ld	a5,-480(s0)
    800060e4:	00079463          	bnez	a5,800060ec <mm_cb+0x3e40>
    800060e8:	ffcfd06f          	j	800038e4 <mm_cb+0x1638>
    800060ec:	ce043783          	ld	a5,-800(s0)
    800060f0:	d2843c83          	ld	s9,-728(s0)
    800060f4:	016d88b3          	add	a7,s11,s6
    800060f8:	00000b93          	li	s7,0
    800060fc:	000c0a13          	mv	s4,s8
    80006100:	40fa8ab3          	sub	s5,s5,a5
    80006104:	000b8493          	mv	s1,s7
    80006108:	d3243823          	sd	s2,-720(s0)
    8000610c:	d1b43423          	sd	s11,-760(s0)
    80006110:	00088c13          	mv	s8,a7
    80006114:	e2043783          	ld	a5,-480(s0)
    80006118:	40978933          	sub	s2,a5,s1
    8000611c:	01800793          	li	a5,24
    80006120:	0127f463          	bgeu	a5,s2,80006128 <mm_cb+0x3e7c>
    80006124:	01800913          	li	s2,24
    80006128:	00600793          	li	a5,6
    8000612c:	02f95733          	divu	a4,s2,a5
    80006130:	00391793          	slli	a5,s2,0x3
    80006134:	00fa87b3          	add	a5,s5,a5
    80006138:	e6f43823          	sd	a5,-400(s0)
    8000613c:	e5843783          	ld	a5,-424(s0)
    80006140:	d6843683          	ld	a3,-664(s0)
    80006144:	00600313          	li	t1,6
    80006148:	cc943423          	sd	s1,-824(s0)
    8000614c:	019686b3          	add	a3,a3,s9
    80006150:	d2d43c23          	sd	a3,-712(s0)
    80006154:	000b0993          	mv	s3,s6
    80006158:	000a8693          	mv	a3,s5
    8000615c:	cd643023          	sd	s6,-832(s0)
    80006160:	cb543c23          	sd	s5,-840(s0)
    80006164:	00030493          	mv	s1,t1
    80006168:	02e78633          	mul	a2,a5,a4
    8000616c:	00171793          	slli	a5,a4,0x1
    80006170:	00e787b3          	add	a5,a5,a4
    80006174:	00479793          	slli	a5,a5,0x4
    80006178:	00fa8eb3          	add	t4,s5,a5
    8000617c:	00161793          	slli	a5,a2,0x1
    80006180:	00c787b3          	add	a5,a5,a2
    80006184:	00479793          	slli	a5,a5,0x4
    80006188:	daf43823          	sd	a5,-592(s0)
    8000618c:	00400793          	li	a5,4
    80006190:	0147e463          	bltu	a5,s4,80006198 <mm_cb+0x3eec>
    80006194:	1840106f          	j	80007318 <mm_cb+0x506c>
    80006198:	d5043783          	ld	a5,-688(s0)
    8000619c:	000c8a93          	mv	s5,s9
    800061a0:	e6043423          	sd	zero,-408(s0)
    800061a4:	01378d33          	add	s10,a5,s3
    800061a8:	e5043783          	ld	a5,-432(s0)
    800061ac:	cb243823          	sd	s2,-848(s0)
    800061b0:	cb443423          	sd	s4,-856(s0)
    800061b4:	00d78733          	add	a4,a5,a3
    800061b8:	01d787b3          	add	a5,a5,t4
    800061bc:	dce43423          	sd	a4,-568(s0)
    800061c0:	dcf43823          	sd	a5,-560(s0)
    800061c4:	cb943023          	sd	s9,-864(s0)
    800061c8:	c9343c23          	sd	s3,-872(s0)
    800061cc:	e9d43823          	sd	t4,-368(s0)
    800061d0:	ded43023          	sd	a3,-544(s0)
    800061d4:	000d0793          	mv	a5,s10
    800061d8:	00098713          	mv	a4,s3
    800061dc:	c8943823          	sd	s1,-880(s0)
    800061e0:	c9843423          	sd	s8,-888(s0)
    800061e4:	e0043683          	ld	a3,-512(s0)
    800061e8:	00073d03          	ld	s10,0(a4)
    800061ec:	00873603          	ld	a2,8(a4)
    800061f0:	00d70933          	add	s2,a4,a3
    800061f4:	00d789b3          	add	s3,a5,a3
    800061f8:	01073683          	ld	a3,16(a4)
    800061fc:	f6d43423          	sd	a3,-152(s0)
    80006200:	01873683          	ld	a3,24(a4)
    80006204:	f6d43023          	sd	a3,-160(s0)
    80006208:	02073683          	ld	a3,32(a4)
    8000620c:	f4d43c23          	sd	a3,-168(s0)
    80006210:	0007b683          	ld	a3,0(a5)
    80006214:	f4d43823          	sd	a3,-176(s0)
    80006218:	0087b683          	ld	a3,8(a5)
    8000621c:	f4d43423          	sd	a3,-184(s0)
    80006220:	0107b683          	ld	a3,16(a5)
    80006224:	f4d43023          	sd	a3,-192(s0)
    80006228:	0187b683          	ld	a3,24(a5)
    8000622c:	f2d43c23          	sd	a3,-200(s0)
    80006230:	0207b683          	ld	a3,32(a5)
    80006234:	f6d43823          	sd	a3,-144(s0)
    80006238:	00093683          	ld	a3,0(s2)
    8000623c:	f2d43823          	sd	a3,-208(s0)
    80006240:	00893683          	ld	a3,8(s2)
    80006244:	f2d43423          	sd	a3,-216(s0)
    80006248:	01093683          	ld	a3,16(s2)
    8000624c:	f2d43023          	sd	a3,-224(s0)
    80006250:	01893683          	ld	a3,24(s2)
    80006254:	f0d43c23          	sd	a3,-232(s0)
    80006258:	02093683          	ld	a3,32(s2)
    8000625c:	f6d43c23          	sd	a3,-136(s0)
    80006260:	0009b683          	ld	a3,0(s3)
    80006264:	f0d43823          	sd	a3,-240(s0)
    80006268:	0089b683          	ld	a3,8(s3)
    8000626c:	f0d43423          	sd	a3,-248(s0)
    80006270:	0109b683          	ld	a3,16(s3)
    80006274:	de043b83          	ld	s7,-544(s0)
    80006278:	ef543423          	sd	s5,-280(s0)
    8000627c:	f0d43023          	sd	a3,-256(s0)
    80006280:	0189b683          	ld	a3,24(s3)
    80006284:	eed43c23          	sd	a3,-264(s0)
    80006288:	0209b683          	ld	a3,32(s3)
    8000628c:	eed43823          	sd	a3,-272(s0)
    80006290:	e9043683          	ld	a3,-368(s0)
    80006294:	52dbf6e3          	bgeu	s7,a3,80006fc0 <mm_cb+0x4d14>
    80006298:	ea843683          	ld	a3,-344(s0)
    8000629c:	dc843483          	ld	s1,-568(s0)
    800062a0:	00060a13          	mv	s4,a2
    800062a4:	01568b33          	add	s6,a3,s5
    800062a8:	f9743423          	sd	s7,-120(s0)
    800062ac:	e5343023          	sd	s3,-448(s0)
    800062b0:	e3243c23          	sd	s2,-456(s0)
    800062b4:	e3543823          	sd	s5,-464(s0)
    800062b8:	e0f43c23          	sd	a5,-488(s0)
    800062bc:	e0e43823          	sd	a4,-496(s0)
    800062c0:	f8943023          	sd	s1,-128(s0)
    800062c4:	ee843a83          	ld	s5,-280(s0)
    800062c8:	f8843783          	ld	a5,-120(s0)
    800062cc:	eb843683          	ld	a3,-328(s0)
    800062d0:	000abc83          	ld	s9,0(s5)
    800062d4:	0007b983          	ld	s3,0(a5)
    800062d8:	016e04b3          	add	s1,t3,s6
    800062dc:	009e0bb3          	add	s7,t3,s1
    800062e0:	015686b3          	add	a3,a3,s5
    800062e4:	000d0613          	mv	a2,s10
    800062e8:	000c8593          	mv	a1,s9
    800062ec:	00098513          	mv	a0,s3
    800062f0:	015e0933          	add	s2,t3,s5
    800062f4:	edc43023          	sd	t3,-320(s0)
    800062f8:	ecd43823          	sd	a3,-304(s0)
    800062fc:	ed743c23          	sd	s7,-296(s0)
    80006300:	510030ef          	jal	80009810 <__fma>
    80006304:	008abc03          	ld	s8,8(s5)
    80006308:	00050d93          	mv	s11,a0
    8000630c:	000a0613          	mv	a2,s4
    80006310:	000c0593          	mv	a1,s8
    80006314:	00098513          	mv	a0,s3
    80006318:	4f8030ef          	jal	80009810 <__fma>
    8000631c:	010abb83          	ld	s7,16(s5)
    80006320:	f6843603          	ld	a2,-152(s0)
    80006324:	00050d13          	mv	s10,a0
    80006328:	000b8593          	mv	a1,s7
    8000632c:	00098513          	mv	a0,s3
    80006330:	4e0030ef          	jal	80009810 <__fma>
    80006334:	000a8a13          	mv	s4,s5
    80006338:	018aba83          	ld	s5,24(s5)
    8000633c:	f6043603          	ld	a2,-160(s0)
    80006340:	00050793          	mv	a5,a0
    80006344:	000a8593          	mv	a1,s5
    80006348:	00098513          	mv	a0,s3
    8000634c:	f6f43423          	sd	a5,-152(s0)
    80006350:	4c0030ef          	jal	80009810 <__fma>
    80006354:	020a3a03          	ld	s4,32(s4)
    80006358:	f5843603          	ld	a2,-168(s0)
    8000635c:	00050793          	mv	a5,a0
    80006360:	000a0593          	mv	a1,s4
    80006364:	00098513          	mv	a0,s3
    80006368:	f6f43023          	sd	a5,-160(s0)
    8000636c:	4a4030ef          	jal	80009810 <__fma>
    80006370:	f8043683          	ld	a3,-128(s0)
    80006374:	f5043603          	ld	a2,-176(s0)
    80006378:	00050793          	mv	a5,a0
    8000637c:	0006b983          	ld	s3,0(a3)
    80006380:	000c8513          	mv	a0,s9
    80006384:	f4f43c23          	sd	a5,-168(s0)
    80006388:	00098593          	mv	a1,s3
    8000638c:	484030ef          	jal	80009810 <__fma>
    80006390:	f4843603          	ld	a2,-184(s0)
    80006394:	00050793          	mv	a5,a0
    80006398:	00098593          	mv	a1,s3
    8000639c:	000c0513          	mv	a0,s8
    800063a0:	f4f43823          	sd	a5,-176(s0)
    800063a4:	46c030ef          	jal	80009810 <__fma>
    800063a8:	f4043603          	ld	a2,-192(s0)
    800063ac:	00050793          	mv	a5,a0
    800063b0:	00098593          	mv	a1,s3
    800063b4:	000b8513          	mv	a0,s7
    800063b8:	f4f43423          	sd	a5,-184(s0)
    800063bc:	454030ef          	jal	80009810 <__fma>
    800063c0:	f3843603          	ld	a2,-200(s0)
    800063c4:	00050793          	mv	a5,a0
    800063c8:	00098593          	mv	a1,s3
    800063cc:	000a8513          	mv	a0,s5
    800063d0:	f4f43023          	sd	a5,-192(s0)
    800063d4:	43c030ef          	jal	80009810 <__fma>
    800063d8:	f7043603          	ld	a2,-144(s0)
    800063dc:	00050793          	mv	a5,a0
    800063e0:	00098593          	mv	a1,s3
    800063e4:	000a0513          	mv	a0,s4
    800063e8:	f2f43c23          	sd	a5,-200(s0)
    800063ec:	424030ef          	jal	80009810 <__fma>
    800063f0:	f8843703          	ld	a4,-120(s0)
    800063f4:	ee043583          	ld	a1,-288(s0)
    800063f8:	00050793          	mv	a5,a0
    800063fc:	000c8513          	mv	a0,s9
    80006400:	00b705b3          	add	a1,a4,a1
    80006404:	f6b43823          	sd	a1,-144(s0)
    80006408:	0005b983          	ld	s3,0(a1)
    8000640c:	f3043603          	ld	a2,-208(s0)
    80006410:	f2f43823          	sd	a5,-208(s0)
    80006414:	00098593          	mv	a1,s3
    80006418:	3f8030ef          	jal	80009810 <__fma>
    8000641c:	f2843603          	ld	a2,-216(s0)
    80006420:	00050793          	mv	a5,a0
    80006424:	00098593          	mv	a1,s3
    80006428:	000c0513          	mv	a0,s8
    8000642c:	f2f43423          	sd	a5,-216(s0)
    80006430:	3e0030ef          	jal	80009810 <__fma>
    80006434:	f2043603          	ld	a2,-224(s0)
    80006438:	00050793          	mv	a5,a0
    8000643c:	00098593          	mv	a1,s3
    80006440:	000b8513          	mv	a0,s7
    80006444:	f2f43023          	sd	a5,-224(s0)
    80006448:	3c8030ef          	jal	80009810 <__fma>
    8000644c:	f1843603          	ld	a2,-232(s0)
    80006450:	00050793          	mv	a5,a0
    80006454:	00098593          	mv	a1,s3
    80006458:	000a8513          	mv	a0,s5
    8000645c:	f0f43c23          	sd	a5,-232(s0)
    80006460:	3b0030ef          	jal	80009810 <__fma>
    80006464:	f7843603          	ld	a2,-136(s0)
    80006468:	00050793          	mv	a5,a0
    8000646c:	00098593          	mv	a1,s3
    80006470:	000a0513          	mv	a0,s4
    80006474:	ecf43423          	sd	a5,-312(s0)
    80006478:	398030ef          	jal	80009810 <__fma>
    8000647c:	f8043683          	ld	a3,-128(s0)
    80006480:	00050793          	mv	a5,a0
    80006484:	ee043503          	ld	a0,-288(s0)
    80006488:	f1043603          	ld	a2,-240(s0)
    8000648c:	00a68533          	add	a0,a3,a0
    80006490:	00053983          	ld	s3,0(a0)
    80006494:	f6a43c23          	sd	a0,-136(s0)
    80006498:	000c8513          	mv	a0,s9
    8000649c:	00098593          	mv	a1,s3
    800064a0:	00078c93          	mv	s9,a5
    800064a4:	36c030ef          	jal	80009810 <__fma>
    800064a8:	f0843603          	ld	a2,-248(s0)
    800064ac:	00050793          	mv	a5,a0
    800064b0:	00098593          	mv	a1,s3
    800064b4:	000c0513          	mv	a0,s8
    800064b8:	f0f43823          	sd	a5,-240(s0)
    800064bc:	354030ef          	jal	80009810 <__fma>
    800064c0:	f0043603          	ld	a2,-256(s0)
    800064c4:	00050793          	mv	a5,a0
    800064c8:	00098593          	mv	a1,s3
    800064cc:	000b8513          	mv	a0,s7
    800064d0:	f0f43423          	sd	a5,-248(s0)
    800064d4:	33c030ef          	jal	80009810 <__fma>
    800064d8:	ef843603          	ld	a2,-264(s0)
    800064dc:	00050793          	mv	a5,a0
    800064e0:	00098593          	mv	a1,s3
    800064e4:	000a8513          	mv	a0,s5
    800064e8:	f0f43023          	sd	a5,-256(s0)
    800064ec:	324030ef          	jal	80009810 <__fma>
    800064f0:	ef043603          	ld	a2,-272(s0)
    800064f4:	00050793          	mv	a5,a0
    800064f8:	00098593          	mv	a1,s3
    800064fc:	000a0513          	mv	a0,s4
    80006500:	eef43c23          	sd	a5,-264(s0)
    80006504:	30c030ef          	jal	80009810 <__fma>
    80006508:	f8843703          	ld	a4,-120(s0)
    8000650c:	000b3a03          	ld	s4,0(s6)
    80006510:	00050793          	mv	a5,a0
    80006514:	00873983          	ld	s3,8(a4)
    80006518:	000d8613          	mv	a2,s11
    8000651c:	000a0593          	mv	a1,s4
    80006520:	00098513          	mv	a0,s3
    80006524:	00078d93          	mv	s11,a5
    80006528:	2e8030ef          	jal	80009810 <__fma>
    8000652c:	008b3a83          	ld	s5,8(s6)
    80006530:	00050793          	mv	a5,a0
    80006534:	000d0613          	mv	a2,s10
    80006538:	000a8593          	mv	a1,s5
    8000653c:	00098513          	mv	a0,s3
    80006540:	00078d13          	mv	s10,a5
    80006544:	2cc030ef          	jal	80009810 <__fma>
    80006548:	010b3b83          	ld	s7,16(s6)
    8000654c:	f6843603          	ld	a2,-152(s0)
    80006550:	00050793          	mv	a5,a0
    80006554:	000b8593          	mv	a1,s7
    80006558:	00098513          	mv	a0,s3
    8000655c:	f6f43423          	sd	a5,-152(s0)
    80006560:	2b0030ef          	jal	80009810 <__fma>
    80006564:	018b3c03          	ld	s8,24(s6)
    80006568:	f6043603          	ld	a2,-160(s0)
    8000656c:	00050793          	mv	a5,a0
    80006570:	000c0593          	mv	a1,s8
    80006574:	00098513          	mv	a0,s3
    80006578:	f6f43023          	sd	a5,-160(s0)
    8000657c:	294030ef          	jal	80009810 <__fma>
    80006580:	020b3b03          	ld	s6,32(s6)
    80006584:	f5843603          	ld	a2,-168(s0)
    80006588:	00050793          	mv	a5,a0
    8000658c:	000b0593          	mv	a1,s6
    80006590:	00098513          	mv	a0,s3
    80006594:	f4f43c23          	sd	a5,-168(s0)
    80006598:	278030ef          	jal	80009810 <__fma>
    8000659c:	f8043683          	ld	a3,-128(s0)
    800065a0:	f5043603          	ld	a2,-176(s0)
    800065a4:	00050793          	mv	a5,a0
    800065a8:	0086b983          	ld	s3,8(a3)
    800065ac:	000a0513          	mv	a0,s4
    800065b0:	f4f43823          	sd	a5,-176(s0)
    800065b4:	00098593          	mv	a1,s3
    800065b8:	258030ef          	jal	80009810 <__fma>
    800065bc:	f4843603          	ld	a2,-184(s0)
    800065c0:	00050793          	mv	a5,a0
    800065c4:	00098593          	mv	a1,s3
    800065c8:	000a8513          	mv	a0,s5
    800065cc:	f4f43423          	sd	a5,-184(s0)
    800065d0:	240030ef          	jal	80009810 <__fma>
    800065d4:	f4043603          	ld	a2,-192(s0)
    800065d8:	00050793          	mv	a5,a0
    800065dc:	00098593          	mv	a1,s3
    800065e0:	000b8513          	mv	a0,s7
    800065e4:	f4f43023          	sd	a5,-192(s0)
    800065e8:	228030ef          	jal	80009810 <__fma>
    800065ec:	f3843603          	ld	a2,-200(s0)
    800065f0:	00050793          	mv	a5,a0
    800065f4:	00098593          	mv	a1,s3
    800065f8:	000c0513          	mv	a0,s8
    800065fc:	f2f43c23          	sd	a5,-200(s0)
    80006600:	210030ef          	jal	80009810 <__fma>
    80006604:	f3043603          	ld	a2,-208(s0)
    80006608:	00050793          	mv	a5,a0
    8000660c:	00098593          	mv	a1,s3
    80006610:	000b0513          	mv	a0,s6
    80006614:	f2f43823          	sd	a5,-208(s0)
    80006618:	1f8030ef          	jal	80009810 <__fma>
    8000661c:	f7043583          	ld	a1,-144(s0)
    80006620:	f2843603          	ld	a2,-216(s0)
    80006624:	00050793          	mv	a5,a0
    80006628:	0085b983          	ld	s3,8(a1)
    8000662c:	000a0513          	mv	a0,s4
    80006630:	f2f43423          	sd	a5,-216(s0)
    80006634:	00098593          	mv	a1,s3
    80006638:	1d8030ef          	jal	80009810 <__fma>
    8000663c:	f2043603          	ld	a2,-224(s0)
    80006640:	00050793          	mv	a5,a0
    80006644:	00098593          	mv	a1,s3
    80006648:	000a8513          	mv	a0,s5
    8000664c:	f2f43023          	sd	a5,-224(s0)
    80006650:	1c0030ef          	jal	80009810 <__fma>
    80006654:	f1843603          	ld	a2,-232(s0)
    80006658:	00050793          	mv	a5,a0
    8000665c:	00098593          	mv	a1,s3
    80006660:	000b8513          	mv	a0,s7
    80006664:	f0f43c23          	sd	a5,-232(s0)
    80006668:	1a8030ef          	jal	80009810 <__fma>
    8000666c:	ec843603          	ld	a2,-312(s0)
    80006670:	00050793          	mv	a5,a0
    80006674:	00098593          	mv	a1,s3
    80006678:	000c0513          	mv	a0,s8
    8000667c:	eef43823          	sd	a5,-272(s0)
    80006680:	190030ef          	jal	80009810 <__fma>
    80006684:	00050793          	mv	a5,a0
    80006688:	000c8613          	mv	a2,s9
    8000668c:	00098593          	mv	a1,s3
    80006690:	000b0513          	mv	a0,s6
    80006694:	00078c93          	mv	s9,a5
    80006698:	178030ef          	jal	80009810 <__fma>
    8000669c:	00050793          	mv	a5,a0
    800066a0:	f7843503          	ld	a0,-136(s0)
    800066a4:	00853983          	ld	s3,8(a0)
    800066a8:	f1043603          	ld	a2,-240(s0)
    800066ac:	000a0513          	mv	a0,s4
    800066b0:	00098593          	mv	a1,s3
    800066b4:	f0f43823          	sd	a5,-240(s0)
    800066b8:	158030ef          	jal	80009810 <__fma>
    800066bc:	f0843603          	ld	a2,-248(s0)
    800066c0:	00050793          	mv	a5,a0
    800066c4:	00098593          	mv	a1,s3
    800066c8:	000a8513          	mv	a0,s5
    800066cc:	f0f43423          	sd	a5,-248(s0)
    800066d0:	140030ef          	jal	80009810 <__fma>
    800066d4:	f0043603          	ld	a2,-256(s0)
    800066d8:	00050793          	mv	a5,a0
    800066dc:	00098593          	mv	a1,s3
    800066e0:	000b8513          	mv	a0,s7
    800066e4:	f0f43023          	sd	a5,-256(s0)
    800066e8:	128030ef          	jal	80009810 <__fma>
    800066ec:	ef843603          	ld	a2,-264(s0)
    800066f0:	00050793          	mv	a5,a0
    800066f4:	00098593          	mv	a1,s3
    800066f8:	000c0513          	mv	a0,s8
    800066fc:	00078c13          	mv	s8,a5
    80006700:	110030ef          	jal	80009810 <__fma>
    80006704:	00050793          	mv	a5,a0
    80006708:	000d8613          	mv	a2,s11
    8000670c:	00098593          	mv	a1,s3
    80006710:	000b0513          	mv	a0,s6
    80006714:	00078d93          	mv	s11,a5
    80006718:	0f8030ef          	jal	80009810 <__fma>
    8000671c:	f8843703          	ld	a4,-120(s0)
    80006720:	00093a03          	ld	s4,0(s2)
    80006724:	00050793          	mv	a5,a0
    80006728:	01073983          	ld	s3,16(a4)
    8000672c:	000d0613          	mv	a2,s10
    80006730:	000a0593          	mv	a1,s4
    80006734:	00098513          	mv	a0,s3
    80006738:	00078d13          	mv	s10,a5
    8000673c:	0d4030ef          	jal	80009810 <__fma>
    80006740:	00893a83          	ld	s5,8(s2)
    80006744:	f6843603          	ld	a2,-152(s0)
    80006748:	00050793          	mv	a5,a0
    8000674c:	000a8593          	mv	a1,s5
    80006750:	00098513          	mv	a0,s3
    80006754:	f6f43423          	sd	a5,-152(s0)
    80006758:	0b8030ef          	jal	80009810 <__fma>
    8000675c:	01093b03          	ld	s6,16(s2)
    80006760:	f6043603          	ld	a2,-160(s0)
    80006764:	00050793          	mv	a5,a0
    80006768:	000b0593          	mv	a1,s6
    8000676c:	00098513          	mv	a0,s3
    80006770:	f6f43023          	sd	a5,-160(s0)
    80006774:	09c030ef          	jal	80009810 <__fma>
    80006778:	01893b83          	ld	s7,24(s2)
    8000677c:	f5843603          	ld	a2,-168(s0)
    80006780:	00050793          	mv	a5,a0
    80006784:	000b8593          	mv	a1,s7
    80006788:	00098513          	mv	a0,s3
    8000678c:	f4f43c23          	sd	a5,-168(s0)
    80006790:	080030ef          	jal	80009810 <__fma>
    80006794:	02093903          	ld	s2,32(s2)
    80006798:	f5043603          	ld	a2,-176(s0)
    8000679c:	00050793          	mv	a5,a0
    800067a0:	00090593          	mv	a1,s2
    800067a4:	00098513          	mv	a0,s3
    800067a8:	f4f43823          	sd	a5,-176(s0)
    800067ac:	064030ef          	jal	80009810 <__fma>
    800067b0:	f8043683          	ld	a3,-128(s0)
    800067b4:	f4843603          	ld	a2,-184(s0)
    800067b8:	00050793          	mv	a5,a0
    800067bc:	0106b983          	ld	s3,16(a3)
    800067c0:	000a0513          	mv	a0,s4
    800067c4:	f4f43423          	sd	a5,-184(s0)
    800067c8:	00098593          	mv	a1,s3
    800067cc:	044030ef          	jal	80009810 <__fma>
    800067d0:	f4043603          	ld	a2,-192(s0)
    800067d4:	00050793          	mv	a5,a0
    800067d8:	00098593          	mv	a1,s3
    800067dc:	000a8513          	mv	a0,s5
    800067e0:	f4f43023          	sd	a5,-192(s0)
    800067e4:	02c030ef          	jal	80009810 <__fma>
    800067e8:	f3843603          	ld	a2,-200(s0)
    800067ec:	00050793          	mv	a5,a0
    800067f0:	00098593          	mv	a1,s3
    800067f4:	000b0513          	mv	a0,s6
    800067f8:	f2f43c23          	sd	a5,-200(s0)
    800067fc:	014030ef          	jal	80009810 <__fma>
    80006800:	f3043603          	ld	a2,-208(s0)
    80006804:	00050793          	mv	a5,a0
    80006808:	00098593          	mv	a1,s3
    8000680c:	000b8513          	mv	a0,s7
    80006810:	f2f43823          	sd	a5,-208(s0)
    80006814:	7fd020ef          	jal	80009810 <__fma>
    80006818:	f2843603          	ld	a2,-216(s0)
    8000681c:	00050793          	mv	a5,a0
    80006820:	00098593          	mv	a1,s3
    80006824:	00090513          	mv	a0,s2
    80006828:	f2f43423          	sd	a5,-216(s0)
    8000682c:	7e5020ef          	jal	80009810 <__fma>
    80006830:	f7043583          	ld	a1,-144(s0)
    80006834:	f2043603          	ld	a2,-224(s0)
    80006838:	00050793          	mv	a5,a0
    8000683c:	0105b983          	ld	s3,16(a1)
    80006840:	000a0513          	mv	a0,s4
    80006844:	f2f43023          	sd	a5,-224(s0)
    80006848:	00098593          	mv	a1,s3
    8000684c:	7c5020ef          	jal	80009810 <__fma>
    80006850:	f1843603          	ld	a2,-232(s0)
    80006854:	00050793          	mv	a5,a0
    80006858:	00098593          	mv	a1,s3
    8000685c:	000a8513          	mv	a0,s5
    80006860:	f0f43c23          	sd	a5,-232(s0)
    80006864:	7ad020ef          	jal	80009810 <__fma>
    80006868:	ef043603          	ld	a2,-272(s0)
    8000686c:	00050793          	mv	a5,a0
    80006870:	00098593          	mv	a1,s3
    80006874:	000b0513          	mv	a0,s6
    80006878:	eef43c23          	sd	a5,-264(s0)
    8000687c:	795020ef          	jal	80009810 <__fma>
    80006880:	00050793          	mv	a5,a0
    80006884:	000c8613          	mv	a2,s9
    80006888:	00098593          	mv	a1,s3
    8000688c:	000b8513          	mv	a0,s7
    80006890:	00078c93          	mv	s9,a5
    80006894:	77d020ef          	jal	80009810 <__fma>
    80006898:	f1043603          	ld	a2,-240(s0)
    8000689c:	00050793          	mv	a5,a0
    800068a0:	00098593          	mv	a1,s3
    800068a4:	00090513          	mv	a0,s2
    800068a8:	f0f43823          	sd	a5,-240(s0)
    800068ac:	765020ef          	jal	80009810 <__fma>
    800068b0:	00050793          	mv	a5,a0
    800068b4:	f7843503          	ld	a0,-136(s0)
    800068b8:	f0843603          	ld	a2,-248(s0)
    800068bc:	f0f43423          	sd	a5,-248(s0)
    800068c0:	01053983          	ld	s3,16(a0)
    800068c4:	000a0513          	mv	a0,s4
    800068c8:	00098593          	mv	a1,s3
    800068cc:	745020ef          	jal	80009810 <__fma>
    800068d0:	f0043603          	ld	a2,-256(s0)
    800068d4:	00050793          	mv	a5,a0
    800068d8:	00098593          	mv	a1,s3
    800068dc:	000a8513          	mv	a0,s5
    800068e0:	f0f43023          	sd	a5,-256(s0)
    800068e4:	72d020ef          	jal	80009810 <__fma>
    800068e8:	00050793          	mv	a5,a0
    800068ec:	000c0613          	mv	a2,s8
    800068f0:	00098593          	mv	a1,s3
    800068f4:	000b0513          	mv	a0,s6
    800068f8:	00078c13          	mv	s8,a5
    800068fc:	715020ef          	jal	80009810 <__fma>
    80006900:	00050793          	mv	a5,a0
    80006904:	000d8613          	mv	a2,s11
    80006908:	00098593          	mv	a1,s3
    8000690c:	000b8513          	mv	a0,s7
    80006910:	00078b93          	mv	s7,a5
    80006914:	6fd020ef          	jal	80009810 <__fma>
    80006918:	00050793          	mv	a5,a0
    8000691c:	000d0613          	mv	a2,s10
    80006920:	00098593          	mv	a1,s3
    80006924:	00090513          	mv	a0,s2
    80006928:	00078d13          	mv	s10,a5
    8000692c:	6e5020ef          	jal	80009810 <__fma>
    80006930:	f8843703          	ld	a4,-120(s0)
    80006934:	0004b983          	ld	s3,0(s1)
    80006938:	f6843603          	ld	a2,-152(s0)
    8000693c:	01873903          	ld	s2,24(a4)
    80006940:	00050d93          	mv	s11,a0
    80006944:	00098593          	mv	a1,s3
    80006948:	00090513          	mv	a0,s2
    8000694c:	6c5020ef          	jal	80009810 <__fma>
    80006950:	0084ba03          	ld	s4,8(s1)
    80006954:	f6043603          	ld	a2,-160(s0)
    80006958:	00050793          	mv	a5,a0
    8000695c:	000a0593          	mv	a1,s4
    80006960:	00090513          	mv	a0,s2
    80006964:	f6f43423          	sd	a5,-152(s0)
    80006968:	6a9020ef          	jal	80009810 <__fma>
    8000696c:	0104ba83          	ld	s5,16(s1)
    80006970:	f5843603          	ld	a2,-168(s0)
    80006974:	00050793          	mv	a5,a0
    80006978:	000a8593          	mv	a1,s5
    8000697c:	00090513          	mv	a0,s2
    80006980:	f6f43023          	sd	a5,-160(s0)
    80006984:	68d020ef          	jal	80009810 <__fma>
    80006988:	0184bb03          	ld	s6,24(s1)
    8000698c:	f5043603          	ld	a2,-176(s0)
    80006990:	00050793          	mv	a5,a0
    80006994:	000b0593          	mv	a1,s6
    80006998:	00090513          	mv	a0,s2
    8000699c:	f4f43c23          	sd	a5,-168(s0)
    800069a0:	671020ef          	jal	80009810 <__fma>
    800069a4:	0204b483          	ld	s1,32(s1)
    800069a8:	f4843603          	ld	a2,-184(s0)
    800069ac:	00050793          	mv	a5,a0
    800069b0:	00048593          	mv	a1,s1
    800069b4:	00090513          	mv	a0,s2
    800069b8:	f4f43823          	sd	a5,-176(s0)
    800069bc:	655020ef          	jal	80009810 <__fma>
    800069c0:	f8043683          	ld	a3,-128(s0)
    800069c4:	f4043603          	ld	a2,-192(s0)
    800069c8:	00050793          	mv	a5,a0
    800069cc:	0186b903          	ld	s2,24(a3)
    800069d0:	00098513          	mv	a0,s3
    800069d4:	f4f43423          	sd	a5,-184(s0)
    800069d8:	00090593          	mv	a1,s2
    800069dc:	635020ef          	jal	80009810 <__fma>
    800069e0:	f3843603          	ld	a2,-200(s0)
    800069e4:	00050793          	mv	a5,a0
    800069e8:	00090593          	mv	a1,s2
    800069ec:	000a0513          	mv	a0,s4
    800069f0:	f4f43023          	sd	a5,-192(s0)
    800069f4:	61d020ef          	jal	80009810 <__fma>
    800069f8:	f3043603          	ld	a2,-208(s0)
    800069fc:	00050793          	mv	a5,a0
    80006a00:	00090593          	mv	a1,s2
    80006a04:	000a8513          	mv	a0,s5
    80006a08:	f2f43c23          	sd	a5,-200(s0)
    80006a0c:	605020ef          	jal	80009810 <__fma>
    80006a10:	f2843603          	ld	a2,-216(s0)
    80006a14:	00050793          	mv	a5,a0
    80006a18:	00090593          	mv	a1,s2
    80006a1c:	000b0513          	mv	a0,s6
    80006a20:	f2f43823          	sd	a5,-208(s0)
    80006a24:	5ed020ef          	jal	80009810 <__fma>
    80006a28:	f2043603          	ld	a2,-224(s0)
    80006a2c:	00050793          	mv	a5,a0
    80006a30:	00090593          	mv	a1,s2
    80006a34:	00048513          	mv	a0,s1
    80006a38:	f2f43423          	sd	a5,-216(s0)
    80006a3c:	5d5020ef          	jal	80009810 <__fma>
    80006a40:	f7043583          	ld	a1,-144(s0)
    80006a44:	f1843603          	ld	a2,-232(s0)
    80006a48:	00050793          	mv	a5,a0
    80006a4c:	0185b903          	ld	s2,24(a1)
    80006a50:	00098513          	mv	a0,s3
    80006a54:	f2f43023          	sd	a5,-224(s0)
    80006a58:	00090593          	mv	a1,s2
    80006a5c:	5b5020ef          	jal	80009810 <__fma>
    80006a60:	ef843603          	ld	a2,-264(s0)
    80006a64:	00050793          	mv	a5,a0
    80006a68:	00090593          	mv	a1,s2
    80006a6c:	000a0513          	mv	a0,s4
    80006a70:	f0f43c23          	sd	a5,-232(s0)
    80006a74:	59d020ef          	jal	80009810 <__fma>
    80006a78:	00050793          	mv	a5,a0
    80006a7c:	000c8613          	mv	a2,s9
    80006a80:	00090593          	mv	a1,s2
    80006a84:	000a8513          	mv	a0,s5
    80006a88:	00078c93          	mv	s9,a5
    80006a8c:	585020ef          	jal	80009810 <__fma>
    80006a90:	f1043603          	ld	a2,-240(s0)
    80006a94:	00050793          	mv	a5,a0
    80006a98:	00090593          	mv	a1,s2
    80006a9c:	000b0513          	mv	a0,s6
    80006aa0:	f0f43823          	sd	a5,-240(s0)
    80006aa4:	56d020ef          	jal	80009810 <__fma>
    80006aa8:	f0843603          	ld	a2,-248(s0)
    80006aac:	00050793          	mv	a5,a0
    80006ab0:	00090593          	mv	a1,s2
    80006ab4:	00048513          	mv	a0,s1
    80006ab8:	f0f43423          	sd	a5,-248(s0)
    80006abc:	555020ef          	jal	80009810 <__fma>
    80006ac0:	00050793          	mv	a5,a0
    80006ac4:	f7843503          	ld	a0,-136(s0)
    80006ac8:	f0043603          	ld	a2,-256(s0)
    80006acc:	f0f43023          	sd	a5,-256(s0)
    80006ad0:	01853903          	ld	s2,24(a0)
    80006ad4:	00098513          	mv	a0,s3
    80006ad8:	00090593          	mv	a1,s2
    80006adc:	535020ef          	jal	80009810 <__fma>
    80006ae0:	00050793          	mv	a5,a0
    80006ae4:	000c0613          	mv	a2,s8
    80006ae8:	00090593          	mv	a1,s2
    80006aec:	000a0513          	mv	a0,s4
    80006af0:	00078c13          	mv	s8,a5
    80006af4:	51d020ef          	jal	80009810 <__fma>
    80006af8:	00050793          	mv	a5,a0
    80006afc:	000b8613          	mv	a2,s7
    80006b00:	00090593          	mv	a1,s2
    80006b04:	000a8513          	mv	a0,s5
    80006b08:	00078b93          	mv	s7,a5
    80006b0c:	505020ef          	jal	80009810 <__fma>
    80006b10:	00050793          	mv	a5,a0
    80006b14:	000d0613          	mv	a2,s10
    80006b18:	00090593          	mv	a1,s2
    80006b1c:	000b0513          	mv	a0,s6
    80006b20:	00078d13          	mv	s10,a5
    80006b24:	4ed020ef          	jal	80009810 <__fma>
    80006b28:	00050793          	mv	a5,a0
    80006b2c:	000d8613          	mv	a2,s11
    80006b30:	00090593          	mv	a1,s2
    80006b34:	00048513          	mv	a0,s1
    80006b38:	00078d93          	mv	s11,a5
    80006b3c:	4d5020ef          	jal	80009810 <__fma>
    80006b40:	f8843703          	ld	a4,-120(s0)
    80006b44:	ed043b03          	ld	s6,-304(s0)
    80006b48:	f6843603          	ld	a2,-152(s0)
    80006b4c:	02073483          	ld	s1,32(a4)
    80006b50:	000b3903          	ld	s2,0(s6)
    80006b54:	00050793          	mv	a5,a0
    80006b58:	00048513          	mv	a0,s1
    80006b5c:	00090593          	mv	a1,s2
    80006b60:	f6f43423          	sd	a5,-152(s0)
    80006b64:	4ad020ef          	jal	80009810 <__fma>
    80006b68:	008b3983          	ld	s3,8(s6)
    80006b6c:	f6043603          	ld	a2,-160(s0)
    80006b70:	00050793          	mv	a5,a0
    80006b74:	00098593          	mv	a1,s3
    80006b78:	00048513          	mv	a0,s1
    80006b7c:	f6f43023          	sd	a5,-160(s0)
    80006b80:	491020ef          	jal	80009810 <__fma>
    80006b84:	010b3a03          	ld	s4,16(s6)
    80006b88:	f5843603          	ld	a2,-168(s0)
    80006b8c:	00050793          	mv	a5,a0
    80006b90:	000a0593          	mv	a1,s4
    80006b94:	00048513          	mv	a0,s1
    80006b98:	f4f43c23          	sd	a5,-168(s0)
    80006b9c:	475020ef          	jal	80009810 <__fma>
    80006ba0:	018b3a83          	ld	s5,24(s6)
    80006ba4:	f5043603          	ld	a2,-176(s0)
    80006ba8:	00050793          	mv	a5,a0
    80006bac:	000a8593          	mv	a1,s5
    80006bb0:	00048513          	mv	a0,s1
    80006bb4:	f4f43823          	sd	a5,-176(s0)
    80006bb8:	459020ef          	jal	80009810 <__fma>
    80006bbc:	020b3b03          	ld	s6,32(s6)
    80006bc0:	f4843603          	ld	a2,-184(s0)
    80006bc4:	00050793          	mv	a5,a0
    80006bc8:	000b0593          	mv	a1,s6
    80006bcc:	00048513          	mv	a0,s1
    80006bd0:	f4f43423          	sd	a5,-184(s0)
    80006bd4:	43d020ef          	jal	80009810 <__fma>
    80006bd8:	f8043683          	ld	a3,-128(s0)
    80006bdc:	f4043603          	ld	a2,-192(s0)
    80006be0:	00050793          	mv	a5,a0
    80006be4:	0206b483          	ld	s1,32(a3)
    80006be8:	00090513          	mv	a0,s2
    80006bec:	f4f43023          	sd	a5,-192(s0)
    80006bf0:	00048593          	mv	a1,s1
    80006bf4:	41d020ef          	jal	80009810 <__fma>
    80006bf8:	f3843603          	ld	a2,-200(s0)
    80006bfc:	00050793          	mv	a5,a0
    80006c00:	00048593          	mv	a1,s1
    80006c04:	00098513          	mv	a0,s3
    80006c08:	f2f43c23          	sd	a5,-200(s0)
    80006c0c:	405020ef          	jal	80009810 <__fma>
    80006c10:	f3043603          	ld	a2,-208(s0)
    80006c14:	00050793          	mv	a5,a0
    80006c18:	00048593          	mv	a1,s1
    80006c1c:	000a0513          	mv	a0,s4
    80006c20:	f2f43823          	sd	a5,-208(s0)
    80006c24:	3ed020ef          	jal	80009810 <__fma>
    80006c28:	f2843603          	ld	a2,-216(s0)
    80006c2c:	00050793          	mv	a5,a0
    80006c30:	00048593          	mv	a1,s1
    80006c34:	000a8513          	mv	a0,s5
    80006c38:	f2f43423          	sd	a5,-216(s0)
    80006c3c:	3d5020ef          	jal	80009810 <__fma>
    80006c40:	f2043603          	ld	a2,-224(s0)
    80006c44:	00050793          	mv	a5,a0
    80006c48:	00048593          	mv	a1,s1
    80006c4c:	000b0513          	mv	a0,s6
    80006c50:	f2f43023          	sd	a5,-224(s0)
    80006c54:	3bd020ef          	jal	80009810 <__fma>
    80006c58:	f7043583          	ld	a1,-144(s0)
    80006c5c:	f1843603          	ld	a2,-232(s0)
    80006c60:	00050793          	mv	a5,a0
    80006c64:	0205b483          	ld	s1,32(a1)
    80006c68:	00090513          	mv	a0,s2
    80006c6c:	f0f43c23          	sd	a5,-232(s0)
    80006c70:	00048593          	mv	a1,s1
    80006c74:	39d020ef          	jal	80009810 <__fma>
    80006c78:	00050793          	mv	a5,a0
    80006c7c:	000c8613          	mv	a2,s9
    80006c80:	00048593          	mv	a1,s1
    80006c84:	00098513          	mv	a0,s3
    80006c88:	00078c93          	mv	s9,a5
    80006c8c:	385020ef          	jal	80009810 <__fma>
    80006c90:	f1043603          	ld	a2,-240(s0)
    80006c94:	00050793          	mv	a5,a0
    80006c98:	00048593          	mv	a1,s1
    80006c9c:	000a0513          	mv	a0,s4
    80006ca0:	f0f43823          	sd	a5,-240(s0)
    80006ca4:	36d020ef          	jal	80009810 <__fma>
    80006ca8:	f0843603          	ld	a2,-248(s0)
    80006cac:	00050793          	mv	a5,a0
    80006cb0:	00048593          	mv	a1,s1
    80006cb4:	000a8513          	mv	a0,s5
    80006cb8:	f0f43423          	sd	a5,-248(s0)
    80006cbc:	355020ef          	jal	80009810 <__fma>
    80006cc0:	f0043603          	ld	a2,-256(s0)
    80006cc4:	00050793          	mv	a5,a0
    80006cc8:	00048593          	mv	a1,s1
    80006ccc:	000b0513          	mv	a0,s6
    80006cd0:	f0f43023          	sd	a5,-256(s0)
    80006cd4:	33d020ef          	jal	80009810 <__fma>
    80006cd8:	00050793          	mv	a5,a0
    80006cdc:	f7843503          	ld	a0,-136(s0)
    80006ce0:	000c0613          	mv	a2,s8
    80006ce4:	00078c13          	mv	s8,a5
    80006ce8:	02053483          	ld	s1,32(a0)
    80006cec:	00090513          	mv	a0,s2
    80006cf0:	00048593          	mv	a1,s1
    80006cf4:	31d020ef          	jal	80009810 <__fma>
    80006cf8:	00050793          	mv	a5,a0
    80006cfc:	000b8613          	mv	a2,s7
    80006d00:	00048593          	mv	a1,s1
    80006d04:	00098513          	mv	a0,s3
    80006d08:	eef43c23          	sd	a5,-264(s0)
    80006d0c:	305020ef          	jal	80009810 <__fma>
    80006d10:	00050793          	mv	a5,a0
    80006d14:	000d0613          	mv	a2,s10
    80006d18:	00048593          	mv	a1,s1
    80006d1c:	000a0513          	mv	a0,s4
    80006d20:	eef43823          	sd	a5,-272(s0)
    80006d24:	2ed020ef          	jal	80009810 <__fma>
    80006d28:	00050793          	mv	a5,a0
    80006d2c:	000d8613          	mv	a2,s11
    80006d30:	00048593          	mv	a1,s1
    80006d34:	000a8513          	mv	a0,s5
    80006d38:	00078d93          	mv	s11,a5
    80006d3c:	2d5020ef          	jal	80009810 <__fma>
    80006d40:	f6843603          	ld	a2,-152(s0)
    80006d44:	00050793          	mv	a5,a0
    80006d48:	00048593          	mv	a1,s1
    80006d4c:	000b0513          	mv	a0,s6
    80006d50:	ecf43823          	sd	a5,-304(s0)
    80006d54:	2bd020ef          	jal	80009810 <__fma>
    80006d58:	f8843703          	ld	a4,-120(s0)
    80006d5c:	ed843b83          	ld	s7,-296(s0)
    80006d60:	f6043603          	ld	a2,-160(s0)
    80006d64:	02873483          	ld	s1,40(a4)
    80006d68:	000bb903          	ld	s2,0(s7)
    80006d6c:	00050793          	mv	a5,a0
    80006d70:	00048513          	mv	a0,s1
    80006d74:	00090593          	mv	a1,s2
    80006d78:	ecf43423          	sd	a5,-312(s0)
    80006d7c:	295020ef          	jal	80009810 <__fma>
    80006d80:	008bb983          	ld	s3,8(s7)
    80006d84:	f5843603          	ld	a2,-168(s0)
    80006d88:	00050d13          	mv	s10,a0
    80006d8c:	00098593          	mv	a1,s3
    80006d90:	00048513          	mv	a0,s1
    80006d94:	27d020ef          	jal	80009810 <__fma>
    80006d98:	010bba83          	ld	s5,16(s7)
    80006d9c:	f5043603          	ld	a2,-176(s0)
    80006da0:	00050a13          	mv	s4,a0
    80006da4:	000a8593          	mv	a1,s5
    80006da8:	00048513          	mv	a0,s1
    80006dac:	265020ef          	jal	80009810 <__fma>
    80006db0:	018bbb03          	ld	s6,24(s7)
    80006db4:	f4843603          	ld	a2,-184(s0)
    80006db8:	00050793          	mv	a5,a0
    80006dbc:	000b0593          	mv	a1,s6
    80006dc0:	00048513          	mv	a0,s1
    80006dc4:	f6f43423          	sd	a5,-152(s0)
    80006dc8:	249020ef          	jal	80009810 <__fma>
    80006dcc:	020bbb83          	ld	s7,32(s7)
    80006dd0:	f4043603          	ld	a2,-192(s0)
    80006dd4:	00050793          	mv	a5,a0
    80006dd8:	000b8593          	mv	a1,s7
    80006ddc:	00048513          	mv	a0,s1
    80006de0:	f6f43023          	sd	a5,-160(s0)
    80006de4:	22d020ef          	jal	80009810 <__fma>
    80006de8:	f8043683          	ld	a3,-128(s0)
    80006dec:	f3843603          	ld	a2,-200(s0)
    80006df0:	00050793          	mv	a5,a0
    80006df4:	0286b483          	ld	s1,40(a3)
    80006df8:	00090513          	mv	a0,s2
    80006dfc:	f4f43c23          	sd	a5,-168(s0)
    80006e00:	00048593          	mv	a1,s1
    80006e04:	20d020ef          	jal	80009810 <__fma>
    80006e08:	f3043603          	ld	a2,-208(s0)
    80006e0c:	00050793          	mv	a5,a0
    80006e10:	00048593          	mv	a1,s1
    80006e14:	00098513          	mv	a0,s3
    80006e18:	f4f43823          	sd	a5,-176(s0)
    80006e1c:	1f5020ef          	jal	80009810 <__fma>
    80006e20:	f2843603          	ld	a2,-216(s0)
    80006e24:	00050793          	mv	a5,a0
    80006e28:	00048593          	mv	a1,s1
    80006e2c:	000a8513          	mv	a0,s5
    80006e30:	f4f43423          	sd	a5,-184(s0)
    80006e34:	1dd020ef          	jal	80009810 <__fma>
    80006e38:	f2043603          	ld	a2,-224(s0)
    80006e3c:	00050793          	mv	a5,a0
    80006e40:	00048593          	mv	a1,s1
    80006e44:	000b0513          	mv	a0,s6
    80006e48:	f4f43023          	sd	a5,-192(s0)
    80006e4c:	1c5020ef          	jal	80009810 <__fma>
    80006e50:	f1843603          	ld	a2,-232(s0)
    80006e54:	00050793          	mv	a5,a0
    80006e58:	00048593          	mv	a1,s1
    80006e5c:	000b8513          	mv	a0,s7
    80006e60:	f2f43c23          	sd	a5,-200(s0)
    80006e64:	1ad020ef          	jal	80009810 <__fma>
    80006e68:	f7043583          	ld	a1,-144(s0)
    80006e6c:	00050793          	mv	a5,a0
    80006e70:	000c8613          	mv	a2,s9
    80006e74:	0285b483          	ld	s1,40(a1)
    80006e78:	00090513          	mv	a0,s2
    80006e7c:	f6f43823          	sd	a5,-144(s0)
    80006e80:	00048593          	mv	a1,s1
    80006e84:	18d020ef          	jal	80009810 <__fma>
    80006e88:	f1043603          	ld	a2,-240(s0)
    80006e8c:	00050793          	mv	a5,a0
    80006e90:	00048593          	mv	a1,s1
    80006e94:	00098513          	mv	a0,s3
    80006e98:	f2f43823          	sd	a5,-208(s0)
    80006e9c:	175020ef          	jal	80009810 <__fma>
    80006ea0:	f0843603          	ld	a2,-248(s0)
    80006ea4:	00050793          	mv	a5,a0
    80006ea8:	00048593          	mv	a1,s1
    80006eac:	000a8513          	mv	a0,s5
    80006eb0:	f2f43423          	sd	a5,-216(s0)
    80006eb4:	15d020ef          	jal	80009810 <__fma>
    80006eb8:	f0043603          	ld	a2,-256(s0)
    80006ebc:	00050793          	mv	a5,a0
    80006ec0:	00048593          	mv	a1,s1
    80006ec4:	000b0513          	mv	a0,s6
    80006ec8:	f2f43023          	sd	a5,-224(s0)
    80006ecc:	145020ef          	jal	80009810 <__fma>
    80006ed0:	00050793          	mv	a5,a0
    80006ed4:	00048593          	mv	a1,s1
    80006ed8:	000c0613          	mv	a2,s8
    80006edc:	000b8513          	mv	a0,s7
    80006ee0:	f0f43c23          	sd	a5,-232(s0)
    80006ee4:	12d020ef          	jal	80009810 <__fma>
    80006ee8:	00050793          	mv	a5,a0
    80006eec:	f7843503          	ld	a0,-136(s0)
    80006ef0:	ef843603          	ld	a2,-264(s0)
    80006ef4:	f6f43c23          	sd	a5,-136(s0)
    80006ef8:	02853483          	ld	s1,40(a0)
    80006efc:	00090513          	mv	a0,s2
    80006f00:	00048593          	mv	a1,s1
    80006f04:	10d020ef          	jal	80009810 <__fma>
    80006f08:	ef043603          	ld	a2,-272(s0)
    80006f0c:	00050793          	mv	a5,a0
    80006f10:	00048593          	mv	a1,s1
    80006f14:	00098513          	mv	a0,s3
    80006f18:	f0f43823          	sd	a5,-240(s0)
    80006f1c:	0f5020ef          	jal	80009810 <__fma>
    80006f20:	00050793          	mv	a5,a0
    80006f24:	000d8613          	mv	a2,s11
    80006f28:	00048593          	mv	a1,s1
    80006f2c:	000a8513          	mv	a0,s5
    80006f30:	f0f43423          	sd	a5,-248(s0)
    80006f34:	0dd020ef          	jal	80009810 <__fma>
    80006f38:	ed043603          	ld	a2,-304(s0)
    80006f3c:	00050793          	mv	a5,a0
    80006f40:	00048593          	mv	a1,s1
    80006f44:	000b0513          	mv	a0,s6
    80006f48:	f0f43023          	sd	a5,-256(s0)
    80006f4c:	0c5020ef          	jal	80009810 <__fma>
    80006f50:	ec843603          	ld	a2,-312(s0)
    80006f54:	00050793          	mv	a5,a0
    80006f58:	00048593          	mv	a1,s1
    80006f5c:	000b8513          	mv	a0,s7
    80006f60:	eef43c23          	sd	a5,-264(s0)
    80006f64:	0ad020ef          	jal	80009810 <__fma>
    80006f68:	f8843703          	ld	a4,-120(s0)
    80006f6c:	ee843a83          	ld	s5,-280(s0)
    80006f70:	f8043683          	ld	a3,-128(s0)
    80006f74:	03070793          	addi	a5,a4,48
    80006f78:	ea043703          	ld	a4,-352(s0)
    80006f7c:	ed843b83          	ld	s7,-296(s0)
    80006f80:	ec043e03          	ld	t3,-320(s0)
    80006f84:	00ea8733          	add	a4,s5,a4
    80006f88:	eee43423          	sd	a4,-280(s0)
    80006f8c:	03068713          	addi	a4,a3,48
    80006f90:	f8e43023          	sd	a4,-128(s0)
    80006f94:	e9043703          	ld	a4,-368(s0)
    80006f98:	f8f43423          	sd	a5,-120(s0)
    80006f9c:	eea43823          	sd	a0,-272(s0)
    80006fa0:	017e0b33          	add	s6,t3,s7
    80006fa4:	b2e7e063          	bltu	a5,a4,800062c4 <mm_cb+0x4018>
    80006fa8:	e4043983          	ld	s3,-448(s0)
    80006fac:	e3843903          	ld	s2,-456(s0)
    80006fb0:	e3043a83          	ld	s5,-464(s0)
    80006fb4:	e1843783          	ld	a5,-488(s0)
    80006fb8:	e1043703          	ld	a4,-496(s0)
    80006fbc:	000a0613          	mv	a2,s4
    80006fc0:	db043683          	ld	a3,-592(s0)
    80006fc4:	e9043c83          	ld	s9,-368(s0)
    80006fc8:	015684b3          	add	s1,a3,s5
    80006fcc:	e7043683          	ld	a3,-400(s0)
    80006fd0:	26dcf663          	bgeu	s9,a3,8000723c <mm_cb+0x4f90>
    80006fd4:	dd043c03          	ld	s8,-560(s0)
    80006fd8:	ecf43823          	sd	a5,-304(s0)
    80006fdc:	f9c43423          	sd	t3,-120(s0)
    80006fe0:	000c0793          	mv	a5,s8
    80006fe4:	00060d93          	mv	s11,a2
    80006fe8:	000c8c13          	mv	s8,s9
    80006fec:	f9343023          	sd	s3,-128(s0)
    80006ff0:	ef243423          	sd	s2,-280(s0)
    80006ff4:	ed543c23          	sd	s5,-296(s0)
    80006ff8:	ece43423          	sd	a4,-312(s0)
    80006ffc:	00078c93          	mv	s9,a5
    80007000:	000c3903          	ld	s2,0(s8)
    80007004:	0004bb83          	ld	s7,0(s1)
    80007008:	000d0613          	mv	a2,s10
    8000700c:	00090513          	mv	a0,s2
    80007010:	000b8593          	mv	a1,s7
    80007014:	7fc020ef          	jal	80009810 <__fma>
    80007018:	0084bb03          	ld	s6,8(s1)
    8000701c:	000d8613          	mv	a2,s11
    80007020:	00050d13          	mv	s10,a0
    80007024:	000b0593          	mv	a1,s6
    80007028:	00090513          	mv	a0,s2
    8000702c:	7e4020ef          	jal	80009810 <__fma>
    80007030:	0104ba83          	ld	s5,16(s1)
    80007034:	f6843603          	ld	a2,-152(s0)
    80007038:	00050d93          	mv	s11,a0
    8000703c:	000a8593          	mv	a1,s5
    80007040:	00090513          	mv	a0,s2
    80007044:	7cc020ef          	jal	80009810 <__fma>
    80007048:	0184ba03          	ld	s4,24(s1)
    8000704c:	f6043603          	ld	a2,-160(s0)
    80007050:	00050713          	mv	a4,a0
    80007054:	000a0593          	mv	a1,s4
    80007058:	00090513          	mv	a0,s2
    8000705c:	f6e43423          	sd	a4,-152(s0)
    80007060:	7b0020ef          	jal	80009810 <__fma>
    80007064:	0204b983          	ld	s3,32(s1)
    80007068:	f5843603          	ld	a2,-168(s0)
    8000706c:	00050713          	mv	a4,a0
    80007070:	00098593          	mv	a1,s3
    80007074:	00090513          	mv	a0,s2
    80007078:	f6e43023          	sd	a4,-160(s0)
    8000707c:	794020ef          	jal	80009810 <__fma>
    80007080:	000cb903          	ld	s2,0(s9)
    80007084:	f5043603          	ld	a2,-176(s0)
    80007088:	00050713          	mv	a4,a0
    8000708c:	00090593          	mv	a1,s2
    80007090:	000b8513          	mv	a0,s7
    80007094:	f4e43c23          	sd	a4,-168(s0)
    80007098:	778020ef          	jal	80009810 <__fma>
    8000709c:	f4843603          	ld	a2,-184(s0)
    800070a0:	00050713          	mv	a4,a0
    800070a4:	00090593          	mv	a1,s2
    800070a8:	000b0513          	mv	a0,s6
    800070ac:	f4e43823          	sd	a4,-176(s0)
    800070b0:	760020ef          	jal	80009810 <__fma>
    800070b4:	f4043603          	ld	a2,-192(s0)
    800070b8:	00050713          	mv	a4,a0
    800070bc:	00090593          	mv	a1,s2
    800070c0:	000a8513          	mv	a0,s5
    800070c4:	f4e43423          	sd	a4,-184(s0)
    800070c8:	748020ef          	jal	80009810 <__fma>
    800070cc:	f3843603          	ld	a2,-200(s0)
    800070d0:	00050713          	mv	a4,a0
    800070d4:	00090593          	mv	a1,s2
    800070d8:	000a0513          	mv	a0,s4
    800070dc:	f4e43023          	sd	a4,-192(s0)
    800070e0:	730020ef          	jal	80009810 <__fma>
    800070e4:	f7043603          	ld	a2,-144(s0)
    800070e8:	00050713          	mv	a4,a0
    800070ec:	00090593          	mv	a1,s2
    800070f0:	00098513          	mv	a0,s3
    800070f4:	f2e43c23          	sd	a4,-200(s0)
    800070f8:	718020ef          	jal	80009810 <__fma>
    800070fc:	ee043783          	ld	a5,-288(s0)
    80007100:	f3043603          	ld	a2,-208(s0)
    80007104:	00050713          	mv	a4,a0
    80007108:	00fc06b3          	add	a3,s8,a5
    8000710c:	0006b903          	ld	s2,0(a3)
    80007110:	000b8513          	mv	a0,s7
    80007114:	f6e43823          	sd	a4,-144(s0)
    80007118:	00090593          	mv	a1,s2
    8000711c:	6f4020ef          	jal	80009810 <__fma>
    80007120:	f2843603          	ld	a2,-216(s0)
    80007124:	00050713          	mv	a4,a0
    80007128:	00090593          	mv	a1,s2
    8000712c:	000b0513          	mv	a0,s6
    80007130:	f2e43823          	sd	a4,-208(s0)
    80007134:	6dc020ef          	jal	80009810 <__fma>
    80007138:	f2043603          	ld	a2,-224(s0)
    8000713c:	00050713          	mv	a4,a0
    80007140:	00090593          	mv	a1,s2
    80007144:	000a8513          	mv	a0,s5
    80007148:	f2e43423          	sd	a4,-216(s0)
    8000714c:	6c4020ef          	jal	80009810 <__fma>
    80007150:	f1843603          	ld	a2,-232(s0)
    80007154:	00050713          	mv	a4,a0
    80007158:	00090593          	mv	a1,s2
    8000715c:	000a0513          	mv	a0,s4
    80007160:	f2e43023          	sd	a4,-224(s0)
    80007164:	6ac020ef          	jal	80009810 <__fma>
    80007168:	f7843603          	ld	a2,-136(s0)
    8000716c:	00050713          	mv	a4,a0
    80007170:	00090593          	mv	a1,s2
    80007174:	00098513          	mv	a0,s3
    80007178:	f0e43c23          	sd	a4,-232(s0)
    8000717c:	694020ef          	jal	80009810 <__fma>
    80007180:	ee043783          	ld	a5,-288(s0)
    80007184:	f1043603          	ld	a2,-240(s0)
    80007188:	00050713          	mv	a4,a0
    8000718c:	00fc86b3          	add	a3,s9,a5
    80007190:	0006b903          	ld	s2,0(a3)
    80007194:	000b8513          	mv	a0,s7
    80007198:	f6e43c23          	sd	a4,-136(s0)
    8000719c:	00090593          	mv	a1,s2
    800071a0:	670020ef          	jal	80009810 <__fma>
    800071a4:	f0843603          	ld	a2,-248(s0)
    800071a8:	00050713          	mv	a4,a0
    800071ac:	00090593          	mv	a1,s2
    800071b0:	000b0513          	mv	a0,s6
    800071b4:	f0e43823          	sd	a4,-240(s0)
    800071b8:	658020ef          	jal	80009810 <__fma>
    800071bc:	f0043603          	ld	a2,-256(s0)
    800071c0:	00050713          	mv	a4,a0
    800071c4:	00090593          	mv	a1,s2
    800071c8:	000a8513          	mv	a0,s5
    800071cc:	f0e43423          	sd	a4,-248(s0)
    800071d0:	640020ef          	jal	80009810 <__fma>
    800071d4:	ef843603          	ld	a2,-264(s0)
    800071d8:	00050713          	mv	a4,a0
    800071dc:	00090593          	mv	a1,s2
    800071e0:	000a0513          	mv	a0,s4
    800071e4:	f0e43023          	sd	a4,-256(s0)
    800071e8:	628020ef          	jal	80009810 <__fma>
    800071ec:	ef043603          	ld	a2,-272(s0)
    800071f0:	00050713          	mv	a4,a0
    800071f4:	00090593          	mv	a1,s2
    800071f8:	00098513          	mv	a0,s3
    800071fc:	eee43c23          	sd	a4,-264(s0)
    80007200:	610020ef          	jal	80009810 <__fma>
    80007204:	ea843783          	ld	a5,-344(s0)
    80007208:	008c0c13          	addi	s8,s8,8
    8000720c:	eea43823          	sd	a0,-272(s0)
    80007210:	00f484b3          	add	s1,s1,a5
    80007214:	e7043783          	ld	a5,-400(s0)
    80007218:	008c8c93          	addi	s9,s9,8
    8000721c:	defc62e3          	bltu	s8,a5,80007000 <mm_cb+0x4d54>
    80007220:	f8843e03          	ld	t3,-120(s0)
    80007224:	f8043983          	ld	s3,-128(s0)
    80007228:	ee843903          	ld	s2,-280(s0)
    8000722c:	ed843a83          	ld	s5,-296(s0)
    80007230:	ed043783          	ld	a5,-304(s0)
    80007234:	ec843703          	ld	a4,-312(s0)
    80007238:	000d8613          	mv	a2,s11
    8000723c:	f6843683          	ld	a3,-152(s0)
    80007240:	00c73423          	sd	a2,8(a4)
    80007244:	01a73023          	sd	s10,0(a4)
    80007248:	00d73823          	sd	a3,16(a4)
    8000724c:	f6043683          	ld	a3,-160(s0)
    80007250:	02870713          	addi	a4,a4,40
    80007254:	02878793          	addi	a5,a5,40
    80007258:	fed73823          	sd	a3,-16(a4)
    8000725c:	f5843683          	ld	a3,-168(s0)
    80007260:	028a8a93          	addi	s5,s5,40
    80007264:	fed73c23          	sd	a3,-8(a4)
    80007268:	f5043683          	ld	a3,-176(s0)
    8000726c:	fcd7bc23          	sd	a3,-40(a5)
    80007270:	f4843683          	ld	a3,-184(s0)
    80007274:	fed7b023          	sd	a3,-32(a5)
    80007278:	f4043683          	ld	a3,-192(s0)
    8000727c:	fed7b423          	sd	a3,-24(a5)
    80007280:	f3843683          	ld	a3,-200(s0)
    80007284:	fed7b823          	sd	a3,-16(a5)
    80007288:	f7043683          	ld	a3,-144(s0)
    8000728c:	fed7bc23          	sd	a3,-8(a5)
    80007290:	f3043683          	ld	a3,-208(s0)
    80007294:	00d93023          	sd	a3,0(s2)
    80007298:	f2843683          	ld	a3,-216(s0)
    8000729c:	00d93423          	sd	a3,8(s2)
    800072a0:	f2043683          	ld	a3,-224(s0)
    800072a4:	00d93823          	sd	a3,16(s2)
    800072a8:	f1843683          	ld	a3,-232(s0)
    800072ac:	00d93c23          	sd	a3,24(s2)
    800072b0:	f7843683          	ld	a3,-136(s0)
    800072b4:	02d93023          	sd	a3,32(s2)
    800072b8:	f1043683          	ld	a3,-240(s0)
    800072bc:	00d9b023          	sd	a3,0(s3)
    800072c0:	f0843683          	ld	a3,-248(s0)
    800072c4:	00d9b423          	sd	a3,8(s3)
    800072c8:	f0043683          	ld	a3,-256(s0)
    800072cc:	dd843603          	ld	a2,-552(s0)
    800072d0:	00d9b823          	sd	a3,16(s3)
    800072d4:	ef843683          	ld	a3,-264(s0)
    800072d8:	00d9bc23          	sd	a3,24(s3)
    800072dc:	ef043683          	ld	a3,-272(s0)
    800072e0:	02d9b023          	sd	a3,32(s3)
    800072e4:	e6843683          	ld	a3,-408(s0)
    800072e8:	00568693          	addi	a3,a3,5
    800072ec:	e6d43423          	sd	a3,-408(s0)
    800072f0:	00c6f463          	bgeu	a3,a2,800072f8 <mm_cb+0x504c>
    800072f4:	ef1fe06f          	j	800061e4 <mm_cb+0x3f38>
    800072f8:	cb043903          	ld	s2,-848(s0)
    800072fc:	ca843a03          	ld	s4,-856(s0)
    80007300:	ca043c83          	ld	s9,-864(s0)
    80007304:	c9843983          	ld	s3,-872(s0)
    80007308:	e9043e83          	ld	t4,-368(s0)
    8000730c:	de043683          	ld	a3,-544(s0)
    80007310:	c9043483          	ld	s1,-880(s0)
    80007314:	c8843c03          	ld	s8,-888(s0)
    80007318:	00043783          	ld	a5,0(s0)
    8000731c:	f7d43c23          	sd	t4,-136(s0)
    80007320:	f9c43023          	sd	t3,-128(s0)
    80007324:	00f13023          	sd	a5,0(sp)
    80007328:	d6843783          	ld	a5,-664(s0)
    8000732c:	e4843703          	ld	a4,-440(s0)
    80007330:	e5843803          	ld	a6,-424(s0)
    80007334:	013788b3          	add	a7,a5,s3
    80007338:	d4043583          	ld	a1,-704(s0)
    8000733c:	d3843783          	ld	a5,-712(s0)
    80007340:	f8d43423          	sd	a3,-120(s0)
    80007344:	00090613          	mv	a2,s2
    80007348:	00400513          	li	a0,4
    8000734c:	cb5fa0ef          	jal	80002000 <mm_naive>
    80007350:	de843783          	ld	a5,-536(s0)
    80007354:	e7043703          	ld	a4,-400(s0)
    80007358:	f8843683          	ld	a3,-120(s0)
    8000735c:	f7843e83          	ld	t4,-136(s0)
    80007360:	00f70733          	add	a4,a4,a5
    80007364:	00f686b3          	add	a3,a3,a5
    80007368:	00fe8eb3          	add	t4,t4,a5
    8000736c:	da043783          	ld	a5,-608(s0)
    80007370:	fff48493          	addi	s1,s1,-1
    80007374:	e6e43823          	sd	a4,-400(s0)
    80007378:	f8043e03          	ld	t3,-128(s0)
    8000737c:	00f989b3          	add	s3,s3,a5
    80007380:	00048463          	beqz	s1,80007388 <mm_cb+0x50dc>
    80007384:	e09fe06f          	j	8000618c <mm_cb+0x3ee0>
    80007388:	00043783          	ld	a5,0(s0)
    8000738c:	f9c43423          	sd	t3,-120(s0)
    80007390:	cb843a83          	ld	s5,-840(s0)
    80007394:	cc843483          	ld	s1,-824(s0)
    80007398:	cc043b03          	ld	s6,-832(s0)
    8000739c:	00f13023          	sd	a5,0(sp)
    800073a0:	db843683          	ld	a3,-584(s0)
    800073a4:	e5843803          	ld	a6,-424(s0)
    800073a8:	e4843703          	ld	a4,-440(s0)
    800073ac:	000c8793          	mv	a5,s9
    800073b0:	015686b3          	add	a3,a3,s5
    800073b4:	000c0893          	mv	a7,s8
    800073b8:	00090613          	mv	a2,s2
    800073bc:	000a0593          	mv	a1,s4
    800073c0:	00000513          	li	a0,0
    800073c4:	c3dfa0ef          	jal	80002000 <mm_naive>
    800073c8:	d1043783          	ld	a5,-752(s0)
    800073cc:	01848493          	addi	s1,s1,24
    800073d0:	f8843e03          	ld	t3,-120(s0)
    800073d4:	00fc8cb3          	add	s9,s9,a5
    800073d8:	e2043783          	ld	a5,-480(s0)
    800073dc:	0c0a8a93          	addi	s5,s5,192
    800073e0:	00f4f463          	bgeu	s1,a5,800073e8 <mm_cb+0x513c>
    800073e4:	d31fe06f          	j	80006114 <mm_cb+0x3e68>
    800073e8:	000c0893          	mv	a7,s8
    800073ec:	d3043903          	ld	s2,-720(s0)
    800073f0:	d0843d83          	ld	s11,-760(s0)
    800073f4:	000a0c13          	mv	s8,s4
    800073f8:	cf0fc06f          	j	800038e8 <mm_cb+0x163c>
    800073fc:	e6043783          	ld	a5,-416(s0)
    80007400:	00078463          	beqz	a5,80007408 <mm_cb+0x515c>
    80007404:	908fb06f          	j	8000250c <mm_cb+0x260>
    80007408:	00091463          	bnez	s2,80007410 <mm_cb+0x5164>
    8000740c:	a69fd06f          	j	80004e74 <mm_cb+0x2bc8>
    80007410:	e2843783          	ld	a5,-472(s0)
    80007414:	00079463          	bnez	a5,8000741c <mm_cb+0x5170>
    80007418:	a5dfd06f          	j	80004e74 <mm_cb+0x2bc8>
    8000741c:	00161513          	slli	a0,a2,0x1
    80007420:	00c50533          	add	a0,a0,a2
    80007424:	00351513          	slli	a0,a0,0x3
    80007428:	00281713          	slli	a4,a6,0x2
    8000742c:	00159a13          	slli	s4,a1,0x1
    80007430:	00ba07b3          	add	a5,s4,a1
    80007434:	00181493          	slli	s1,a6,0x1
    80007438:	01070733          	add	a4,a4,a6
    8000743c:	e8a43423          	sd	a0,-376(s0)
    80007440:	00381513          	slli	a0,a6,0x3
    80007444:	010486b3          	add	a3,s1,a6
    80007448:	00371713          	slli	a4,a4,0x3
    8000744c:	eaa43823          	sd	a0,-336(s0)
    80007450:	00379e93          	slli	t4,a5,0x3
    80007454:	00481513          	slli	a0,a6,0x4
    80007458:	00361793          	slli	a5,a2,0x3
    8000745c:	e8a43023          	sd	a0,-384(s0)
    80007460:	e6e43423          	sd	a4,-408(s0)
    80007464:	00369513          	slli	a0,a3,0x3
    80007468:	00469713          	slli	a4,a3,0x4
    8000746c:	e8f43c23          	sd	a5,-360(s0)
    80007470:	00561793          	slli	a5,a2,0x5
    80007474:	00461893          	slli	a7,a2,0x4
    80007478:	e6a43823          	sd	a0,-400(s0)
    8000747c:	e6e43c23          	sd	a4,-392(s0)
    80007480:	00581513          	slli	a0,a6,0x5
    80007484:	00459713          	slli	a4,a1,0x4
    80007488:	def43423          	sd	a5,-536(s0)
    8000748c:	00559793          	slli	a5,a1,0x5
    80007490:	ef143023          	sd	a7,-288(s0)
    80007494:	eaa43c23          	sd	a0,-328(s0)
    80007498:	00359f93          	slli	t6,a1,0x3
    8000749c:	e0e43023          	sd	a4,-512(s0)
    800074a0:	daf43023          	sd	a5,-608(s0)
    800074a4:	cc0fc06f          	j	80003964 <mm_cb+0x16b8>
    800074a8:	00381793          	slli	a5,a6,0x3
    800074ac:	00181493          	slli	s1,a6,0x1
    800074b0:	eaf43423          	sd	a5,-344(s0)
    800074b4:	9a8fb06f          	j	8000265c <mm_cb+0x3b0>

00000000800074b8 <mm>:
    800074b8:	d9010113          	addi	sp,sp,-624
    800074bc:	25313423          	sd	s3,584(sp)
    800074c0:	25413023          	sd	s4,576(sp)
    800074c4:	23613823          	sd	s6,560(sp)
    800074c8:	23813023          	sd	s8,544(sp)
    800074cc:	21a13823          	sd	s10,528(sp)
    800074d0:	21b13423          	sd	s11,520(sp)
    800074d4:	00050a13          	mv	s4,a0
    800074d8:	26113423          	sd	ra,616(sp)
    800074dc:	03000513          	li	a0,48
    800074e0:	27013303          	ld	t1,624(sp)
    800074e4:	00058d13          	mv	s10,a1
    800074e8:	00068993          	mv	s3,a3
    800074ec:	00070d93          	mv	s11,a4
    800074f0:	00080c13          	mv	s8,a6
    800074f4:	00088b13          	mv	s6,a7
    800074f8:	01457463          	bgeu	a0,s4,80007500 <mm+0x48>
    800074fc:	36c0106f          	j	80008868 <mm+0x13b0>
    80007500:	03200713          	li	a4,50
    80007504:	00b77463          	bgeu	a4,a1,8000750c <mm+0x54>
    80007508:	3600106f          	j	80008868 <mm+0x13b0>
    8000750c:	00c57463          	bgeu	a0,a2,80007514 <mm+0x5c>
    80007510:	3580106f          	j	80008868 <mm+0x13b0>
    80007514:	00500e93          	li	t4,5
    80007518:	03d5d733          	divu	a4,a1,t4
    8000751c:	23713423          	sd	s7,552(sp)
    80007520:	21913c23          	sd	s9,536(sp)
    80007524:	ffca7c93          	andi	s9,s4,-4
    80007528:	00331593          	slli	a1,t1,0x3
    8000752c:	003d9b93          	slli	s7,s11,0x3
    80007530:	00271693          	slli	a3,a4,0x2
    80007534:	00e68733          	add	a4,a3,a4
    80007538:	14e13023          	sd	a4,320(sp)
    8000753c:	000c9463          	bnez	s9,80007544 <mm+0x8c>
    80007540:	2d80106f          	j	80008818 <mm+0x1360>
    80007544:	00600813          	li	a6,6
    80007548:	03065833          	divu	a6,a2,a6
    8000754c:	00431893          	slli	a7,t1,0x4
    80007550:	00361513          	slli	a0,a2,0x3
    80007554:	00a98533          	add	a0,s3,a0
    80007558:	15113423          	sd	a7,328(sp)
    8000755c:	004d9893          	slli	a7,s11,0x4
    80007560:	0b113023          	sd	a7,160(sp)
    80007564:	0ea13423          	sd	a0,232(sp)
    80007568:	003c1893          	slli	a7,s8,0x3
    8000756c:	00531513          	slli	a0,t1,0x5
    80007570:	0f113823          	sd	a7,240(sp)
    80007574:	1ca13423          	sd	a0,456(sp)
    80007578:	005c1893          	slli	a7,s8,0x5
    8000757c:	0f113c23          	sd	a7,248(sp)
    80007580:	001c1693          	slli	a3,s8,0x1
    80007584:	018686b3          	add	a3,a3,s8
    80007588:	00371713          	slli	a4,a4,0x3
    8000758c:	00469693          	slli	a3,a3,0x4
    80007590:	10d13023          	sd	a3,256(sp)
    80007594:	00e786b3          	add	a3,a5,a4
    80007598:	26813023          	sd	s0,608(sp)
    8000759c:	24913c23          	sd	s1,600(sp)
    800075a0:	25213823          	sd	s2,592(sp)
    800075a4:	1cd13023          	sd	a3,448(sp)
    800075a8:	23513c23          	sd	s5,568(sp)
    800075ac:	004c1e13          	slli	t3,s8,0x4
    800075b0:	005d9493          	slli	s1,s11,0x5
    800075b4:	00098693          	mv	a3,s3
    800075b8:	000b0413          	mv	s0,s6
    800075bc:	00000913          	li	s2,0
    800075c0:	19913423          	sd	s9,392(sp)
    800075c4:	1cb13823          	sd	a1,464(sp)
    800075c8:	1f413423          	sd	s4,488(sp)
    800075cc:	19a13823          	sd	s10,400(sp)
    800075d0:	18c13c23          	sd	a2,408(sp)
    800075d4:	1f313823          	sd	s3,496(sp)
    800075d8:	1bb13023          	sd	s11,416(sp)
    800075dc:	1cf13c23          	sd	a5,472(sp)
    800075e0:	1b813423          	sd	s8,424(sp)
    800075e4:	1f613c23          	sd	s6,504(sp)
    800075e8:	1a613823          	sd	t1,432(sp)
    800075ec:	1ee13023          	sd	a4,480(sp)
    800075f0:	00181513          	slli	a0,a6,0x1
    800075f4:	038808b3          	mul	a7,a6,s8
    800075f8:	01050533          	add	a0,a0,a6
    800075fc:	00451513          	slli	a0,a0,0x4
    80007600:	00a98533          	add	a0,s3,a0
    80007604:	0ea13023          	sd	a0,224(sp)
    80007608:	03dd7833          	remu	a6,s10,t4
    8000760c:	00189513          	slli	a0,a7,0x1
    80007610:	01150533          	add	a0,a0,a7
    80007614:	00451513          	slli	a0,a0,0x4
    80007618:	14a13823          	sd	a0,336(sp)
    8000761c:	1b013c23          	sd	a6,440(sp)
    80007620:	19013783          	ld	a5,400(sp)
    80007624:	00400713          	li	a4,4
    80007628:	00f76463          	bltu	a4,a5,80007630 <mm+0x178>
    8000762c:	1400106f          	j	8000876c <mm+0x12b4>
    80007630:	1d013783          	ld	a5,464(sp)
    80007634:	1d813983          	ld	s3,472(sp)
    80007638:	16913c23          	sd	s1,376(sp)
    8000763c:	00f40d33          	add	s10,s0,a5
    80007640:	017687b3          	add	a5,a3,s7
    80007644:	16f13023          	sd	a5,352(sp)
    80007648:	0e013783          	ld	a5,224(sp)
    8000764c:	10013423          	sd	zero,264(sp)
    80007650:	17213423          	sd	s2,360(sp)
    80007654:	017787b3          	add	a5,a5,s7
    80007658:	14f13c23          	sd	a5,344(sp)
    8000765c:	16813823          	sd	s0,368(sp)
    80007660:	12d13c23          	sd	a3,312(sp)
    80007664:	00098a13          	mv	s4,s3
    80007668:	00040493          	mv	s1,s0
    8000766c:	000d0793          	mv	a5,s10
    80007670:	19713023          	sd	s7,384(sp)
    80007674:	14813703          	ld	a4,328(sp)
    80007678:	0004bd03          	ld	s10,0(s1)
    8000767c:	0084bc83          	ld	s9,8(s1)
    80007680:	00e48933          	add	s2,s1,a4
    80007684:	00e789b3          	add	s3,a5,a4
    80007688:	0104b703          	ld	a4,16(s1)
    8000768c:	02e13423          	sd	a4,40(sp)
    80007690:	0184b703          	ld	a4,24(s1)
    80007694:	02e13823          	sd	a4,48(sp)
    80007698:	0204b703          	ld	a4,32(s1)
    8000769c:	02e13c23          	sd	a4,56(sp)
    800076a0:	0007b703          	ld	a4,0(a5)
    800076a4:	04e13023          	sd	a4,64(sp)
    800076a8:	0087b703          	ld	a4,8(a5)
    800076ac:	04e13423          	sd	a4,72(sp)
    800076b0:	0107b703          	ld	a4,16(a5)
    800076b4:	04e13823          	sd	a4,80(sp)
    800076b8:	0187b703          	ld	a4,24(a5)
    800076bc:	04e13c23          	sd	a4,88(sp)
    800076c0:	0207b703          	ld	a4,32(a5)
    800076c4:	02e13023          	sd	a4,32(sp)
    800076c8:	00093703          	ld	a4,0(s2)
    800076cc:	06e13023          	sd	a4,96(sp)
    800076d0:	00893703          	ld	a4,8(s2)
    800076d4:	06e13423          	sd	a4,104(sp)
    800076d8:	01093703          	ld	a4,16(s2)
    800076dc:	06e13823          	sd	a4,112(sp)
    800076e0:	01893703          	ld	a4,24(s2)
    800076e4:	06e13c23          	sd	a4,120(sp)
    800076e8:	02093703          	ld	a4,32(s2)
    800076ec:	00e13c23          	sd	a4,24(sp)
    800076f0:	0009b703          	ld	a4,0(s3)
    800076f4:	08e13023          	sd	a4,128(sp)
    800076f8:	0089b703          	ld	a4,8(s3)
    800076fc:	08e13423          	sd	a4,136(sp)
    80007700:	0109b703          	ld	a4,16(s3)
    80007704:	0e013683          	ld	a3,224(sp)
    80007708:	13813403          	ld	s0,312(sp)
    8000770c:	0ae13823          	sd	a4,176(sp)
    80007710:	0189b703          	ld	a4,24(s3)
    80007714:	0ae13c23          	sd	a4,184(sp)
    80007718:	0209b703          	ld	a4,32(s3)
    8000771c:	08e13823          	sd	a4,144(sp)
    80007720:	4ed47ce3          	bgeu	s0,a3,80008418 <mm+0xf60>
    80007724:	0f013683          	ld	a3,240(sp)
    80007728:	11313823          	sd	s3,272(sp)
    8000772c:	00040c13          	mv	s8,s0
    80007730:	01468db3          	add	s11,a3,s4
    80007734:	16013683          	ld	a3,352(sp)
    80007738:	09413c23          	sd	s4,152(sp)
    8000773c:	000d0993          	mv	s3,s10
    80007740:	00d13823          	sd	a3,16(sp)
    80007744:	11213c23          	sd	s2,280(sp)
    80007748:	13413023          	sd	s4,288(sp)
    8000774c:	12f13423          	sd	a5,296(sp)
    80007750:	12913823          	sd	s1,304(sp)
    80007754:	09813783          	ld	a5,152(sp)
    80007758:	000c3483          	ld	s1,0(s8)
    8000775c:	00098613          	mv	a2,s3
    80007760:	00fe0433          	add	s0,t3,a5
    80007764:	0007bb83          	ld	s7,0(a5)
    80007768:	00078993          	mv	s3,a5
    8000776c:	0f813783          	ld	a5,248(sp)
    80007770:	01be0d33          	add	s10,t3,s11
    80007774:	000b8593          	mv	a1,s7
    80007778:	01378b33          	add	s6,a5,s3
    8000777c:	00048513          	mv	a0,s1
    80007780:	01ae07b3          	add	a5,t3,s10
    80007784:	0dc13c23          	sd	t3,216(sp)
    80007788:	0af13423          	sd	a5,168(sp)
    8000778c:	0d613023          	sd	s6,192(sp)
    80007790:	080020ef          	jal	80009810 <__fma>
    80007794:	0089bb03          	ld	s6,8(s3)
    80007798:	00050913          	mv	s2,a0
    8000779c:	000c8613          	mv	a2,s9
    800077a0:	000b0593          	mv	a1,s6
    800077a4:	00048513          	mv	a0,s1
    800077a8:	068020ef          	jal	80009810 <__fma>
    800077ac:	0109ba83          	ld	s5,16(s3)
    800077b0:	02813603          	ld	a2,40(sp)
    800077b4:	00050793          	mv	a5,a0
    800077b8:	000a8593          	mv	a1,s5
    800077bc:	00048513          	mv	a0,s1
    800077c0:	02f13423          	sd	a5,40(sp)
    800077c4:	04c020ef          	jal	80009810 <__fma>
    800077c8:	0189ba03          	ld	s4,24(s3)
    800077cc:	03013603          	ld	a2,48(sp)
    800077d0:	00050793          	mv	a5,a0
    800077d4:	000a0593          	mv	a1,s4
    800077d8:	00048513          	mv	a0,s1
    800077dc:	02f13823          	sd	a5,48(sp)
    800077e0:	030020ef          	jal	80009810 <__fma>
    800077e4:	0209b983          	ld	s3,32(s3)
    800077e8:	03813603          	ld	a2,56(sp)
    800077ec:	00050793          	mv	a5,a0
    800077f0:	00098593          	mv	a1,s3
    800077f4:	00048513          	mv	a0,s1
    800077f8:	02f13c23          	sd	a5,56(sp)
    800077fc:	014020ef          	jal	80009810 <__fma>
    80007800:	01013703          	ld	a4,16(sp)
    80007804:	04013603          	ld	a2,64(sp)
    80007808:	00050793          	mv	a5,a0
    8000780c:	00073483          	ld	s1,0(a4)
    80007810:	000b8513          	mv	a0,s7
    80007814:	04f13023          	sd	a5,64(sp)
    80007818:	00048593          	mv	a1,s1
    8000781c:	7f5010ef          	jal	80009810 <__fma>
    80007820:	04813603          	ld	a2,72(sp)
    80007824:	00050793          	mv	a5,a0
    80007828:	00048593          	mv	a1,s1
    8000782c:	000b0513          	mv	a0,s6
    80007830:	04f13423          	sd	a5,72(sp)
    80007834:	7dd010ef          	jal	80009810 <__fma>
    80007838:	05013603          	ld	a2,80(sp)
    8000783c:	00050793          	mv	a5,a0
    80007840:	00048593          	mv	a1,s1
    80007844:	000a8513          	mv	a0,s5
    80007848:	04f13823          	sd	a5,80(sp)
    8000784c:	7c5010ef          	jal	80009810 <__fma>
    80007850:	05813603          	ld	a2,88(sp)
    80007854:	00050793          	mv	a5,a0
    80007858:	00048593          	mv	a1,s1
    8000785c:	000a0513          	mv	a0,s4
    80007860:	04f13c23          	sd	a5,88(sp)
    80007864:	7ad010ef          	jal	80009810 <__fma>
    80007868:	02013603          	ld	a2,32(sp)
    8000786c:	00050793          	mv	a5,a0
    80007870:	00048593          	mv	a1,s1
    80007874:	00098513          	mv	a0,s3
    80007878:	0cf13423          	sd	a5,200(sp)
    8000787c:	795010ef          	jal	80009810 <__fma>
    80007880:	0a013683          	ld	a3,160(sp)
    80007884:	06013603          	ld	a2,96(sp)
    80007888:	00050793          	mv	a5,a0
    8000788c:	00dc06b3          	add	a3,s8,a3
    80007890:	0006b483          	ld	s1,0(a3)
    80007894:	02d13023          	sd	a3,32(sp)
    80007898:	000b8513          	mv	a0,s7
    8000789c:	00048593          	mv	a1,s1
    800078a0:	06f13023          	sd	a5,96(sp)
    800078a4:	76d010ef          	jal	80009810 <__fma>
    800078a8:	06813603          	ld	a2,104(sp)
    800078ac:	00050793          	mv	a5,a0
    800078b0:	00048593          	mv	a1,s1
    800078b4:	000b0513          	mv	a0,s6
    800078b8:	06f13423          	sd	a5,104(sp)
    800078bc:	755010ef          	jal	80009810 <__fma>
    800078c0:	07013603          	ld	a2,112(sp)
    800078c4:	00050793          	mv	a5,a0
    800078c8:	00048593          	mv	a1,s1
    800078cc:	000a8513          	mv	a0,s5
    800078d0:	06f13823          	sd	a5,112(sp)
    800078d4:	73d010ef          	jal	80009810 <__fma>
    800078d8:	07813603          	ld	a2,120(sp)
    800078dc:	00050793          	mv	a5,a0
    800078e0:	00048593          	mv	a1,s1
    800078e4:	000a0513          	mv	a0,s4
    800078e8:	06f13c23          	sd	a5,120(sp)
    800078ec:	725010ef          	jal	80009810 <__fma>
    800078f0:	01813603          	ld	a2,24(sp)
    800078f4:	00050793          	mv	a5,a0
    800078f8:	00048593          	mv	a1,s1
    800078fc:	00098513          	mv	a0,s3
    80007900:	0cf13823          	sd	a5,208(sp)
    80007904:	70d010ef          	jal	80009810 <__fma>
    80007908:	01013703          	ld	a4,16(sp)
    8000790c:	0a013583          	ld	a1,160(sp)
    80007910:	08013603          	ld	a2,128(sp)
    80007914:	00050c93          	mv	s9,a0
    80007918:	00b705b3          	add	a1,a4,a1
    8000791c:	0005b483          	ld	s1,0(a1)
    80007920:	00b13c23          	sd	a1,24(sp)
    80007924:	000b8513          	mv	a0,s7
    80007928:	00048593          	mv	a1,s1
    8000792c:	6e5010ef          	jal	80009810 <__fma>
    80007930:	08813603          	ld	a2,136(sp)
    80007934:	00050793          	mv	a5,a0
    80007938:	00048593          	mv	a1,s1
    8000793c:	000b0513          	mv	a0,s6
    80007940:	08f13023          	sd	a5,128(sp)
    80007944:	6cd010ef          	jal	80009810 <__fma>
    80007948:	0b013603          	ld	a2,176(sp)
    8000794c:	00050b93          	mv	s7,a0
    80007950:	00048593          	mv	a1,s1
    80007954:	000a8513          	mv	a0,s5
    80007958:	6b9010ef          	jal	80009810 <__fma>
    8000795c:	0b813603          	ld	a2,184(sp)
    80007960:	00050793          	mv	a5,a0
    80007964:	00048593          	mv	a1,s1
    80007968:	000a0513          	mv	a0,s4
    8000796c:	08f13423          	sd	a5,136(sp)
    80007970:	6a1010ef          	jal	80009810 <__fma>
    80007974:	09013603          	ld	a2,144(sp)
    80007978:	00050793          	mv	a5,a0
    8000797c:	00048593          	mv	a1,s1
    80007980:	00098513          	mv	a0,s3
    80007984:	08f13823          	sd	a5,144(sp)
    80007988:	689010ef          	jal	80009810 <__fma>
    8000798c:	008c3483          	ld	s1,8(s8)
    80007990:	000dba83          	ld	s5,0(s11)
    80007994:	00050b13          	mv	s6,a0
    80007998:	00090613          	mv	a2,s2
    8000799c:	000a8593          	mv	a1,s5
    800079a0:	00048513          	mv	a0,s1
    800079a4:	66d010ef          	jal	80009810 <__fma>
    800079a8:	008dba03          	ld	s4,8(s11)
    800079ac:	02813603          	ld	a2,40(sp)
    800079b0:	00050793          	mv	a5,a0
    800079b4:	000a0593          	mv	a1,s4
    800079b8:	00048513          	mv	a0,s1
    800079bc:	02f13423          	sd	a5,40(sp)
    800079c0:	651010ef          	jal	80009810 <__fma>
    800079c4:	010db983          	ld	s3,16(s11)
    800079c8:	03013603          	ld	a2,48(sp)
    800079cc:	00050793          	mv	a5,a0
    800079d0:	00098593          	mv	a1,s3
    800079d4:	00048513          	mv	a0,s1
    800079d8:	02f13823          	sd	a5,48(sp)
    800079dc:	635010ef          	jal	80009810 <__fma>
    800079e0:	018db903          	ld	s2,24(s11)
    800079e4:	03813603          	ld	a2,56(sp)
    800079e8:	00050793          	mv	a5,a0
    800079ec:	00090593          	mv	a1,s2
    800079f0:	00048513          	mv	a0,s1
    800079f4:	02f13c23          	sd	a5,56(sp)
    800079f8:	619010ef          	jal	80009810 <__fma>
    800079fc:	020dbd83          	ld	s11,32(s11)
    80007a00:	04013603          	ld	a2,64(sp)
    80007a04:	00050793          	mv	a5,a0
    80007a08:	000d8593          	mv	a1,s11
    80007a0c:	00048513          	mv	a0,s1
    80007a10:	04f13023          	sd	a5,64(sp)
    80007a14:	5fd010ef          	jal	80009810 <__fma>
    80007a18:	01013703          	ld	a4,16(sp)
    80007a1c:	04813603          	ld	a2,72(sp)
    80007a20:	00050793          	mv	a5,a0
    80007a24:	00873483          	ld	s1,8(a4)
    80007a28:	000a8513          	mv	a0,s5
    80007a2c:	04f13423          	sd	a5,72(sp)
    80007a30:	00048593          	mv	a1,s1
    80007a34:	5dd010ef          	jal	80009810 <__fma>
    80007a38:	05013603          	ld	a2,80(sp)
    80007a3c:	00050793          	mv	a5,a0
    80007a40:	00048593          	mv	a1,s1
    80007a44:	000a0513          	mv	a0,s4
    80007a48:	04f13823          	sd	a5,80(sp)
    80007a4c:	5c5010ef          	jal	80009810 <__fma>
    80007a50:	05813603          	ld	a2,88(sp)
    80007a54:	00050793          	mv	a5,a0
    80007a58:	00048593          	mv	a1,s1
    80007a5c:	00098513          	mv	a0,s3
    80007a60:	04f13c23          	sd	a5,88(sp)
    80007a64:	5ad010ef          	jal	80009810 <__fma>
    80007a68:	0c813603          	ld	a2,200(sp)
    80007a6c:	00050793          	mv	a5,a0
    80007a70:	00048593          	mv	a1,s1
    80007a74:	00090513          	mv	a0,s2
    80007a78:	0af13823          	sd	a5,176(sp)
    80007a7c:	595010ef          	jal	80009810 <__fma>
    80007a80:	06013603          	ld	a2,96(sp)
    80007a84:	00050793          	mv	a5,a0
    80007a88:	00048593          	mv	a1,s1
    80007a8c:	000d8513          	mv	a0,s11
    80007a90:	06f13023          	sd	a5,96(sp)
    80007a94:	57d010ef          	jal	80009810 <__fma>
    80007a98:	02013683          	ld	a3,32(sp)
    80007a9c:	06813603          	ld	a2,104(sp)
    80007aa0:	00050793          	mv	a5,a0
    80007aa4:	0086b483          	ld	s1,8(a3)
    80007aa8:	000a8513          	mv	a0,s5
    80007aac:	06f13423          	sd	a5,104(sp)
    80007ab0:	00048593          	mv	a1,s1
    80007ab4:	55d010ef          	jal	80009810 <__fma>
    80007ab8:	07013603          	ld	a2,112(sp)
    80007abc:	00050793          	mv	a5,a0
    80007ac0:	00048593          	mv	a1,s1
    80007ac4:	000a0513          	mv	a0,s4
    80007ac8:	06f13823          	sd	a5,112(sp)
    80007acc:	545010ef          	jal	80009810 <__fma>
    80007ad0:	07813603          	ld	a2,120(sp)
    80007ad4:	00050793          	mv	a5,a0
    80007ad8:	00048593          	mv	a1,s1
    80007adc:	00098513          	mv	a0,s3
    80007ae0:	06f13c23          	sd	a5,120(sp)
    80007ae4:	52d010ef          	jal	80009810 <__fma>
    80007ae8:	0d013603          	ld	a2,208(sp)
    80007aec:	00050793          	mv	a5,a0
    80007af0:	00048593          	mv	a1,s1
    80007af4:	00090513          	mv	a0,s2
    80007af8:	0af13c23          	sd	a5,184(sp)
    80007afc:	515010ef          	jal	80009810 <__fma>
    80007b00:	00050793          	mv	a5,a0
    80007b04:	000c8613          	mv	a2,s9
    80007b08:	00048593          	mv	a1,s1
    80007b0c:	000d8513          	mv	a0,s11
    80007b10:	00078c93          	mv	s9,a5
    80007b14:	4fd010ef          	jal	80009810 <__fma>
    80007b18:	01813583          	ld	a1,24(sp)
    80007b1c:	08013603          	ld	a2,128(sp)
    80007b20:	00050793          	mv	a5,a0
    80007b24:	0085b483          	ld	s1,8(a1)
    80007b28:	000a8513          	mv	a0,s5
    80007b2c:	08f13023          	sd	a5,128(sp)
    80007b30:	00048593          	mv	a1,s1
    80007b34:	4dd010ef          	jal	80009810 <__fma>
    80007b38:	00050793          	mv	a5,a0
    80007b3c:	000b8613          	mv	a2,s7
    80007b40:	00048593          	mv	a1,s1
    80007b44:	000a0513          	mv	a0,s4
    80007b48:	00078b93          	mv	s7,a5
    80007b4c:	4c5010ef          	jal	80009810 <__fma>
    80007b50:	08813603          	ld	a2,136(sp)
    80007b54:	00050793          	mv	a5,a0
    80007b58:	00048593          	mv	a1,s1
    80007b5c:	00098513          	mv	a0,s3
    80007b60:	08f13423          	sd	a5,136(sp)
    80007b64:	4ad010ef          	jal	80009810 <__fma>
    80007b68:	09013603          	ld	a2,144(sp)
    80007b6c:	00050793          	mv	a5,a0
    80007b70:	00048593          	mv	a1,s1
    80007b74:	00090513          	mv	a0,s2
    80007b78:	08f13823          	sd	a5,144(sp)
    80007b7c:	495010ef          	jal	80009810 <__fma>
    80007b80:	00050793          	mv	a5,a0
    80007b84:	000b0613          	mv	a2,s6
    80007b88:	00048593          	mv	a1,s1
    80007b8c:	000d8513          	mv	a0,s11
    80007b90:	00078d93          	mv	s11,a5
    80007b94:	47d010ef          	jal	80009810 <__fma>
    80007b98:	010c3483          	ld	s1,16(s8)
    80007b9c:	00043983          	ld	s3,0(s0)
    80007ba0:	02813603          	ld	a2,40(sp)
    80007ba4:	00050a13          	mv	s4,a0
    80007ba8:	00098593          	mv	a1,s3
    80007bac:	00048513          	mv	a0,s1
    80007bb0:	461010ef          	jal	80009810 <__fma>
    80007bb4:	00843903          	ld	s2,8(s0)
    80007bb8:	03013603          	ld	a2,48(sp)
    80007bbc:	00050793          	mv	a5,a0
    80007bc0:	00090593          	mv	a1,s2
    80007bc4:	00048513          	mv	a0,s1
    80007bc8:	02f13423          	sd	a5,40(sp)
    80007bcc:	445010ef          	jal	80009810 <__fma>
    80007bd0:	01043a83          	ld	s5,16(s0)
    80007bd4:	03813603          	ld	a2,56(sp)
    80007bd8:	00050793          	mv	a5,a0
    80007bdc:	000a8593          	mv	a1,s5
    80007be0:	00048513          	mv	a0,s1
    80007be4:	02f13823          	sd	a5,48(sp)
    80007be8:	429010ef          	jal	80009810 <__fma>
    80007bec:	01843b03          	ld	s6,24(s0)
    80007bf0:	04013603          	ld	a2,64(sp)
    80007bf4:	00050793          	mv	a5,a0
    80007bf8:	000b0593          	mv	a1,s6
    80007bfc:	00048513          	mv	a0,s1
    80007c00:	02f13c23          	sd	a5,56(sp)
    80007c04:	40d010ef          	jal	80009810 <__fma>
    80007c08:	02043403          	ld	s0,32(s0)
    80007c0c:	04813603          	ld	a2,72(sp)
    80007c10:	00050793          	mv	a5,a0
    80007c14:	00040593          	mv	a1,s0
    80007c18:	00048513          	mv	a0,s1
    80007c1c:	04f13023          	sd	a5,64(sp)
    80007c20:	3f1010ef          	jal	80009810 <__fma>
    80007c24:	01013703          	ld	a4,16(sp)
    80007c28:	05013603          	ld	a2,80(sp)
    80007c2c:	00050793          	mv	a5,a0
    80007c30:	01073483          	ld	s1,16(a4)
    80007c34:	00098513          	mv	a0,s3
    80007c38:	04f13423          	sd	a5,72(sp)
    80007c3c:	00048593          	mv	a1,s1
    80007c40:	3d1010ef          	jal	80009810 <__fma>
    80007c44:	05813603          	ld	a2,88(sp)
    80007c48:	00050793          	mv	a5,a0
    80007c4c:	00048593          	mv	a1,s1
    80007c50:	00090513          	mv	a0,s2
    80007c54:	04f13823          	sd	a5,80(sp)
    80007c58:	3b9010ef          	jal	80009810 <__fma>
    80007c5c:	0b013603          	ld	a2,176(sp)
    80007c60:	00050793          	mv	a5,a0
    80007c64:	00048593          	mv	a1,s1
    80007c68:	000a8513          	mv	a0,s5
    80007c6c:	04f13c23          	sd	a5,88(sp)
    80007c70:	3a1010ef          	jal	80009810 <__fma>
    80007c74:	06013603          	ld	a2,96(sp)
    80007c78:	00050793          	mv	a5,a0
    80007c7c:	00048593          	mv	a1,s1
    80007c80:	000b0513          	mv	a0,s6
    80007c84:	06f13023          	sd	a5,96(sp)
    80007c88:	389010ef          	jal	80009810 <__fma>
    80007c8c:	06813603          	ld	a2,104(sp)
    80007c90:	00050793          	mv	a5,a0
    80007c94:	00048593          	mv	a1,s1
    80007c98:	00040513          	mv	a0,s0
    80007c9c:	06f13423          	sd	a5,104(sp)
    80007ca0:	371010ef          	jal	80009810 <__fma>
    80007ca4:	02013683          	ld	a3,32(sp)
    80007ca8:	07013603          	ld	a2,112(sp)
    80007cac:	00050793          	mv	a5,a0
    80007cb0:	0106b483          	ld	s1,16(a3)
    80007cb4:	00098513          	mv	a0,s3
    80007cb8:	06f13823          	sd	a5,112(sp)
    80007cbc:	00048593          	mv	a1,s1
    80007cc0:	351010ef          	jal	80009810 <__fma>
    80007cc4:	07813603          	ld	a2,120(sp)
    80007cc8:	00050793          	mv	a5,a0
    80007ccc:	00048593          	mv	a1,s1
    80007cd0:	00090513          	mv	a0,s2
    80007cd4:	06f13c23          	sd	a5,120(sp)
    80007cd8:	339010ef          	jal	80009810 <__fma>
    80007cdc:	0b813603          	ld	a2,184(sp)
    80007ce0:	00050793          	mv	a5,a0
    80007ce4:	00048593          	mv	a1,s1
    80007ce8:	000a8513          	mv	a0,s5
    80007cec:	0af13823          	sd	a5,176(sp)
    80007cf0:	321010ef          	jal	80009810 <__fma>
    80007cf4:	00050793          	mv	a5,a0
    80007cf8:	000c8613          	mv	a2,s9
    80007cfc:	00048593          	mv	a1,s1
    80007d00:	000b0513          	mv	a0,s6
    80007d04:	00078c93          	mv	s9,a5
    80007d08:	309010ef          	jal	80009810 <__fma>
    80007d0c:	08013603          	ld	a2,128(sp)
    80007d10:	00050793          	mv	a5,a0
    80007d14:	00048593          	mv	a1,s1
    80007d18:	00040513          	mv	a0,s0
    80007d1c:	08f13023          	sd	a5,128(sp)
    80007d20:	2f1010ef          	jal	80009810 <__fma>
    80007d24:	01813583          	ld	a1,24(sp)
    80007d28:	00050793          	mv	a5,a0
    80007d2c:	000b8613          	mv	a2,s7
    80007d30:	0105b483          	ld	s1,16(a1)
    80007d34:	00098513          	mv	a0,s3
    80007d38:	00078b93          	mv	s7,a5
    80007d3c:	00048593          	mv	a1,s1
    80007d40:	2d1010ef          	jal	80009810 <__fma>
    80007d44:	08813603          	ld	a2,136(sp)
    80007d48:	00050793          	mv	a5,a0
    80007d4c:	00048593          	mv	a1,s1
    80007d50:	00090513          	mv	a0,s2
    80007d54:	08f13423          	sd	a5,136(sp)
    80007d58:	2b9010ef          	jal	80009810 <__fma>
    80007d5c:	09013603          	ld	a2,144(sp)
    80007d60:	00050793          	mv	a5,a0
    80007d64:	00048593          	mv	a1,s1
    80007d68:	000a8513          	mv	a0,s5
    80007d6c:	08f13823          	sd	a5,144(sp)
    80007d70:	2a1010ef          	jal	80009810 <__fma>
    80007d74:	00050793          	mv	a5,a0
    80007d78:	000d8613          	mv	a2,s11
    80007d7c:	00048593          	mv	a1,s1
    80007d80:	000b0513          	mv	a0,s6
    80007d84:	00078d93          	mv	s11,a5
    80007d88:	289010ef          	jal	80009810 <__fma>
    80007d8c:	00050793          	mv	a5,a0
    80007d90:	000a0613          	mv	a2,s4
    80007d94:	00048593          	mv	a1,s1
    80007d98:	00040513          	mv	a0,s0
    80007d9c:	0af13c23          	sd	a5,184(sp)
    80007da0:	271010ef          	jal	80009810 <__fma>
    80007da4:	018c3403          	ld	s0,24(s8)
    80007da8:	000d3903          	ld	s2,0(s10)
    80007dac:	02813603          	ld	a2,40(sp)
    80007db0:	00050993          	mv	s3,a0
    80007db4:	00090593          	mv	a1,s2
    80007db8:	00040513          	mv	a0,s0
    80007dbc:	255010ef          	jal	80009810 <__fma>
    80007dc0:	008d3483          	ld	s1,8(s10)
    80007dc4:	03013603          	ld	a2,48(sp)
    80007dc8:	00050793          	mv	a5,a0
    80007dcc:	00048593          	mv	a1,s1
    80007dd0:	00040513          	mv	a0,s0
    80007dd4:	02f13423          	sd	a5,40(sp)
    80007dd8:	239010ef          	jal	80009810 <__fma>
    80007ddc:	010d3a03          	ld	s4,16(s10)
    80007de0:	03813603          	ld	a2,56(sp)
    80007de4:	00050793          	mv	a5,a0
    80007de8:	000a0593          	mv	a1,s4
    80007dec:	00040513          	mv	a0,s0
    80007df0:	02f13823          	sd	a5,48(sp)
    80007df4:	21d010ef          	jal	80009810 <__fma>
    80007df8:	018d3a83          	ld	s5,24(s10)
    80007dfc:	04013603          	ld	a2,64(sp)
    80007e00:	00050793          	mv	a5,a0
    80007e04:	000a8593          	mv	a1,s5
    80007e08:	00040513          	mv	a0,s0
    80007e0c:	02f13c23          	sd	a5,56(sp)
    80007e10:	201010ef          	jal	80009810 <__fma>
    80007e14:	020d3b03          	ld	s6,32(s10)
    80007e18:	04813603          	ld	a2,72(sp)
    80007e1c:	00050793          	mv	a5,a0
    80007e20:	000b0593          	mv	a1,s6
    80007e24:	00040513          	mv	a0,s0
    80007e28:	04f13023          	sd	a5,64(sp)
    80007e2c:	1e5010ef          	jal	80009810 <__fma>
    80007e30:	01013703          	ld	a4,16(sp)
    80007e34:	05013603          	ld	a2,80(sp)
    80007e38:	00050793          	mv	a5,a0
    80007e3c:	01873403          	ld	s0,24(a4)
    80007e40:	00090513          	mv	a0,s2
    80007e44:	04f13423          	sd	a5,72(sp)
    80007e48:	00040593          	mv	a1,s0
    80007e4c:	1c5010ef          	jal	80009810 <__fma>
    80007e50:	05813603          	ld	a2,88(sp)
    80007e54:	00050793          	mv	a5,a0
    80007e58:	00040593          	mv	a1,s0
    80007e5c:	00048513          	mv	a0,s1
    80007e60:	04f13823          	sd	a5,80(sp)
    80007e64:	1ad010ef          	jal	80009810 <__fma>
    80007e68:	06013603          	ld	a2,96(sp)
    80007e6c:	00050793          	mv	a5,a0
    80007e70:	00040593          	mv	a1,s0
    80007e74:	000a0513          	mv	a0,s4
    80007e78:	00078d13          	mv	s10,a5
    80007e7c:	195010ef          	jal	80009810 <__fma>
    80007e80:	06813603          	ld	a2,104(sp)
    80007e84:	00050793          	mv	a5,a0
    80007e88:	00040593          	mv	a1,s0
    80007e8c:	000a8513          	mv	a0,s5
    80007e90:	04f13c23          	sd	a5,88(sp)
    80007e94:	17d010ef          	jal	80009810 <__fma>
    80007e98:	07013603          	ld	a2,112(sp)
    80007e9c:	00050793          	mv	a5,a0
    80007ea0:	00040593          	mv	a1,s0
    80007ea4:	000b0513          	mv	a0,s6
    80007ea8:	06f13023          	sd	a5,96(sp)
    80007eac:	165010ef          	jal	80009810 <__fma>
    80007eb0:	02013683          	ld	a3,32(sp)
    80007eb4:	07813603          	ld	a2,120(sp)
    80007eb8:	00050793          	mv	a5,a0
    80007ebc:	0186b403          	ld	s0,24(a3)
    80007ec0:	00090513          	mv	a0,s2
    80007ec4:	06f13423          	sd	a5,104(sp)
    80007ec8:	00040593          	mv	a1,s0
    80007ecc:	145010ef          	jal	80009810 <__fma>
    80007ed0:	0b013603          	ld	a2,176(sp)
    80007ed4:	00050793          	mv	a5,a0
    80007ed8:	00040593          	mv	a1,s0
    80007edc:	00048513          	mv	a0,s1
    80007ee0:	06f13823          	sd	a5,112(sp)
    80007ee4:	12d010ef          	jal	80009810 <__fma>
    80007ee8:	00050793          	mv	a5,a0
    80007eec:	000c8613          	mv	a2,s9
    80007ef0:	00040593          	mv	a1,s0
    80007ef4:	000a0513          	mv	a0,s4
    80007ef8:	00078c93          	mv	s9,a5
    80007efc:	115010ef          	jal	80009810 <__fma>
    80007f00:	08013603          	ld	a2,128(sp)
    80007f04:	00050793          	mv	a5,a0
    80007f08:	00040593          	mv	a1,s0
    80007f0c:	000a8513          	mv	a0,s5
    80007f10:	06f13c23          	sd	a5,120(sp)
    80007f14:	0fd010ef          	jal	80009810 <__fma>
    80007f18:	00050793          	mv	a5,a0
    80007f1c:	000b8613          	mv	a2,s7
    80007f20:	00040593          	mv	a1,s0
    80007f24:	000b0513          	mv	a0,s6
    80007f28:	00078b93          	mv	s7,a5
    80007f2c:	0e5010ef          	jal	80009810 <__fma>
    80007f30:	01813583          	ld	a1,24(sp)
    80007f34:	08813603          	ld	a2,136(sp)
    80007f38:	00050793          	mv	a5,a0
    80007f3c:	0185b403          	ld	s0,24(a1)
    80007f40:	00090513          	mv	a0,s2
    80007f44:	08f13023          	sd	a5,128(sp)
    80007f48:	00040593          	mv	a1,s0
    80007f4c:	0c5010ef          	jal	80009810 <__fma>
    80007f50:	09013603          	ld	a2,144(sp)
    80007f54:	00050793          	mv	a5,a0
    80007f58:	00040593          	mv	a1,s0
    80007f5c:	00048513          	mv	a0,s1
    80007f60:	08f13423          	sd	a5,136(sp)
    80007f64:	0ad010ef          	jal	80009810 <__fma>
    80007f68:	00050793          	mv	a5,a0
    80007f6c:	000d8613          	mv	a2,s11
    80007f70:	00040593          	mv	a1,s0
    80007f74:	000a0513          	mv	a0,s4
    80007f78:	00078d93          	mv	s11,a5
    80007f7c:	095010ef          	jal	80009810 <__fma>
    80007f80:	0b813603          	ld	a2,184(sp)
    80007f84:	00050793          	mv	a5,a0
    80007f88:	00040593          	mv	a1,s0
    80007f8c:	000a8513          	mv	a0,s5
    80007f90:	08f13823          	sd	a5,144(sp)
    80007f94:	07d010ef          	jal	80009810 <__fma>
    80007f98:	00050793          	mv	a5,a0
    80007f9c:	00098613          	mv	a2,s3
    80007fa0:	00040593          	mv	a1,s0
    80007fa4:	000b0513          	mv	a0,s6
    80007fa8:	0af13823          	sd	a5,176(sp)
    80007fac:	065010ef          	jal	80009810 <__fma>
    80007fb0:	0c013b03          	ld	s6,192(sp)
    80007fb4:	020c3403          	ld	s0,32(s8)
    80007fb8:	02813603          	ld	a2,40(sp)
    80007fbc:	000b3903          	ld	s2,0(s6)
    80007fc0:	00050993          	mv	s3,a0
    80007fc4:	00040513          	mv	a0,s0
    80007fc8:	00090593          	mv	a1,s2
    80007fcc:	045010ef          	jal	80009810 <__fma>
    80007fd0:	008b3483          	ld	s1,8(s6)
    80007fd4:	03013603          	ld	a2,48(sp)
    80007fd8:	00050793          	mv	a5,a0
    80007fdc:	00048593          	mv	a1,s1
    80007fe0:	00040513          	mv	a0,s0
    80007fe4:	02f13423          	sd	a5,40(sp)
    80007fe8:	029010ef          	jal	80009810 <__fma>
    80007fec:	010b3a03          	ld	s4,16(s6)
    80007ff0:	03813603          	ld	a2,56(sp)
    80007ff4:	00050793          	mv	a5,a0
    80007ff8:	000a0593          	mv	a1,s4
    80007ffc:	00040513          	mv	a0,s0
    80008000:	02f13823          	sd	a5,48(sp)
    80008004:	00d010ef          	jal	80009810 <__fma>
    80008008:	018b3a83          	ld	s5,24(s6)
    8000800c:	04013603          	ld	a2,64(sp)
    80008010:	00050793          	mv	a5,a0
    80008014:	000a8593          	mv	a1,s5
    80008018:	00040513          	mv	a0,s0
    8000801c:	02f13c23          	sd	a5,56(sp)
    80008020:	7f0010ef          	jal	80009810 <__fma>
    80008024:	020b3b03          	ld	s6,32(s6)
    80008028:	04813603          	ld	a2,72(sp)
    8000802c:	00050793          	mv	a5,a0
    80008030:	000b0593          	mv	a1,s6
    80008034:	00040513          	mv	a0,s0
    80008038:	04f13023          	sd	a5,64(sp)
    8000803c:	7d4010ef          	jal	80009810 <__fma>
    80008040:	01013703          	ld	a4,16(sp)
    80008044:	05013603          	ld	a2,80(sp)
    80008048:	00050793          	mv	a5,a0
    8000804c:	02073403          	ld	s0,32(a4)
    80008050:	00090513          	mv	a0,s2
    80008054:	04f13423          	sd	a5,72(sp)
    80008058:	00040593          	mv	a1,s0
    8000805c:	7b4010ef          	jal	80009810 <__fma>
    80008060:	00050793          	mv	a5,a0
    80008064:	000d0613          	mv	a2,s10
    80008068:	00040593          	mv	a1,s0
    8000806c:	00048513          	mv	a0,s1
    80008070:	00078d13          	mv	s10,a5
    80008074:	79c010ef          	jal	80009810 <__fma>
    80008078:	05813603          	ld	a2,88(sp)
    8000807c:	00050793          	mv	a5,a0
    80008080:	00040593          	mv	a1,s0
    80008084:	000a0513          	mv	a0,s4
    80008088:	04f13823          	sd	a5,80(sp)
    8000808c:	784010ef          	jal	80009810 <__fma>
    80008090:	06013603          	ld	a2,96(sp)
    80008094:	00050793          	mv	a5,a0
    80008098:	00040593          	mv	a1,s0
    8000809c:	000a8513          	mv	a0,s5
    800080a0:	04f13c23          	sd	a5,88(sp)
    800080a4:	76c010ef          	jal	80009810 <__fma>
    800080a8:	06813603          	ld	a2,104(sp)
    800080ac:	00050793          	mv	a5,a0
    800080b0:	00040593          	mv	a1,s0
    800080b4:	000b0513          	mv	a0,s6
    800080b8:	06f13023          	sd	a5,96(sp)
    800080bc:	754010ef          	jal	80009810 <__fma>
    800080c0:	02013683          	ld	a3,32(sp)
    800080c4:	07013603          	ld	a2,112(sp)
    800080c8:	00050793          	mv	a5,a0
    800080cc:	0206b403          	ld	s0,32(a3)
    800080d0:	00090513          	mv	a0,s2
    800080d4:	06f13423          	sd	a5,104(sp)
    800080d8:	00040593          	mv	a1,s0
    800080dc:	734010ef          	jal	80009810 <__fma>
    800080e0:	00050793          	mv	a5,a0
    800080e4:	000c8613          	mv	a2,s9
    800080e8:	00040593          	mv	a1,s0
    800080ec:	00048513          	mv	a0,s1
    800080f0:	06f13823          	sd	a5,112(sp)
    800080f4:	71c010ef          	jal	80009810 <__fma>
    800080f8:	07813603          	ld	a2,120(sp)
    800080fc:	00050793          	mv	a5,a0
    80008100:	00040593          	mv	a1,s0
    80008104:	000a0513          	mv	a0,s4
    80008108:	06f13c23          	sd	a5,120(sp)
    8000810c:	704010ef          	jal	80009810 <__fma>
    80008110:	00050793          	mv	a5,a0
    80008114:	000b8613          	mv	a2,s7
    80008118:	00040593          	mv	a1,s0
    8000811c:	000a8513          	mv	a0,s5
    80008120:	0af13c23          	sd	a5,184(sp)
    80008124:	6ec010ef          	jal	80009810 <__fma>
    80008128:	08013603          	ld	a2,128(sp)
    8000812c:	00050793          	mv	a5,a0
    80008130:	00040593          	mv	a1,s0
    80008134:	000b0513          	mv	a0,s6
    80008138:	08f13023          	sd	a5,128(sp)
    8000813c:	6d4010ef          	jal	80009810 <__fma>
    80008140:	01813583          	ld	a1,24(sp)
    80008144:	08813603          	ld	a2,136(sp)
    80008148:	00050793          	mv	a5,a0
    8000814c:	0205b403          	ld	s0,32(a1)
    80008150:	00090513          	mv	a0,s2
    80008154:	08f13423          	sd	a5,136(sp)
    80008158:	00040593          	mv	a1,s0
    8000815c:	6b4010ef          	jal	80009810 <__fma>
    80008160:	00050793          	mv	a5,a0
    80008164:	000d8613          	mv	a2,s11
    80008168:	00040593          	mv	a1,s0
    8000816c:	00048513          	mv	a0,s1
    80008170:	00078d93          	mv	s11,a5
    80008174:	69c010ef          	jal	80009810 <__fma>
    80008178:	09013603          	ld	a2,144(sp)
    8000817c:	00050793          	mv	a5,a0
    80008180:	00040593          	mv	a1,s0
    80008184:	000a0513          	mv	a0,s4
    80008188:	08f13823          	sd	a5,144(sp)
    8000818c:	684010ef          	jal	80009810 <__fma>
    80008190:	0b013603          	ld	a2,176(sp)
    80008194:	00050793          	mv	a5,a0
    80008198:	00040593          	mv	a1,s0
    8000819c:	000a8513          	mv	a0,s5
    800081a0:	0af13823          	sd	a5,176(sp)
    800081a4:	66c010ef          	jal	80009810 <__fma>
    800081a8:	00050793          	mv	a5,a0
    800081ac:	00098613          	mv	a2,s3
    800081b0:	00040593          	mv	a1,s0
    800081b4:	000b0513          	mv	a0,s6
    800081b8:	0cf13023          	sd	a5,192(sp)
    800081bc:	654010ef          	jal	80009810 <__fma>
    800081c0:	0a813b83          	ld	s7,168(sp)
    800081c4:	028c3403          	ld	s0,40(s8)
    800081c8:	02813603          	ld	a2,40(sp)
    800081cc:	000bb903          	ld	s2,0(s7)
    800081d0:	00050a13          	mv	s4,a0
    800081d4:	00040513          	mv	a0,s0
    800081d8:	00090593          	mv	a1,s2
    800081dc:	634010ef          	jal	80009810 <__fma>
    800081e0:	008bb483          	ld	s1,8(s7)
    800081e4:	03013603          	ld	a2,48(sp)
    800081e8:	00050993          	mv	s3,a0
    800081ec:	00048593          	mv	a1,s1
    800081f0:	00040513          	mv	a0,s0
    800081f4:	61c010ef          	jal	80009810 <__fma>
    800081f8:	010bba83          	ld	s5,16(s7)
    800081fc:	03813603          	ld	a2,56(sp)
    80008200:	00050c93          	mv	s9,a0
    80008204:	000a8593          	mv	a1,s5
    80008208:	00040513          	mv	a0,s0
    8000820c:	604010ef          	jal	80009810 <__fma>
    80008210:	018bbb03          	ld	s6,24(s7)
    80008214:	04013603          	ld	a2,64(sp)
    80008218:	00050793          	mv	a5,a0
    8000821c:	000b0593          	mv	a1,s6
    80008220:	00040513          	mv	a0,s0
    80008224:	02f13423          	sd	a5,40(sp)
    80008228:	5e8010ef          	jal	80009810 <__fma>
    8000822c:	020bbb83          	ld	s7,32(s7)
    80008230:	04813603          	ld	a2,72(sp)
    80008234:	00050793          	mv	a5,a0
    80008238:	000b8593          	mv	a1,s7
    8000823c:	00040513          	mv	a0,s0
    80008240:	02f13823          	sd	a5,48(sp)
    80008244:	5cc010ef          	jal	80009810 <__fma>
    80008248:	01013703          	ld	a4,16(sp)
    8000824c:	00050793          	mv	a5,a0
    80008250:	000d0613          	mv	a2,s10
    80008254:	02873403          	ld	s0,40(a4)
    80008258:	00090513          	mv	a0,s2
    8000825c:	02f13c23          	sd	a5,56(sp)
    80008260:	00040593          	mv	a1,s0
    80008264:	5ac010ef          	jal	80009810 <__fma>
    80008268:	05013603          	ld	a2,80(sp)
    8000826c:	00050793          	mv	a5,a0
    80008270:	00040593          	mv	a1,s0
    80008274:	00048513          	mv	a0,s1
    80008278:	04f13023          	sd	a5,64(sp)
    8000827c:	594010ef          	jal	80009810 <__fma>
    80008280:	05813603          	ld	a2,88(sp)
    80008284:	00050793          	mv	a5,a0
    80008288:	00040593          	mv	a1,s0
    8000828c:	000a8513          	mv	a0,s5
    80008290:	04f13423          	sd	a5,72(sp)
    80008294:	57c010ef          	jal	80009810 <__fma>
    80008298:	06013603          	ld	a2,96(sp)
    8000829c:	00050793          	mv	a5,a0
    800082a0:	00040593          	mv	a1,s0
    800082a4:	000b0513          	mv	a0,s6
    800082a8:	04f13823          	sd	a5,80(sp)
    800082ac:	564010ef          	jal	80009810 <__fma>
    800082b0:	06813603          	ld	a2,104(sp)
    800082b4:	00050793          	mv	a5,a0
    800082b8:	00040593          	mv	a1,s0
    800082bc:	000b8513          	mv	a0,s7
    800082c0:	04f13c23          	sd	a5,88(sp)
    800082c4:	54c010ef          	jal	80009810 <__fma>
    800082c8:	02013683          	ld	a3,32(sp)
    800082cc:	07013603          	ld	a2,112(sp)
    800082d0:	00050793          	mv	a5,a0
    800082d4:	0286b403          	ld	s0,40(a3)
    800082d8:	00090513          	mv	a0,s2
    800082dc:	02f13023          	sd	a5,32(sp)
    800082e0:	00040593          	mv	a1,s0
    800082e4:	52c010ef          	jal	80009810 <__fma>
    800082e8:	07813603          	ld	a2,120(sp)
    800082ec:	00040593          	mv	a1,s0
    800082f0:	00050d13          	mv	s10,a0
    800082f4:	00048513          	mv	a0,s1
    800082f8:	07a13023          	sd	s10,96(sp)
    800082fc:	514010ef          	jal	80009810 <__fma>
    80008300:	0b813603          	ld	a2,184(sp)
    80008304:	00050793          	mv	a5,a0
    80008308:	00040593          	mv	a1,s0
    8000830c:	000a8513          	mv	a0,s5
    80008310:	06f13423          	sd	a5,104(sp)
    80008314:	4fc010ef          	jal	80009810 <__fma>
    80008318:	08013603          	ld	a2,128(sp)
    8000831c:	00050793          	mv	a5,a0
    80008320:	00040593          	mv	a1,s0
    80008324:	000b0513          	mv	a0,s6
    80008328:	06f13823          	sd	a5,112(sp)
    8000832c:	4e4010ef          	jal	80009810 <__fma>
    80008330:	08813603          	ld	a2,136(sp)
    80008334:	00050793          	mv	a5,a0
    80008338:	00040593          	mv	a1,s0
    8000833c:	000b8513          	mv	a0,s7
    80008340:	06f13c23          	sd	a5,120(sp)
    80008344:	4cc010ef          	jal	80009810 <__fma>
    80008348:	01813583          	ld	a1,24(sp)
    8000834c:	00050793          	mv	a5,a0
    80008350:	000d8613          	mv	a2,s11
    80008354:	0285b403          	ld	s0,40(a1)
    80008358:	00090513          	mv	a0,s2
    8000835c:	00f13c23          	sd	a5,24(sp)
    80008360:	00040593          	mv	a1,s0
    80008364:	4ac010ef          	jal	80009810 <__fma>
    80008368:	09013603          	ld	a2,144(sp)
    8000836c:	00050793          	mv	a5,a0
    80008370:	00040593          	mv	a1,s0
    80008374:	00048513          	mv	a0,s1
    80008378:	08f13023          	sd	a5,128(sp)
    8000837c:	494010ef          	jal	80009810 <__fma>
    80008380:	0b013603          	ld	a2,176(sp)
    80008384:	00050793          	mv	a5,a0
    80008388:	00040593          	mv	a1,s0
    8000838c:	000a8513          	mv	a0,s5
    80008390:	08f13423          	sd	a5,136(sp)
    80008394:	47c010ef          	jal	80009810 <__fma>
    80008398:	0c013603          	ld	a2,192(sp)
    8000839c:	00050793          	mv	a5,a0
    800083a0:	00040593          	mv	a1,s0
    800083a4:	000b0513          	mv	a0,s6
    800083a8:	0af13823          	sd	a5,176(sp)
    800083ac:	464010ef          	jal	80009810 <__fma>
    800083b0:	00050793          	mv	a5,a0
    800083b4:	000a0613          	mv	a2,s4
    800083b8:	000b8513          	mv	a0,s7
    800083bc:	00040593          	mv	a1,s0
    800083c0:	0af13c23          	sd	a5,184(sp)
    800083c4:	44c010ef          	jal	80009810 <__fma>
    800083c8:	09813783          	ld	a5,152(sp)
    800083cc:	10013683          	ld	a3,256(sp)
    800083d0:	01013703          	ld	a4,16(sp)
    800083d4:	0a813b83          	ld	s7,168(sp)
    800083d8:	00d787b3          	add	a5,a5,a3
    800083dc:	08f13c23          	sd	a5,152(sp)
    800083e0:	03070793          	addi	a5,a4,48
    800083e4:	0d813e03          	ld	t3,216(sp)
    800083e8:	00f13823          	sd	a5,16(sp)
    800083ec:	0e013783          	ld	a5,224(sp)
    800083f0:	030c0c13          	addi	s8,s8,48
    800083f4:	08a13823          	sd	a0,144(sp)
    800083f8:	017e0db3          	add	s11,t3,s7
    800083fc:	b4fc6c63          	bltu	s8,a5,80007754 <mm+0x29c>
    80008400:	00098d13          	mv	s10,s3
    80008404:	11813903          	ld	s2,280(sp)
    80008408:	11013983          	ld	s3,272(sp)
    8000840c:	12013a03          	ld	s4,288(sp)
    80008410:	12813783          	ld	a5,296(sp)
    80008414:	13013483          	ld	s1,304(sp)
    80008418:	15013703          	ld	a4,336(sp)
    8000841c:	0e013b83          	ld	s7,224(sp)
    80008420:	01470c33          	add	s8,a4,s4
    80008424:	0e813703          	ld	a4,232(sp)
    80008428:	26ebfa63          	bgeu	s7,a4,8000869c <mm+0x11e4>
    8000842c:	15813b03          	ld	s6,344(sp)
    80008430:	0c913c23          	sd	s1,216(sp)
    80008434:	0b013d83          	ld	s11,176(sp)
    80008438:	000b8493          	mv	s1,s7
    8000843c:	000b0b93          	mv	s7,s6
    80008440:	0b813b03          	ld	s6,184(sp)
    80008444:	09c13c23          	sd	t3,152(sp)
    80008448:	01913823          	sd	s9,16(sp)
    8000844c:	0b313423          	sd	s3,168(sp)
    80008450:	0d213023          	sd	s2,192(sp)
    80008454:	0d413423          	sd	s4,200(sp)
    80008458:	0cf13823          	sd	a5,208(sp)
    8000845c:	0004b403          	ld	s0,0(s1)
    80008460:	000c3a83          	ld	s5,0(s8)
    80008464:	000d0613          	mv	a2,s10
    80008468:	00040513          	mv	a0,s0
    8000846c:	000a8593          	mv	a1,s5
    80008470:	3a0010ef          	jal	80009810 <__fma>
    80008474:	008c3a03          	ld	s4,8(s8)
    80008478:	01013603          	ld	a2,16(sp)
    8000847c:	00050d13          	mv	s10,a0
    80008480:	000a0593          	mv	a1,s4
    80008484:	00040513          	mv	a0,s0
    80008488:	388010ef          	jal	80009810 <__fma>
    8000848c:	010c3983          	ld	s3,16(s8)
    80008490:	02813603          	ld	a2,40(sp)
    80008494:	00050c93          	mv	s9,a0
    80008498:	00098593          	mv	a1,s3
    8000849c:	00040513          	mv	a0,s0
    800084a0:	01913823          	sd	s9,16(sp)
    800084a4:	36c010ef          	jal	80009810 <__fma>
    800084a8:	018c3903          	ld	s2,24(s8)
    800084ac:	03013603          	ld	a2,48(sp)
    800084b0:	00050713          	mv	a4,a0
    800084b4:	00090593          	mv	a1,s2
    800084b8:	00040513          	mv	a0,s0
    800084bc:	02e13423          	sd	a4,40(sp)
    800084c0:	350010ef          	jal	80009810 <__fma>
    800084c4:	020c3c83          	ld	s9,32(s8)
    800084c8:	03813603          	ld	a2,56(sp)
    800084cc:	00050713          	mv	a4,a0
    800084d0:	000c8593          	mv	a1,s9
    800084d4:	00040513          	mv	a0,s0
    800084d8:	02e13823          	sd	a4,48(sp)
    800084dc:	334010ef          	jal	80009810 <__fma>
    800084e0:	000bb403          	ld	s0,0(s7)
    800084e4:	04013603          	ld	a2,64(sp)
    800084e8:	00050713          	mv	a4,a0
    800084ec:	00040593          	mv	a1,s0
    800084f0:	000a8513          	mv	a0,s5
    800084f4:	02e13c23          	sd	a4,56(sp)
    800084f8:	318010ef          	jal	80009810 <__fma>
    800084fc:	04813603          	ld	a2,72(sp)
    80008500:	00050713          	mv	a4,a0
    80008504:	00040593          	mv	a1,s0
    80008508:	000a0513          	mv	a0,s4
    8000850c:	04e13023          	sd	a4,64(sp)
    80008510:	300010ef          	jal	80009810 <__fma>
    80008514:	05013603          	ld	a2,80(sp)
    80008518:	00050713          	mv	a4,a0
    8000851c:	00040593          	mv	a1,s0
    80008520:	00098513          	mv	a0,s3
    80008524:	04e13423          	sd	a4,72(sp)
    80008528:	2e8010ef          	jal	80009810 <__fma>
    8000852c:	05813603          	ld	a2,88(sp)
    80008530:	00050713          	mv	a4,a0
    80008534:	00040593          	mv	a1,s0
    80008538:	00090513          	mv	a0,s2
    8000853c:	04e13823          	sd	a4,80(sp)
    80008540:	2d0010ef          	jal	80009810 <__fma>
    80008544:	02013603          	ld	a2,32(sp)
    80008548:	00050713          	mv	a4,a0
    8000854c:	00040593          	mv	a1,s0
    80008550:	000c8513          	mv	a0,s9
    80008554:	04e13c23          	sd	a4,88(sp)
    80008558:	2b8010ef          	jal	80009810 <__fma>
    8000855c:	0a013783          	ld	a5,160(sp)
    80008560:	06013603          	ld	a2,96(sp)
    80008564:	00050713          	mv	a4,a0
    80008568:	00f486b3          	add	a3,s1,a5
    8000856c:	0006b403          	ld	s0,0(a3)
    80008570:	000a8513          	mv	a0,s5
    80008574:	02e13023          	sd	a4,32(sp)
    80008578:	00040593          	mv	a1,s0
    8000857c:	294010ef          	jal	80009810 <__fma>
    80008580:	06813603          	ld	a2,104(sp)
    80008584:	00050713          	mv	a4,a0
    80008588:	00040593          	mv	a1,s0
    8000858c:	000a0513          	mv	a0,s4
    80008590:	06e13023          	sd	a4,96(sp)
    80008594:	27c010ef          	jal	80009810 <__fma>
    80008598:	07013603          	ld	a2,112(sp)
    8000859c:	00050713          	mv	a4,a0
    800085a0:	00040593          	mv	a1,s0
    800085a4:	00098513          	mv	a0,s3
    800085a8:	06e13423          	sd	a4,104(sp)
    800085ac:	264010ef          	jal	80009810 <__fma>
    800085b0:	07813603          	ld	a2,120(sp)
    800085b4:	00050713          	mv	a4,a0
    800085b8:	00040593          	mv	a1,s0
    800085bc:	00090513          	mv	a0,s2
    800085c0:	06e13823          	sd	a4,112(sp)
    800085c4:	24c010ef          	jal	80009810 <__fma>
    800085c8:	01813603          	ld	a2,24(sp)
    800085cc:	00050713          	mv	a4,a0
    800085d0:	00040593          	mv	a1,s0
    800085d4:	000c8513          	mv	a0,s9
    800085d8:	06e13c23          	sd	a4,120(sp)
    800085dc:	234010ef          	jal	80009810 <__fma>
    800085e0:	0a013783          	ld	a5,160(sp)
    800085e4:	08013603          	ld	a2,128(sp)
    800085e8:	00050713          	mv	a4,a0
    800085ec:	00fb86b3          	add	a3,s7,a5
    800085f0:	0006b403          	ld	s0,0(a3)
    800085f4:	000a8513          	mv	a0,s5
    800085f8:	00e13c23          	sd	a4,24(sp)
    800085fc:	00040593          	mv	a1,s0
    80008600:	210010ef          	jal	80009810 <__fma>
    80008604:	08813603          	ld	a2,136(sp)
    80008608:	00050713          	mv	a4,a0
    8000860c:	00040593          	mv	a1,s0
    80008610:	000a0513          	mv	a0,s4
    80008614:	08e13023          	sd	a4,128(sp)
    80008618:	1f8010ef          	jal	80009810 <__fma>
    8000861c:	00050713          	mv	a4,a0
    80008620:	000d8613          	mv	a2,s11
    80008624:	00040593          	mv	a1,s0
    80008628:	00098513          	mv	a0,s3
    8000862c:	08e13423          	sd	a4,136(sp)
    80008630:	1e0010ef          	jal	80009810 <__fma>
    80008634:	000b0613          	mv	a2,s6
    80008638:	00040593          	mv	a1,s0
    8000863c:	00050d93          	mv	s11,a0
    80008640:	00090513          	mv	a0,s2
    80008644:	1cc010ef          	jal	80009810 <__fma>
    80008648:	09013603          	ld	a2,144(sp)
    8000864c:	00050b13          	mv	s6,a0
    80008650:	00040593          	mv	a1,s0
    80008654:	000c8513          	mv	a0,s9
    80008658:	1b8010ef          	jal	80009810 <__fma>
    8000865c:	0f013783          	ld	a5,240(sp)
    80008660:	00848493          	addi	s1,s1,8
    80008664:	08a13823          	sd	a0,144(sp)
    80008668:	00fc0c33          	add	s8,s8,a5
    8000866c:	0e813783          	ld	a5,232(sp)
    80008670:	008b8b93          	addi	s7,s7,8
    80008674:	def4e4e3          	bltu	s1,a5,8000845c <mm+0xfa4>
    80008678:	09813e03          	ld	t3,152(sp)
    8000867c:	01013c83          	ld	s9,16(sp)
    80008680:	0a813983          	ld	s3,168(sp)
    80008684:	0c013903          	ld	s2,192(sp)
    80008688:	0c813a03          	ld	s4,200(sp)
    8000868c:	0d013783          	ld	a5,208(sp)
    80008690:	0d813483          	ld	s1,216(sp)
    80008694:	0bb13823          	sd	s11,176(sp)
    80008698:	0b613c23          	sd	s6,184(sp)
    8000869c:	02813703          	ld	a4,40(sp)
    800086a0:	01a4b023          	sd	s10,0(s1)
    800086a4:	0194b423          	sd	s9,8(s1)
    800086a8:	00e4b823          	sd	a4,16(s1)
    800086ac:	03013703          	ld	a4,48(sp)
    800086b0:	02848493          	addi	s1,s1,40
    800086b4:	02878793          	addi	a5,a5,40
    800086b8:	fee4b823          	sd	a4,-16(s1)
    800086bc:	03813703          	ld	a4,56(sp)
    800086c0:	028a0a13          	addi	s4,s4,40
    800086c4:	fee4bc23          	sd	a4,-8(s1)
    800086c8:	04013703          	ld	a4,64(sp)
    800086cc:	fce7bc23          	sd	a4,-40(a5)
    800086d0:	04813703          	ld	a4,72(sp)
    800086d4:	fee7b023          	sd	a4,-32(a5)
    800086d8:	05013703          	ld	a4,80(sp)
    800086dc:	fee7b423          	sd	a4,-24(a5)
    800086e0:	05813703          	ld	a4,88(sp)
    800086e4:	fee7b823          	sd	a4,-16(a5)
    800086e8:	02013703          	ld	a4,32(sp)
    800086ec:	fee7bc23          	sd	a4,-8(a5)
    800086f0:	06013703          	ld	a4,96(sp)
    800086f4:	00e93023          	sd	a4,0(s2)
    800086f8:	06813703          	ld	a4,104(sp)
    800086fc:	00e93423          	sd	a4,8(s2)
    80008700:	07013703          	ld	a4,112(sp)
    80008704:	00e93823          	sd	a4,16(s2)
    80008708:	07813703          	ld	a4,120(sp)
    8000870c:	00e93c23          	sd	a4,24(s2)
    80008710:	01813703          	ld	a4,24(sp)
    80008714:	02e93023          	sd	a4,32(s2)
    80008718:	08013703          	ld	a4,128(sp)
    8000871c:	00e9b023          	sd	a4,0(s3)
    80008720:	08813703          	ld	a4,136(sp)
    80008724:	00e9b423          	sd	a4,8(s3)
    80008728:	0b013703          	ld	a4,176(sp)
    8000872c:	14013683          	ld	a3,320(sp)
    80008730:	00e9b823          	sd	a4,16(s3)
    80008734:	0b813703          	ld	a4,184(sp)
    80008738:	00e9bc23          	sd	a4,24(s3)
    8000873c:	09013703          	ld	a4,144(sp)
    80008740:	02e9b023          	sd	a4,32(s3)
    80008744:	10813703          	ld	a4,264(sp)
    80008748:	00570713          	addi	a4,a4,5
    8000874c:	10e13423          	sd	a4,264(sp)
    80008750:	00d77463          	bgeu	a4,a3,80008758 <mm+0x12a0>
    80008754:	f21fe06f          	j	80007674 <mm+0x1bc>
    80008758:	16813903          	ld	s2,360(sp)
    8000875c:	17013403          	ld	s0,368(sp)
    80008760:	17813483          	ld	s1,376(sp)
    80008764:	13813683          	ld	a3,312(sp)
    80008768:	18013b83          	ld	s7,384(sp)
    8000876c:	1b013783          	ld	a5,432(sp)
    80008770:	1a813803          	ld	a6,424(sp)
    80008774:	1a013703          	ld	a4,416(sp)
    80008778:	00f13023          	sd	a5,0(sp)
    8000877c:	1e013783          	ld	a5,480(sp)
    80008780:	19813603          	ld	a2,408(sp)
    80008784:	1b813583          	ld	a1,440(sp)
    80008788:	008788b3          	add	a7,a5,s0
    8000878c:	1c013783          	ld	a5,448(sp)
    80008790:	00400513          	li	a0,4
    80008794:	01c13c23          	sd	t3,24(sp)
    80008798:	00d13823          	sd	a3,16(sp)
    8000879c:	865f90ef          	jal	80002000 <mm_naive>
    800087a0:	0e813783          	ld	a5,232(sp)
    800087a4:	01013683          	ld	a3,16(sp)
    800087a8:	00490913          	addi	s2,s2,4
    800087ac:	009787b3          	add	a5,a5,s1
    800087b0:	0ef13423          	sd	a5,232(sp)
    800087b4:	0e013783          	ld	a5,224(sp)
    800087b8:	01813e03          	ld	t3,24(sp)
    800087bc:	009686b3          	add	a3,a3,s1
    800087c0:	009787b3          	add	a5,a5,s1
    800087c4:	0ef13023          	sd	a5,224(sp)
    800087c8:	1c813783          	ld	a5,456(sp)
    800087cc:	00f40433          	add	s0,s0,a5
    800087d0:	18813783          	ld	a5,392(sp)
    800087d4:	00f97463          	bgeu	s2,a5,800087dc <mm+0x1324>
    800087d8:	e49fe06f          	j	80007620 <mm+0x168>
    800087dc:	18813c83          	ld	s9,392(sp)
    800087e0:	1d013583          	ld	a1,464(sp)
    800087e4:	1e813a03          	ld	s4,488(sp)
    800087e8:	19013d03          	ld	s10,400(sp)
    800087ec:	19813603          	ld	a2,408(sp)
    800087f0:	1f013983          	ld	s3,496(sp)
    800087f4:	1a013d83          	ld	s11,416(sp)
    800087f8:	1d813783          	ld	a5,472(sp)
    800087fc:	1a813c03          	ld	s8,424(sp)
    80008800:	1f813b03          	ld	s6,504(sp)
    80008804:	1b013303          	ld	t1,432(sp)
    80008808:	26013403          	ld	s0,608(sp)
    8000880c:	25813483          	ld	s1,600(sp)
    80008810:	25013903          	ld	s2,592(sp)
    80008814:	23813a83          	ld	s5,568(sp)
    80008818:	02bc88b3          	mul	a7,s9,a1
    8000881c:	26813083          	ld	ra,616(sp)
    80008820:	419a0533          	sub	a0,s4,s9
    80008824:	000c0813          	mv	a6,s8
    80008828:	24013a03          	ld	s4,576(sp)
    8000882c:	22013c03          	ld	s8,544(sp)
    80008830:	000d8713          	mv	a4,s11
    80008834:	000d0593          	mv	a1,s10
    80008838:	20813d83          	ld	s11,520(sp)
    8000883c:	21013d03          	ld	s10,528(sp)
    80008840:	037c86b3          	mul	a3,s9,s7
    80008844:	011b08b3          	add	a7,s6,a7
    80008848:	22813b83          	ld	s7,552(sp)
    8000884c:	21813c83          	ld	s9,536(sp)
    80008850:	23013b03          	ld	s6,560(sp)
    80008854:	26613823          	sd	t1,624(sp)
    80008858:	00d986b3          	add	a3,s3,a3
    8000885c:	24813983          	ld	s3,584(sp)
    80008860:	27010113          	addi	sp,sp,624
    80008864:	f9cf906f          	j	80002000 <mm_naive>
    80008868:	26813083          	ld	ra,616(sp)
    8000886c:	000b0893          	mv	a7,s6
    80008870:	000c0813          	mv	a6,s8
    80008874:	23013b03          	ld	s6,560(sp)
    80008878:	22013c03          	ld	s8,544(sp)
    8000887c:	000d8713          	mv	a4,s11
    80008880:	00098693          	mv	a3,s3
    80008884:	20813d83          	ld	s11,520(sp)
    80008888:	24813983          	ld	s3,584(sp)
    8000888c:	000d0593          	mv	a1,s10
    80008890:	000a0513          	mv	a0,s4
    80008894:	21013d03          	ld	s10,528(sp)
    80008898:	24013a03          	ld	s4,576(sp)
    8000889c:	26613823          	sd	t1,624(sp)
    800088a0:	27010113          	addi	sp,sp,624
    800088a4:	a09f906f          	j	800022ac <mm_cb>

00000000800088a8 <barrier>:
    800088a8:	0ff0000f          	fence
    800088ac:	00022703          	lw	a4,0(tp) # 0 <threadsense.2>
    800088b0:	10c18693          	addi	a3,gp,268 # 8000ba5c <count.1>
    800088b4:	00100613          	li	a2,1
    800088b8:	00173713          	seqz	a4,a4
    800088bc:	00e22023          	sw	a4,0(tp) # 0 <threadsense.2>
    800088c0:	0f50000f          	fence	iorw,ow
    800088c4:	04c6a72f          	amoadd.w.aq	a4,a2,(a3)
    800088c8:	fff5051b          	addiw	a0,a0,-1
    800088cc:	0007071b          	sext.w	a4,a4
    800088d0:	00e50e63          	beq	a0,a4,800088ec <barrier+0x44>
    800088d4:	00022683          	lw	a3,0(tp) # 0 <threadsense.2>
    800088d8:	10818713          	addi	a4,gp,264 # 8000ba58 <sense.0>
    800088dc:	00072783          	lw	a5,0(a4)
    800088e0:	fed79ee3          	bne	a5,a3,800088dc <barrier+0x34>
    800088e4:	0ff0000f          	fence
    800088e8:	00008067          	ret
    800088ec:	00022783          	lw	a5,0(tp) # 0 <threadsense.2>
    800088f0:	1001a623          	sw	zero,268(gp) # 8000ba5c <count.1>
    800088f4:	10f1a423          	sw	a5,264(gp) # 8000ba58 <sense.0>
    800088f8:	fedff06f          	j	800088e4 <barrier+0x3c>

00000000800088fc <thread_entry>:
    800088fc:	f4010113          	addi	sp,sp,-192
    80008900:	fffff737          	lui	a4,0xfffff
    80008904:	0a113c23          	sd	ra,184(sp)
    80008908:	0a813823          	sd	s0,176(sp)
    8000890c:	0a913423          	sd	s1,168(sp)
    80008910:	0c010413          	addi	s0,sp,192
    80008914:	09313c23          	sd	s3,152(sp)
    80008918:	09413823          	sd	s4,144(sp)
    8000891c:	09513423          	sd	s5,136(sp)
    80008920:	09613023          	sd	s6,128(sp)
    80008924:	07713c23          	sd	s7,120(sp)
    80008928:	07813823          	sd	s8,112(sp)
    8000892c:	07913423          	sd	s9,104(sp)
    80008930:	0b213023          	sd	s2,160(sp)
    80008934:	07a13023          	sd	s10,96(sp)
    80008938:	05b13c23          	sd	s11,88(sp)
    8000893c:	e0070093          	addi	ra,a4,-512 # ffffffffffffee00 <_tbss_end+0xffffffff7fff32fc>
    80008940:	fffff7b7          	lui	a5,0xfffff
    80008944:	d4078293          	addi	t0,a5,-704 # ffffffffffffed40 <_tbss_end+0xffffffff7fff323c>
    80008948:	00110133          	add	sp,sp,ra
    8000894c:	01010313          	addi	t1,sp,16
    80008950:	00001b37          	lui	s6,0x1
    80008954:	00510133          	add	sp,sp,t0
    80008958:	37ab74b7          	lui	s1,0x37ab7
    8000895c:	01010693          	addi	a3,sp,16
    80008960:	2c0b0393          	addi	t2,s6,704 # 12c0 <buflen.1+0x1240>
    80008964:	00510133          	add	sp,sp,t0
    80008968:	00249613          	slli	a2,s1,0x2
    8000896c:	00100993          	li	s3,1
    80008970:	f8643023          	sd	t1,-128(s0)
    80008974:	f8d43423          	sd	a3,-120(s0)
    80008978:	f6a43423          	sd	a0,-152(s0)
    8000897c:	f4b43c23          	sd	a1,-168(s0)
    80008980:	01010a13          	addi	s4,sp,16
    80008984:	0c030a93          	addi	s5,t1,192
    80008988:	00730c33          	add	s8,t1,t2
    8000898c:	eef60c93          	addi	s9,a2,-273
    80008990:	03e99b93          	slli	s7,s3,0x3e
    80008994:	f40a8913          	addi	s2,s5,-192
    80008998:	001cd513          	srli	a0,s9,0x1
    8000899c:	019545b3          	xor	a1,a0,s9
    800089a0:	03e59813          	slli	a6,a1,0x3e
    800089a4:	017878b3          	and	a7,a6,s7
    800089a8:	00a8ecb3          	or	s9,a7,a0
    800089ac:	001cdd13          	srli	s10,s9,0x1
    800089b0:	000c8513          	mv	a0,s9
    800089b4:	638020ef          	jal	8000afec <__floatundidf>
    800089b8:	019d4db3          	xor	s11,s10,s9
    800089bc:	03ed9e13          	slli	t3,s11,0x3e
    800089c0:	017e7eb3          	and	t4,t3,s7
    800089c4:	01aeeb33          	or	s6,t4,s10
    800089c8:	00a93023          	sd	a0,0(s2)
    800089cc:	000b0513          	mv	a0,s6
    800089d0:	61c020ef          	jal	8000afec <__floatundidf>
    800089d4:	001b5f13          	srli	t5,s6,0x1
    800089d8:	016f4fb3          	xor	t6,t5,s6
    800089dc:	03ef9713          	slli	a4,t6,0x3e
    800089e0:	017777b3          	and	a5,a4,s7
    800089e4:	01e7e4b3          	or	s1,a5,t5
    800089e8:	00a93423          	sd	a0,8(s2)
    800089ec:	00048513          	mv	a0,s1
    800089f0:	5fc020ef          	jal	8000afec <__floatundidf>
    800089f4:	0014d293          	srli	t0,s1,0x1
    800089f8:	0092c333          	xor	t1,t0,s1
    800089fc:	03e31693          	slli	a3,t1,0x3e
    80008a00:	0176f3b3          	and	t2,a3,s7
    80008a04:	0053e9b3          	or	s3,t2,t0
    80008a08:	00a93823          	sd	a0,16(s2)
    80008a0c:	00098513          	mv	a0,s3
    80008a10:	5dc020ef          	jal	8000afec <__floatundidf>
    80008a14:	0019d613          	srli	a2,s3,0x1
    80008a18:	013645b3          	xor	a1,a2,s3
    80008a1c:	03e59813          	slli	a6,a1,0x3e
    80008a20:	017878b3          	and	a7,a6,s7
    80008a24:	00c8ecb3          	or	s9,a7,a2
    80008a28:	00a93c23          	sd	a0,24(s2)
    80008a2c:	001cdd13          	srli	s10,s9,0x1
    80008a30:	000c8513          	mv	a0,s9
    80008a34:	5b8020ef          	jal	8000afec <__floatundidf>
    80008a38:	019d4db3          	xor	s11,s10,s9
    80008a3c:	03ed9e13          	slli	t3,s11,0x3e
    80008a40:	017e7eb3          	and	t4,t3,s7
    80008a44:	01aeeb33          	or	s6,t4,s10
    80008a48:	02a93023          	sd	a0,32(s2)
    80008a4c:	000b0513          	mv	a0,s6
    80008a50:	59c020ef          	jal	8000afec <__floatundidf>
    80008a54:	001b5f13          	srli	t5,s6,0x1
    80008a58:	016f4fb3          	xor	t6,t5,s6
    80008a5c:	03ef9713          	slli	a4,t6,0x3e
    80008a60:	017777b3          	and	a5,a4,s7
    80008a64:	01e7e4b3          	or	s1,a5,t5
    80008a68:	02a93423          	sd	a0,40(s2)
    80008a6c:	00048513          	mv	a0,s1
    80008a70:	57c020ef          	jal	8000afec <__floatundidf>
    80008a74:	0014d293          	srli	t0,s1,0x1
    80008a78:	0092c333          	xor	t1,t0,s1
    80008a7c:	03e31693          	slli	a3,t1,0x3e
    80008a80:	0176f3b3          	and	t2,a3,s7
    80008a84:	0053ecb3          	or	s9,t2,t0
    80008a88:	02a93823          	sd	a0,48(s2)
    80008a8c:	000c8513          	mv	a0,s9
    80008a90:	55c020ef          	jal	8000afec <__floatundidf>
    80008a94:	02a93c23          	sd	a0,56(s2)
    80008a98:	04090913          	addi	s2,s2,64
    80008a9c:	ef591ee3          	bne	s2,s5,80008998 <thread_entry+0x9c>
    80008aa0:	0c090a93          	addi	s5,s2,192
    80008aa4:	ef8a98e3          	bne	s5,s8,80008994 <thread_entry+0x98>
    80008aa8:	f8843c03          	ld	s8,-120(s0)
    80008aac:	000010b7          	lui	ra,0x1
    80008ab0:	38808913          	addi	s2,ra,904 # 1388 <buflen.1+0x1308>
    80008ab4:	00100b93          	li	s7,1
    80008ab8:	0c8c0a93          	addi	s5,s8,200
    80008abc:	012c0db3          	add	s11,s8,s2
    80008ac0:	03eb9993          	slli	s3,s7,0x3e
    80008ac4:	001cd513          	srli	a0,s9,0x1
    80008ac8:	01954633          	xor	a2,a0,s9
    80008acc:	03e61593          	slli	a1,a2,0x3e
    80008ad0:	0135f833          	and	a6,a1,s3
    80008ad4:	00a86cb3          	or	s9,a6,a0
    80008ad8:	000c8513          	mv	a0,s9
    80008adc:	510020ef          	jal	8000afec <__floatundidf>
    80008ae0:	f2aabc23          	sd	a0,-200(s5)
    80008ae4:	f40a8d13          	addi	s10,s5,-192
    80008ae8:	001cd893          	srli	a7,s9,0x1
    80008aec:	0198ce33          	xor	t3,a7,s9
    80008af0:	03ee1e93          	slli	t4,t3,0x3e
    80008af4:	013efb33          	and	s6,t4,s3
    80008af8:	011b64b3          	or	s1,s6,a7
    80008afc:	00048513          	mv	a0,s1
    80008b00:	4ec020ef          	jal	8000afec <__floatundidf>
    80008b04:	0014df13          	srli	t5,s1,0x1
    80008b08:	009f4fb3          	xor	t6,t5,s1
    80008b0c:	03ef9713          	slli	a4,t6,0x3e
    80008b10:	013777b3          	and	a5,a4,s3
    80008b14:	01e7e933          	or	s2,a5,t5
    80008b18:	00ad3023          	sd	a0,0(s10)
    80008b1c:	00090513          	mv	a0,s2
    80008b20:	4cc020ef          	jal	8000afec <__floatundidf>
    80008b24:	00195293          	srli	t0,s2,0x1
    80008b28:	0122c333          	xor	t1,t0,s2
    80008b2c:	03e31693          	slli	a3,t1,0x3e
    80008b30:	0136f3b3          	and	t2,a3,s3
    80008b34:	0053ebb3          	or	s7,t2,t0
    80008b38:	00ad3423          	sd	a0,8(s10)
    80008b3c:	000b8513          	mv	a0,s7
    80008b40:	4ac020ef          	jal	8000afec <__floatundidf>
    80008b44:	001bdc13          	srli	s8,s7,0x1
    80008b48:	017c4633          	xor	a2,s8,s7
    80008b4c:	03e61593          	slli	a1,a2,0x3e
    80008b50:	0135f833          	and	a6,a1,s3
    80008b54:	01886cb3          	or	s9,a6,s8
    80008b58:	00ad3823          	sd	a0,16(s10)
    80008b5c:	000c8513          	mv	a0,s9
    80008b60:	48c020ef          	jal	8000afec <__floatundidf>
    80008b64:	001cd893          	srli	a7,s9,0x1
    80008b68:	0198ce33          	xor	t3,a7,s9
    80008b6c:	03ee1e93          	slli	t4,t3,0x3e
    80008b70:	013efb33          	and	s6,t4,s3
    80008b74:	011b64b3          	or	s1,s6,a7
    80008b78:	00ad3c23          	sd	a0,24(s10)
    80008b7c:	00048513          	mv	a0,s1
    80008b80:	46c020ef          	jal	8000afec <__floatundidf>
    80008b84:	0014df13          	srli	t5,s1,0x1
    80008b88:	009f4fb3          	xor	t6,t5,s1
    80008b8c:	03ef9713          	slli	a4,t6,0x3e
    80008b90:	013777b3          	and	a5,a4,s3
    80008b94:	01e7e933          	or	s2,a5,t5
    80008b98:	02ad3023          	sd	a0,32(s10)
    80008b9c:	00090513          	mv	a0,s2
    80008ba0:	44c020ef          	jal	8000afec <__floatundidf>
    80008ba4:	00195293          	srli	t0,s2,0x1
    80008ba8:	0122c333          	xor	t1,t0,s2
    80008bac:	03e31693          	slli	a3,t1,0x3e
    80008bb0:	0136f3b3          	and	t2,a3,s3
    80008bb4:	0053ebb3          	or	s7,t2,t0
    80008bb8:	02ad3423          	sd	a0,40(s10)
    80008bbc:	000b8513          	mv	a0,s7
    80008bc0:	42c020ef          	jal	8000afec <__floatundidf>
    80008bc4:	001bdc13          	srli	s8,s7,0x1
    80008bc8:	017c4633          	xor	a2,s8,s7
    80008bcc:	03e61593          	slli	a1,a2,0x3e
    80008bd0:	0135f833          	and	a6,a1,s3
    80008bd4:	01886cb3          	or	s9,a6,s8
    80008bd8:	02ad3823          	sd	a0,48(s10)
    80008bdc:	000c8513          	mv	a0,s9
    80008be0:	40c020ef          	jal	8000afec <__floatundidf>
    80008be4:	02ad3c23          	sd	a0,56(s10)
    80008be8:	040d0d13          	addi	s10,s10,64
    80008bec:	ef5d1ee3          	bne	s10,s5,80008ae8 <thread_entry+0x1ec>
    80008bf0:	0c8d0a93          	addi	s5,s10,200
    80008bf4:	edba98e3          	bne	s5,s11,80008ac4 <thread_entry+0x1c8>
    80008bf8:	000010b7          	lui	ra,0x1
    80008bfc:	2c008613          	addi	a2,ra,704 # 12c0 <buflen.1+0x1240>
    80008c00:	00000593          	li	a1,0
    80008c04:	000a0513          	mv	a0,s4
    80008c08:	1f1000ef          	jal	800095f8 <memset>
    80008c0c:	00800b13          	li	s6,8
    80008c10:	01900d13          	li	s10,25
    80008c14:	b0202df3          	csrr	s11,minstret
    80008c18:	b0002cf3          	csrr	s9,mcycle
    80008c1c:	f8843783          	ld	a5,-120(s0)
    80008c20:	f8043683          	ld	a3,-128(s0)
    80008c24:	01900813          	li	a6,25
    80008c28:	01a13023          	sd	s10,0(sp)
    80008c2c:	000a0893          	mv	a7,s4
    80008c30:	01800713          	li	a4,24
    80008c34:	01800613          	li	a2,24
    80008c38:	01900593          	li	a1,25
    80008c3c:	01800513          	li	a0,24
    80008c40:	879fe0ef          	jal	800074b8 <mm>
    80008c44:	b02029f3          	csrr	s3,minstret
    80008c48:	b0002573          	csrr	a0,mcycle
    80008c4c:	fffb0b1b          	addiw	s6,s6,-1
    80008c50:	fc0b12e3          	bnez	s6,80008c14 <thread_entry+0x318>
    80008c54:	41950933          	sub	s2,a0,s9
    80008c58:	0ff0000f          	fence
    80008c5c:	f6843483          	ld	s1,-152(s0)
    80008c60:	00600713          	li	a4,6
    80008c64:	01900813          	li	a6,25
    80008c68:	01800793          	li	a5,24
    80008c6c:	00500693          	li	a3,5
    80008c70:	01800893          	li	a7,24
    80008c74:	00400613          	li	a2,4
    80008c78:	00048593          	mv	a1,s1
    80008c7c:	00003517          	auipc	a0,0x3
    80008c80:	a8c50513          	addi	a0,a0,-1396 # 8000b708 <.got.plt+0x5c8>
    80008c84:	059000ef          	jal	800094dc <printf>
    80008c88:	41b9863b          	subw	a2,s3,s11
    80008c8c:	00048593          	mv	a1,s1
    80008c90:	00003517          	auipc	a0,0x3
    80008c94:	ab050513          	addi	a0,a0,-1360 # 8000b740 <.got.plt+0x600>
    80008c98:	045000ef          	jal	800094dc <printf>
    80008c9c:	0009061b          	sext.w	a2,s2
    80008ca0:	00048593          	mv	a1,s1
    80008ca4:	00003517          	auipc	a0,0x3
    80008ca8:	ab450513          	addi	a0,a0,-1356 # 8000b758 <.got.plt+0x618>
    80008cac:	031000ef          	jal	800094dc <printf>
    80008cb0:	000078b7          	lui	a7,0x7
    80008cb4:	08088613          	addi	a2,a7,128 # 7080 <buflen.1+0x7000>
    80008cb8:	00048593          	mv	a1,s1
    80008cbc:	00003517          	auipc	a0,0x3
    80008cc0:	aac50513          	addi	a0,a0,-1364 # 8000b768 <.got.plt+0x628>
    80008cc4:	019000ef          	jal	800094dc <printf>
    80008cc8:	01b77e37          	lui	t3,0x1b77
    80008ccc:	400e0e93          	addi	t4,t3,1024 # 1b77400 <buflen.1+0x1b77380>
    80008cd0:	032ed633          	divu	a2,t4,s2
    80008cd4:	00048593          	mv	a1,s1
    80008cd8:	00003517          	auipc	a0,0x3
    80008cdc:	aa050513          	addi	a0,a0,-1376 # 8000b778 <.got.plt+0x638>
    80008ce0:	01900d93          	li	s11,25
    80008ce4:	7f8000ef          	jal	800094dc <printf>
    80008ce8:	00001f37          	lui	t5,0x1
    80008cec:	ffffffb7          	lui	t6,0xfffff
    80008cf0:	f7443823          	sd	s4,-144(s0)
    80008cf4:	fff00713          	li	a4,-1
    80008cf8:	2c0f0a13          	addi	s4,t5,704 # 12c0 <buflen.1+0x1240>
    80008cfc:	f6043c23          	sd	zero,-136(s0)
    80008d00:	f7443023          	sd	s4,-160(s0)
    80008d04:	d40f8c93          	addi	s9,t6,-704 # ffffffffffffed40 <_tbss_end+0xffffffff7fff323c>
    80008d08:	00002d17          	auipc	s10,0x2
    80008d0c:	448d3d03          	ld	s10,1096(s10) # 8000b150 <.got.plt+0x10>
    80008d10:	00175b93          	srli	s7,a4,0x1
    80008d14:	f7843783          	ld	a5,-136(s0)
    80008d18:	f6043c03          	ld	s8,-160(s0)
    80008d1c:	f8843383          	ld	t2,-120(s0)
    80008d20:	f8043603          	ld	a2,-128(s0)
    80008d24:	00179293          	slli	t0,a5,0x1
    80008d28:	00f28333          	add	t1,t0,a5
    80008d2c:	f7043b03          	ld	s6,-144(s0)
    80008d30:	00631693          	slli	a3,t1,0x6
    80008d34:	01838a33          	add	s4,t2,s8
    80008d38:	00000a93          	li	s5,0
    80008d3c:	00d60c33          	add	s8,a2,a3
    80008d40:	019a04b3          	add	s1,s4,s9
    80008d44:	000c0913          	mv	s2,s8
    80008d48:	00000993          	li	s3,0
    80008d4c:	0004b583          	ld	a1,0(s1) # 37ab7000 <buflen.1+0x37ab6f80>
    80008d50:	00093503          	ld	a0,0(s2)
    80008d54:	64048493          	addi	s1,s1,1600
    80008d58:	04090913          	addi	s2,s2,64
    80008d5c:	149010ef          	jal	8000a6a4 <__muldf3>
    80008d60:	00050593          	mv	a1,a0
    80008d64:	00098513          	mv	a0,s3
    80008d68:	380010ef          	jal	8000a0e8 <__adddf3>
    80008d6c:	00050993          	mv	s3,a0
    80008d70:	a884b583          	ld	a1,-1400(s1)
    80008d74:	fc893503          	ld	a0,-56(s2)
    80008d78:	12d010ef          	jal	8000a6a4 <__muldf3>
    80008d7c:	00050593          	mv	a1,a0
    80008d80:	00098513          	mv	a0,s3
    80008d84:	364010ef          	jal	8000a0e8 <__adddf3>
    80008d88:	00050993          	mv	s3,a0
    80008d8c:	b504b583          	ld	a1,-1200(s1)
    80008d90:	fd093503          	ld	a0,-48(s2)
    80008d94:	111010ef          	jal	8000a6a4 <__muldf3>
    80008d98:	00050593          	mv	a1,a0
    80008d9c:	00098513          	mv	a0,s3
    80008da0:	348010ef          	jal	8000a0e8 <__adddf3>
    80008da4:	00050993          	mv	s3,a0
    80008da8:	c184b583          	ld	a1,-1000(s1)
    80008dac:	fd893503          	ld	a0,-40(s2)
    80008db0:	0f5010ef          	jal	8000a6a4 <__muldf3>
    80008db4:	00050593          	mv	a1,a0
    80008db8:	00098513          	mv	a0,s3
    80008dbc:	32c010ef          	jal	8000a0e8 <__adddf3>
    80008dc0:	00050993          	mv	s3,a0
    80008dc4:	ce04b583          	ld	a1,-800(s1)
    80008dc8:	fe093503          	ld	a0,-32(s2)
    80008dcc:	0d9010ef          	jal	8000a6a4 <__muldf3>
    80008dd0:	00050593          	mv	a1,a0
    80008dd4:	00098513          	mv	a0,s3
    80008dd8:	310010ef          	jal	8000a0e8 <__adddf3>
    80008ddc:	00050993          	mv	s3,a0
    80008de0:	da84b583          	ld	a1,-600(s1)
    80008de4:	fe893503          	ld	a0,-24(s2)
    80008de8:	0bd010ef          	jal	8000a6a4 <__muldf3>
    80008dec:	00050593          	mv	a1,a0
    80008df0:	00098513          	mv	a0,s3
    80008df4:	2f4010ef          	jal	8000a0e8 <__adddf3>
    80008df8:	00050993          	mv	s3,a0
    80008dfc:	e704b583          	ld	a1,-400(s1)
    80008e00:	ff093503          	ld	a0,-16(s2)
    80008e04:	0a1010ef          	jal	8000a6a4 <__muldf3>
    80008e08:	00050593          	mv	a1,a0
    80008e0c:	00098513          	mv	a0,s3
    80008e10:	2d8010ef          	jal	8000a0e8 <__adddf3>
    80008e14:	00050993          	mv	s3,a0
    80008e18:	f384b583          	ld	a1,-200(s1)
    80008e1c:	ff893503          	ld	a0,-8(s2)
    80008e20:	085010ef          	jal	8000a6a4 <__muldf3>
    80008e24:	00050593          	mv	a1,a0
    80008e28:	00098513          	mv	a0,s3
    80008e2c:	2bc010ef          	jal	8000a0e8 <__adddf3>
    80008e30:	00050993          	mv	s3,a0
    80008e34:	f09a1ce3          	bne	s4,s1,80008d4c <thread_entry+0x450>
    80008e38:	000d0593          	mv	a1,s10
    80008e3c:	069010ef          	jal	8000a6a4 <__muldf3>
    80008e40:	000b3983          	ld	s3,0(s6)
    80008e44:	00050593          	mv	a1,a0
    80008e48:	00050493          	mv	s1,a0
    80008e4c:	00098513          	mv	a0,s3
    80008e50:	475010ef          	jal	8000aac4 <__subdf3>
    80008e54:	00002597          	auipc	a1,0x2
    80008e58:	30458593          	addi	a1,a1,772 # 8000b158 <.got.plt+0x18>
    80008e5c:	0005b583          	ld	a1,0(a1)
    80008e60:	00050813          	mv	a6,a0
    80008e64:	00048513          	mv	a0,s1
    80008e68:	010bf933          	and	s2,s7,a6
    80008e6c:	039010ef          	jal	8000a6a4 <__muldf3>
    80008e70:	00abf5b3          	and	a1,s7,a0
    80008e74:	00090513          	mv	a0,s2
    80008e78:	764010ef          	jal	8000a5dc <__gedf2>
    80008e7c:	04a04263          	bgtz	a0,80008ec0 <thread_entry+0x5c4>
    80008e80:	001a8a93          	addi	s5,s5,1
    80008e84:	008b0b13          	addi	s6,s6,8
    80008e88:	008a0a13          	addi	s4,s4,8
    80008e8c:	ebba9ae3          	bne	s5,s11,80008d40 <thread_entry+0x444>
    80008e90:	f7843083          	ld	ra,-136(s0)
    80008e94:	f7043e03          	ld	t3,-144(s0)
    80008e98:	01800893          	li	a7,24
    80008e9c:	00108513          	addi	a0,ra,1
    80008ea0:	0c8e0e93          	addi	t4,t3,200
    80008ea4:	f6a43c23          	sd	a0,-136(s0)
    80008ea8:	f7d43823          	sd	t4,-144(s0)
    80008eac:	e71514e3          	bne	a0,a7,80008d14 <thread_entry+0x418>
    80008eb0:	f5843503          	ld	a0,-168(s0)
    80008eb4:	9f5ff0ef          	jal	800088a8 <barrier>
    80008eb8:	00000513          	li	a0,0
    80008ebc:	520000ef          	jal	800093dc <exit>
    80008ec0:	f7843603          	ld	a2,-136(s0)
    80008ec4:	f6843583          	ld	a1,-152(s0)
    80008ec8:	00048793          	mv	a5,s1
    80008ecc:	00098713          	mv	a4,s3
    80008ed0:	000a8693          	mv	a3,s5
    80008ed4:	00003517          	auipc	a0,0x3
    80008ed8:	8bc50513          	addi	a0,a0,-1860 # 8000b790 <.got.plt+0x650>
    80008edc:	600000ef          	jal	800094dc <printf>
    80008ee0:	00100513          	li	a0,1
    80008ee4:	4f8000ef          	jal	800093dc <exit>

0000000080008ee8 <vprintfmt>:
    80008ee8:	e9010113          	addi	sp,sp,-368
    80008eec:	16813023          	sd	s0,352(sp)
    80008ef0:	14913c23          	sd	s1,344(sp)
    80008ef4:	15213823          	sd	s2,336(sp)
    80008ef8:	15413023          	sd	s4,320(sp)
    80008efc:	13513c23          	sd	s5,312(sp)
    80008f00:	13613823          	sd	s6,304(sp)
    80008f04:	13713423          	sd	s7,296(sp)
    80008f08:	16113423          	sd	ra,360(sp)
    80008f0c:	15313423          	sd	s3,328(sp)
    80008f10:	13813023          	sd	s8,288(sp)
    80008f14:	11913c23          	sd	s9,280(sp)
    80008f18:	11b13423          	sd	s11,264(sp)
    80008f1c:	00050913          	mv	s2,a0
    80008f20:	00058493          	mv	s1,a1
    80008f24:	00060413          	mv	s0,a2
    80008f28:	00068b93          	mv	s7,a3
    80008f2c:	02500a13          	li	s4,37
    80008f30:	05500b13          	li	s6,85
    80008f34:	e8018a93          	addi	s5,gp,-384 # 8000b7d0 <.got.plt+0x690>
    80008f38:	0140006f          	j	80008f4c <vprintfmt+0x64>
    80008f3c:	04050c63          	beqz	a0,80008f94 <vprintfmt+0xac>
    80008f40:	00048593          	mv	a1,s1
    80008f44:	00140413          	addi	s0,s0,1
    80008f48:	000900e7          	jalr	s2
    80008f4c:	00044503          	lbu	a0,0(s0)
    80008f50:	ff4516e3          	bne	a0,s4,80008f3c <vprintfmt+0x54>
    80008f54:	00144683          	lbu	a3,1(s0)
    80008f58:	00140993          	addi	s3,s0,1
    80008f5c:	00098713          	mv	a4,s3
    80008f60:	02000c93          	li	s9,32
    80008f64:	fff00c13          	li	s8,-1
    80008f68:	fff00d93          	li	s11,-1
    80008f6c:	00000593          	li	a1,0
    80008f70:	fdd6879b          	addiw	a5,a3,-35
    80008f74:	0ff7f793          	zext.b	a5,a5
    80008f78:	00170413          	addi	s0,a4,1
    80008f7c:	06fb6663          	bltu	s6,a5,80008fe8 <vprintfmt+0x100>
    80008f80:	00279793          	slli	a5,a5,0x2
    80008f84:	015787b3          	add	a5,a5,s5
    80008f88:	0007a783          	lw	a5,0(a5)
    80008f8c:	015787b3          	add	a5,a5,s5
    80008f90:	00078067          	jr	a5
    80008f94:	16813083          	ld	ra,360(sp)
    80008f98:	16013403          	ld	s0,352(sp)
    80008f9c:	15813483          	ld	s1,344(sp)
    80008fa0:	15013903          	ld	s2,336(sp)
    80008fa4:	14813983          	ld	s3,328(sp)
    80008fa8:	14013a03          	ld	s4,320(sp)
    80008fac:	13813a83          	ld	s5,312(sp)
    80008fb0:	13013b03          	ld	s6,304(sp)
    80008fb4:	12813b83          	ld	s7,296(sp)
    80008fb8:	12013c03          	ld	s8,288(sp)
    80008fbc:	11813c83          	ld	s9,280(sp)
    80008fc0:	10813d83          	ld	s11,264(sp)
    80008fc4:	17010113          	addi	sp,sp,368
    80008fc8:	00008067          	ret
    80008fcc:	00068c93          	mv	s9,a3
    80008fd0:	00174683          	lbu	a3,1(a4)
    80008fd4:	00040713          	mv	a4,s0
    80008fd8:	00170413          	addi	s0,a4,1
    80008fdc:	fdd6879b          	addiw	a5,a3,-35
    80008fe0:	0ff7f793          	zext.b	a5,a5
    80008fe4:	f8fb7ee3          	bgeu	s6,a5,80008f80 <vprintfmt+0x98>
    80008fe8:	00048593          	mv	a1,s1
    80008fec:	02500513          	li	a0,37
    80008ff0:	000900e7          	jalr	s2
    80008ff4:	00098413          	mv	s0,s3
    80008ff8:	f55ff06f          	j	80008f4c <vprintfmt+0x64>
    80008ffc:	fd068c1b          	addiw	s8,a3,-48
    80009000:	00174683          	lbu	a3,1(a4)
    80009004:	00900793          	li	a5,9
    80009008:	fd06871b          	addiw	a4,a3,-48
    8000900c:	0006861b          	sext.w	a2,a3
    80009010:	2ee7e663          	bltu	a5,a4,800092fc <vprintfmt+0x414>
    80009014:	00040713          	mv	a4,s0
    80009018:	00900813          	li	a6,9
    8000901c:	00174683          	lbu	a3,1(a4)
    80009020:	002c179b          	slliw	a5,s8,0x2
    80009024:	018787bb          	addw	a5,a5,s8
    80009028:	0017979b          	slliw	a5,a5,0x1
    8000902c:	00c787bb          	addw	a5,a5,a2
    80009030:	fd06851b          	addiw	a0,a3,-48
    80009034:	00170713          	addi	a4,a4,1
    80009038:	fd078c1b          	addiw	s8,a5,-48
    8000903c:	0006861b          	sext.w	a2,a3
    80009040:	fca87ee3          	bgeu	a6,a0,8000901c <vprintfmt+0x134>
    80009044:	f20dd6e3          	bgez	s11,80008f70 <vprintfmt+0x88>
    80009048:	000c0d93          	mv	s11,s8
    8000904c:	fff00c13          	li	s8,-1
    80009050:	f21ff06f          	j	80008f70 <vprintfmt+0x88>
    80009054:	00174683          	lbu	a3,1(a4)
    80009058:	00040713          	mv	a4,s0
    8000905c:	f15ff06f          	j	80008f70 <vprintfmt+0x88>
    80009060:	00048593          	mv	a1,s1
    80009064:	02500513          	li	a0,37
    80009068:	000900e7          	jalr	s2
    8000906c:	ee1ff06f          	j	80008f4c <vprintfmt+0x64>
    80009070:	000bac03          	lw	s8,0(s7)
    80009074:	00174683          	lbu	a3,1(a4)
    80009078:	008b8b93          	addi	s7,s7,8
    8000907c:	00040713          	mv	a4,s0
    80009080:	fc5ff06f          	j	80009044 <vprintfmt+0x15c>
    80009084:	00048593          	mv	a1,s1
    80009088:	03000513          	li	a0,48
    8000908c:	11a13823          	sd	s10,272(sp)
    80009090:	000900e7          	jalr	s2
    80009094:	00048593          	mv	a1,s1
    80009098:	07800513          	li	a0,120
    8000909c:	000900e7          	jalr	s2
    800090a0:	01000613          	li	a2,16
    800090a4:	008b8713          	addi	a4,s7,8
    800090a8:	000bb783          	ld	a5,0(s7)
    800090ac:	00070b93          	mv	s7,a4
    800090b0:	02c7f5b3          	remu	a1,a5,a2
    800090b4:	000c899b          	sext.w	s3,s9
    800090b8:	00410693          	addi	a3,sp,4
    800090bc:	00100713          	li	a4,1
    800090c0:	00b12023          	sw	a1,0(sp)
    800090c4:	1ec7ea63          	bltu	a5,a2,800092b8 <vprintfmt+0x3d0>
    800090c8:	02c7d7b3          	divu	a5,a5,a2
    800090cc:	00468693          	addi	a3,a3,4
    800090d0:	00070c13          	mv	s8,a4
    800090d4:	0017071b          	addiw	a4,a4,1
    800090d8:	02c7f5b3          	remu	a1,a5,a2
    800090dc:	feb6ae23          	sw	a1,-4(a3)
    800090e0:	fec7f4e3          	bgeu	a5,a2,800090c8 <vprintfmt+0x1e0>
    800090e4:	fffd8c9b          	addiw	s9,s11,-1
    800090e8:	fff70d1b          	addiw	s10,a4,-1
    800090ec:	01b75c63          	bge	a4,s11,80009104 <vprintfmt+0x21c>
    800090f0:	00048593          	mv	a1,s1
    800090f4:	00098513          	mv	a0,s3
    800090f8:	fffc8c9b          	addiw	s9,s9,-1
    800090fc:	000900e7          	jalr	s2
    80009100:	ffac98e3          	bne	s9,s10,800090f0 <vprintfmt+0x208>
    80009104:	002c1c13          	slli	s8,s8,0x2
    80009108:	018109b3          	add	s3,sp,s8
    8000910c:	ffc10c93          	addi	s9,sp,-4
    80009110:	00900c13          	li	s8,9
    80009114:	0009a783          	lw	a5,0(s3)
    80009118:	03000513          	li	a0,48
    8000911c:	00fc7463          	bgeu	s8,a5,80009124 <vprintfmt+0x23c>
    80009120:	05700513          	li	a0,87
    80009124:	00048593          	mv	a1,s1
    80009128:	00a7853b          	addw	a0,a5,a0
    8000912c:	ffc98993          	addi	s3,s3,-4
    80009130:	000900e7          	jalr	s2
    80009134:	ff9990e3          	bne	s3,s9,80009114 <vprintfmt+0x22c>
    80009138:	11013d03          	ld	s10,272(sp)
    8000913c:	e11ff06f          	j	80008f4c <vprintfmt+0x64>
    80009140:	11a13823          	sd	s10,272(sp)
    80009144:	00100793          	li	a5,1
    80009148:	008b8c13          	addi	s8,s7,8
    8000914c:	00b7c463          	blt	a5,a1,80009154 <vprintfmt+0x26c>
    80009150:	16058863          	beqz	a1,800092c0 <vprintfmt+0x3d8>
    80009154:	000bb983          	ld	s3,0(s7)
    80009158:	1809c463          	bltz	s3,800092e0 <vprintfmt+0x3f8>
    8000915c:	00098793          	mv	a5,s3
    80009160:	000c0b93          	mv	s7,s8
    80009164:	00a00613          	li	a2,10
    80009168:	f49ff06f          	j	800090b0 <vprintfmt+0x1c8>
    8000916c:	00174683          	lbu	a3,1(a4)
    80009170:	0015859b          	addiw	a1,a1,1
    80009174:	00040713          	mv	a4,s0
    80009178:	df9ff06f          	j	80008f70 <vprintfmt+0x88>
    8000917c:	11a13823          	sd	s10,272(sp)
    80009180:	01000613          	li	a2,16
    80009184:	00100793          	li	a5,1
    80009188:	008b8713          	addi	a4,s7,8
    8000918c:	f0b7cee3          	blt	a5,a1,800090a8 <vprintfmt+0x1c0>
    80009190:	f0059ce3          	bnez	a1,800090a8 <vprintfmt+0x1c0>
    80009194:	000be783          	lwu	a5,0(s7)
    80009198:	00070b93          	mv	s7,a4
    8000919c:	f15ff06f          	j	800090b0 <vprintfmt+0x1c8>
    800091a0:	11a13823          	sd	s10,272(sp)
    800091a4:	000bbd03          	ld	s10,0(s7)
    800091a8:	008b8b93          	addi	s7,s7,8
    800091ac:	060d0063          	beqz	s10,8000920c <vprintfmt+0x324>
    800091b0:	0db05463          	blez	s11,80009278 <vprintfmt+0x390>
    800091b4:	02d00793          	li	a5,45
    800091b8:	06fc9c63          	bne	s9,a5,80009230 <vprintfmt+0x348>
    800091bc:	000d4503          	lbu	a0,0(s10)
    800091c0:	02050863          	beqz	a0,800091f0 <vprintfmt+0x308>
    800091c4:	fff00993          	li	s3,-1
    800091c8:	000c4663          	bltz	s8,800091d4 <vprintfmt+0x2ec>
    800091cc:	fffc0c1b          	addiw	s8,s8,-1
    800091d0:	013c0e63          	beq	s8,s3,800091ec <vprintfmt+0x304>
    800091d4:	00048593          	mv	a1,s1
    800091d8:	000900e7          	jalr	s2
    800091dc:	001d4503          	lbu	a0,1(s10)
    800091e0:	fffd8d9b          	addiw	s11,s11,-1
    800091e4:	001d0d13          	addi	s10,s10,1
    800091e8:	fe0510e3          	bnez	a0,800091c8 <vprintfmt+0x2e0>
    800091ec:	f5b056e3          	blez	s11,80009138 <vprintfmt+0x250>
    800091f0:	00048593          	mv	a1,s1
    800091f4:	02000513          	li	a0,32
    800091f8:	fffd8d9b          	addiw	s11,s11,-1
    800091fc:	000900e7          	jalr	s2
    80009200:	fe0d98e3          	bnez	s11,800091f0 <vprintfmt+0x308>
    80009204:	11013d03          	ld	s10,272(sp)
    80009208:	d45ff06f          	j	80008f4c <vprintfmt+0x64>
    8000920c:	00002d17          	auipc	s10,0x2
    80009210:	5a4d0d13          	addi	s10,s10,1444 # 8000b7b0 <.got.plt+0x670>
    80009214:	02800513          	li	a0,40
    80009218:	fbb056e3          	blez	s11,800091c4 <vprintfmt+0x2dc>
    8000921c:	02d00793          	li	a5,45
    80009220:	00002d17          	auipc	s10,0x2
    80009224:	590d0d13          	addi	s10,s10,1424 # 8000b7b0 <.got.plt+0x670>
    80009228:	02800513          	li	a0,40
    8000922c:	f8fc8ce3          	beq	s9,a5,800091c4 <vprintfmt+0x2dc>
    80009230:	000d861b          	sext.w	a2,s11
    80009234:	000d0793          	mv	a5,s10
    80009238:	018d06b3          	add	a3,s10,s8
    8000923c:	000c1863          	bnez	s8,8000924c <vprintfmt+0x364>
    80009240:	0200006f          	j	80009260 <vprintfmt+0x378>
    80009244:	00178793          	addi	a5,a5,1
    80009248:	00d78663          	beq	a5,a3,80009254 <vprintfmt+0x36c>
    8000924c:	0007c703          	lbu	a4,0(a5)
    80009250:	fe071ae3          	bnez	a4,80009244 <vprintfmt+0x35c>
    80009254:	41a787b3          	sub	a5,a5,s10
    80009258:	40f60dbb          	subw	s11,a2,a5
    8000925c:	01b05e63          	blez	s11,80009278 <vprintfmt+0x390>
    80009260:	000c8c9b          	sext.w	s9,s9
    80009264:	00048593          	mv	a1,s1
    80009268:	000c8513          	mv	a0,s9
    8000926c:	fffd8d9b          	addiw	s11,s11,-1
    80009270:	000900e7          	jalr	s2
    80009274:	fe0d98e3          	bnez	s11,80009264 <vprintfmt+0x37c>
    80009278:	000d4503          	lbu	a0,0(s10)
    8000927c:	ea050ee3          	beqz	a0,80009138 <vprintfmt+0x250>
    80009280:	fff00993          	li	s3,-1
    80009284:	f45ff06f          	j	800091c8 <vprintfmt+0x2e0>
    80009288:	fffdc793          	not	a5,s11
    8000928c:	43f7d793          	srai	a5,a5,0x3f
    80009290:	00fdf7b3          	and	a5,s11,a5
    80009294:	00174683          	lbu	a3,1(a4)
    80009298:	00078d9b          	sext.w	s11,a5
    8000929c:	00040713          	mv	a4,s0
    800092a0:	cd1ff06f          	j	80008f70 <vprintfmt+0x88>
    800092a4:	000ba503          	lw	a0,0(s7)
    800092a8:	00048593          	mv	a1,s1
    800092ac:	008b8b93          	addi	s7,s7,8
    800092b0:	000900e7          	jalr	s2
    800092b4:	c99ff06f          	j	80008f4c <vprintfmt+0x64>
    800092b8:	00000c13          	li	s8,0
    800092bc:	e29ff06f          	j	800090e4 <vprintfmt+0x1fc>
    800092c0:	000ba983          	lw	s3,0(s7)
    800092c4:	e95ff06f          	j	80009158 <vprintfmt+0x270>
    800092c8:	11a13823          	sd	s10,272(sp)
    800092cc:	00a00613          	li	a2,10
    800092d0:	eb5ff06f          	j	80009184 <vprintfmt+0x29c>
    800092d4:	11a13823          	sd	s10,272(sp)
    800092d8:	00800613          	li	a2,8
    800092dc:	ea9ff06f          	j	80009184 <vprintfmt+0x29c>
    800092e0:	00048593          	mv	a1,s1
    800092e4:	02d00513          	li	a0,45
    800092e8:	000900e7          	jalr	s2
    800092ec:	413007b3          	neg	a5,s3
    800092f0:	000c0b93          	mv	s7,s8
    800092f4:	00a00613          	li	a2,10
    800092f8:	db9ff06f          	j	800090b0 <vprintfmt+0x1c8>
    800092fc:	00040713          	mv	a4,s0
    80009300:	d45ff06f          	j	80009044 <vprintfmt+0x15c>

0000000080009304 <sprintf_putch.0>:
    80009304:	0005b783          	ld	a5,0(a1)
    80009308:	00a78023          	sb	a0,0(a5)
    8000930c:	0005b783          	ld	a5,0(a1)
    80009310:	00178793          	addi	a5,a5,1
    80009314:	00f5b023          	sd	a5,0(a1)
    80009318:	00008067          	ret

000000008000931c <putchar>:
    8000931c:	08022803          	lw	a6,128(tp) # 80 <buflen.1>
    80009320:	04020793          	addi	a5,tp,64 # 40 <buf.2>
    80009324:	010787b3          	add	a5,a5,a6
    80009328:	f9010113          	addi	sp,sp,-112
    8000932c:	0018069b          	addiw	a3,a6,1
    80009330:	08d22023          	sw	a3,128(tp) # 80 <buflen.1>
    80009334:	00a78023          	sb	a0,0(a5)
    80009338:	03f10713          	addi	a4,sp,63
    8000933c:	00a00793          	li	a5,10
    80009340:	fc077713          	andi	a4,a4,-64
    80009344:	00f50c63          	beq	a0,a5,8000935c <putchar+0x40>
    80009348:	04000793          	li	a5,64
    8000934c:	00f68863          	beq	a3,a5,8000935c <putchar+0x40>
    80009350:	00000513          	li	a0,0
    80009354:	07010113          	addi	sp,sp,112
    80009358:	00008067          	ret
    8000935c:	04000793          	li	a5,64
    80009360:	00f73023          	sd	a5,0(a4)
    80009364:	00100793          	li	a5,1
    80009368:	00f73423          	sd	a5,8(a4)
    8000936c:	04020613          	addi	a2,tp,64 # 40 <buf.2>
    80009370:	00c73823          	sd	a2,16(a4)
    80009374:	00d73c23          	sd	a3,24(a4)
    80009378:	0ff0000f          	fence
    8000937c:	ffff8697          	auipc	a3,0xffff8
    80009380:	cc468693          	addi	a3,a3,-828 # 80001040 <fromhost>
    80009384:	ffff8797          	auipc	a5,0xffff8
    80009388:	c6e7be23          	sd	a4,-900(a5) # 80001000 <tohost>
    8000938c:	0006b783          	ld	a5,0(a3)
    80009390:	fe078ee3          	beqz	a5,8000938c <putchar+0x70>
    80009394:	ffff8797          	auipc	a5,0xffff8
    80009398:	ca07b623          	sd	zero,-852(a5) # 80001040 <fromhost>
    8000939c:	0ff0000f          	fence
    800093a0:	08022023          	sw	zero,128(tp) # 80 <buflen.1>
    800093a4:	00073783          	ld	a5,0(a4)
    800093a8:	00000513          	li	a0,0
    800093ac:	07010113          	addi	sp,sp,112
    800093b0:	00008067          	ret

00000000800093b4 <tohost_exit>:
    800093b4:	00151793          	slli	a5,a0,0x1
    800093b8:	0017e793          	ori	a5,a5,1
    800093bc:	ffff8717          	auipc	a4,0xffff8
    800093c0:	c4f73223          	sd	a5,-956(a4) # 80001000 <tohost>
    800093c4:	0000006f          	j	800093c4 <tohost_exit+0x10>

00000000800093c8 <handle_trap>:
    800093c8:	000017b7          	lui	a5,0x1
    800093cc:	a7378793          	addi	a5,a5,-1421 # a73 <buflen.1+0x9f3>
    800093d0:	ffff8717          	auipc	a4,0xffff8
    800093d4:	c2f73823          	sd	a5,-976(a4) # 80001000 <tohost>
    800093d8:	0000006f          	j	800093d8 <handle_trap+0x10>

00000000800093dc <exit>:
    800093dc:	ff010113          	addi	sp,sp,-16
    800093e0:	00113423          	sd	ra,8(sp)
    800093e4:	fd1ff0ef          	jal	800093b4 <tohost_exit>

00000000800093e8 <abort>:
    800093e8:	10d00793          	li	a5,269
    800093ec:	ffff8717          	auipc	a4,0xffff8
    800093f0:	c0f73a23          	sd	a5,-1004(a4) # 80001000 <tohost>
    800093f4:	0000006f          	j	800093f4 <abort+0xc>

00000000800093f8 <printstr>:
    800093f8:	00054783          	lbu	a5,0(a0)
    800093fc:	f9010113          	addi	sp,sp,-112
    80009400:	03f10693          	addi	a3,sp,63
    80009404:	fc06f693          	andi	a3,a3,-64
    80009408:	06078263          	beqz	a5,8000946c <printstr+0x74>
    8000940c:	00050793          	mv	a5,a0
    80009410:	0017c703          	lbu	a4,1(a5)
    80009414:	00178793          	addi	a5,a5,1
    80009418:	fe071ce3          	bnez	a4,80009410 <printstr+0x18>
    8000941c:	40a787b3          	sub	a5,a5,a0
    80009420:	04000713          	li	a4,64
    80009424:	00e6b023          	sd	a4,0(a3)
    80009428:	00100713          	li	a4,1
    8000942c:	00e6b423          	sd	a4,8(a3)
    80009430:	00a6b823          	sd	a0,16(a3)
    80009434:	00f6bc23          	sd	a5,24(a3)
    80009438:	0ff0000f          	fence
    8000943c:	ffff8717          	auipc	a4,0xffff8
    80009440:	c0470713          	addi	a4,a4,-1020 # 80001040 <fromhost>
    80009444:	ffff8797          	auipc	a5,0xffff8
    80009448:	bad7be23          	sd	a3,-1092(a5) # 80001000 <tohost>
    8000944c:	00073783          	ld	a5,0(a4)
    80009450:	fe078ee3          	beqz	a5,8000944c <printstr+0x54>
    80009454:	ffff8797          	auipc	a5,0xffff8
    80009458:	be07b623          	sd	zero,-1044(a5) # 80001040 <fromhost>
    8000945c:	0ff0000f          	fence
    80009460:	0006b783          	ld	a5,0(a3)
    80009464:	07010113          	addi	sp,sp,112
    80009468:	00008067          	ret
    8000946c:	00000793          	li	a5,0
    80009470:	fb1ff06f          	j	80009420 <printstr+0x28>
    80009474:	00050463          	beqz	a0,8000947c <printstr+0x84>
    80009478:	0000006f          	j	80009478 <printstr+0x80>
    8000947c:	00008067          	ret

0000000080009480 <printhex>:
    80009480:	fd010113          	addi	sp,sp,-48
    80009484:	00050793          	mv	a5,a0
    80009488:	02113423          	sd	ra,40(sp)
    8000948c:	00810513          	addi	a0,sp,8
    80009490:	01710713          	addi	a4,sp,23
    80009494:	00900813          	li	a6,9
    80009498:	0080006f          	j	800094a0 <printhex+0x20>
    8000949c:	00068713          	mv	a4,a3
    800094a0:	00f7f613          	andi	a2,a5,15
    800094a4:	00060693          	mv	a3,a2
    800094a8:	03000593          	li	a1,48
    800094ac:	00c87463          	bgeu	a6,a2,800094b4 <printhex+0x34>
    800094b0:	05700593          	li	a1,87
    800094b4:	00b686bb          	addw	a3,a3,a1
    800094b8:	00d70023          	sb	a3,0(a4)
    800094bc:	0047d793          	srli	a5,a5,0x4
    800094c0:	fff70693          	addi	a3,a4,-1
    800094c4:	fce51ce3          	bne	a0,a4,8000949c <printhex+0x1c>
    800094c8:	00010c23          	sb	zero,24(sp)
    800094cc:	f2dff0ef          	jal	800093f8 <printstr>
    800094d0:	02813083          	ld	ra,40(sp)
    800094d4:	03010113          	addi	sp,sp,48
    800094d8:	00008067          	ret

00000000800094dc <printf>:
    800094dc:	fa010113          	addi	sp,sp,-96
    800094e0:	02810313          	addi	t1,sp,40
    800094e4:	02b13423          	sd	a1,40(sp)
    800094e8:	02c13823          	sd	a2,48(sp)
    800094ec:	02d13c23          	sd	a3,56(sp)
    800094f0:	00050613          	mv	a2,a0
    800094f4:	00030693          	mv	a3,t1
    800094f8:	00000517          	auipc	a0,0x0
    800094fc:	e2450513          	addi	a0,a0,-476 # 8000931c <putchar>
    80009500:	00000593          	li	a1,0
    80009504:	00113c23          	sd	ra,24(sp)
    80009508:	04e13023          	sd	a4,64(sp)
    8000950c:	04f13423          	sd	a5,72(sp)
    80009510:	05013823          	sd	a6,80(sp)
    80009514:	05113c23          	sd	a7,88(sp)
    80009518:	00613423          	sd	t1,8(sp)
    8000951c:	9cdff0ef          	jal	80008ee8 <vprintfmt>
    80009520:	01813083          	ld	ra,24(sp)
    80009524:	00000513          	li	a0,0
    80009528:	06010113          	addi	sp,sp,96
    8000952c:	00008067          	ret

0000000080009530 <sprintf>:
    80009530:	fa010113          	addi	sp,sp,-96
    80009534:	03010e13          	addi	t3,sp,48
    80009538:	02813023          	sd	s0,32(sp)
    8000953c:	00a13423          	sd	a0,8(sp)
    80009540:	00050413          	mv	s0,a0
    80009544:	02c13823          	sd	a2,48(sp)
    80009548:	02d13c23          	sd	a3,56(sp)
    8000954c:	00058613          	mv	a2,a1
    80009550:	00000517          	auipc	a0,0x0
    80009554:	db450513          	addi	a0,a0,-588 # 80009304 <sprintf_putch.0>
    80009558:	00810593          	addi	a1,sp,8
    8000955c:	000e0693          	mv	a3,t3
    80009560:	02113423          	sd	ra,40(sp)
    80009564:	04f13423          	sd	a5,72(sp)
    80009568:	04e13023          	sd	a4,64(sp)
    8000956c:	05013823          	sd	a6,80(sp)
    80009570:	05113c23          	sd	a7,88(sp)
    80009574:	01c13c23          	sd	t3,24(sp)
    80009578:	971ff0ef          	jal	80008ee8 <vprintfmt>
    8000957c:	00813783          	ld	a5,8(sp)
    80009580:	00078023          	sb	zero,0(a5)
    80009584:	00813503          	ld	a0,8(sp)
    80009588:	02813083          	ld	ra,40(sp)
    8000958c:	4085053b          	subw	a0,a0,s0
    80009590:	02013403          	ld	s0,32(sp)
    80009594:	06010113          	addi	sp,sp,96
    80009598:	00008067          	ret

000000008000959c <memcpy>:
    8000959c:	00c5e7b3          	or	a5,a1,a2
    800095a0:	00f567b3          	or	a5,a0,a5
    800095a4:	0077f793          	andi	a5,a5,7
    800095a8:	00c506b3          	add	a3,a0,a2
    800095ac:	02078463          	beqz	a5,800095d4 <memcpy+0x38>
    800095b0:	00c58633          	add	a2,a1,a2
    800095b4:	00050793          	mv	a5,a0
    800095b8:	02d57e63          	bgeu	a0,a3,800095f4 <memcpy+0x58>
    800095bc:	0005c703          	lbu	a4,0(a1)
    800095c0:	00158593          	addi	a1,a1,1
    800095c4:	00178793          	addi	a5,a5,1
    800095c8:	fee78fa3          	sb	a4,-1(a5)
    800095cc:	feb618e3          	bne	a2,a1,800095bc <memcpy+0x20>
    800095d0:	00008067          	ret
    800095d4:	fed57ee3          	bgeu	a0,a3,800095d0 <memcpy+0x34>
    800095d8:	00050793          	mv	a5,a0
    800095dc:	0005b703          	ld	a4,0(a1)
    800095e0:	00878793          	addi	a5,a5,8
    800095e4:	00858593          	addi	a1,a1,8
    800095e8:	fee7bc23          	sd	a4,-8(a5)
    800095ec:	fed7e8e3          	bltu	a5,a3,800095dc <memcpy+0x40>
    800095f0:	00008067          	ret
    800095f4:	00008067          	ret

00000000800095f8 <memset>:
    800095f8:	00c567b3          	or	a5,a0,a2
    800095fc:	0077f793          	andi	a5,a5,7
    80009600:	00c50633          	add	a2,a0,a2
    80009604:	02078063          	beqz	a5,80009624 <memset+0x2c>
    80009608:	0ff5f713          	zext.b	a4,a1
    8000960c:	00050793          	mv	a5,a0
    80009610:	04c57663          	bgeu	a0,a2,8000965c <memset+0x64>
    80009614:	00178793          	addi	a5,a5,1
    80009618:	fee78fa3          	sb	a4,-1(a5)
    8000961c:	fec79ce3          	bne	a5,a2,80009614 <memset+0x1c>
    80009620:	00008067          	ret
    80009624:	010107b7          	lui	a5,0x1010
    80009628:	10178793          	addi	a5,a5,257 # 1010101 <buflen.1+0x1010081>
    8000962c:	01079793          	slli	a5,a5,0x10
    80009630:	10178793          	addi	a5,a5,257
    80009634:	01079793          	slli	a5,a5,0x10
    80009638:	0ff5f713          	zext.b	a4,a1
    8000963c:	10178793          	addi	a5,a5,257
    80009640:	02f70733          	mul	a4,a4,a5
    80009644:	fcc57ee3          	bgeu	a0,a2,80009620 <memset+0x28>
    80009648:	00050793          	mv	a5,a0
    8000964c:	00878793          	addi	a5,a5,8
    80009650:	fee7bc23          	sd	a4,-8(a5)
    80009654:	fec7ece3          	bltu	a5,a2,8000964c <memset+0x54>
    80009658:	00008067          	ret
    8000965c:	00008067          	ret

0000000080009660 <_init>:
    80009660:	fd010113          	addi	sp,sp,-48
    80009664:	11018793          	addi	a5,gp,272 # 8000ba60 <_tdata_begin>
    80009668:	01313423          	sd	s3,8(sp)
    8000966c:	11018993          	addi	s3,gp,272 # 8000ba60 <_tdata_begin>
    80009670:	01213823          	sd	s2,16(sp)
    80009674:	40f98933          	sub	s2,s3,a5
    80009678:	02813023          	sd	s0,32(sp)
    8000967c:	00913c23          	sd	s1,24(sp)
    80009680:	00050413          	mv	s0,a0
    80009684:	00058493          	mv	s1,a1
    80009688:	00020513          	mv	a0,tp
    8000968c:	00078593          	mv	a1,a5
    80009690:	00090613          	mv	a2,s2
    80009694:	02113423          	sd	ra,40(sp)
    80009698:	01413023          	sd	s4,0(sp)
    8000969c:	00020a13          	mv	s4,tp
    800096a0:	efdff0ef          	jal	8000959c <memcpy>
    800096a4:	1b418613          	addi	a2,gp,436 # 8000bb04 <_tbss_end>
    800096a8:	41360633          	sub	a2,a2,s3
    800096ac:	00000593          	li	a1,0
    800096b0:	012a0533          	add	a0,s4,s2
    800096b4:	f45ff0ef          	jal	800095f8 <memset>
    800096b8:	00048593          	mv	a1,s1
    800096bc:	00040513          	mv	a0,s0
    800096c0:	a3cff0ef          	jal	800088fc <thread_entry>
    800096c4:	00000593          	li	a1,0
    800096c8:	00000513          	li	a0,0
    800096cc:	241010ef          	jal	8000b10c <main>
    800096d0:	ce5ff0ef          	jal	800093b4 <tohost_exit>

00000000800096d4 <strlen>:
    800096d4:	00054783          	lbu	a5,0(a0)
    800096d8:	00078e63          	beqz	a5,800096f4 <strlen+0x20>
    800096dc:	00050793          	mv	a5,a0
    800096e0:	0017c703          	lbu	a4,1(a5)
    800096e4:	00178793          	addi	a5,a5,1
    800096e8:	fe071ce3          	bnez	a4,800096e0 <strlen+0xc>
    800096ec:	40a78533          	sub	a0,a5,a0
    800096f0:	00008067          	ret
    800096f4:	00000513          	li	a0,0
    800096f8:	00008067          	ret

00000000800096fc <strnlen>:
    800096fc:	00b506b3          	add	a3,a0,a1
    80009700:	00050793          	mv	a5,a0
    80009704:	00059863          	bnez	a1,80009714 <strnlen+0x18>
    80009708:	0240006f          	j	8000972c <strnlen+0x30>
    8000970c:	00178793          	addi	a5,a5,1
    80009710:	00f68a63          	beq	a3,a5,80009724 <strnlen+0x28>
    80009714:	0007c703          	lbu	a4,0(a5)
    80009718:	fe071ae3          	bnez	a4,8000970c <strnlen+0x10>
    8000971c:	40a78533          	sub	a0,a5,a0
    80009720:	00008067          	ret
    80009724:	40a68533          	sub	a0,a3,a0
    80009728:	00008067          	ret
    8000972c:	00000513          	li	a0,0
    80009730:	00008067          	ret

0000000080009734 <strcmp>:
    80009734:	00054783          	lbu	a5,0(a0)
    80009738:	00158593          	addi	a1,a1,1
    8000973c:	00150513          	addi	a0,a0,1
    80009740:	fff5c703          	lbu	a4,-1(a1)
    80009744:	00078a63          	beqz	a5,80009758 <strcmp+0x24>
    80009748:	fee786e3          	beq	a5,a4,80009734 <strcmp>
    8000974c:	0007851b          	sext.w	a0,a5
    80009750:	40e5053b          	subw	a0,a0,a4
    80009754:	00008067          	ret
    80009758:	00000513          	li	a0,0
    8000975c:	ff5ff06f          	j	80009750 <strcmp+0x1c>

0000000080009760 <strcpy>:
    80009760:	00050793          	mv	a5,a0
    80009764:	0005c703          	lbu	a4,0(a1)
    80009768:	00178793          	addi	a5,a5,1
    8000976c:	00158593          	addi	a1,a1,1
    80009770:	fee78fa3          	sb	a4,-1(a5)
    80009774:	fe0718e3          	bnez	a4,80009764 <strcpy+0x4>
    80009778:	00008067          	ret

000000008000977c <atol>:
    8000977c:	00054703          	lbu	a4,0(a0)
    80009780:	02000693          	li	a3,32
    80009784:	00050793          	mv	a5,a0
    80009788:	00d71863          	bne	a4,a3,80009798 <atol+0x1c>
    8000978c:	0017c703          	lbu	a4,1(a5)
    80009790:	00178793          	addi	a5,a5,1
    80009794:	fed70ce3          	beq	a4,a3,8000978c <atol+0x10>
    80009798:	02d00693          	li	a3,45
    8000979c:	04d70e63          	beq	a4,a3,800097f8 <atol+0x7c>
    800097a0:	02b00693          	li	a3,43
    800097a4:	04d70063          	beq	a4,a3,800097e4 <atol+0x68>
    800097a8:	0007c683          	lbu	a3,0(a5)
    800097ac:	00000593          	li	a1,0
    800097b0:	04068c63          	beqz	a3,80009808 <atol+0x8c>
    800097b4:	00000513          	li	a0,0
    800097b8:	00178793          	addi	a5,a5,1
    800097bc:	00251713          	slli	a4,a0,0x2
    800097c0:	fd06861b          	addiw	a2,a3,-48
    800097c4:	0007c683          	lbu	a3,0(a5)
    800097c8:	00a70733          	add	a4,a4,a0
    800097cc:	00171713          	slli	a4,a4,0x1
    800097d0:	00e60533          	add	a0,a2,a4
    800097d4:	fe0692e3          	bnez	a3,800097b8 <atol+0x3c>
    800097d8:	02058a63          	beqz	a1,8000980c <atol+0x90>
    800097dc:	40a00533          	neg	a0,a0
    800097e0:	00008067          	ret
    800097e4:	0017c683          	lbu	a3,1(a5)
    800097e8:	00178793          	addi	a5,a5,1
    800097ec:	00068e63          	beqz	a3,80009808 <atol+0x8c>
    800097f0:	00000593          	li	a1,0
    800097f4:	fc1ff06f          	j	800097b4 <atol+0x38>
    800097f8:	0017c683          	lbu	a3,1(a5)
    800097fc:	00100593          	li	a1,1
    80009800:	00178793          	addi	a5,a5,1
    80009804:	fa0698e3          	bnez	a3,800097b4 <atol+0x38>
    80009808:	00000513          	li	a0,0
    8000980c:	00008067          	ret

0000000080009810 <__fma>:
    80009810:	f8010113          	addi	sp,sp,-128
    80009814:	03455793          	srli	a5,a0,0x34
    80009818:	06913423          	sd	s1,104(sp)
    8000981c:	05313c23          	sd	s3,88(sp)
    80009820:	05513423          	sd	s5,72(sp)
    80009824:	00c51713          	slli	a4,a0,0xc
    80009828:	06113c23          	sd	ra,120(sp)
    8000982c:	06813823          	sd	s0,112(sp)
    80009830:	07213023          	sd	s2,96(sp)
    80009834:	05413823          	sd	s4,80(sp)
    80009838:	05613023          	sd	s6,64(sp)
    8000983c:	03713c23          	sd	s7,56(sp)
    80009840:	03813823          	sd	s8,48(sp)
    80009844:	03913423          	sd	s9,40(sp)
    80009848:	03a13023          	sd	s10,32(sp)
    8000984c:	01b13c23          	sd	s11,24(sp)
    80009850:	7ff7f793          	andi	a5,a5,2047
    80009854:	00060493          	mv	s1,a2
    80009858:	00c75a93          	srli	s5,a4,0xc
    8000985c:	03f55993          	srli	s3,a0,0x3f
    80009860:	28078863          	beqz	a5,80009af0 <__fma+0x2e0>
    80009864:	7ff00693          	li	a3,2047
    80009868:	0ed78a63          	beq	a5,a3,8000995c <__fma+0x14c>
    8000986c:	00100693          	li	a3,1
    80009870:	003a9713          	slli	a4,s5,0x3
    80009874:	03769693          	slli	a3,a3,0x37
    80009878:	00d76ab3          	or	s5,a4,a3
    8000987c:	c0178b13          	addi	s6,a5,-1023
    80009880:	00000913          	li	s2,0
    80009884:	00000d13          	li	s10,0
    80009888:	0345d793          	srli	a5,a1,0x34
    8000988c:	00c59513          	slli	a0,a1,0xc
    80009890:	7ff7f793          	andi	a5,a5,2047
    80009894:	00c55a13          	srli	s4,a0,0xc
    80009898:	03f5d413          	srli	s0,a1,0x3f
    8000989c:	0e078463          	beqz	a5,80009984 <__fma+0x174>
    800098a0:	7ff00693          	li	a3,2047
    800098a4:	22d78c63          	beq	a5,a3,80009adc <__fma+0x2cc>
    800098a8:	00100693          	li	a3,1
    800098ac:	003a1513          	slli	a0,s4,0x3
    800098b0:	03769693          	slli	a3,a3,0x37
    800098b4:	c0178793          	addi	a5,a5,-1023
    800098b8:	00d56a33          	or	s4,a0,a3
    800098bc:	00fb0b33          	add	s6,s6,a5
    800098c0:	00090613          	mv	a2,s2
    800098c4:	00000c93          	li	s9,0
    800098c8:	0344d713          	srli	a4,s1,0x34
    800098cc:	00c49513          	slli	a0,s1,0xc
    800098d0:	7ff77793          	andi	a5,a4,2047
    800098d4:	03f4d493          	srli	s1,s1,0x3f
    800098d8:	00c55b93          	srli	s7,a0,0xc
    800098dc:	00048c13          	mv	s8,s1
    800098e0:	0089cdb3          	xor	s11,s3,s0
    800098e4:	0c078663          	beqz	a5,800099b0 <__fma+0x1a0>
    800098e8:	7ff00693          	li	a3,2047
    800098ec:	1ad78463          	beq	a5,a3,80009a94 <__fma+0x284>
    800098f0:	00100693          	li	a3,1
    800098f4:	003b9513          	slli	a0,s7,0x3
    800098f8:	03769693          	slli	a3,a3,0x37
    800098fc:	00d56bb3          	or	s7,a0,a3
    80009900:	c0178593          	addi	a1,a5,-1023
    80009904:	00000513          	li	a0,0
    80009908:	00a00693          	li	a3,10
    8000990c:	0ac6cc63          	blt	a3,a2,800099c4 <__fma+0x1b4>
    80009910:	00200693          	li	a3,2
    80009914:	2cc6d463          	bge	a3,a2,80009bdc <__fma+0x3cc>
    80009918:	00100713          	li	a4,1
    8000991c:	00c71733          	sll	a4,a4,a2
    80009920:	53077793          	andi	a5,a4,1328
    80009924:	0a079a63          	bnez	a5,800099d8 <__fma+0x1c8>
    80009928:	24077793          	andi	a5,a4,576
    8000992c:	0c079c63          	bnez	a5,80009a04 <__fma+0x1f4>
    80009930:	08877713          	andi	a4,a4,136
    80009934:	18071e63          	bnez	a4,80009ad0 <__fma+0x2c0>
    80009938:	00100793          	li	a5,1
    8000993c:	001b0413          	addi	s0,s6,1
    80009940:	1cf50263          	beq	a0,a5,80009b04 <__fma+0x2f4>
    80009944:	ffe50513          	addi	a0,a0,-2
    80009948:	38a7e663          	bltu	a5,a0,80009cd4 <__fma+0x4c4>
    8000994c:	0014fc13          	andi	s8,s1,1
    80009950:	7ff00793          	li	a5,2047
    80009954:	00000713          	li	a4,0
    80009958:	0bc0006f          	j	80009a14 <__fma+0x204>
    8000995c:	280a9a63          	bnez	s5,80009bf0 <__fma+0x3e0>
    80009960:	0345d793          	srli	a5,a1,0x34
    80009964:	00c59513          	slli	a0,a1,0xc
    80009968:	7ff7f793          	andi	a5,a5,2047
    8000996c:	00800913          	li	s2,8
    80009970:	7ff00b13          	li	s6,2047
    80009974:	00200d13          	li	s10,2
    80009978:	00c55a13          	srli	s4,a0,0xc
    8000997c:	03f5d413          	srli	s0,a1,0x3f
    80009980:	f20790e3          	bnez	a5,800098a0 <__fma+0x90>
    80009984:	2a0a1663          	bnez	s4,80009c30 <__fma+0x420>
    80009988:	0344d713          	srli	a4,s1,0x34
    8000998c:	00c49513          	slli	a0,s1,0xc
    80009990:	7ff77793          	andi	a5,a4,2047
    80009994:	03f4d493          	srli	s1,s1,0x3f
    80009998:	00196613          	ori	a2,s2,1
    8000999c:	00100c93          	li	s9,1
    800099a0:	00c55b93          	srli	s7,a0,0xc
    800099a4:	00048c13          	mv	s8,s1
    800099a8:	0089cdb3          	xor	s11,s3,s0
    800099ac:	f2079ee3          	bnez	a5,800098e8 <__fma+0xd8>
    800099b0:	2a0b9a63          	bnez	s7,80009c64 <__fma+0x454>
    800099b4:	00a00693          	li	a3,10
    800099b8:	00000593          	li	a1,0
    800099bc:	00100513          	li	a0,1
    800099c0:	f4c6d8e3          	bge	a3,a2,80009910 <__fma+0x100>
    800099c4:	00f00793          	li	a5,15
    800099c8:	02f60e63          	beq	a2,a5,80009a04 <__fma+0x1f4>
    800099cc:	00b00793          	li	a5,11
    800099d0:	10f60063          	beq	a2,a5,80009ad0 <__fma+0x2c0>
    800099d4:	00098d93          	mv	s11,s3
    800099d8:	000a8a13          	mv	s4,s5
    800099dc:	000d0c93          	mv	s9,s10
    800099e0:	012567b3          	or	a5,a0,s2
    800099e4:	ffc78793          	addi	a5,a5,-4
    800099e8:	fd818713          	addi	a4,gp,-40 # 8000b928 <.got.plt+0x7e8>
    800099ec:	00279793          	slli	a5,a5,0x2
    800099f0:	00e787b3          	add	a5,a5,a4
    800099f4:	0007a783          	lw	a5,0(a5)
    800099f8:	00e787b3          	add	a5,a5,a4
    800099fc:	00078067          	jr	a5
    80009a00:	069d8663          	beq	s11,s1,80009a6c <__fma+0x25c>
    80009a04:	00100713          	li	a4,1
    80009a08:	00000c13          	li	s8,0
    80009a0c:	7ff00793          	li	a5,2047
    80009a10:	03371713          	slli	a4,a4,0x33
    80009a14:	07813083          	ld	ra,120(sp)
    80009a18:	07013403          	ld	s0,112(sp)
    80009a1c:	03479513          	slli	a0,a5,0x34
    80009a20:	00e56533          	or	a0,a0,a4
    80009a24:	03fc1793          	slli	a5,s8,0x3f
    80009a28:	06813483          	ld	s1,104(sp)
    80009a2c:	06013903          	ld	s2,96(sp)
    80009a30:	05813983          	ld	s3,88(sp)
    80009a34:	05013a03          	ld	s4,80(sp)
    80009a38:	04813a83          	ld	s5,72(sp)
    80009a3c:	04013b03          	ld	s6,64(sp)
    80009a40:	03813b83          	ld	s7,56(sp)
    80009a44:	03013c03          	ld	s8,48(sp)
    80009a48:	02813c83          	ld	s9,40(sp)
    80009a4c:	02013d03          	ld	s10,32(sp)
    80009a50:	01813d83          	ld	s11,24(sp)
    80009a54:	00f56533          	or	a0,a0,a5
    80009a58:	08010113          	addi	sp,sp,128
    80009a5c:	00008067          	ret
    80009a60:	000a0b93          	mv	s7,s4
    80009a64:	000d8493          	mv	s1,s11
    80009a68:	000c8513          	mv	a0,s9
    80009a6c:	00200793          	li	a5,2
    80009a70:	ecf50ee3          	beq	a0,a5,8000994c <__fma+0x13c>
    80009a74:	00300793          	li	a5,3
    80009a78:	f8f506e3          	beq	a0,a5,80009a04 <__fma+0x1f4>
    80009a7c:	00100793          	li	a5,1
    80009a80:	10f51263          	bne	a0,a5,80009b84 <__fma+0x374>
    80009a84:	0014fc13          	andi	s8,s1,1
    80009a88:	00000793          	li	a5,0
    80009a8c:	00000713          	li	a4,0
    80009a90:	f85ff06f          	j	80009a14 <__fma+0x204>
    80009a94:	1e0b8e63          	beqz	s7,80009c90 <__fma+0x480>
    80009a98:	00a00713          	li	a4,10
    80009a9c:	32c74063          	blt	a4,a2,80009dbc <__fma+0x5ac>
    80009aa0:	00200713          	li	a4,2
    80009aa4:	42c75c63          	bge	a4,a2,80009edc <__fma+0x6cc>
    80009aa8:	00100713          	li	a4,1
    80009aac:	00c71733          	sll	a4,a4,a2
    80009ab0:	53077693          	andi	a3,a4,1328
    80009ab4:	4a069e63          	bnez	a3,80009f70 <__fma+0x760>
    80009ab8:	24077693          	andi	a3,a4,576
    80009abc:	30069463          	bnez	a3,80009dc4 <__fma+0x5b4>
    80009ac0:	08877713          	andi	a4,a4,136
    80009ac4:	30070063          	beqz	a4,80009dc4 <__fma+0x5b4>
    80009ac8:	7ff00593          	li	a1,2047
    80009acc:	00300513          	li	a0,3
    80009ad0:	00040d93          	mv	s11,s0
    80009ad4:	002c9913          	slli	s2,s9,0x2
    80009ad8:	f09ff06f          	j	800099e0 <__fma+0x1d0>
    80009adc:	7ffb0b13          	addi	s6,s6,2047
    80009ae0:	160a1c63          	bnez	s4,80009c58 <__fma+0x448>
    80009ae4:	00296613          	ori	a2,s2,2
    80009ae8:	00200c93          	li	s9,2
    80009aec:	dddff06f          	j	800098c8 <__fma+0xb8>
    80009af0:	100a9863          	bnez	s5,80009c00 <__fma+0x3f0>
    80009af4:	00400913          	li	s2,4
    80009af8:	00000b13          	li	s6,0
    80009afc:	00100d13          	li	s10,1
    80009b00:	d89ff06f          	j	80009888 <__fma+0x78>
    80009b04:	fff00693          	li	a3,-1
    80009b08:	0206d693          	srli	a3,a3,0x20
    80009b0c:	00daf733          	and	a4,s5,a3
    80009b10:	020ad613          	srli	a2,s5,0x20
    80009b14:	020a5513          	srli	a0,s4,0x20
    80009b18:	00da76b3          	and	a3,s4,a3
    80009b1c:	02e685b3          	mul	a1,a3,a4
    80009b20:	02d606b3          	mul	a3,a2,a3
    80009b24:	0205d793          	srli	a5,a1,0x20
    80009b28:	02e50733          	mul	a4,a0,a4
    80009b2c:	00d70733          	add	a4,a4,a3
    80009b30:	00e787b3          	add	a5,a5,a4
    80009b34:	02a60633          	mul	a2,a2,a0
    80009b38:	30d7e263          	bltu	a5,a3,80009e3c <__fma+0x62c>
    80009b3c:	fff00693          	li	a3,-1
    80009b40:	0206d693          	srli	a3,a3,0x20
    80009b44:	00d7f733          	and	a4,a5,a3
    80009b48:	02071713          	slli	a4,a4,0x20
    80009b4c:	00d5f5b3          	and	a1,a1,a3
    80009b50:	00b70733          	add	a4,a4,a1
    80009b54:	0207d793          	srli	a5,a5,0x20
    80009b58:	00971513          	slli	a0,a4,0x9
    80009b5c:	00c787b3          	add	a5,a5,a2
    80009b60:	03775713          	srli	a4,a4,0x37
    80009b64:	00979793          	slli	a5,a5,0x9
    80009b68:	00a03533          	snez	a0,a0
    80009b6c:	00e56533          	or	a0,a0,a4
    80009b70:	00779713          	slli	a4,a5,0x7
    80009b74:	00a7ebb3          	or	s7,a5,a0
    80009b78:	2c074a63          	bltz	a4,80009e4c <__fma+0x63c>
    80009b7c:	000b0593          	mv	a1,s6
    80009b80:	000d8493          	mv	s1,s11
    80009b84:	3ff58693          	addi	a3,a1,1023
    80009b88:	0014fc13          	andi	s8,s1,1
    80009b8c:	10d05863          	blez	a3,80009c9c <__fma+0x48c>
    80009b90:	007bf793          	andi	a5,s7,7
    80009b94:	00078a63          	beqz	a5,80009ba8 <__fma+0x398>
    80009b98:	00fbf793          	andi	a5,s7,15
    80009b9c:	00400713          	li	a4,4
    80009ba0:	00e78463          	beq	a5,a4,80009ba8 <__fma+0x398>
    80009ba4:	004b8b93          	addi	s7,s7,4
    80009ba8:	007b9793          	slli	a5,s7,0x7
    80009bac:	0007dc63          	bgez	a5,80009bc4 <__fma+0x3b4>
    80009bb0:	fff00793          	li	a5,-1
    80009bb4:	03879793          	slli	a5,a5,0x38
    80009bb8:	fff78793          	addi	a5,a5,-1
    80009bbc:	00fbfbb3          	and	s7,s7,a5
    80009bc0:	40058693          	addi	a3,a1,1024
    80009bc4:	7fe00793          	li	a5,2046
    80009bc8:	20d7c663          	blt	a5,a3,80009dd4 <__fma+0x5c4>
    80009bcc:	009b9713          	slli	a4,s7,0x9
    80009bd0:	00c75713          	srli	a4,a4,0xc
    80009bd4:	7ff6f793          	andi	a5,a3,2047
    80009bd8:	e3dff06f          	j	80009a14 <__fma+0x204>
    80009bdc:	fff60613          	addi	a2,a2,-1
    80009be0:	00100793          	li	a5,1
    80009be4:	d4c7eae3          	bltu	a5,a2,80009938 <__fma+0x128>
    80009be8:	002c9913          	slli	s2,s9,0x2
    80009bec:	df5ff06f          	j	800099e0 <__fma+0x1d0>
    80009bf0:	00c00913          	li	s2,12
    80009bf4:	7ff00b13          	li	s6,2047
    80009bf8:	00300d13          	li	s10,3
    80009bfc:	c8dff06f          	j	80009888 <__fma+0x78>
    80009c00:	000a8513          	mv	a0,s5
    80009c04:	00b13423          	sd	a1,8(sp)
    80009c08:	470000ef          	jal	8000a078 <__clzdi2>
    80009c0c:	0005071b          	sext.w	a4,a0
    80009c10:	c0d00793          	li	a5,-1011
    80009c14:	ff85051b          	addiw	a0,a0,-8
    80009c18:	00813583          	ld	a1,8(sp)
    80009c1c:	00aa9ab3          	sll	s5,s5,a0
    80009c20:	40e78b33          	sub	s6,a5,a4
    80009c24:	00000913          	li	s2,0
    80009c28:	00000d13          	li	s10,0
    80009c2c:	c5dff06f          	j	80009888 <__fma+0x78>
    80009c30:	000a0513          	mv	a0,s4
    80009c34:	444000ef          	jal	8000a078 <__clzdi2>
    80009c38:	0005079b          	sext.w	a5,a0
    80009c3c:	40fb07b3          	sub	a5,s6,a5
    80009c40:	ff85051b          	addiw	a0,a0,-8
    80009c44:	00aa1a33          	sll	s4,s4,a0
    80009c48:	c0d78b13          	addi	s6,a5,-1011
    80009c4c:	00090613          	mv	a2,s2
    80009c50:	00000c93          	li	s9,0
    80009c54:	c75ff06f          	j	800098c8 <__fma+0xb8>
    80009c58:	00396613          	ori	a2,s2,3
    80009c5c:	00300c93          	li	s9,3
    80009c60:	c69ff06f          	j	800098c8 <__fma+0xb8>
    80009c64:	000b8513          	mv	a0,s7
    80009c68:	00c13423          	sd	a2,8(sp)
    80009c6c:	40c000ef          	jal	8000a078 <__clzdi2>
    80009c70:	0005079b          	sext.w	a5,a0
    80009c74:	c0d00593          	li	a1,-1011
    80009c78:	ff85051b          	addiw	a0,a0,-8
    80009c7c:	00ab9bb3          	sll	s7,s7,a0
    80009c80:	00813603          	ld	a2,8(sp)
    80009c84:	40f585b3          	sub	a1,a1,a5
    80009c88:	00000513          	li	a0,0
    80009c8c:	c7dff06f          	j	80009908 <__fma+0xf8>
    80009c90:	7ff00593          	li	a1,2047
    80009c94:	00200513          	li	a0,2
    80009c98:	c71ff06f          	j	80009908 <__fma+0xf8>
    80009c9c:	14068263          	beqz	a3,80009de0 <__fma+0x5d0>
    80009ca0:	00100793          	li	a5,1
    80009ca4:	40d786b3          	sub	a3,a5,a3
    80009ca8:	03800613          	li	a2,56
    80009cac:	00000793          	li	a5,0
    80009cb0:	00000713          	li	a4,0
    80009cb4:	d6d640e3          	blt	a2,a3,80009a14 <__fma+0x204>
    80009cb8:	04000793          	li	a5,64
    80009cbc:	0006871b          	sext.w	a4,a3
    80009cc0:	40d787bb          	subw	a5,a5,a3
    80009cc4:	1240006f          	j	80009de8 <__fma+0x5d8>
    80009cc8:	da9d82e3          	beq	s11,s1,80009a6c <__fma+0x25c>
    80009ccc:	00000493          	li	s1,0
    80009cd0:	d9dff06f          	j	80009a6c <__fma+0x25c>
    80009cd4:	fff00793          	li	a5,-1
    80009cd8:	0207d793          	srli	a5,a5,0x20
    80009cdc:	00faf733          	and	a4,s5,a5
    80009ce0:	020ad613          	srli	a2,s5,0x20
    80009ce4:	020a5813          	srli	a6,s4,0x20
    80009ce8:	00fa77b3          	and	a5,s4,a5
    80009cec:	02e78533          	mul	a0,a5,a4
    80009cf0:	02f607b3          	mul	a5,a2,a5
    80009cf4:	02055693          	srli	a3,a0,0x20
    80009cf8:	02e80733          	mul	a4,a6,a4
    80009cfc:	00f70733          	add	a4,a4,a5
    80009d00:	00e68733          	add	a4,a3,a4
    80009d04:	03060633          	mul	a2,a2,a6
    80009d08:	00f77863          	bgeu	a4,a5,80009d18 <__fma+0x508>
    80009d0c:	00100793          	li	a5,1
    80009d10:	02079793          	slli	a5,a5,0x20
    80009d14:	00f60633          	add	a2,a2,a5
    80009d18:	02075813          	srli	a6,a4,0x20
    80009d1c:	00c80833          	add	a6,a6,a2
    80009d20:	02f85613          	srli	a2,a6,0x2f
    80009d24:	00164613          	xori	a2,a2,1
    80009d28:	fff00893          	li	a7,-1
    80009d2c:	00167693          	andi	a3,a2,1
    80009d30:	0208d893          	srli	a7,a7,0x20
    80009d34:	011777b3          	and	a5,a4,a7
    80009d38:	40d40733          	sub	a4,s0,a3
    80009d3c:	40b7073b          	subw	a4,a4,a1
    80009d40:	02079793          	slli	a5,a5,0x20
    80009d44:	01157533          	and	a0,a0,a7
    80009d48:	00068613          	mv	a2,a3
    80009d4c:	02071693          	slli	a3,a4,0x20
    80009d50:	00a787b3          	add	a5,a5,a0
    80009d54:	1206c063          	bltz	a3,80009e74 <__fma+0x664>
    80009d58:	03800693          	li	a3,56
    80009d5c:	40c6863b          	subw	a2,a3,a2
    80009d60:	40e606bb          	subw	a3,a2,a4
    80009d64:	fc900513          	li	a0,-55
    80009d68:	20a6ca63          	blt	a3,a0,80009f7c <__fma+0x76c>
    80009d6c:	2a06c663          	bltz	a3,8000a018 <__fma+0x808>
    80009d70:	2c068463          	beqz	a3,8000a038 <__fma+0x828>
    80009d74:	04000713          	li	a4,64
    80009d78:	40d7073b          	subw	a4,a4,a3
    80009d7c:	00ebd733          	srl	a4,s7,a4
    80009d80:	00db96b3          	sll	a3,s7,a3
    80009d84:	17b48a63          	beq	s1,s11,80009ef8 <__fma+0x6e8>
    80009d88:	40d78533          	sub	a0,a5,a3
    80009d8c:	40e80933          	sub	s2,a6,a4
    80009d90:	00a7b633          	sltu	a2,a5,a0
    80009d94:	40c90933          	sub	s2,s2,a2
    80009d98:	00050b93          	mv	s7,a0
    80009d9c:	22094263          	bltz	s2,80009fc0 <__fma+0x7b0>
    80009da0:	000d8493          	mv	s1,s11
    80009da4:	017967b3          	or	a5,s2,s7
    80009da8:	00000c13          	li	s8,0
    80009dac:	16079663          	bnez	a5,80009f18 <__fma+0x708>
    80009db0:	00000793          	li	a5,0
    80009db4:	00000713          	li	a4,0
    80009db8:	c5dff06f          	j	80009a14 <__fma+0x204>
    80009dbc:	00f00713          	li	a4,15
    80009dc0:	06e61263          	bne	a2,a4,80009e24 <__fma+0x614>
    80009dc4:	00100713          	li	a4,1
    80009dc8:	00000c13          	li	s8,0
    80009dcc:	03371713          	slli	a4,a4,0x33
    80009dd0:	c45ff06f          	j	80009a14 <__fma+0x204>
    80009dd4:	7ff00793          	li	a5,2047
    80009dd8:	00000713          	li	a4,0
    80009ddc:	c39ff06f          	j	80009a14 <__fma+0x204>
    80009de0:	03f00793          	li	a5,63
    80009de4:	00100713          	li	a4,1
    80009de8:	00fb97b3          	sll	a5,s7,a5
    80009dec:	00f037b3          	snez	a5,a5
    80009df0:	00ebd733          	srl	a4,s7,a4
    80009df4:	00f76733          	or	a4,a4,a5
    80009df8:	00777793          	andi	a5,a4,7
    80009dfc:	00078a63          	beqz	a5,80009e10 <__fma+0x600>
    80009e00:	00f77793          	andi	a5,a4,15
    80009e04:	00400693          	li	a3,4
    80009e08:	00d78463          	beq	a5,a3,80009e10 <__fma+0x600>
    80009e0c:	00470713          	addi	a4,a4,4
    80009e10:	00871793          	slli	a5,a4,0x8
    80009e14:	0407d863          	bgez	a5,80009e64 <__fma+0x654>
    80009e18:	00100793          	li	a5,1
    80009e1c:	00000713          	li	a4,0
    80009e20:	bf5ff06f          	j	80009a14 <__fma+0x204>
    80009e24:	00b00793          	li	a5,11
    80009e28:	7ff00593          	li	a1,2047
    80009e2c:	00300513          	li	a0,3
    80009e30:	caf600e3          	beq	a2,a5,80009ad0 <__fma+0x2c0>
    80009e34:	00098d93          	mv	s11,s3
    80009e38:	ba1ff06f          	j	800099d8 <__fma+0x1c8>
    80009e3c:	00100713          	li	a4,1
    80009e40:	02071713          	slli	a4,a4,0x20
    80009e44:	00e60633          	add	a2,a2,a4
    80009e48:	cf5ff06f          	j	80009b3c <__fma+0x32c>
    80009e4c:	001bd793          	srli	a5,s7,0x1
    80009e50:	001bf513          	andi	a0,s7,1
    80009e54:	00a7ebb3          	or	s7,a5,a0
    80009e58:	00040593          	mv	a1,s0
    80009e5c:	000d8493          	mv	s1,s11
    80009e60:	d25ff06f          	j	80009b84 <__fma+0x374>
    80009e64:	00971713          	slli	a4,a4,0x9
    80009e68:	00c75713          	srli	a4,a4,0xc
    80009e6c:	00000793          	li	a5,0
    80009e70:	ba5ff06f          	j	80009a14 <__fma+0x204>
    80009e74:	40e0073b          	negw	a4,a4
    80009e78:	40c7063b          	subw	a2,a4,a2
    80009e7c:	06f00513          	li	a0,111
    80009e80:	008bd913          	srli	s2,s7,0x8
    80009e84:	038b9693          	slli	a3,s7,0x38
    80009e88:	12c54663          	blt	a0,a2,80009fb4 <__fma+0x7a4>
    80009e8c:	02060863          	beqz	a2,80009ebc <__fma+0x6ac>
    80009e90:	03f00513          	li	a0,63
    80009e94:	1ac54863          	blt	a0,a2,8000a044 <__fma+0x834>
    80009e98:	04000513          	li	a0,64
    80009e9c:	40c5073b          	subw	a4,a0,a2
    80009ea0:	00e81533          	sll	a0,a6,a4
    80009ea4:	00c7d8b3          	srl	a7,a5,a2
    80009ea8:	00e797b3          	sll	a5,a5,a4
    80009eac:	00f037b3          	snez	a5,a5
    80009eb0:	01156733          	or	a4,a0,a7
    80009eb4:	00f767b3          	or	a5,a4,a5
    80009eb8:	00c85833          	srl	a6,a6,a2
    80009ebc:	15b48063          	beq	s1,s11,80009ffc <__fma+0x7ec>
    80009ec0:	40f687b3          	sub	a5,a3,a5
    80009ec4:	41090933          	sub	s2,s2,a6
    80009ec8:	00f6b6b3          	sltu	a3,a3,a5
    80009ecc:	00078b93          	mv	s7,a5
    80009ed0:	40d90933          	sub	s2,s2,a3
    80009ed4:	00058413          	mv	s0,a1
    80009ed8:	ecdff06f          	j	80009da4 <__fma+0x594>
    80009edc:	fff60613          	addi	a2,a2,-1
    80009ee0:	00100713          	li	a4,1
    80009ee4:	eec760e3          	bltu	a4,a2,80009dc4 <__fma+0x5b4>
    80009ee8:	7ff00593          	li	a1,2047
    80009eec:	00300513          	li	a0,3
    80009ef0:	002c9913          	slli	s2,s9,0x2
    80009ef4:	aedff06f          	j	800099e0 <__fma+0x1d0>
    80009ef8:	00f687b3          	add	a5,a3,a5
    80009efc:	01070733          	add	a4,a4,a6
    80009f00:	00d7b6b3          	sltu	a3,a5,a3
    80009f04:	00078b93          	mv	s7,a5
    80009f08:	00d70933          	add	s2,a4,a3
    80009f0c:	012be7b3          	or	a5,s7,s2
    80009f10:	000d8493          	mv	s1,s11
    80009f14:	e8078ee3          	beqz	a5,80009db0 <__fma+0x5a0>
    80009f18:	06090863          	beqz	s2,80009f88 <__fma+0x778>
    80009f1c:	00090513          	mv	a0,s2
    80009f20:	158000ef          	jal	8000a078 <__clzdi2>
    80009f24:	ff05059b          	addiw	a1,a0,-16
    80009f28:	03800713          	li	a4,56
    80009f2c:	40b7073b          	subw	a4,a4,a1
    80009f30:	03f00693          	li	a3,63
    80009f34:	00058613          	mv	a2,a1
    80009f38:	0005079b          	sext.w	a5,a0
    80009f3c:	40b405b3          	sub	a1,s0,a1
    80009f40:	08e6de63          	bge	a3,a4,80009fdc <__fma+0x7cc>
    80009f44:	ff800693          	li	a3,-8
    80009f48:	40c686bb          	subw	a3,a3,a2
    80009f4c:	04000793          	li	a5,64
    80009f50:	00d956b3          	srl	a3,s2,a3
    80009f54:	00f70863          	beq	a4,a5,80009f64 <__fma+0x754>
    80009f58:	0385079b          	addiw	a5,a0,56
    80009f5c:	00f917b3          	sll	a5,s2,a5
    80009f60:	00fbebb3          	or	s7,s7,a5
    80009f64:	01703533          	snez	a0,s7
    80009f68:	00d56bb3          	or	s7,a0,a3
    80009f6c:	c19ff06f          	j	80009b84 <__fma+0x374>
    80009f70:	7ff00593          	li	a1,2047
    80009f74:	00300513          	li	a0,3
    80009f78:	a61ff06f          	j	800099d8 <__fma+0x1c8>
    80009f7c:	00000713          	li	a4,0
    80009f80:	00100693          	li	a3,1
    80009f84:	e01ff06f          	j	80009d84 <__fma+0x574>
    80009f88:	000b8513          	mv	a0,s7
    80009f8c:	0ec000ef          	jal	8000a078 <__clzdi2>
    80009f90:	0305059b          	addiw	a1,a0,48
    80009f94:	03800713          	li	a4,56
    80009f98:	40b7073b          	subw	a4,a4,a1
    80009f9c:	40b405b3          	sub	a1,s0,a1
    80009fa0:	02e04c63          	bgtz	a4,80009fd8 <__fma+0x7c8>
    80009fa4:	be0700e3          	beqz	a4,80009b84 <__fma+0x374>
    80009fa8:	ff85051b          	addiw	a0,a0,-8
    80009fac:	00ab9bb3          	sll	s7,s7,a0
    80009fb0:	bd5ff06f          	j	80009b84 <__fma+0x374>
    80009fb4:	00000813          	li	a6,0
    80009fb8:	00100793          	li	a5,1
    80009fbc:	f01ff06f          	j	80009ebc <__fma+0x6ac>
    80009fc0:	40f687b3          	sub	a5,a3,a5
    80009fc4:	41070733          	sub	a4,a4,a6
    80009fc8:	00f6b6b3          	sltu	a3,a3,a5
    80009fcc:	00078b93          	mv	s7,a5
    80009fd0:	40d70933          	sub	s2,a4,a3
    80009fd4:	dd1ff06f          	j	80009da4 <__fma+0x594>
    80009fd8:	0405079b          	addiw	a5,a0,64
    80009fdc:	ff87879b          	addiw	a5,a5,-8
    80009fe0:	00fb9533          	sll	a0,s7,a5
    80009fe4:	00ebd733          	srl	a4,s7,a4
    80009fe8:	00f917b3          	sll	a5,s2,a5
    80009fec:	00e7e7b3          	or	a5,a5,a4
    80009ff0:	00a03533          	snez	a0,a0
    80009ff4:	00a7ebb3          	or	s7,a5,a0
    80009ff8:	b8dff06f          	j	80009b84 <__fma+0x374>
    80009ffc:	00d786b3          	add	a3,a5,a3
    8000a000:	01090933          	add	s2,s2,a6
    8000a004:	00f6b7b3          	sltu	a5,a3,a5
    8000a008:	00068b93          	mv	s7,a3
    8000a00c:	00f90933          	add	s2,s2,a5
    8000a010:	00058413          	mv	s0,a1
    8000a014:	ef9ff06f          	j	80009f0c <__fma+0x6fc>
    8000a018:	0406869b          	addiw	a3,a3,64
    8000a01c:	00db96b3          	sll	a3,s7,a3
    8000a020:	40c7073b          	subw	a4,a4,a2
    8000a024:	00ebd733          	srl	a4,s7,a4
    8000a028:	00d036b3          	snez	a3,a3
    8000a02c:	00e6e6b3          	or	a3,a3,a4
    8000a030:	00000713          	li	a4,0
    8000a034:	d51ff06f          	j	80009d84 <__fma+0x574>
    8000a038:	000b8693          	mv	a3,s7
    8000a03c:	00000713          	li	a4,0
    8000a040:	d45ff06f          	j	80009d84 <__fma+0x574>
    8000a044:	fc06089b          	addiw	a7,a2,-64
    8000a048:	04000313          	li	t1,64
    8000a04c:	011858b3          	srl	a7,a6,a7
    8000a050:	00000513          	li	a0,0
    8000a054:	00660863          	beq	a2,t1,8000a064 <__fma+0x854>
    8000a058:	08000513          	li	a0,128
    8000a05c:	40c5053b          	subw	a0,a0,a2
    8000a060:	00a81533          	sll	a0,a6,a0
    8000a064:	00f567b3          	or	a5,a0,a5
    8000a068:	00f037b3          	snez	a5,a5
    8000a06c:	00f8e7b3          	or	a5,a7,a5
    8000a070:	00000813          	li	a6,0
    8000a074:	e49ff06f          	j	80009ebc <__fma+0x6ac>

000000008000a078 <__clzdi2>:
    8000a078:	03855793          	srli	a5,a0,0x38
    8000a07c:	06079063          	bnez	a5,8000a0dc <__clzdi2+0x64>
    8000a080:	03800793          	li	a5,56
    8000a084:	0080006f          	j	8000a08c <__clzdi2+0x14>
    8000a088:	02069863          	bnez	a3,8000a0b8 <__clzdi2+0x40>
    8000a08c:	ff878793          	addi	a5,a5,-8
    8000a090:	00f55733          	srl	a4,a0,a5
    8000a094:	0ff77693          	zext.b	a3,a4
    8000a098:	fe0798e3          	bnez	a5,8000a088 <__clzdi2+0x10>
    8000a09c:	04000693          	li	a3,64
    8000a0a0:	00001797          	auipc	a5,0x1
    8000a0a4:	0987b783          	ld	a5,152(a5) # 8000b138 <_GLOBAL_OFFSET_TABLE_+0x8>
    8000a0a8:	00a787b3          	add	a5,a5,a0
    8000a0ac:	0007c503          	lbu	a0,0(a5)
    8000a0b0:	40a6853b          	subw	a0,a3,a0
    8000a0b4:	00008067          	ret
    8000a0b8:	04000693          	li	a3,64
    8000a0bc:	40f686b3          	sub	a3,a3,a5
    8000a0c0:	00070513          	mv	a0,a4
    8000a0c4:	00001797          	auipc	a5,0x1
    8000a0c8:	0747b783          	ld	a5,116(a5) # 8000b138 <_GLOBAL_OFFSET_TABLE_+0x8>
    8000a0cc:	00a787b3          	add	a5,a5,a0
    8000a0d0:	0007c503          	lbu	a0,0(a5)
    8000a0d4:	40a6853b          	subw	a0,a3,a0
    8000a0d8:	00008067          	ret
    8000a0dc:	00078513          	mv	a0,a5
    8000a0e0:	00800693          	li	a3,8
    8000a0e4:	fbdff06f          	j	8000a0a0 <__clzdi2+0x28>

000000008000a0e8 <__adddf3>:
    8000a0e8:	fff00713          	li	a4,-1
    8000a0ec:	fe010113          	addi	sp,sp,-32
    8000a0f0:	00c75713          	srli	a4,a4,0xc
    8000a0f4:	00a776b3          	and	a3,a4,a0
    8000a0f8:	00b77e33          	and	t3,a4,a1
    8000a0fc:	0345d613          	srli	a2,a1,0x34
    8000a100:	00813823          	sd	s0,16(sp)
    8000a104:	00913423          	sd	s1,8(sp)
    8000a108:	03455413          	srli	s0,a0,0x34
    8000a10c:	03f55493          	srli	s1,a0,0x3f
    8000a110:	00113c23          	sd	ra,24(sp)
    8000a114:	03f5d593          	srli	a1,a1,0x3f
    8000a118:	00068793          	mv	a5,a3
    8000a11c:	7ff47413          	andi	s0,s0,2047
    8000a120:	00048893          	mv	a7,s1
    8000a124:	00369813          	slli	a6,a3,0x3
    8000a128:	7ff67513          	andi	a0,a2,2047
    8000a12c:	003e1313          	slli	t1,t3,0x3
    8000a130:	14b48863          	beq	s1,a1,8000a280 <__adddf3+0x198>
    8000a134:	40a40ebb          	subw	t4,s0,a0
    8000a138:	000e861b          	sext.w	a2,t4
    8000a13c:	10c05263          	blez	a2,8000a240 <__adddf3+0x158>
    8000a140:	16050a63          	beqz	a0,8000a2b4 <__adddf3+0x1cc>
    8000a144:	7ff00793          	li	a5,2047
    8000a148:	12f40063          	beq	s0,a5,8000a268 <__adddf3+0x180>
    8000a14c:	00100793          	li	a5,1
    8000a150:	03779793          	slli	a5,a5,0x37
    8000a154:	00f36333          	or	t1,t1,a5
    8000a158:	03800713          	li	a4,56
    8000a15c:	00100793          	li	a5,1
    8000a160:	00c74e63          	blt	a4,a2,8000a17c <__adddf3+0x94>
    8000a164:	04000793          	li	a5,64
    8000a168:	40c787bb          	subw	a5,a5,a2
    8000a16c:	00f317b3          	sll	a5,t1,a5
    8000a170:	00c35633          	srl	a2,t1,a2
    8000a174:	00f037b3          	snez	a5,a5
    8000a178:	00f667b3          	or	a5,a2,a5
    8000a17c:	40f80833          	sub	a6,a6,a5
    8000a180:	00881793          	slli	a5,a6,0x8
    8000a184:	1e07d463          	bgez	a5,8000a36c <__adddf3+0x284>
    8000a188:	01213023          	sd	s2,0(sp)
    8000a18c:	00981913          	slli	s2,a6,0x9
    8000a190:	00995913          	srli	s2,s2,0x9
    8000a194:	00090513          	mv	a0,s2
    8000a198:	ee1ff0ef          	jal	8000a078 <__clzdi2>
    8000a19c:	ff85079b          	addiw	a5,a0,-8
    8000a1a0:	00f91933          	sll	s2,s2,a5
    8000a1a4:	2087c463          	blt	a5,s0,8000a3ac <__adddf3+0x2c4>
    8000a1a8:	4087853b          	subw	a0,a5,s0
    8000a1ac:	0015051b          	addiw	a0,a0,1
    8000a1b0:	04000813          	li	a6,64
    8000a1b4:	40a8083b          	subw	a6,a6,a0
    8000a1b8:	01091833          	sll	a6,s2,a6
    8000a1bc:	01003833          	snez	a6,a6
    8000a1c0:	00a95933          	srl	s2,s2,a0
    8000a1c4:	01096833          	or	a6,s2,a6
    8000a1c8:	00013903          	ld	s2,0(sp)
    8000a1cc:	00000413          	li	s0,0
    8000a1d0:	00787793          	andi	a5,a6,7
    8000a1d4:	00078a63          	beqz	a5,8000a1e8 <__adddf3+0x100>
    8000a1d8:	00f87793          	andi	a5,a6,15
    8000a1dc:	00400713          	li	a4,4
    8000a1e0:	00e78463          	beq	a5,a4,8000a1e8 <__adddf3+0x100>
    8000a1e4:	00480813          	addi	a6,a6,4
    8000a1e8:	00881793          	slli	a5,a6,0x8
    8000a1ec:	1407da63          	bgez	a5,8000a340 <__adddf3+0x258>
    8000a1f0:	00140413          	addi	s0,s0,1
    8000a1f4:	7ff00793          	li	a5,2047
    8000a1f8:	00048893          	mv	a7,s1
    8000a1fc:	16f40263          	beq	s0,a5,8000a360 <__adddf3+0x278>
    8000a200:	fff00793          	li	a5,-1
    8000a204:	03779793          	slli	a5,a5,0x37
    8000a208:	fff78793          	addi	a5,a5,-1
    8000a20c:	00f877b3          	and	a5,a6,a5
    8000a210:	7ff47513          	andi	a0,s0,2047
    8000a214:	00979793          	slli	a5,a5,0x9
    8000a218:	00c7d793          	srli	a5,a5,0xc
    8000a21c:	01813083          	ld	ra,24(sp)
    8000a220:	01013403          	ld	s0,16(sp)
    8000a224:	03451513          	slli	a0,a0,0x34
    8000a228:	00f56533          	or	a0,a0,a5
    8000a22c:	03f89793          	slli	a5,a7,0x3f
    8000a230:	00813483          	ld	s1,8(sp)
    8000a234:	00f56533          	or	a0,a0,a5
    8000a238:	02010113          	addi	sp,sp,32
    8000a23c:	00008067          	ret
    8000a240:	08060663          	beqz	a2,8000a2cc <__adddf3+0x1e4>
    8000a244:	1e041a63          	bnez	s0,8000a438 <__adddf3+0x350>
    8000a248:	0e080663          	beqz	a6,8000a334 <__adddf3+0x24c>
    8000a24c:	fffece93          	not	t4,t4
    8000a250:	000e8e9b          	sext.w	t4,t4
    8000a254:	300e8263          	beqz	t4,8000a558 <__adddf3+0x470>
    8000a258:	7ff00793          	li	a5,2047
    8000a25c:	1ef51a63          	bne	a0,a5,8000a450 <__adddf3+0x368>
    8000a260:	00058493          	mv	s1,a1
    8000a264:	000e0693          	mv	a3,t3
    8000a268:	16068063          	beqz	a3,8000a3c8 <__adddf3+0x2e0>
    8000a26c:	00100793          	li	a5,1
    8000a270:	00000893          	li	a7,0
    8000a274:	7ff00513          	li	a0,2047
    8000a278:	03379793          	slli	a5,a5,0x33
    8000a27c:	fa1ff06f          	j	8000a21c <__adddf3+0x134>
    8000a280:	40a405bb          	subw	a1,s0,a0
    8000a284:	0005861b          	sext.w	a2,a1
    8000a288:	0ec05863          	blez	a2,8000a378 <__adddf3+0x290>
    8000a28c:	08050863          	beqz	a0,8000a31c <__adddf3+0x234>
    8000a290:	7ff00793          	li	a5,2047
    8000a294:	fcf40ae3          	beq	s0,a5,8000a268 <__adddf3+0x180>
    8000a298:	00100793          	li	a5,1
    8000a29c:	03779793          	slli	a5,a5,0x37
    8000a2a0:	00f36333          	or	t1,t1,a5
    8000a2a4:	03800793          	li	a5,56
    8000a2a8:	1cc7de63          	bge	a5,a2,8000a484 <__adddf3+0x39c>
    8000a2ac:	00180813          	addi	a6,a6,1
    8000a2b0:	f21ff06f          	j	8000a1d0 <__adddf3+0xe8>
    8000a2b4:	08030663          	beqz	t1,8000a340 <__adddf3+0x258>
    8000a2b8:	fffe861b          	addiw	a2,t4,-1
    8000a2bc:	26060263          	beqz	a2,8000a520 <__adddf3+0x438>
    8000a2c0:	7ff00793          	li	a5,2047
    8000a2c4:	e8f41ae3          	bne	s0,a5,8000a158 <__adddf3+0x70>
    8000a2c8:	fa1ff06f          	j	8000a268 <__adddf3+0x180>
    8000a2cc:	00140693          	addi	a3,s0,1
    8000a2d0:	7fe6f693          	andi	a3,a3,2046
    8000a2d4:	12069e63          	bnez	a3,8000a410 <__adddf3+0x328>
    8000a2d8:	f8041ae3          	bnez	s0,8000a26c <__adddf3+0x184>
    8000a2dc:	28080663          	beqz	a6,8000a568 <__adddf3+0x480>
    8000a2e0:	00000513          	li	a0,0
    8000a2e4:	f2030ce3          	beqz	t1,8000a21c <__adddf3+0x134>
    8000a2e8:	406807b3          	sub	a5,a6,t1
    8000a2ec:	00879693          	slli	a3,a5,0x8
    8000a2f0:	2c06d063          	bgez	a3,8000a5b0 <__adddf3+0x4c8>
    8000a2f4:	410307b3          	sub	a5,t1,a6
    8000a2f8:	00879693          	slli	a3,a5,0x8
    8000a2fc:	2c06d263          	bgez	a3,8000a5c0 <__adddf3+0x4d8>
    8000a300:	fff00713          	li	a4,-1
    8000a304:	03771713          	slli	a4,a4,0x37
    8000a308:	fff70713          	addi	a4,a4,-1
    8000a30c:	00e7f7b3          	and	a5,a5,a4
    8000a310:	00058893          	mv	a7,a1
    8000a314:	00100513          	li	a0,1
    8000a318:	efdff06f          	j	8000a214 <__adddf3+0x12c>
    8000a31c:	02030263          	beqz	t1,8000a340 <__adddf3+0x258>
    8000a320:	fff5861b          	addiw	a2,a1,-1
    8000a324:	1e060a63          	beqz	a2,8000a518 <__adddf3+0x430>
    8000a328:	7ff00793          	li	a5,2047
    8000a32c:	f6f41ce3          	bne	s0,a5,8000a2a4 <__adddf3+0x1bc>
    8000a330:	f39ff06f          	j	8000a268 <__adddf3+0x180>
    8000a334:	00050413          	mv	s0,a0
    8000a338:	00058493          	mv	s1,a1
    8000a33c:	00030813          	mv	a6,t1
    8000a340:	7ff00793          	li	a5,2047
    8000a344:	00385693          	srli	a3,a6,0x3
    8000a348:	f2f400e3          	beq	s0,a5,8000a268 <__adddf3+0x180>
    8000a34c:	00c69693          	slli	a3,a3,0xc
    8000a350:	00c6d793          	srli	a5,a3,0xc
    8000a354:	7ff47513          	andi	a0,s0,2047
    8000a358:	00048893          	mv	a7,s1
    8000a35c:	ec1ff06f          	j	8000a21c <__adddf3+0x134>
    8000a360:	7ff00513          	li	a0,2047
    8000a364:	00000793          	li	a5,0
    8000a368:	eb5ff06f          	j	8000a21c <__adddf3+0x134>
    8000a36c:	00787793          	andi	a5,a6,7
    8000a370:	e60794e3          	bnez	a5,8000a1d8 <__adddf3+0xf0>
    8000a374:	fcdff06f          	j	8000a340 <__adddf3+0x258>
    8000a378:	06060063          	beqz	a2,8000a3d8 <__adddf3+0x2f0>
    8000a37c:	14040c63          	beqz	s0,8000a4d4 <__adddf3+0x3ec>
    8000a380:	7ff00793          	li	a5,2047
    8000a384:	eef500e3          	beq	a0,a5,8000a264 <__adddf3+0x17c>
    8000a388:	00100793          	li	a5,1
    8000a38c:	03779793          	slli	a5,a5,0x37
    8000a390:	40b005bb          	negw	a1,a1
    8000a394:	00f86833          	or	a6,a6,a5
    8000a398:	03800793          	li	a5,56
    8000a39c:	18b7d663          	bge	a5,a1,8000a528 <__adddf3+0x440>
    8000a3a0:	00130813          	addi	a6,t1,1
    8000a3a4:	00050413          	mv	s0,a0
    8000a3a8:	e29ff06f          	j	8000a1d0 <__adddf3+0xe8>
    8000a3ac:	fff00813          	li	a6,-1
    8000a3b0:	03781813          	slli	a6,a6,0x37
    8000a3b4:	fff80813          	addi	a6,a6,-1
    8000a3b8:	01097833          	and	a6,s2,a6
    8000a3bc:	40f40433          	sub	s0,s0,a5
    8000a3c0:	00013903          	ld	s2,0(sp)
    8000a3c4:	e0dff06f          	j	8000a1d0 <__adddf3+0xe8>
    8000a3c8:	00048893          	mv	a7,s1
    8000a3cc:	7ff00513          	li	a0,2047
    8000a3d0:	00000793          	li	a5,0
    8000a3d4:	e49ff06f          	j	8000a21c <__adddf3+0x134>
    8000a3d8:	00140693          	addi	a3,s0,1
    8000a3dc:	7fe6f613          	andi	a2,a3,2046
    8000a3e0:	10061a63          	bnez	a2,8000a4f4 <__adddf3+0x40c>
    8000a3e4:	16041463          	bnez	s0,8000a54c <__adddf3+0x464>
    8000a3e8:	1a080063          	beqz	a6,8000a588 <__adddf3+0x4a0>
    8000a3ec:	00000513          	li	a0,0
    8000a3f0:	e20306e3          	beqz	t1,8000a21c <__adddf3+0x134>
    8000a3f4:	00680333          	add	t1,a6,t1
    8000a3f8:	00335793          	srli	a5,t1,0x3
    8000a3fc:	00831693          	slli	a3,t1,0x8
    8000a400:	00e7f7b3          	and	a5,a5,a4
    8000a404:	e006dce3          	bgez	a3,8000a21c <__adddf3+0x134>
    8000a408:	00100513          	li	a0,1
    8000a40c:	e11ff06f          	j	8000a21c <__adddf3+0x134>
    8000a410:	01213023          	sd	s2,0(sp)
    8000a414:	40680933          	sub	s2,a6,t1
    8000a418:	00891793          	slli	a5,s2,0x8
    8000a41c:	0e07c863          	bltz	a5,8000a50c <__adddf3+0x424>
    8000a420:	d6091ae3          	bnez	s2,8000a194 <__adddf3+0xac>
    8000a424:	00013903          	ld	s2,0(sp)
    8000a428:	00000893          	li	a7,0
    8000a42c:	00000513          	li	a0,0
    8000a430:	00000793          	li	a5,0
    8000a434:	de9ff06f          	j	8000a21c <__adddf3+0x134>
    8000a438:	7ff00793          	li	a5,2047
    8000a43c:	e2f502e3          	beq	a0,a5,8000a260 <__adddf3+0x178>
    8000a440:	00100793          	li	a5,1
    8000a444:	03779793          	slli	a5,a5,0x37
    8000a448:	41d00ebb          	negw	t4,t4
    8000a44c:	00f86833          	or	a6,a6,a5
    8000a450:	03800713          	li	a4,56
    8000a454:	00100793          	li	a5,1
    8000a458:	01d74e63          	blt	a4,t4,8000a474 <__adddf3+0x38c>
    8000a45c:	04000793          	li	a5,64
    8000a460:	41d787bb          	subw	a5,a5,t4
    8000a464:	00f817b3          	sll	a5,a6,a5
    8000a468:	01d85eb3          	srl	t4,a6,t4
    8000a46c:	00f037b3          	snez	a5,a5
    8000a470:	00fee7b3          	or	a5,t4,a5
    8000a474:	40f30833          	sub	a6,t1,a5
    8000a478:	00050413          	mv	s0,a0
    8000a47c:	00058493          	mv	s1,a1
    8000a480:	d01ff06f          	j	8000a180 <__adddf3+0x98>
    8000a484:	04000793          	li	a5,64
    8000a488:	40c787bb          	subw	a5,a5,a2
    8000a48c:	00f317b3          	sll	a5,t1,a5
    8000a490:	00c35633          	srl	a2,t1,a2
    8000a494:	00f037b3          	snez	a5,a5
    8000a498:	00f66633          	or	a2,a2,a5
    8000a49c:	00c80833          	add	a6,a6,a2
    8000a4a0:	00881793          	slli	a5,a6,0x8
    8000a4a4:	ec07d4e3          	bgez	a5,8000a36c <__adddf3+0x284>
    8000a4a8:	00140413          	addi	s0,s0,1
    8000a4ac:	7ff00793          	li	a5,2047
    8000a4b0:	eaf408e3          	beq	s0,a5,8000a360 <__adddf3+0x278>
    8000a4b4:	1ff00793          	li	a5,511
    8000a4b8:	03679793          	slli	a5,a5,0x36
    8000a4bc:	00185713          	srli	a4,a6,0x1
    8000a4c0:	fff78793          	addi	a5,a5,-1
    8000a4c4:	00187813          	andi	a6,a6,1
    8000a4c8:	00f777b3          	and	a5,a4,a5
    8000a4cc:	0107e833          	or	a6,a5,a6
    8000a4d0:	d01ff06f          	j	8000a1d0 <__adddf3+0xe8>
    8000a4d4:	0a080463          	beqz	a6,8000a57c <__adddf3+0x494>
    8000a4d8:	fff5c593          	not	a1,a1
    8000a4dc:	0005859b          	sext.w	a1,a1
    8000a4e0:	0a058a63          	beqz	a1,8000a594 <__adddf3+0x4ac>
    8000a4e4:	7ff00793          	li	a5,2047
    8000a4e8:	eaf518e3          	bne	a0,a5,8000a398 <__adddf3+0x2b0>
    8000a4ec:	000e0693          	mv	a3,t3
    8000a4f0:	d79ff06f          	j	8000a268 <__adddf3+0x180>
    8000a4f4:	7ff00793          	li	a5,2047
    8000a4f8:	e6f684e3          	beq	a3,a5,8000a360 <__adddf3+0x278>
    8000a4fc:	00680333          	add	t1,a6,t1
    8000a500:	00135813          	srli	a6,t1,0x1
    8000a504:	00068413          	mv	s0,a3
    8000a508:	cc9ff06f          	j	8000a1d0 <__adddf3+0xe8>
    8000a50c:	41030933          	sub	s2,t1,a6
    8000a510:	00058493          	mv	s1,a1
    8000a514:	c81ff06f          	j	8000a194 <__adddf3+0xac>
    8000a518:	00680833          	add	a6,a6,t1
    8000a51c:	f85ff06f          	j	8000a4a0 <__adddf3+0x3b8>
    8000a520:	40680833          	sub	a6,a6,t1
    8000a524:	c5dff06f          	j	8000a180 <__adddf3+0x98>
    8000a528:	04000793          	li	a5,64
    8000a52c:	40b787bb          	subw	a5,a5,a1
    8000a530:	00f817b3          	sll	a5,a6,a5
    8000a534:	00b855b3          	srl	a1,a6,a1
    8000a538:	00f037b3          	snez	a5,a5
    8000a53c:	00f5e5b3          	or	a1,a1,a5
    8000a540:	00658833          	add	a6,a1,t1
    8000a544:	00050413          	mv	s0,a0
    8000a548:	f59ff06f          	j	8000a4a0 <__adddf3+0x3b8>
    8000a54c:	d20810e3          	bnez	a6,8000a26c <__adddf3+0x184>
    8000a550:	000e0693          	mv	a3,t3
    8000a554:	d15ff06f          	j	8000a268 <__adddf3+0x180>
    8000a558:	41030833          	sub	a6,t1,a6
    8000a55c:	00050413          	mv	s0,a0
    8000a560:	00058493          	mv	s1,a1
    8000a564:	c1dff06f          	j	8000a180 <__adddf3+0x98>
    8000a568:	02030c63          	beqz	t1,8000a5a0 <__adddf3+0x4b8>
    8000a56c:	00058893          	mv	a7,a1
    8000a570:	000e0793          	mv	a5,t3
    8000a574:	00000513          	li	a0,0
    8000a578:	ca5ff06f          	j	8000a21c <__adddf3+0x134>
    8000a57c:	00050413          	mv	s0,a0
    8000a580:	00030813          	mv	a6,t1
    8000a584:	dbdff06f          	j	8000a340 <__adddf3+0x258>
    8000a588:	000e0793          	mv	a5,t3
    8000a58c:	00000513          	li	a0,0
    8000a590:	c8dff06f          	j	8000a21c <__adddf3+0x134>
    8000a594:	00680833          	add	a6,a6,t1
    8000a598:	00050413          	mv	s0,a0
    8000a59c:	f05ff06f          	j	8000a4a0 <__adddf3+0x3b8>
    8000a5a0:	00000893          	li	a7,0
    8000a5a4:	00000513          	li	a0,0
    8000a5a8:	00000793          	li	a5,0
    8000a5ac:	c71ff06f          	j	8000a21c <__adddf3+0x134>
    8000a5b0:	02078063          	beqz	a5,8000a5d0 <__adddf3+0x4e8>
    8000a5b4:	0037d793          	srli	a5,a5,0x3
    8000a5b8:	00e7f7b3          	and	a5,a5,a4
    8000a5bc:	c61ff06f          	j	8000a21c <__adddf3+0x134>
    8000a5c0:	0037d793          	srli	a5,a5,0x3
    8000a5c4:	00e7f7b3          	and	a5,a5,a4
    8000a5c8:	00058893          	mv	a7,a1
    8000a5cc:	c51ff06f          	j	8000a21c <__adddf3+0x134>
    8000a5d0:	00000893          	li	a7,0
    8000a5d4:	00000793          	li	a5,0
    8000a5d8:	c45ff06f          	j	8000a21c <__adddf3+0x134>

000000008000a5dc <__gedf2>:
    8000a5dc:	03455613          	srli	a2,a0,0x34
    8000a5e0:	fff00713          	li	a4,-1
    8000a5e4:	00c75713          	srli	a4,a4,0xc
    8000a5e8:	0345d693          	srli	a3,a1,0x34
    8000a5ec:	7ff67613          	andi	a2,a2,2047
    8000a5f0:	7ff00813          	li	a6,2047
    8000a5f4:	00a778b3          	and	a7,a4,a0
    8000a5f8:	03f55793          	srli	a5,a0,0x3f
    8000a5fc:	00b77733          	and	a4,a4,a1
    8000a600:	7ff6f513          	andi	a0,a3,2047
    8000a604:	03f5d593          	srli	a1,a1,0x3f
    8000a608:	05060063          	beq	a2,a6,8000a648 <__gedf2+0x6c>
    8000a60c:	03050063          	beq	a0,a6,8000a62c <__gedf2+0x50>
    8000a610:	04061863          	bnez	a2,8000a660 <__gedf2+0x84>
    8000a614:	02051063          	bnez	a0,8000a634 <__gedf2+0x58>
    8000a618:	06070a63          	beqz	a4,8000a68c <__gedf2+0xb0>
    8000a61c:	08089063          	bnez	a7,8000a69c <__gedf2+0xc0>
    8000a620:	00100513          	li	a0,1
    8000a624:	06058063          	beqz	a1,8000a684 <__gedf2+0xa8>
    8000a628:	00008067          	ret
    8000a62c:	06071463          	bnez	a4,8000a694 <__gedf2+0xb8>
    8000a630:	00061463          	bnez	a2,8000a638 <__gedf2+0x5c>
    8000a634:	fe0886e3          	beqz	a7,8000a620 <__gedf2+0x44>
    8000a638:	04b78263          	beq	a5,a1,8000a67c <__gedf2+0xa0>
    8000a63c:	04079463          	bnez	a5,8000a684 <__gedf2+0xa8>
    8000a640:	00100513          	li	a0,1
    8000a644:	00008067          	ret
    8000a648:	04089663          	bnez	a7,8000a694 <__gedf2+0xb8>
    8000a64c:	fec518e3          	bne	a0,a2,8000a63c <__gedf2+0x60>
    8000a650:	04071263          	bnez	a4,8000a694 <__gedf2+0xb8>
    8000a654:	feb794e3          	bne	a5,a1,8000a63c <__gedf2+0x60>
    8000a658:	00000513          	li	a0,0
    8000a65c:	00008067          	ret
    8000a660:	fc050ee3          	beqz	a0,8000a63c <__gedf2+0x60>
    8000a664:	fcb79ce3          	bne	a5,a1,8000a63c <__gedf2+0x60>
    8000a668:	fcc54ae3          	blt	a0,a2,8000a63c <__gedf2+0x60>
    8000a66c:	00a64863          	blt	a2,a0,8000a67c <__gedf2+0xa0>
    8000a670:	fd1766e3          	bltu	a4,a7,8000a63c <__gedf2+0x60>
    8000a674:	00000513          	li	a0,0
    8000a678:	fae8f8e3          	bgeu	a7,a4,8000a628 <__gedf2+0x4c>
    8000a67c:	00100513          	li	a0,1
    8000a680:	fa0794e3          	bnez	a5,8000a628 <__gedf2+0x4c>
    8000a684:	fff00513          	li	a0,-1
    8000a688:	00008067          	ret
    8000a68c:	fa0898e3          	bnez	a7,8000a63c <__gedf2+0x60>
    8000a690:	00008067          	ret
    8000a694:	ffe00513          	li	a0,-2
    8000a698:	00008067          	ret
    8000a69c:	fcb78ae3          	beq	a5,a1,8000a670 <__gedf2+0x94>
    8000a6a0:	f9dff06f          	j	8000a63c <__gedf2+0x60>

000000008000a6a4 <__muldf3>:
    8000a6a4:	fb010113          	addi	sp,sp,-80
    8000a6a8:	03455793          	srli	a5,a0,0x34
    8000a6ac:	03213823          	sd	s2,48(sp)
    8000a6b0:	03313423          	sd	s3,40(sp)
    8000a6b4:	04113423          	sd	ra,72(sp)
    8000a6b8:	00c51993          	slli	s3,a0,0xc
    8000a6bc:	04813023          	sd	s0,64(sp)
    8000a6c0:	02913c23          	sd	s1,56(sp)
    8000a6c4:	03413023          	sd	s4,32(sp)
    8000a6c8:	01513c23          	sd	s5,24(sp)
    8000a6cc:	01613823          	sd	s6,16(sp)
    8000a6d0:	7ff7f793          	andi	a5,a5,2047
    8000a6d4:	00c9d993          	srli	s3,s3,0xc
    8000a6d8:	03f55913          	srli	s2,a0,0x3f
    8000a6dc:	24078e63          	beqz	a5,8000a938 <__muldf3+0x294>
    8000a6e0:	7ff00713          	li	a4,2047
    8000a6e4:	18e78063          	beq	a5,a4,8000a864 <__muldf3+0x1c0>
    8000a6e8:	00100713          	li	a4,1
    8000a6ec:	00399993          	slli	s3,s3,0x3
    8000a6f0:	03771713          	slli	a4,a4,0x37
    8000a6f4:	00e9e9b3          	or	s3,s3,a4
    8000a6f8:	c0178b13          	addi	s6,a5,-1023
    8000a6fc:	00000493          	li	s1,0
    8000a700:	00000a93          	li	s5,0
    8000a704:	0345d793          	srli	a5,a1,0x34
    8000a708:	00c59a13          	slli	s4,a1,0xc
    8000a70c:	7ff7f793          	andi	a5,a5,2047
    8000a710:	00ca5a13          	srli	s4,s4,0xc
    8000a714:	03f5d413          	srli	s0,a1,0x3f
    8000a718:	16078a63          	beqz	a5,8000a88c <__muldf3+0x1e8>
    8000a71c:	7ff00713          	li	a4,2047
    8000a720:	1ee78263          	beq	a5,a4,8000a904 <__muldf3+0x260>
    8000a724:	00100713          	li	a4,1
    8000a728:	003a1a13          	slli	s4,s4,0x3
    8000a72c:	03771713          	slli	a4,a4,0x37
    8000a730:	c0178793          	addi	a5,a5,-1023
    8000a734:	00ea6a33          	or	s4,s4,a4
    8000a738:	00fb0b33          	add	s6,s6,a5
    8000a73c:	00000593          	li	a1,0
    8000a740:	00a00793          	li	a5,10
    8000a744:	001b0613          	addi	a2,s6,1
    8000a748:	1497ce63          	blt	a5,s1,8000a8a4 <__muldf3+0x200>
    8000a74c:	00894533          	xor	a0,s2,s0
    8000a750:	00200793          	li	a5,2
    8000a754:	00050693          	mv	a3,a0
    8000a758:	2097d263          	bge	a5,s1,8000a95c <__muldf3+0x2b8>
    8000a75c:	00100713          	li	a4,1
    8000a760:	00971733          	sll	a4,a4,s1
    8000a764:	53077793          	andi	a5,a4,1328
    8000a768:	14079063          	bnez	a5,8000a8a8 <__muldf3+0x204>
    8000a76c:	24077793          	andi	a5,a4,576
    8000a770:	28079663          	bnez	a5,8000a9fc <__muldf3+0x358>
    8000a774:	08877713          	andi	a4,a4,136
    8000a778:	26071a63          	bnez	a4,8000a9ec <__muldf3+0x348>
    8000a77c:	fff00793          	li	a5,-1
    8000a780:	0207d793          	srli	a5,a5,0x20
    8000a784:	0209d593          	srli	a1,s3,0x20
    8000a788:	020a5813          	srli	a6,s4,0x20
    8000a78c:	00f9f9b3          	and	s3,s3,a5
    8000a790:	00fa77b3          	and	a5,s4,a5
    8000a794:	03378533          	mul	a0,a5,s3
    8000a798:	02f587b3          	mul	a5,a1,a5
    8000a79c:	02055713          	srli	a4,a0,0x20
    8000a7a0:	033809b3          	mul	s3,a6,s3
    8000a7a4:	00f989b3          	add	s3,s3,a5
    8000a7a8:	01370733          	add	a4,a4,s3
    8000a7ac:	030585b3          	mul	a1,a1,a6
    8000a7b0:	00f77863          	bgeu	a4,a5,8000a7c0 <__muldf3+0x11c>
    8000a7b4:	00100793          	li	a5,1
    8000a7b8:	02079793          	slli	a5,a5,0x20
    8000a7bc:	00f585b3          	add	a1,a1,a5
    8000a7c0:	fff00813          	li	a6,-1
    8000a7c4:	02085813          	srli	a6,a6,0x20
    8000a7c8:	010777b3          	and	a5,a4,a6
    8000a7cc:	02079793          	slli	a5,a5,0x20
    8000a7d0:	01057533          	and	a0,a0,a6
    8000a7d4:	00a787b3          	add	a5,a5,a0
    8000a7d8:	02075713          	srli	a4,a4,0x20
    8000a7dc:	00979993          	slli	s3,a5,0x9
    8000a7e0:	00b70733          	add	a4,a4,a1
    8000a7e4:	0377d793          	srli	a5,a5,0x37
    8000a7e8:	00971713          	slli	a4,a4,0x9
    8000a7ec:	013039b3          	snez	s3,s3
    8000a7f0:	00f9e9b3          	or	s3,s3,a5
    8000a7f4:	00771793          	slli	a5,a4,0x7
    8000a7f8:	013769b3          	or	s3,a4,s3
    8000a7fc:	0007da63          	bgez	a5,8000a810 <__muldf3+0x16c>
    8000a800:	0019d793          	srli	a5,s3,0x1
    8000a804:	0019f993          	andi	s3,s3,1
    8000a808:	0137e9b3          	or	s3,a5,s3
    8000a80c:	00060b13          	mv	s6,a2
    8000a810:	3ffb0793          	addi	a5,s6,1023
    8000a814:	1ef05e63          	blez	a5,8000aa10 <__muldf3+0x36c>
    8000a818:	0079f713          	andi	a4,s3,7
    8000a81c:	00070a63          	beqz	a4,8000a830 <__muldf3+0x18c>
    8000a820:	00f9f713          	andi	a4,s3,15
    8000a824:	00400613          	li	a2,4
    8000a828:	00c70463          	beq	a4,a2,8000a830 <__muldf3+0x18c>
    8000a82c:	00498993          	addi	s3,s3,4
    8000a830:	00799713          	slli	a4,s3,0x7
    8000a834:	00075c63          	bgez	a4,8000a84c <__muldf3+0x1a8>
    8000a838:	fff00793          	li	a5,-1
    8000a83c:	03879793          	slli	a5,a5,0x38
    8000a840:	fff78793          	addi	a5,a5,-1
    8000a844:	00f9f9b3          	and	s3,s3,a5
    8000a848:	400b0793          	addi	a5,s6,1024
    8000a84c:	7fe00713          	li	a4,2046
    8000a850:	20f74a63          	blt	a4,a5,8000aa64 <__muldf3+0x3c0>
    8000a854:	00999713          	slli	a4,s3,0x9
    8000a858:	00c75713          	srli	a4,a4,0xc
    8000a85c:	7ff7f793          	andi	a5,a5,2047
    8000a860:	06c0006f          	j	8000a8cc <__muldf3+0x228>
    8000a864:	16099c63          	bnez	s3,8000a9dc <__muldf3+0x338>
    8000a868:	0345d793          	srli	a5,a1,0x34
    8000a86c:	00c59a13          	slli	s4,a1,0xc
    8000a870:	7ff7f793          	andi	a5,a5,2047
    8000a874:	00800493          	li	s1,8
    8000a878:	7ff00b13          	li	s6,2047
    8000a87c:	00200a93          	li	s5,2
    8000a880:	00ca5a13          	srli	s4,s4,0xc
    8000a884:	03f5d413          	srli	s0,a1,0x3f
    8000a888:	e8079ae3          	bnez	a5,8000a71c <__muldf3+0x78>
    8000a88c:	100a1e63          	bnez	s4,8000a9a8 <__muldf3+0x304>
    8000a890:	0014e493          	ori	s1,s1,1
    8000a894:	00a00793          	li	a5,10
    8000a898:	00100593          	li	a1,1
    8000a89c:	001b0613          	addi	a2,s6,1
    8000a8a0:	ea97d6e3          	bge	a5,s1,8000a74c <__muldf3+0xa8>
    8000a8a4:	00090513          	mv	a0,s2
    8000a8a8:	00200793          	li	a5,2
    8000a8ac:	0afa8063          	beq	s5,a5,8000a94c <__muldf3+0x2a8>
    8000a8b0:	00300793          	li	a5,3
    8000a8b4:	14fa8463          	beq	s5,a5,8000a9fc <__muldf3+0x358>
    8000a8b8:	00100793          	li	a5,1
    8000a8bc:	00050693          	mv	a3,a0
    8000a8c0:	18fa9e63          	bne	s5,a5,8000aa5c <__muldf3+0x3b8>
    8000a8c4:	00000793          	li	a5,0
    8000a8c8:	00000713          	li	a4,0
    8000a8cc:	04813083          	ld	ra,72(sp)
    8000a8d0:	04013403          	ld	s0,64(sp)
    8000a8d4:	03479513          	slli	a0,a5,0x34
    8000a8d8:	00e56533          	or	a0,a0,a4
    8000a8dc:	03f69793          	slli	a5,a3,0x3f
    8000a8e0:	03813483          	ld	s1,56(sp)
    8000a8e4:	03013903          	ld	s2,48(sp)
    8000a8e8:	02813983          	ld	s3,40(sp)
    8000a8ec:	02013a03          	ld	s4,32(sp)
    8000a8f0:	01813a83          	ld	s5,24(sp)
    8000a8f4:	01013b03          	ld	s6,16(sp)
    8000a8f8:	00f56533          	or	a0,a0,a5
    8000a8fc:	05010113          	addi	sp,sp,80
    8000a900:	00008067          	ret
    8000a904:	7ffb0713          	addi	a4,s6,2047
    8000a908:	0c0a0263          	beqz	s4,8000a9cc <__muldf3+0x328>
    8000a90c:	00001637          	lui	a2,0x1
    8000a910:	80060613          	addi	a2,a2,-2048 # 800 <buflen.1+0x780>
    8000a914:	0034e493          	ori	s1,s1,3
    8000a918:	00a00693          	li	a3,10
    8000a91c:	00cb0633          	add	a2,s6,a2
    8000a920:	1096ce63          	blt	a3,s1,8000aa3c <__muldf3+0x398>
    8000a924:	008946b3          	xor	a3,s2,s0
    8000a928:	00068513          	mv	a0,a3
    8000a92c:	00070b13          	mv	s6,a4
    8000a930:	00300593          	li	a1,3
    8000a934:	e29ff06f          	j	8000a75c <__muldf3+0xb8>
    8000a938:	04099063          	bnez	s3,8000a978 <__muldf3+0x2d4>
    8000a93c:	00400493          	li	s1,4
    8000a940:	00000b13          	li	s6,0
    8000a944:	00100a93          	li	s5,1
    8000a948:	dbdff06f          	j	8000a704 <__muldf3+0x60>
    8000a94c:	00050693          	mv	a3,a0
    8000a950:	7ff00793          	li	a5,2047
    8000a954:	00000713          	li	a4,0
    8000a958:	f75ff06f          	j	8000a8cc <__muldf3+0x228>
    8000a95c:	fff48493          	addi	s1,s1,-1
    8000a960:	00100713          	li	a4,1
    8000a964:	e0976ce3          	bltu	a4,s1,8000a77c <__muldf3+0xd8>
    8000a968:	fef582e3          	beq	a1,a5,8000a94c <__muldf3+0x2a8>
    8000a96c:	000a0993          	mv	s3,s4
    8000a970:	00058a93          	mv	s5,a1
    8000a974:	f45ff06f          	j	8000a8b8 <__muldf3+0x214>
    8000a978:	00098513          	mv	a0,s3
    8000a97c:	00b13423          	sd	a1,8(sp)
    8000a980:	ef8ff0ef          	jal	8000a078 <__clzdi2>
    8000a984:	0005071b          	sext.w	a4,a0
    8000a988:	c0d00793          	li	a5,-1011
    8000a98c:	ff85051b          	addiw	a0,a0,-8
    8000a990:	00813583          	ld	a1,8(sp)
    8000a994:	00a999b3          	sll	s3,s3,a0
    8000a998:	40e78b33          	sub	s6,a5,a4
    8000a99c:	00000493          	li	s1,0
    8000a9a0:	00000a93          	li	s5,0
    8000a9a4:	d61ff06f          	j	8000a704 <__muldf3+0x60>
    8000a9a8:	000a0513          	mv	a0,s4
    8000a9ac:	eccff0ef          	jal	8000a078 <__clzdi2>
    8000a9b0:	0005079b          	sext.w	a5,a0
    8000a9b4:	40fb07b3          	sub	a5,s6,a5
    8000a9b8:	ff85051b          	addiw	a0,a0,-8
    8000a9bc:	00aa1a33          	sll	s4,s4,a0
    8000a9c0:	c0d78b13          	addi	s6,a5,-1011
    8000a9c4:	00000593          	li	a1,0
    8000a9c8:	d79ff06f          	j	8000a740 <__muldf3+0x9c>
    8000a9cc:	0024e493          	ori	s1,s1,2
    8000a9d0:	00070b13          	mv	s6,a4
    8000a9d4:	00200593          	li	a1,2
    8000a9d8:	d69ff06f          	j	8000a740 <__muldf3+0x9c>
    8000a9dc:	00c00493          	li	s1,12
    8000a9e0:	7ff00b13          	li	s6,2047
    8000a9e4:	00300a93          	li	s5,3
    8000a9e8:	d1dff06f          	j	8000a704 <__muldf3+0x60>
    8000a9ec:	000a0993          	mv	s3,s4
    8000a9f0:	00058a93          	mv	s5,a1
    8000a9f4:	00040513          	mv	a0,s0
    8000a9f8:	eb1ff06f          	j	8000a8a8 <__muldf3+0x204>
    8000a9fc:	00100713          	li	a4,1
    8000aa00:	00000693          	li	a3,0
    8000aa04:	7ff00793          	li	a5,2047
    8000aa08:	03371713          	slli	a4,a4,0x33
    8000aa0c:	ec1ff06f          	j	8000a8cc <__muldf3+0x228>
    8000aa10:	06078063          	beqz	a5,8000aa70 <__muldf3+0x3cc>
    8000aa14:	00100613          	li	a2,1
    8000aa18:	40f60633          	sub	a2,a2,a5
    8000aa1c:	03800593          	li	a1,56
    8000aa20:	00000793          	li	a5,0
    8000aa24:	00000713          	li	a4,0
    8000aa28:	eac5c2e3          	blt	a1,a2,8000a8cc <__muldf3+0x228>
    8000aa2c:	04000793          	li	a5,64
    8000aa30:	0006071b          	sext.w	a4,a2
    8000aa34:	40c787bb          	subw	a5,a5,a2
    8000aa38:	0400006f          	j	8000aa78 <__muldf3+0x3d4>
    8000aa3c:	00100713          	li	a4,1
    8000aa40:	00f00593          	li	a1,15
    8000aa44:	00000693          	li	a3,0
    8000aa48:	03371713          	slli	a4,a4,0x33
    8000aa4c:	000a0993          	mv	s3,s4
    8000aa50:	00300a93          	li	s5,3
    8000aa54:	e6b48ce3          	beq	s1,a1,8000a8cc <__muldf3+0x228>
    8000aa58:	f9dff06f          	j	8000a9f4 <__muldf3+0x350>
    8000aa5c:	00060b13          	mv	s6,a2
    8000aa60:	db1ff06f          	j	8000a810 <__muldf3+0x16c>
    8000aa64:	7ff00793          	li	a5,2047
    8000aa68:	00000713          	li	a4,0
    8000aa6c:	e61ff06f          	j	8000a8cc <__muldf3+0x228>
    8000aa70:	03f00793          	li	a5,63
    8000aa74:	00100713          	li	a4,1
    8000aa78:	00f997b3          	sll	a5,s3,a5
    8000aa7c:	00f037b3          	snez	a5,a5
    8000aa80:	00e9d733          	srl	a4,s3,a4
    8000aa84:	00f76733          	or	a4,a4,a5
    8000aa88:	00777793          	andi	a5,a4,7
    8000aa8c:	00078a63          	beqz	a5,8000aaa0 <__muldf3+0x3fc>
    8000aa90:	00f77793          	andi	a5,a4,15
    8000aa94:	00400613          	li	a2,4
    8000aa98:	00c78463          	beq	a5,a2,8000aaa0 <__muldf3+0x3fc>
    8000aa9c:	00470713          	addi	a4,a4,4
    8000aaa0:	00871793          	slli	a5,a4,0x8
    8000aaa4:	0007d863          	bgez	a5,8000aab4 <__muldf3+0x410>
    8000aaa8:	00100793          	li	a5,1
    8000aaac:	00000713          	li	a4,0
    8000aab0:	e1dff06f          	j	8000a8cc <__muldf3+0x228>
    8000aab4:	00971713          	slli	a4,a4,0x9
    8000aab8:	00c75713          	srli	a4,a4,0xc
    8000aabc:	00000793          	li	a5,0
    8000aac0:	e0dff06f          	j	8000a8cc <__muldf3+0x228>

000000008000aac4 <__subdf3>:
    8000aac4:	fff00793          	li	a5,-1
    8000aac8:	fe010113          	addi	sp,sp,-32
    8000aacc:	00c7d793          	srli	a5,a5,0xc
    8000aad0:	0345d693          	srli	a3,a1,0x34
    8000aad4:	00a7f633          	and	a2,a5,a0
    8000aad8:	00813823          	sd	s0,16(sp)
    8000aadc:	00b7f7b3          	and	a5,a5,a1
    8000aae0:	00913423          	sd	s1,8(sp)
    8000aae4:	03455413          	srli	s0,a0,0x34
    8000aae8:	03f55493          	srli	s1,a0,0x3f
    8000aaec:	00113c23          	sd	ra,24(sp)
    8000aaf0:	7ff6f693          	andi	a3,a3,2047
    8000aaf4:	7ff00813          	li	a6,2047
    8000aaf8:	00060713          	mv	a4,a2
    8000aafc:	7ff47413          	andi	s0,s0,2047
    8000ab00:	00048e13          	mv	t3,s1
    8000ab04:	00361e93          	slli	t4,a2,0x3
    8000ab08:	03f5d593          	srli	a1,a1,0x3f
    8000ab0c:	00379f13          	slli	t5,a5,0x3
    8000ab10:	13068663          	beq	a3,a6,8000ac3c <__subdf3+0x178>
    8000ab14:	0015c313          	xori	t1,a1,1
    8000ab18:	40d4053b          	subw	a0,s0,a3
    8000ab1c:	0e648263          	beq	s1,t1,8000ac00 <__subdf3+0x13c>
    8000ab20:	3ea05063          	blez	a0,8000af00 <__subdf3+0x43c>
    8000ab24:	20069263          	bnez	a3,8000ad28 <__subdf3+0x264>
    8000ab28:	120f0e63          	beqz	t5,8000ac64 <__subdf3+0x1a0>
    8000ab2c:	fff5051b          	addiw	a0,a0,-1
    8000ab30:	3e050863          	beqz	a0,8000af20 <__subdf3+0x45c>
    8000ab34:	0f040263          	beq	s0,a6,8000ac18 <__subdf3+0x154>
    8000ab38:	03800713          	li	a4,56
    8000ab3c:	00100793          	li	a5,1
    8000ab40:	00a74e63          	blt	a4,a0,8000ab5c <__subdf3+0x98>
    8000ab44:	04000793          	li	a5,64
    8000ab48:	40a787bb          	subw	a5,a5,a0
    8000ab4c:	00ff17b3          	sll	a5,t5,a5
    8000ab50:	00af5533          	srl	a0,t5,a0
    8000ab54:	00f037b3          	snez	a5,a5
    8000ab58:	00f567b3          	or	a5,a0,a5
    8000ab5c:	40fe8eb3          	sub	t4,t4,a5
    8000ab60:	008e9793          	slli	a5,t4,0x8
    8000ab64:	1c07dc63          	bgez	a5,8000ad3c <__subdf3+0x278>
    8000ab68:	01213023          	sd	s2,0(sp)
    8000ab6c:	009e9913          	slli	s2,t4,0x9
    8000ab70:	00995913          	srli	s2,s2,0x9
    8000ab74:	00090513          	mv	a0,s2
    8000ab78:	d00ff0ef          	jal	8000a078 <__clzdi2>
    8000ab7c:	ff85079b          	addiw	a5,a0,-8
    8000ab80:	00f91933          	sll	s2,s2,a5
    8000ab84:	2087ca63          	blt	a5,s0,8000ad98 <__subdf3+0x2d4>
    8000ab88:	4087853b          	subw	a0,a5,s0
    8000ab8c:	0015051b          	addiw	a0,a0,1
    8000ab90:	04000e93          	li	t4,64
    8000ab94:	40ae8ebb          	subw	t4,t4,a0
    8000ab98:	01d91eb3          	sll	t4,s2,t4
    8000ab9c:	01d03eb3          	snez	t4,t4
    8000aba0:	00a95933          	srl	s2,s2,a0
    8000aba4:	01d96eb3          	or	t4,s2,t4
    8000aba8:	00013903          	ld	s2,0(sp)
    8000abac:	00000413          	li	s0,0
    8000abb0:	007ef793          	andi	a5,t4,7
    8000abb4:	00078a63          	beqz	a5,8000abc8 <__subdf3+0x104>
    8000abb8:	00fef793          	andi	a5,t4,15
    8000abbc:	00400713          	li	a4,4
    8000abc0:	00e78463          	beq	a5,a4,8000abc8 <__subdf3+0x104>
    8000abc4:	004e8e93          	addi	t4,t4,4
    8000abc8:	008e9793          	slli	a5,t4,0x8
    8000abcc:	0807dc63          	bgez	a5,8000ac64 <__subdf3+0x1a0>
    8000abd0:	00140413          	addi	s0,s0,1
    8000abd4:	7ff00793          	li	a5,2047
    8000abd8:	04f40a63          	beq	s0,a5,8000ac2c <__subdf3+0x168>
    8000abdc:	fff00713          	li	a4,-1
    8000abe0:	03771713          	slli	a4,a4,0x37
    8000abe4:	fff70713          	addi	a4,a4,-1
    8000abe8:	00eef733          	and	a4,t4,a4
    8000abec:	7ff47513          	andi	a0,s0,2047
    8000abf0:	00971713          	slli	a4,a4,0x9
    8000abf4:	00c75713          	srli	a4,a4,0xc
    8000abf8:	0014fe13          	andi	t3,s1,1
    8000abfc:	0840006f          	j	8000ac80 <__subdf3+0x1bc>
    8000ac00:	0aa05e63          	blez	a0,8000acbc <__subdf3+0x1f8>
    8000ac04:	1a069863          	bnez	a3,8000adb4 <__subdf3+0x2f0>
    8000ac08:	040f0e63          	beqz	t5,8000ac64 <__subdf3+0x1a0>
    8000ac0c:	fff5051b          	addiw	a0,a0,-1
    8000ac10:	2e050463          	beqz	a0,8000aef8 <__subdf3+0x434>
    8000ac14:	1b041863          	bne	s0,a6,8000adc4 <__subdf3+0x300>
    8000ac18:	00100713          	li	a4,1
    8000ac1c:	00000e13          	li	t3,0
    8000ac20:	7ff00513          	li	a0,2047
    8000ac24:	03371713          	slli	a4,a4,0x33
    8000ac28:	04061c63          	bnez	a2,8000ac80 <__subdf3+0x1bc>
    8000ac2c:	0014fe13          	andi	t3,s1,1
    8000ac30:	7ff00513          	li	a0,2047
    8000ac34:	00000713          	li	a4,0
    8000ac38:	0480006f          	j	8000ac80 <__subdf3+0x1bc>
    8000ac3c:	8014051b          	addiw	a0,s0,-2047
    8000ac40:	060f0263          	beqz	t5,8000aca4 <__subdf3+0x1e0>
    8000ac44:	00058313          	mv	t1,a1
    8000ac48:	2eb48663          	beq	s1,a1,8000af34 <__subdf3+0x470>
    8000ac4c:	0e050e63          	beqz	a0,8000ad48 <__subdf3+0x284>
    8000ac50:	26041063          	bnez	s0,8000aeb0 <__subdf3+0x3ec>
    8000ac54:	1e0e9c63          	bnez	t4,8000ae4c <__subdf3+0x388>
    8000ac58:	00068413          	mv	s0,a3
    8000ac5c:	00030493          	mv	s1,t1
    8000ac60:	000f0e93          	mv	t4,t5
    8000ac64:	7ff00793          	li	a5,2047
    8000ac68:	003ed613          	srli	a2,t4,0x3
    8000ac6c:	faf406e3          	beq	s0,a5,8000ac18 <__subdf3+0x154>
    8000ac70:	00c61613          	slli	a2,a2,0xc
    8000ac74:	00c65713          	srli	a4,a2,0xc
    8000ac78:	7ff47513          	andi	a0,s0,2047
    8000ac7c:	0014fe13          	andi	t3,s1,1
    8000ac80:	01813083          	ld	ra,24(sp)
    8000ac84:	01013403          	ld	s0,16(sp)
    8000ac88:	03451513          	slli	a0,a0,0x34
    8000ac8c:	00e56533          	or	a0,a0,a4
    8000ac90:	03fe1793          	slli	a5,t3,0x3f
    8000ac94:	00813483          	ld	s1,8(sp)
    8000ac98:	00f56533          	or	a0,a0,a5
    8000ac9c:	02010113          	addi	sp,sp,32
    8000aca0:	00008067          	ret
    8000aca4:	0015c313          	xori	t1,a1,1
    8000aca8:	04648063          	beq	s1,t1,8000ace8 <__subdf3+0x224>
    8000acac:	08050e63          	beqz	a0,8000ad48 <__subdf3+0x284>
    8000acb0:	00030493          	mv	s1,t1
    8000acb4:	f6041ce3          	bnez	s0,8000ac2c <__subdf3+0x168>
    8000acb8:	f9dff06f          	j	8000ac54 <__subdf3+0x190>
    8000acbc:	02050863          	beqz	a0,8000acec <__subdf3+0x228>
    8000acc0:	1c040a63          	beqz	s0,8000ae94 <__subdf3+0x3d0>
    8000acc4:	00100793          	li	a5,1
    8000acc8:	03779793          	slli	a5,a5,0x37
    8000accc:	40a008bb          	negw	a7,a0
    8000acd0:	00feeeb3          	or	t4,t4,a5
    8000acd4:	03800793          	li	a5,56
    8000acd8:	2717d663          	bge	a5,a7,8000af44 <__subdf3+0x480>
    8000acdc:	001f0e93          	addi	t4,t5,1
    8000ace0:	00068413          	mv	s0,a3
    8000ace4:	ecdff06f          	j	8000abb0 <__subdf3+0xec>
    8000ace8:	1a051463          	bnez	a0,8000ae90 <__subdf3+0x3cc>
    8000acec:	00140693          	addi	a3,s0,1
    8000acf0:	7fe6f613          	andi	a2,a3,2046
    8000acf4:	1c061463          	bnez	a2,8000aebc <__subdf3+0x3f8>
    8000acf8:	1c041e63          	bnez	s0,8000aed4 <__subdf3+0x410>
    8000acfc:	280e8e63          	beqz	t4,8000af98 <__subdf3+0x4d4>
    8000ad00:	00000513          	li	a0,0
    8000ad04:	f60f0ee3          	beqz	t5,8000ac80 <__subdf3+0x1bc>
    8000ad08:	01ee8f33          	add	t5,t4,t5
    8000ad0c:	003f5793          	srli	a5,t5,0x3
    8000ad10:	008f1713          	slli	a4,t5,0x8
    8000ad14:	00c79793          	slli	a5,a5,0xc
    8000ad18:	28075a63          	bgez	a4,8000afac <__subdf3+0x4e8>
    8000ad1c:	00c7d713          	srli	a4,a5,0xc
    8000ad20:	00100513          	li	a0,1
    8000ad24:	f5dff06f          	j	8000ac80 <__subdf3+0x1bc>
    8000ad28:	ef0408e3          	beq	s0,a6,8000ac18 <__subdf3+0x154>
    8000ad2c:	00100793          	li	a5,1
    8000ad30:	03779793          	slli	a5,a5,0x37
    8000ad34:	00ff6f33          	or	t5,t5,a5
    8000ad38:	e01ff06f          	j	8000ab38 <__subdf3+0x74>
    8000ad3c:	007ef793          	andi	a5,t4,7
    8000ad40:	e6079ce3          	bnez	a5,8000abb8 <__subdf3+0xf4>
    8000ad44:	f21ff06f          	j	8000ac64 <__subdf3+0x1a0>
    8000ad48:	00140693          	addi	a3,s0,1
    8000ad4c:	7fe6f693          	andi	a3,a3,2046
    8000ad50:	08069263          	bnez	a3,8000add4 <__subdf3+0x310>
    8000ad54:	18041263          	bnez	s0,8000aed8 <__subdf3+0x414>
    8000ad58:	220e8063          	beqz	t4,8000af78 <__subdf3+0x4b4>
    8000ad5c:	00000513          	li	a0,0
    8000ad60:	f20f00e3          	beqz	t5,8000ac80 <__subdf3+0x1bc>
    8000ad64:	41ee87b3          	sub	a5,t4,t5
    8000ad68:	00879713          	slli	a4,a5,0x8
    8000ad6c:	22075c63          	bgez	a4,8000afa4 <__subdf3+0x4e0>
    8000ad70:	41df0733          	sub	a4,t5,t4
    8000ad74:	00871793          	slli	a5,a4,0x8
    8000ad78:	2407dc63          	bgez	a5,8000afd0 <__subdf3+0x50c>
    8000ad7c:	fff00793          	li	a5,-1
    8000ad80:	03779793          	slli	a5,a5,0x37
    8000ad84:	fff78793          	addi	a5,a5,-1
    8000ad88:	00f77733          	and	a4,a4,a5
    8000ad8c:	00030493          	mv	s1,t1
    8000ad90:	00100513          	li	a0,1
    8000ad94:	e5dff06f          	j	8000abf0 <__subdf3+0x12c>
    8000ad98:	fff00e93          	li	t4,-1
    8000ad9c:	037e9e93          	slli	t4,t4,0x37
    8000ada0:	fffe8e93          	addi	t4,t4,-1
    8000ada4:	01d97eb3          	and	t4,s2,t4
    8000ada8:	40f40433          	sub	s0,s0,a5
    8000adac:	00013903          	ld	s2,0(sp)
    8000adb0:	e01ff06f          	j	8000abb0 <__subdf3+0xec>
    8000adb4:	e70402e3          	beq	s0,a6,8000ac18 <__subdf3+0x154>
    8000adb8:	00100793          	li	a5,1
    8000adbc:	03779793          	slli	a5,a5,0x37
    8000adc0:	00ff6f33          	or	t5,t5,a5
    8000adc4:	03800793          	li	a5,56
    8000adc8:	02a7da63          	bge	a5,a0,8000adfc <__subdf3+0x338>
    8000adcc:	001e8e93          	addi	t4,t4,1
    8000add0:	de1ff06f          	j	8000abb0 <__subdf3+0xec>
    8000add4:	01213023          	sd	s2,0(sp)
    8000add8:	41ee8933          	sub	s2,t4,t5
    8000addc:	00891793          	slli	a5,s2,0x8
    8000ade0:	1007c663          	bltz	a5,8000aeec <__subdf3+0x428>
    8000ade4:	d80918e3          	bnez	s2,8000ab74 <__subdf3+0xb0>
    8000ade8:	00013903          	ld	s2,0(sp)
    8000adec:	00000e13          	li	t3,0
    8000adf0:	00000513          	li	a0,0
    8000adf4:	00000713          	li	a4,0
    8000adf8:	e89ff06f          	j	8000ac80 <__subdf3+0x1bc>
    8000adfc:	04000793          	li	a5,64
    8000ae00:	40a787bb          	subw	a5,a5,a0
    8000ae04:	00ff17b3          	sll	a5,t5,a5
    8000ae08:	00af5533          	srl	a0,t5,a0
    8000ae0c:	00f037b3          	snez	a5,a5
    8000ae10:	00f56533          	or	a0,a0,a5
    8000ae14:	00ae8eb3          	add	t4,t4,a0
    8000ae18:	008e9793          	slli	a5,t4,0x8
    8000ae1c:	f207d0e3          	bgez	a5,8000ad3c <__subdf3+0x278>
    8000ae20:	00140413          	addi	s0,s0,1
    8000ae24:	7ff00793          	li	a5,2047
    8000ae28:	10f40063          	beq	s0,a5,8000af28 <__subdf3+0x464>
    8000ae2c:	1ff00793          	li	a5,511
    8000ae30:	03679793          	slli	a5,a5,0x36
    8000ae34:	001ed713          	srli	a4,t4,0x1
    8000ae38:	fff78793          	addi	a5,a5,-1
    8000ae3c:	001efe93          	andi	t4,t4,1
    8000ae40:	00f777b3          	and	a5,a4,a5
    8000ae44:	01d7eeb3          	or	t4,a5,t4
    8000ae48:	d69ff06f          	j	8000abb0 <__subdf3+0xec>
    8000ae4c:	fff54893          	not	a7,a0
    8000ae50:	10088c63          	beqz	a7,8000af68 <__subdf3+0x4a4>
    8000ae54:	7ff00713          	li	a4,2047
    8000ae58:	00030493          	mv	s1,t1
    8000ae5c:	04e68663          	beq	a3,a4,8000aea8 <__subdf3+0x3e4>
    8000ae60:	03800713          	li	a4,56
    8000ae64:	00100793          	li	a5,1
    8000ae68:	01174e63          	blt	a4,a7,8000ae84 <__subdf3+0x3c0>
    8000ae6c:	04000793          	li	a5,64
    8000ae70:	411787bb          	subw	a5,a5,a7
    8000ae74:	00fe97b3          	sll	a5,t4,a5
    8000ae78:	011ed8b3          	srl	a7,t4,a7
    8000ae7c:	00f037b3          	snez	a5,a5
    8000ae80:	00f8e7b3          	or	a5,a7,a5
    8000ae84:	40ff0eb3          	sub	t4,t5,a5
    8000ae88:	00068413          	mv	s0,a3
    8000ae8c:	cd5ff06f          	j	8000ab60 <__subdf3+0x9c>
    8000ae90:	d8041ee3          	bnez	s0,8000ac2c <__subdf3+0x168>
    8000ae94:	0e0e8c63          	beqz	t4,8000af8c <__subdf3+0x4c8>
    8000ae98:	fff54893          	not	a7,a0
    8000ae9c:	10088c63          	beqz	a7,8000afb4 <__subdf3+0x4f0>
    8000aea0:	7ff00713          	li	a4,2047
    8000aea4:	e2e698e3          	bne	a3,a4,8000acd4 <__subdf3+0x210>
    8000aea8:	00078613          	mv	a2,a5
    8000aeac:	d6dff06f          	j	8000ac18 <__subdf3+0x154>
    8000aeb0:	00058493          	mv	s1,a1
    8000aeb4:	00078613          	mv	a2,a5
    8000aeb8:	d61ff06f          	j	8000ac18 <__subdf3+0x154>
    8000aebc:	7ff00793          	li	a5,2047
    8000aec0:	06f68463          	beq	a3,a5,8000af28 <__subdf3+0x464>
    8000aec4:	01ee8f33          	add	t5,t4,t5
    8000aec8:	001f5e93          	srli	t4,t5,0x1
    8000aecc:	00068413          	mv	s0,a3
    8000aed0:	ce1ff06f          	j	8000abb0 <__subdf3+0xec>
    8000aed4:	fc0e8ae3          	beqz	t4,8000aea8 <__subdf3+0x3e4>
    8000aed8:	00100713          	li	a4,1
    8000aedc:	00000e13          	li	t3,0
    8000aee0:	7ff00513          	li	a0,2047
    8000aee4:	03371713          	slli	a4,a4,0x33
    8000aee8:	d99ff06f          	j	8000ac80 <__subdf3+0x1bc>
    8000aeec:	41df0933          	sub	s2,t5,t4
    8000aef0:	00030493          	mv	s1,t1
    8000aef4:	c81ff06f          	j	8000ab74 <__subdf3+0xb0>
    8000aef8:	01ee8eb3          	add	t4,t4,t5
    8000aefc:	f1dff06f          	j	8000ae18 <__subdf3+0x354>
    8000af00:	e40504e3          	beqz	a0,8000ad48 <__subdf3+0x284>
    8000af04:	d40408e3          	beqz	s0,8000ac54 <__subdf3+0x190>
    8000af08:	00100793          	li	a5,1
    8000af0c:	03779793          	slli	a5,a5,0x37
    8000af10:	40a008bb          	negw	a7,a0
    8000af14:	00feeeb3          	or	t4,t4,a5
    8000af18:	00030493          	mv	s1,t1
    8000af1c:	f45ff06f          	j	8000ae60 <__subdf3+0x39c>
    8000af20:	41ee8eb3          	sub	t4,t4,t5
    8000af24:	c3dff06f          	j	8000ab60 <__subdf3+0x9c>
    8000af28:	7ff00513          	li	a0,2047
    8000af2c:	00000713          	li	a4,0
    8000af30:	d51ff06f          	j	8000ac80 <__subdf3+0x1bc>
    8000af34:	da050ce3          	beqz	a0,8000acec <__subdf3+0x228>
    8000af38:	f4040ee3          	beqz	s0,8000ae94 <__subdf3+0x3d0>
    8000af3c:	00078613          	mv	a2,a5
    8000af40:	cd9ff06f          	j	8000ac18 <__subdf3+0x154>
    8000af44:	04000793          	li	a5,64
    8000af48:	411787bb          	subw	a5,a5,a7
    8000af4c:	00fe97b3          	sll	a5,t4,a5
    8000af50:	011ed8b3          	srl	a7,t4,a7
    8000af54:	00f037b3          	snez	a5,a5
    8000af58:	00f8e8b3          	or	a7,a7,a5
    8000af5c:	01e88eb3          	add	t4,a7,t5
    8000af60:	00068413          	mv	s0,a3
    8000af64:	eb5ff06f          	j	8000ae18 <__subdf3+0x354>
    8000af68:	41df0eb3          	sub	t4,t5,t4
    8000af6c:	00068413          	mv	s0,a3
    8000af70:	00030493          	mv	s1,t1
    8000af74:	bedff06f          	j	8000ab60 <__subdf3+0x9c>
    8000af78:	040f0463          	beqz	t5,8000afc0 <__subdf3+0x4fc>
    8000af7c:	00030e13          	mv	t3,t1
    8000af80:	00078713          	mv	a4,a5
    8000af84:	00000513          	li	a0,0
    8000af88:	cf9ff06f          	j	8000ac80 <__subdf3+0x1bc>
    8000af8c:	00068413          	mv	s0,a3
    8000af90:	000f0e93          	mv	t4,t5
    8000af94:	cd1ff06f          	j	8000ac64 <__subdf3+0x1a0>
    8000af98:	00078713          	mv	a4,a5
    8000af9c:	00000513          	li	a0,0
    8000afa0:	ce1ff06f          	j	8000ac80 <__subdf3+0x1bc>
    8000afa4:	02078e63          	beqz	a5,8000afe0 <__subdf3+0x51c>
    8000afa8:	00979793          	slli	a5,a5,0x9
    8000afac:	00c7d713          	srli	a4,a5,0xc
    8000afb0:	cd1ff06f          	j	8000ac80 <__subdf3+0x1bc>
    8000afb4:	01ee8eb3          	add	t4,t4,t5
    8000afb8:	00068413          	mv	s0,a3
    8000afbc:	e5dff06f          	j	8000ae18 <__subdf3+0x354>
    8000afc0:	00000e13          	li	t3,0
    8000afc4:	00000513          	li	a0,0
    8000afc8:	00000713          	li	a4,0
    8000afcc:	cb5ff06f          	j	8000ac80 <__subdf3+0x1bc>
    8000afd0:	00971713          	slli	a4,a4,0x9
    8000afd4:	00030e13          	mv	t3,t1
    8000afd8:	00c75713          	srli	a4,a4,0xc
    8000afdc:	ca5ff06f          	j	8000ac80 <__subdf3+0x1bc>
    8000afe0:	00000e13          	li	t3,0
    8000afe4:	00000713          	li	a4,0
    8000afe8:	c99ff06f          	j	8000ac80 <__subdf3+0x1bc>

000000008000afec <__floatundidf>:
    8000afec:	04050c63          	beqz	a0,8000b044 <__floatundidf+0x58>
    8000aff0:	ff010113          	addi	sp,sp,-16
    8000aff4:	00813023          	sd	s0,0(sp)
    8000aff8:	00113423          	sd	ra,8(sp)
    8000affc:	00050413          	mv	s0,a0
    8000b000:	878ff0ef          	jal	8000a078 <__clzdi2>
    8000b004:	43e00793          	li	a5,1086
    8000b008:	40a787bb          	subw	a5,a5,a0
    8000b00c:	43300713          	li	a4,1075
    8000b010:	04f74463          	blt	a4,a5,8000b058 <__floatundidf+0x6c>
    8000b014:	0ce78a63          	beq	a5,a4,8000b0e8 <__floatundidf+0xfc>
    8000b018:	ff55071b          	addiw	a4,a0,-11
    8000b01c:	00813083          	ld	ra,8(sp)
    8000b020:	00e41533          	sll	a0,s0,a4
    8000b024:	00013403          	ld	s0,0(sp)
    8000b028:	00c51513          	slli	a0,a0,0xc
    8000b02c:	7ff7f793          	andi	a5,a5,2047
    8000b030:	00c55513          	srli	a0,a0,0xc
    8000b034:	03479793          	slli	a5,a5,0x34
    8000b038:	00a7e533          	or	a0,a5,a0
    8000b03c:	01010113          	addi	sp,sp,16
    8000b040:	00008067          	ret
    8000b044:	00000793          	li	a5,0
    8000b048:	03479793          	slli	a5,a5,0x34
    8000b04c:	00000513          	li	a0,0
    8000b050:	00a7e533          	or	a0,a5,a0
    8000b054:	00008067          	ret
    8000b058:	43600713          	li	a4,1078
    8000b05c:	06f74663          	blt	a4,a5,8000b0c8 <__floatundidf+0xdc>
    8000b060:	00e78663          	beq	a5,a4,8000b06c <__floatundidf+0x80>
    8000b064:	ff85071b          	addiw	a4,a0,-8
    8000b068:	00e41433          	sll	s0,s0,a4
    8000b06c:	fff00693          	li	a3,-1
    8000b070:	03769693          	slli	a3,a3,0x37
    8000b074:	fff68693          	addi	a3,a3,-1
    8000b078:	00747613          	andi	a2,s0,7
    8000b07c:	00d47733          	and	a4,s0,a3
    8000b080:	02060263          	beqz	a2,8000b0a4 <__floatundidf+0xb8>
    8000b084:	00f47413          	andi	s0,s0,15
    8000b088:	00400613          	li	a2,4
    8000b08c:	00c40c63          	beq	s0,a2,8000b0a4 <__floatundidf+0xb8>
    8000b090:	00470713          	addi	a4,a4,4
    8000b094:	00871613          	slli	a2,a4,0x8
    8000b098:	00065663          	bgez	a2,8000b0a4 <__floatundidf+0xb8>
    8000b09c:	00d77733          	and	a4,a4,a3
    8000b0a0:	00178793          	addi	a5,a5,1
    8000b0a4:	00813083          	ld	ra,8(sp)
    8000b0a8:	00013403          	ld	s0,0(sp)
    8000b0ac:	00971513          	slli	a0,a4,0x9
    8000b0b0:	7ff7f793          	andi	a5,a5,2047
    8000b0b4:	00c55513          	srli	a0,a0,0xc
    8000b0b8:	03479793          	slli	a5,a5,0x34
    8000b0bc:	00a7e533          	or	a0,a5,a0
    8000b0c0:	01010113          	addi	sp,sp,16
    8000b0c4:	00008067          	ret
    8000b0c8:	0385071b          	addiw	a4,a0,56
    8000b0cc:	00800693          	li	a3,8
    8000b0d0:	00e41733          	sll	a4,s0,a4
    8000b0d4:	40a686bb          	subw	a3,a3,a0
    8000b0d8:	00e03733          	snez	a4,a4
    8000b0dc:	00d45433          	srl	s0,s0,a3
    8000b0e0:	00876433          	or	s0,a4,s0
    8000b0e4:	f89ff06f          	j	8000b06c <__floatundidf+0x80>
    8000b0e8:	00c41413          	slli	s0,s0,0xc
    8000b0ec:	00813083          	ld	ra,8(sp)
    8000b0f0:	00c45513          	srli	a0,s0,0xc
    8000b0f4:	00013403          	ld	s0,0(sp)
    8000b0f8:	43300793          	li	a5,1075
    8000b0fc:	03479793          	slli	a5,a5,0x34
    8000b100:	00a7e533          	or	a0,a5,a0
    8000b104:	01010113          	addi	sp,sp,16
    8000b108:	00008067          	ret

Disassembly of section .text.startup:

000000008000b10c <main>:
    8000b10c:	ff010113          	addi	sp,sp,-16
    8000b110:	00000517          	auipc	a0,0x0
    8000b114:	6a850513          	addi	a0,a0,1704 # 8000b7b8 <.got.plt+0x678>
    8000b118:	00113423          	sd	ra,8(sp)
    8000b11c:	adcfe0ef          	jal	800093f8 <printstr>
    8000b120:	00813083          	ld	ra,8(sp)
    8000b124:	fff00513          	li	a0,-1
    8000b128:	01010113          	addi	sp,sp,16
    8000b12c:	00008067          	ret
