
./pmp.riscv:     file format elf64-littleriscv


Disassembly of section .text.init:

0000000080000000 <_start>:
    80000000:	00000093          	addi	x1,x0,0
    80000004:	00000113          	addi	x2,x0,0
    80000008:	00000193          	addi	x3,x0,0
    8000000c:	00000213          	addi	x4,x0,0
    80000010:	00000293          	addi	x5,x0,0
    80000014:	00000313          	addi	x6,x0,0
    80000018:	00000393          	addi	x7,x0,0
    8000001c:	00000413          	addi	x8,x0,0
    80000020:	00000493          	addi	x9,x0,0
    80000024:	00000513          	addi	x10,x0,0
    80000028:	00000593          	addi	x11,x0,0
    8000002c:	00000613          	addi	x12,x0,0
    80000030:	00000693          	addi	x13,x0,0
    80000034:	00000713          	addi	x14,x0,0
    80000038:	00000793          	addi	x15,x0,0
    8000003c:	00000813          	addi	x16,x0,0
    80000040:	00000893          	addi	x17,x0,0
    80000044:	00000913          	addi	x18,x0,0
    80000048:	00000993          	addi	x19,x0,0
    8000004c:	00000a13          	addi	x20,x0,0
    80000050:	00000a93          	addi	x21,x0,0
    80000054:	00000b13          	addi	x22,x0,0
    80000058:	00000b93          	addi	x23,x0,0
    8000005c:	00000c13          	addi	x24,x0,0
    80000060:	00000c93          	addi	x25,x0,0
    80000064:	00000d13          	addi	x26,x0,0
    80000068:	00000d93          	addi	x27,x0,0
    8000006c:	00000e13          	addi	x28,x0,0
    80000070:	00000e93          	addi	x29,x0,0
    80000074:	00000f13          	addi	x30,x0,0
    80000078:	00000f93          	addi	x31,x0,0
    8000007c:	0001e2b7          	lui	x5,0x1e
    80000080:	3002a073          	csrrs	x0,mstatus,x5
    80000084:	00100293          	addi	x5,x0,1
    80000088:	01f29293          	slli	x5,x5,0x1f
    8000008c:	0002da63          	bge	x5,x0,800000a0 <_start+0xa0>
    80000090:	00100513          	addi	x10,x0,1
    80000094:	00001297          	auipc	x5,0x1
    80000098:	f6a2a623          	sw	x10,-148(x5) # 80001000 <tohost>
    8000009c:	ff5ff06f          	jal	x0,80000090 <_start+0x90>
    800000a0:	00000297          	auipc	x5,0x0
    800000a4:	04428293          	addi	x5,x5,68 # 800000e4 <trap_entry>
    800000a8:	30529073          	csrrw	x0,mtvec,x5
    800000ac:	00004197          	auipc	x3,0x4
    800000b0:	c6018193          	addi	x3,x3,-928 # 80003d0c <__global_pointer$>
    800000b4:	00008217          	auipc	x4,0x8
    800000b8:	fcb20213          	addi	x4,x4,-53 # 8000807f <_end+0x3f>
    800000bc:	fc027213          	andi	x4,x4,-64
    800000c0:	f1402573          	csrrs	x10,mhartid,x0
    800000c4:	00100593          	addi	x11,x0,1
    800000c8:	00b57063          	bgeu	x10,x11,800000c8 <_start+0xc8>
    800000cc:	00150113          	addi	x2,x10,1
    800000d0:	01111113          	slli	x2,x2,0x11
    800000d4:	00410133          	add	x2,x2,x4
    800000d8:	01151613          	slli	x12,x10,0x11
    800000dc:	00c20233          	add	x4,x4,x12
    800000e0:	3bd0206f          	jal	x0,80002c9c <_init>

00000000800000e4 <trap_entry>:
    800000e4:	ef010113          	addi	x2,x2,-272
    800000e8:	00113423          	sd	x1,8(x2)
    800000ec:	00213823          	sd	x2,16(x2)
    800000f0:	00313c23          	sd	x3,24(x2)
    800000f4:	02413023          	sd	x4,32(x2)
    800000f8:	02513423          	sd	x5,40(x2)
    800000fc:	02613823          	sd	x6,48(x2)
    80000100:	02713c23          	sd	x7,56(x2)
    80000104:	04813023          	sd	x8,64(x2)
    80000108:	04913423          	sd	x9,72(x2)
    8000010c:	04a13823          	sd	x10,80(x2)
    80000110:	04b13c23          	sd	x11,88(x2)
    80000114:	06c13023          	sd	x12,96(x2)
    80000118:	06d13423          	sd	x13,104(x2)
    8000011c:	06e13823          	sd	x14,112(x2)
    80000120:	06f13c23          	sd	x15,120(x2)
    80000124:	09013023          	sd	x16,128(x2)
    80000128:	09113423          	sd	x17,136(x2)
    8000012c:	09213823          	sd	x18,144(x2)
    80000130:	09313c23          	sd	x19,152(x2)
    80000134:	0b413023          	sd	x20,160(x2)
    80000138:	0b513423          	sd	x21,168(x2)
    8000013c:	0b613823          	sd	x22,176(x2)
    80000140:	0b713c23          	sd	x23,184(x2)
    80000144:	0d813023          	sd	x24,192(x2)
    80000148:	0d913423          	sd	x25,200(x2)
    8000014c:	0da13823          	sd	x26,208(x2)
    80000150:	0db13c23          	sd	x27,216(x2)
    80000154:	0fc13023          	sd	x28,224(x2)
    80000158:	0fd13423          	sd	x29,232(x2)
    8000015c:	0fe13823          	sd	x30,240(x2)
    80000160:	0ff13c23          	sd	x31,248(x2)
    80000164:	34202573          	csrrs	x10,mcause,x0
    80000168:	341025f3          	csrrs	x11,mepc,x0
    8000016c:	00010613          	addi	x12,x2,0
    80000170:	2f8020ef          	jal	x1,80002468 <handle_trap>
    80000174:	34151073          	csrrw	x0,mepc,x10
    80000178:	000022b7          	lui	x5,0x2
    8000017c:	8002829b          	addiw	x5,x5,-2048 # 1800 <buflen.1+0x17c0>
    80000180:	3002a073          	csrrs	x0,mstatus,x5
    80000184:	00813083          	ld	x1,8(x2)
    80000188:	01013103          	ld	x2,16(x2)
    8000018c:	01813183          	ld	x3,24(x2)
    80000190:	02013203          	ld	x4,32(x2)
    80000194:	02813283          	ld	x5,40(x2)
    80000198:	03013303          	ld	x6,48(x2)
    8000019c:	03813383          	ld	x7,56(x2)
    800001a0:	04013403          	ld	x8,64(x2)
    800001a4:	04813483          	ld	x9,72(x2)
    800001a8:	05013503          	ld	x10,80(x2)
    800001ac:	05813583          	ld	x11,88(x2)
    800001b0:	06013603          	ld	x12,96(x2)
    800001b4:	06813683          	ld	x13,104(x2)
    800001b8:	07013703          	ld	x14,112(x2)
    800001bc:	07813783          	ld	x15,120(x2)
    800001c0:	08013803          	ld	x16,128(x2)
    800001c4:	08813883          	ld	x17,136(x2)
    800001c8:	09013903          	ld	x18,144(x2)
    800001cc:	09813983          	ld	x19,152(x2)
    800001d0:	0a013a03          	ld	x20,160(x2)
    800001d4:	0a813a83          	ld	x21,168(x2)
    800001d8:	0b013b03          	ld	x22,176(x2)
    800001dc:	0b813b83          	ld	x23,184(x2)
    800001e0:	0c013c03          	ld	x24,192(x2)
    800001e4:	0c813c83          	ld	x25,200(x2)
    800001e8:	0d013d03          	ld	x26,208(x2)
    800001ec:	0d813d83          	ld	x27,216(x2)
    800001f0:	0e013e03          	ld	x28,224(x2)
    800001f4:	0e813e83          	ld	x29,232(x2)
    800001f8:	0f013f03          	ld	x30,240(x2)
    800001fc:	0f813f83          	ld	x31,248(x2)
    80000200:	11010113          	addi	x2,x2,272
    80000204:	30200073          	mret

Disassembly of section .text:

0000000080002000 <test_range>:
    80002000:	fa010113          	addi	x2,x2,-96
    80002004:	fffff7b7          	lui	x15,0xfffff
    80002008:	04113c23          	sd	x1,88(x2)
    8000200c:	04813823          	sd	x8,80(x2)
    80002010:	04913423          	sd	x9,72(x2)
    80002014:	05213023          	sd	x18,64(x2)
    80002018:	03313c23          	sd	x19,56(x2)
    8000201c:	03413823          	sd	x20,48(x2)
    80002020:	03513423          	sd	x21,40(x2)
    80002024:	03613023          	sd	x22,32(x2)
    80002028:	01713c23          	sd	x23,24(x2)
    8000202c:	01813823          	sd	x24,16(x2)
    80002030:	01913423          	sd	x25,8(x2)
    80002034:	00f507b3          	add	x15,x10,x15
    80002038:	00001737          	lui	x14,0x1
    8000203c:	3ae7f263          	bgeu	x15,x14,800023e0 <test_range+0x3e0>
    80002040:	00004a97          	auipc	x21,0x4
    80002044:	fc0a8a93          	addi	x21,x21,-64 # 80006000 <l1pt>
    80002048:	01550c33          	add	x24,x10,x21
    8000204c:	018582b3          	add	x5,x11,x24
    80002050:	00050f93          	addi	x31,x10,0
    80002054:	00058b13          	addi	x22,x11,0
    80002058:	002c5393          	srli	x7,x24,0x2
    8000205c:	0022d293          	srli	x5,x5,0x2
    80002060:	3a0027f3          	csrrs	x15,pmpcfg0,x0
    80002064:	ffff0737          	lui	x14,0xffff0
    80002068:	0ff70713          	addi	x14,x14,255 # ffffffffffff00ff <_tbss_end+0xffffffff7ffe807b>
    8000206c:	00e7f7b3          	and	x15,x15,x14
    80002070:	3a079073          	csrrw	x0,pmpcfg0,x15
    80002074:	3b039073          	csrrw	x0,pmpaddr0,x7
    80002078:	3b129073          	csrrw	x0,pmpaddr1,x5
    8000207c:	00001737          	lui	x14,0x1
    80002080:	90070713          	addi	x14,x14,-1792 # 900 <buflen.1+0x8c0>
    80002084:	00e7e7b3          	or	x15,x15,x14
    80002088:	3a079073          	csrrw	x0,pmpcfg0,x15
    8000208c:	12000073          	sfence.vma	x0,x0
    80002090:	00b50a33          	add	x20,x10,x11
    80002094:	00050893          	addi	x17,x10,0
    80002098:	00001617          	auipc	x12,0x1
    8000209c:	47460613          	addi	x12,x12,1140 # 8000350c <granule>
    800020a0:	0d457c63          	bgeu	x10,x20,80002178 <test_range+0x178>
    800020a4:	fffde937          	lui	x18,0xfffde
    800020a8:	000214b7          	lui	x9,0x21
    800020ac:	00400e93          	addi	x29,x0,4
    800020b0:	fffffbb7          	lui	x23,0xfffff
    800020b4:	00001437          	lui	x8,0x1
    800020b8:	00001e17          	auipc	x28,0x1
    800020bc:	458e0e13          	addi	x28,x28,1112 # 80003510 <trap_expected>
    800020c0:	7ff90913          	addi	x18,x18,2047 # fffffffffffde7ff <_tbss_end+0xffffffff7ffd677b>
    800020c4:	80048493          	addi	x9,x9,-2048 # 20800 <buflen.1+0x207c0>
    800020c8:	00100993          	addi	x19,x0,1
    800020cc:	00400313          	addi	x6,x0,4
    800020d0:	00100693          	addi	x13,x0,1
    800020d4:	01788f33          	add	x30,x17,x23
    800020d8:	011a8833          	add	x16,x21,x17
    800020dc:	fff68593          	addi	x11,x13,-1
    800020e0:	0115f5b3          	and	x11,x11,x17
    800020e4:	06059e63          	bne	x11,x0,80002160 <test_range+0x160>
    800020e8:	00062503          	lw	x10,0(x12)
    800020ec:	00062c83          	lw	x25,0(x12)
    800020f0:	02750533          	mul	x10,x10,x7
    800020f4:	025c8cb3          	mul	x25,x25,x5
    800020f8:	2e8f7463          	bgeu	x30,x8,800023e0 <test_range+0x3e0>
    800020fc:	0e068e63          	beq	x13,x0,800021f8 <test_range+0x1f8>
    80002100:	00000793          	addi	x15,x0,0
    80002104:	00f80733          	add	x14,x16,x15
    80002108:	00a76863          	bltu	x14,x10,80002118 <test_range+0x118>
    8000210c:	01977663          	bgeu	x14,x25,80002118 <test_range+0x118>
    80002110:	00062703          	lw	x14,0(x12)
    80002114:	00e585b3          	add	x11,x11,x14
    80002118:	00062703          	lw	x14,0(x12)
    8000211c:	00e787b3          	add	x15,x15,x14
    80002120:	fed7e2e3          	bltu	x15,x13,80002104 <test_range+0x104>
    80002124:	00000793          	addi	x15,x0,0
    80002128:	00058463          	beq	x11,x0,80002130 <test_range+0x130>
    8000212c:	00d5b7b3          	sltu	x15,x11,x13
    80002130:	00fe2023          	sw	x15,0(x28)
    80002134:	300027f3          	csrrs	x15,mstatus,x0
    80002138:	0127f7b3          	and	x15,x15,x18
    8000213c:	0097e7b3          	or	x15,x15,x9
    80002140:	0bd68463          	beq	x13,x29,800021e8 <test_range+0x1e8>
    80002144:	08dee463          	bltu	x29,x13,800021cc <test_range+0x1cc>
    80002148:	07368a63          	beq	x13,x19,800021bc <test_range+0x1bc>
    8000214c:	300797f3          	csrrw	x15,mstatus,x15
    80002150:	00089003          	lh	x0,0(x17)
    80002154:	30079073          	csrrw	x0,mstatus,x15
    80002158:	000e2783          	lw	x15,0(x28)
    8000215c:	08079263          	bne	x15,x0,800021e0 <test_range+0x1e0>
    80002160:	fff3031b          	addiw	x6,x6,-1
    80002164:	00169693          	slli	x13,x13,0x1
    80002168:	f6031ae3          	bne	x6,x0,800020dc <test_range+0xdc>
    8000216c:	00062783          	lw	x15,0(x12)
    80002170:	00f888b3          	add	x17,x17,x15
    80002174:	f548ece3          	bltu	x17,x20,800020cc <test_range+0xcc>
    80002178:	fffb0793          	addi	x15,x22,-1
    8000217c:	016fe733          	or	x14,x31,x22
    80002180:	00e7f7b3          	and	x15,x15,x14
    80002184:	08078063          	beq	x15,x0,80002204 <test_range+0x204>
    80002188:	05813083          	ld	x1,88(x2)
    8000218c:	05013403          	ld	x8,80(x2)
    80002190:	04813483          	ld	x9,72(x2)
    80002194:	04013903          	ld	x18,64(x2)
    80002198:	03813983          	ld	x19,56(x2)
    8000219c:	03013a03          	ld	x20,48(x2)
    800021a0:	02813a83          	ld	x21,40(x2)
    800021a4:	02013b03          	ld	x22,32(x2)
    800021a8:	01813b83          	ld	x23,24(x2)
    800021ac:	01013c03          	ld	x24,16(x2)
    800021b0:	00813c83          	ld	x25,8(x2)
    800021b4:	06010113          	addi	x2,x2,96
    800021b8:	00008067          	jalr	x0,0(x1)
    800021bc:	300797f3          	csrrw	x15,mstatus,x15
    800021c0:	00088003          	lb	x0,0(x17)
    800021c4:	30079073          	csrrw	x0,mstatus,x15
    800021c8:	f91ff06f          	jal	x0,80002158 <test_range+0x158>
    800021cc:	300797f3          	csrrw	x15,mstatus,x15
    800021d0:	0008b003          	ld	x0,0(x17)
    800021d4:	30079073          	csrrw	x0,mstatus,x15
    800021d8:	000e2783          	lw	x15,0(x28)
    800021dc:	f80788e3          	beq	x15,x0,8000216c <test_range+0x16c>
    800021e0:	00200513          	addi	x10,x0,2
    800021e4:	035000ef          	jal	x1,80002a18 <exit>
    800021e8:	300797f3          	csrrw	x15,mstatus,x15
    800021ec:	0008a003          	lw	x0,0(x17)
    800021f0:	30079073          	csrrw	x0,mstatus,x15
    800021f4:	f65ff06f          	jal	x0,80002158 <test_range+0x158>
    800021f8:	00001797          	auipc	x15,0x1
    800021fc:	3007ac23          	sw	x0,792(x15) # 80003510 <trap_expected>
    80002200:	300027f3          	csrrs	x15,mstatus,x0
    80002204:	00001797          	auipc	x15,0x1
    80002208:	3087a783          	lw	x15,776(x15) # 8000350c <granule>
    8000220c:	00001617          	auipc	x12,0x1
    80002210:	30060613          	addi	x12,x12,768 # 8000350c <granule>
    80002214:	1367ee63          	bltu	x15,x22,80002350 <test_range+0x350>
    80002218:	000017b7          	lui	x15,0x1
    8000221c:	10078793          	addi	x15,x15,256 # 1100 <buflen.1+0x10c0>
    80002220:	01100293          	addi	x5,x0,17
    80002224:	001b5e13          	srli	x28,x22,0x1
    80002228:	fffe0e13          	addi	x28,x28,-1
    8000222c:	018e0e33          	add	x28,x28,x24
    80002230:	002e5e13          	srli	x28,x28,0x2
    80002234:	3a002773          	csrrs	x14,pmpcfg0,x0
    80002238:	ffff06b7          	lui	x13,0xffff0
    8000223c:	0ff68693          	addi	x13,x13,255 # ffffffffffff00ff <_tbss_end+0xffffffff7ffe807b>
    80002240:	00d77733          	and	x14,x14,x13
    80002244:	3a071073          	csrrw	x0,pmpcfg0,x14
    80002248:	3b005073          	csrrwi	x0,pmpaddr0,0
    8000224c:	3b1e1073          	csrrw	x0,pmpaddr1,x28
    80002250:	00e7e7b3          	or	x15,x15,x14
    80002254:	3a079073          	csrrw	x0,pmpcfg0,x15
    80002258:	12000073          	sfence.vma	x0,x0
    8000225c:	f34ff6e3          	bgeu	x31,x20,80002188 <test_range+0x188>
    80002260:	fffde937          	lui	x18,0xfffde
    80002264:	000214b7          	lui	x9,0x21
    80002268:	00400e93          	addi	x29,x0,4
    8000226c:	0182f293          	andi	x5,x5,24
    80002270:	01800413          	addi	x8,x0,24
    80002274:	fffffb37          	lui	x22,0xfffff
    80002278:	000013b7          	lui	x7,0x1
    8000227c:	00001317          	auipc	x6,0x1
    80002280:	29430313          	addi	x6,x6,660 # 80003510 <trap_expected>
    80002284:	7ff90913          	addi	x18,x18,2047 # fffffffffffde7ff <_tbss_end+0xffffffff7ffd677b>
    80002288:	80048493          	addi	x9,x9,-2048 # 20800 <buflen.1+0x207c0>
    8000228c:	00100993          	addi	x19,x0,1
    80002290:	00400893          	addi	x17,x0,4
    80002294:	00100593          	addi	x11,x0,1
    80002298:	016f8f33          	add	x30,x31,x22
    8000229c:	01fa8833          	add	x16,x21,x31
    800022a0:	fff58513          	addi	x10,x11,-1
    800022a4:	01f57533          	and	x10,x10,x31
    800022a8:	08051663          	bne	x10,x0,80002334 <test_range+0x334>
    800022ac:	000e0693          	addi	x13,x28,0
    800022b0:	00100713          	addi	x14,x0,1
    800022b4:	0a828663          	beq	x5,x8,80002360 <test_range+0x360>
    800022b8:	00062b83          	lw	x23,0(x12)
    800022bc:	00062783          	lw	x15,0(x12)
    800022c0:	00d70733          	add	x14,x14,x13
    800022c4:	02db8bb3          	mul	x23,x23,x13
    800022c8:	02f706b3          	mul	x13,x14,x15
    800022cc:	107f7a63          	bgeu	x30,x7,800023e0 <test_range+0x3e0>
    800022d0:	f20584e3          	beq	x11,x0,800021f8 <test_range+0x1f8>
    800022d4:	00000793          	addi	x15,x0,0
    800022d8:	00f80733          	add	x14,x16,x15
    800022dc:	01776863          	bltu	x14,x23,800022ec <test_range+0x2ec>
    800022e0:	00d77663          	bgeu	x14,x13,800022ec <test_range+0x2ec>
    800022e4:	00062703          	lw	x14,0(x12)
    800022e8:	00e50533          	add	x10,x10,x14
    800022ec:	00062703          	lw	x14,0(x12)
    800022f0:	00e787b3          	add	x15,x15,x14
    800022f4:	feb7e2e3          	bltu	x15,x11,800022d8 <test_range+0x2d8>
    800022f8:	00000793          	addi	x15,x0,0
    800022fc:	00050463          	beq	x10,x0,80002304 <test_range+0x304>
    80002300:	00b537b3          	sltu	x15,x10,x11
    80002304:	00f32023          	sw	x15,0(x6)
    80002308:	300027f3          	csrrs	x15,mstatus,x0
    8000230c:	0127f7b3          	and	x15,x15,x18
    80002310:	0097e7b3          	or	x15,x15,x9
    80002314:	09d58063          	beq	x11,x29,80002394 <test_range+0x394>
    80002318:	08beee63          	bltu	x29,x11,800023b4 <test_range+0x3b4>
    8000231c:	09358463          	beq	x11,x19,800023a4 <test_range+0x3a4>
    80002320:	300797f3          	csrrw	x15,mstatus,x15
    80002324:	000f9003          	lh	x0,0(x31)
    80002328:	30079073          	csrrw	x0,mstatus,x15
    8000232c:	00032783          	lw	x15,0(x6)
    80002330:	ea0798e3          	bne	x15,x0,800021e0 <test_range+0x1e0>
    80002334:	fff8889b          	addiw	x17,x17,-1
    80002338:	00159593          	slli	x11,x11,0x1
    8000233c:	f60892e3          	bne	x17,x0,800022a0 <test_range+0x2a0>
    80002340:	00062783          	lw	x15,0(x12)
    80002344:	00ff8fb3          	add	x31,x31,x15
    80002348:	f54fe4e3          	bltu	x31,x20,80002290 <test_range+0x290>
    8000234c:	e3dff06f          	jal	x0,80002188 <test_range+0x188>
    80002350:	000027b7          	lui	x15,0x2
    80002354:	90078793          	addi	x15,x15,-1792 # 1900 <buflen.1+0x18c0>
    80002358:	01900293          	addi	x5,x0,25
    8000235c:	ec9ff06f          	jal	x0,80002224 <test_range+0x224>
    80002360:	001e7793          	andi	x15,x28,1
    80002364:	06078a63          	beq	x15,x0,800023d8 <test_range+0x3d8>
    80002368:	04000b93          	addi	x23,x0,64
    8000236c:	00200713          	addi	x14,x0,2
    80002370:	fff7cc13          	xori	x24,x15,-1
    80002374:	fffb8b9b          	addiw	x23,x23,-1 # ffffffffffffefff <_tbss_end+0xffffffff7fff6f7b>
    80002378:	0186f6b3          	and	x13,x13,x24
    8000237c:	00171713          	slli	x14,x14,0x1
    80002380:	00179793          	slli	x15,x15,0x1
    80002384:	f20b8ae3          	beq	x23,x0,800022b8 <test_range+0x2b8>
    80002388:	00f6fc33          	and	x24,x13,x15
    8000238c:	fe0c12e3          	bne	x24,x0,80002370 <test_range+0x370>
    80002390:	f29ff06f          	jal	x0,800022b8 <test_range+0x2b8>
    80002394:	300797f3          	csrrw	x15,mstatus,x15
    80002398:	000fa003          	lw	x0,0(x31)
    8000239c:	30079073          	csrrw	x0,mstatus,x15
    800023a0:	f8dff06f          	jal	x0,8000232c <test_range+0x32c>
    800023a4:	300797f3          	csrrw	x15,mstatus,x15
    800023a8:	000f8003          	lb	x0,0(x31)
    800023ac:	30079073          	csrrw	x0,mstatus,x15
    800023b0:	f7dff06f          	jal	x0,8000232c <test_range+0x32c>
    800023b4:	300797f3          	csrrw	x15,mstatus,x15
    800023b8:	000fb003          	ld	x0,0(x31)
    800023bc:	30079073          	csrrw	x0,mstatus,x15
    800023c0:	00032783          	lw	x15,0(x6)
    800023c4:	e0079ee3          	bne	x15,x0,800021e0 <test_range+0x1e0>
    800023c8:	00062783          	lw	x15,0(x12)
    800023cc:	00ff8fb3          	add	x31,x31,x15
    800023d0:	ed4fe0e3          	bltu	x31,x20,80002290 <test_range+0x290>
    800023d4:	db5ff06f          	jal	x0,80002188 <test_range+0x188>
    800023d8:	00200713          	addi	x14,x0,2
    800023dc:	eddff06f          	jal	x0,800022b8 <test_range+0x2b8>
    800023e0:	00300513          	addi	x10,x0,3
    800023e4:	634000ef          	jal	x1,80002a18 <exit>

00000000800023e8 <exhaustive_test.constprop.0>:
    800023e8:	fd010113          	addi	x2,x2,-48
    800023ec:	00913c23          	sd	x9,24(x2)
    800023f0:	01213823          	sd	x18,16(x2)
    800023f4:	01413023          	sd	x20,0(x2)
    800023f8:	02113423          	sd	x1,40(x2)
    800023fc:	02813023          	sd	x8,32(x2)
    80002400:	01313423          	sd	x19,8(x2)
    80002404:	00050493          	addi	x9,x10,0
    80002408:	02050a13          	addi	x20,x10,32
    8000240c:	00001917          	auipc	x18,0x1
    80002410:	10090913          	addi	x18,x18,256 # 8000350c <granule>
    80002414:	00092783          	lw	x15,0(x18)
    80002418:	409a09b3          	sub	x19,x20,x9
    8000241c:	0007841b          	addiw	x8,x15,0
    80002420:	00f9ee63          	bltu	x19,x15,8000243c <exhaustive_test.constprop.0+0x54>
    80002424:	00040593          	addi	x11,x8,0 # 1000 <buflen.1+0xfc0>
    80002428:	00048513          	addi	x10,x9,0
    8000242c:	bd5ff0ef          	jal	x1,80002000 <test_range>
    80002430:	00092783          	lw	x15,0(x18)
    80002434:	00f40433          	add	x8,x8,x15
    80002438:	fe89f6e3          	bgeu	x19,x8,80002424 <exhaustive_test.constprop.0+0x3c>
    8000243c:	00092783          	lw	x15,0(x18)
    80002440:	00f484b3          	add	x9,x9,x15
    80002444:	fd44e8e3          	bltu	x9,x20,80002414 <exhaustive_test.constprop.0+0x2c>
    80002448:	02813083          	ld	x1,40(x2)
    8000244c:	02013403          	ld	x8,32(x2)
    80002450:	01813483          	ld	x9,24(x2)
    80002454:	01013903          	ld	x18,16(x2)
    80002458:	00813983          	ld	x19,8(x2)
    8000245c:	00013a03          	ld	x20,0(x2)
    80002460:	03010113          	addi	x2,x2,48
    80002464:	00008067          	jalr	x0,0(x1)

0000000080002468 <handle_trap>:
    80002468:	ff010113          	addi	x2,x2,-16
    8000246c:	00113423          	sd	x1,8(x2)
    80002470:	00200793          	addi	x15,x0,2
    80002474:	04f50263          	beq	x10,x15,800024b8 <handle_trap+0x50>
    80002478:	00001797          	auipc	x15,0x1
    8000247c:	0987a783          	lw	x15,152(x15) # 80003510 <trap_expected>
    80002480:	04078063          	beq	x15,x0,800024c0 <handle_trap+0x58>
    80002484:	00500793          	addi	x15,x0,5
    80002488:	02f51c63          	bne	x10,x15,800024c0 <handle_trap+0x58>
    8000248c:	0005d783          	lhu	x15,0(x11)
    80002490:	00001717          	auipc	x14,0x1
    80002494:	08072023          	sw	x0,128(x14) # 80003510 <trap_expected>
    80002498:	00200513          	addi	x10,x0,2
    8000249c:	0037f793          	andi	x15,x15,3
    800024a0:	00078463          	beq	x15,x0,800024a8 <handle_trap+0x40>
    800024a4:	00400513          	addi	x10,x0,4
    800024a8:	00813083          	ld	x1,8(x2)
    800024ac:	00a58533          	add	x10,x11,x10
    800024b0:	01010113          	addi	x2,x2,16
    800024b4:	00008067          	jalr	x0,0(x1)
    800024b8:	00000513          	addi	x10,x0,0
    800024bc:	55c000ef          	jal	x1,80002a18 <exit>
    800024c0:	00100513          	addi	x10,x0,1
    800024c4:	554000ef          	jal	x1,80002a18 <exit>

00000000800024c8 <vprintfmt>:
    800024c8:	e9010113          	addi	x2,x2,-368
    800024cc:	16813023          	sd	x8,352(x2)
    800024d0:	14913c23          	sd	x9,344(x2)
    800024d4:	15213823          	sd	x18,336(x2)
    800024d8:	15413023          	sd	x20,320(x2)
    800024dc:	13513c23          	sd	x21,312(x2)
    800024e0:	13613823          	sd	x22,304(x2)
    800024e4:	13713423          	sd	x23,296(x2)
    800024e8:	16113423          	sd	x1,360(x2)
    800024ec:	15313423          	sd	x19,328(x2)
    800024f0:	13813023          	sd	x24,288(x2)
    800024f4:	11913c23          	sd	x25,280(x2)
    800024f8:	11b13423          	sd	x27,264(x2)
    800024fc:	00050913          	addi	x18,x10,0
    80002500:	00058493          	addi	x9,x11,0
    80002504:	00060413          	addi	x8,x12,0
    80002508:	00068b93          	addi	x23,x13,0
    8000250c:	02500a13          	addi	x20,x0,37
    80002510:	05500b13          	addi	x22,x0,85
    80002514:	00001a97          	auipc	x21,0x1
    80002518:	ea0a8a93          	addi	x21,x21,-352 # 800033b4 <main+0x4e0>
    8000251c:	0140006f          	jal	x0,80002530 <vprintfmt+0x68>
    80002520:	04050c63          	beq	x10,x0,80002578 <vprintfmt+0xb0>
    80002524:	00048593          	addi	x11,x9,0
    80002528:	00140413          	addi	x8,x8,1
    8000252c:	000900e7          	jalr	x1,0(x18)
    80002530:	00044503          	lbu	x10,0(x8)
    80002534:	ff4516e3          	bne	x10,x20,80002520 <vprintfmt+0x58>
    80002538:	00144683          	lbu	x13,1(x8)
    8000253c:	00140993          	addi	x19,x8,1
    80002540:	00098713          	addi	x14,x19,0
    80002544:	02000c93          	addi	x25,x0,32
    80002548:	fff00c13          	addi	x24,x0,-1
    8000254c:	fff00d93          	addi	x27,x0,-1
    80002550:	00000593          	addi	x11,x0,0
    80002554:	fdd6879b          	addiw	x15,x13,-35
    80002558:	0ff7f793          	andi	x15,x15,255
    8000255c:	00170413          	addi	x8,x14,1
    80002560:	06fb6663          	bltu	x22,x15,800025cc <vprintfmt+0x104>
    80002564:	00279793          	slli	x15,x15,0x2
    80002568:	015787b3          	add	x15,x15,x21
    8000256c:	0007a783          	lw	x15,0(x15)
    80002570:	015787b3          	add	x15,x15,x21
    80002574:	00078067          	jalr	x0,0(x15)
    80002578:	16813083          	ld	x1,360(x2)
    8000257c:	16013403          	ld	x8,352(x2)
    80002580:	15813483          	ld	x9,344(x2)
    80002584:	15013903          	ld	x18,336(x2)
    80002588:	14813983          	ld	x19,328(x2)
    8000258c:	14013a03          	ld	x20,320(x2)
    80002590:	13813a83          	ld	x21,312(x2)
    80002594:	13013b03          	ld	x22,304(x2)
    80002598:	12813b83          	ld	x23,296(x2)
    8000259c:	12013c03          	ld	x24,288(x2)
    800025a0:	11813c83          	ld	x25,280(x2)
    800025a4:	10813d83          	ld	x27,264(x2)
    800025a8:	17010113          	addi	x2,x2,368
    800025ac:	00008067          	jalr	x0,0(x1)
    800025b0:	00068c93          	addi	x25,x13,0
    800025b4:	00174683          	lbu	x13,1(x14)
    800025b8:	00040713          	addi	x14,x8,0
    800025bc:	00170413          	addi	x8,x14,1
    800025c0:	fdd6879b          	addiw	x15,x13,-35
    800025c4:	0ff7f793          	andi	x15,x15,255
    800025c8:	f8fb7ee3          	bgeu	x22,x15,80002564 <vprintfmt+0x9c>
    800025cc:	00048593          	addi	x11,x9,0
    800025d0:	02500513          	addi	x10,x0,37
    800025d4:	000900e7          	jalr	x1,0(x18)
    800025d8:	00098413          	addi	x8,x19,0
    800025dc:	f55ff06f          	jal	x0,80002530 <vprintfmt+0x68>
    800025e0:	fd068c1b          	addiw	x24,x13,-48
    800025e4:	00174683          	lbu	x13,1(x14)
    800025e8:	00900793          	addi	x15,x0,9
    800025ec:	fd06871b          	addiw	x14,x13,-48
    800025f0:	0006861b          	addiw	x12,x13,0
    800025f4:	2ee7e663          	bltu	x15,x14,800028e0 <vprintfmt+0x418>
    800025f8:	00040713          	addi	x14,x8,0
    800025fc:	00900813          	addi	x16,x0,9
    80002600:	00174683          	lbu	x13,1(x14)
    80002604:	002c179b          	slliw	x15,x24,0x2
    80002608:	018787bb          	addw	x15,x15,x24
    8000260c:	0017979b          	slliw	x15,x15,0x1
    80002610:	00c787bb          	addw	x15,x15,x12
    80002614:	fd06851b          	addiw	x10,x13,-48
    80002618:	00170713          	addi	x14,x14,1
    8000261c:	fd078c1b          	addiw	x24,x15,-48
    80002620:	0006861b          	addiw	x12,x13,0
    80002624:	fca87ee3          	bgeu	x16,x10,80002600 <vprintfmt+0x138>
    80002628:	f20dd6e3          	bge	x27,x0,80002554 <vprintfmt+0x8c>
    8000262c:	000c0d93          	addi	x27,x24,0
    80002630:	fff00c13          	addi	x24,x0,-1
    80002634:	f21ff06f          	jal	x0,80002554 <vprintfmt+0x8c>
    80002638:	00174683          	lbu	x13,1(x14)
    8000263c:	00040713          	addi	x14,x8,0
    80002640:	f15ff06f          	jal	x0,80002554 <vprintfmt+0x8c>
    80002644:	00048593          	addi	x11,x9,0
    80002648:	02500513          	addi	x10,x0,37
    8000264c:	000900e7          	jalr	x1,0(x18)
    80002650:	ee1ff06f          	jal	x0,80002530 <vprintfmt+0x68>
    80002654:	000bac03          	lw	x24,0(x23)
    80002658:	00174683          	lbu	x13,1(x14)
    8000265c:	008b8b93          	addi	x23,x23,8
    80002660:	00040713          	addi	x14,x8,0
    80002664:	fc5ff06f          	jal	x0,80002628 <vprintfmt+0x160>
    80002668:	00048593          	addi	x11,x9,0
    8000266c:	03000513          	addi	x10,x0,48
    80002670:	11a13823          	sd	x26,272(x2)
    80002674:	000900e7          	jalr	x1,0(x18)
    80002678:	00048593          	addi	x11,x9,0
    8000267c:	07800513          	addi	x10,x0,120
    80002680:	000900e7          	jalr	x1,0(x18)
    80002684:	01000613          	addi	x12,x0,16
    80002688:	008b8713          	addi	x14,x23,8
    8000268c:	000bb783          	ld	x15,0(x23)
    80002690:	00070b93          	addi	x23,x14,0
    80002694:	02c7f5b3          	remu	x11,x15,x12
    80002698:	000c899b          	addiw	x19,x25,0
    8000269c:	00410693          	addi	x13,x2,4
    800026a0:	00100713          	addi	x14,x0,1
    800026a4:	00b12023          	sw	x11,0(x2)
    800026a8:	1ec7ea63          	bltu	x15,x12,8000289c <vprintfmt+0x3d4>
    800026ac:	02c7d7b3          	divu	x15,x15,x12
    800026b0:	00468693          	addi	x13,x13,4
    800026b4:	00070c13          	addi	x24,x14,0
    800026b8:	0017071b          	addiw	x14,x14,1
    800026bc:	02c7f5b3          	remu	x11,x15,x12
    800026c0:	feb6ae23          	sw	x11,-4(x13)
    800026c4:	fec7f4e3          	bgeu	x15,x12,800026ac <vprintfmt+0x1e4>
    800026c8:	fffd8c9b          	addiw	x25,x27,-1
    800026cc:	fff70d1b          	addiw	x26,x14,-1
    800026d0:	01b75c63          	bge	x14,x27,800026e8 <vprintfmt+0x220>
    800026d4:	00048593          	addi	x11,x9,0
    800026d8:	00098513          	addi	x10,x19,0
    800026dc:	fffc8c9b          	addiw	x25,x25,-1
    800026e0:	000900e7          	jalr	x1,0(x18)
    800026e4:	ffac98e3          	bne	x25,x26,800026d4 <vprintfmt+0x20c>
    800026e8:	002c1c13          	slli	x24,x24,0x2
    800026ec:	018109b3          	add	x19,x2,x24
    800026f0:	ffc10c93          	addi	x25,x2,-4
    800026f4:	00900c13          	addi	x24,x0,9
    800026f8:	0009a783          	lw	x15,0(x19)
    800026fc:	03000513          	addi	x10,x0,48
    80002700:	00fc7463          	bgeu	x24,x15,80002708 <vprintfmt+0x240>
    80002704:	05700513          	addi	x10,x0,87
    80002708:	00048593          	addi	x11,x9,0
    8000270c:	00a7853b          	addw	x10,x15,x10
    80002710:	ffc98993          	addi	x19,x19,-4
    80002714:	000900e7          	jalr	x1,0(x18)
    80002718:	ff9990e3          	bne	x19,x25,800026f8 <vprintfmt+0x230>
    8000271c:	11013d03          	ld	x26,272(x2)
    80002720:	e11ff06f          	jal	x0,80002530 <vprintfmt+0x68>
    80002724:	11a13823          	sd	x26,272(x2)
    80002728:	00100793          	addi	x15,x0,1
    8000272c:	008b8c13          	addi	x24,x23,8
    80002730:	00b7c463          	blt	x15,x11,80002738 <vprintfmt+0x270>
    80002734:	16058863          	beq	x11,x0,800028a4 <vprintfmt+0x3dc>
    80002738:	000bb983          	ld	x19,0(x23)
    8000273c:	1809c463          	blt	x19,x0,800028c4 <vprintfmt+0x3fc>
    80002740:	00098793          	addi	x15,x19,0
    80002744:	000c0b93          	addi	x23,x24,0
    80002748:	00a00613          	addi	x12,x0,10
    8000274c:	f49ff06f          	jal	x0,80002694 <vprintfmt+0x1cc>
    80002750:	00174683          	lbu	x13,1(x14)
    80002754:	0015859b          	addiw	x11,x11,1
    80002758:	00040713          	addi	x14,x8,0
    8000275c:	df9ff06f          	jal	x0,80002554 <vprintfmt+0x8c>
    80002760:	11a13823          	sd	x26,272(x2)
    80002764:	01000613          	addi	x12,x0,16
    80002768:	00100793          	addi	x15,x0,1
    8000276c:	008b8713          	addi	x14,x23,8
    80002770:	f0b7cee3          	blt	x15,x11,8000268c <vprintfmt+0x1c4>
    80002774:	f0059ce3          	bne	x11,x0,8000268c <vprintfmt+0x1c4>
    80002778:	000be783          	lwu	x15,0(x23)
    8000277c:	00070b93          	addi	x23,x14,0
    80002780:	f15ff06f          	jal	x0,80002694 <vprintfmt+0x1cc>
    80002784:	11a13823          	sd	x26,272(x2)
    80002788:	000bbd03          	ld	x26,0(x23)
    8000278c:	008b8b93          	addi	x23,x23,8
    80002790:	060d0063          	beq	x26,x0,800027f0 <vprintfmt+0x328>
    80002794:	0db05463          	bge	x0,x27,8000285c <vprintfmt+0x394>
    80002798:	02d00793          	addi	x15,x0,45
    8000279c:	06fc9c63          	bne	x25,x15,80002814 <vprintfmt+0x34c>
    800027a0:	000d4503          	lbu	x10,0(x26)
    800027a4:	02050863          	beq	x10,x0,800027d4 <vprintfmt+0x30c>
    800027a8:	fff00993          	addi	x19,x0,-1
    800027ac:	000c4663          	blt	x24,x0,800027b8 <vprintfmt+0x2f0>
    800027b0:	fffc0c1b          	addiw	x24,x24,-1
    800027b4:	013c0e63          	beq	x24,x19,800027d0 <vprintfmt+0x308>
    800027b8:	00048593          	addi	x11,x9,0
    800027bc:	000900e7          	jalr	x1,0(x18)
    800027c0:	001d4503          	lbu	x10,1(x26)
    800027c4:	fffd8d9b          	addiw	x27,x27,-1
    800027c8:	001d0d13          	addi	x26,x26,1
    800027cc:	fe0510e3          	bne	x10,x0,800027ac <vprintfmt+0x2e4>
    800027d0:	f5b056e3          	bge	x0,x27,8000271c <vprintfmt+0x254>
    800027d4:	00048593          	addi	x11,x9,0
    800027d8:	02000513          	addi	x10,x0,32
    800027dc:	fffd8d9b          	addiw	x27,x27,-1
    800027e0:	000900e7          	jalr	x1,0(x18)
    800027e4:	fe0d98e3          	bne	x27,x0,800027d4 <vprintfmt+0x30c>
    800027e8:	11013d03          	ld	x26,272(x2)
    800027ec:	d45ff06f          	jal	x0,80002530 <vprintfmt+0x68>
    800027f0:	00001d17          	auipc	x26,0x1
    800027f4:	b78d0d13          	addi	x26,x26,-1160 # 80003368 <main+0x494>
    800027f8:	02800513          	addi	x10,x0,40
    800027fc:	fbb056e3          	bge	x0,x27,800027a8 <vprintfmt+0x2e0>
    80002800:	02d00793          	addi	x15,x0,45
    80002804:	00001d17          	auipc	x26,0x1
    80002808:	b64d0d13          	addi	x26,x26,-1180 # 80003368 <main+0x494>
    8000280c:	02800513          	addi	x10,x0,40
    80002810:	f8fc8ce3          	beq	x25,x15,800027a8 <vprintfmt+0x2e0>
    80002814:	000d861b          	addiw	x12,x27,0
    80002818:	000d0793          	addi	x15,x26,0
    8000281c:	018d06b3          	add	x13,x26,x24
    80002820:	000c1863          	bne	x24,x0,80002830 <vprintfmt+0x368>
    80002824:	0200006f          	jal	x0,80002844 <vprintfmt+0x37c>
    80002828:	00178793          	addi	x15,x15,1
    8000282c:	00d78663          	beq	x15,x13,80002838 <vprintfmt+0x370>
    80002830:	0007c703          	lbu	x14,0(x15)
    80002834:	fe071ae3          	bne	x14,x0,80002828 <vprintfmt+0x360>
    80002838:	41a787b3          	sub	x15,x15,x26
    8000283c:	40f60dbb          	subw	x27,x12,x15
    80002840:	01b05e63          	bge	x0,x27,8000285c <vprintfmt+0x394>
    80002844:	000c8c9b          	addiw	x25,x25,0
    80002848:	00048593          	addi	x11,x9,0
    8000284c:	000c8513          	addi	x10,x25,0
    80002850:	fffd8d9b          	addiw	x27,x27,-1
    80002854:	000900e7          	jalr	x1,0(x18)
    80002858:	fe0d98e3          	bne	x27,x0,80002848 <vprintfmt+0x380>
    8000285c:	000d4503          	lbu	x10,0(x26)
    80002860:	ea050ee3          	beq	x10,x0,8000271c <vprintfmt+0x254>
    80002864:	fff00993          	addi	x19,x0,-1
    80002868:	f45ff06f          	jal	x0,800027ac <vprintfmt+0x2e4>
    8000286c:	fffdc793          	xori	x15,x27,-1
    80002870:	43f7d793          	srai	x15,x15,0x3f
    80002874:	00fdf7b3          	and	x15,x27,x15
    80002878:	00174683          	lbu	x13,1(x14)
    8000287c:	00078d9b          	addiw	x27,x15,0
    80002880:	00040713          	addi	x14,x8,0
    80002884:	cd1ff06f          	jal	x0,80002554 <vprintfmt+0x8c>
    80002888:	000ba503          	lw	x10,0(x23)
    8000288c:	00048593          	addi	x11,x9,0
    80002890:	008b8b93          	addi	x23,x23,8
    80002894:	000900e7          	jalr	x1,0(x18)
    80002898:	c99ff06f          	jal	x0,80002530 <vprintfmt+0x68>
    8000289c:	00000c13          	addi	x24,x0,0
    800028a0:	e29ff06f          	jal	x0,800026c8 <vprintfmt+0x200>
    800028a4:	000ba983          	lw	x19,0(x23)
    800028a8:	e95ff06f          	jal	x0,8000273c <vprintfmt+0x274>
    800028ac:	11a13823          	sd	x26,272(x2)
    800028b0:	00a00613          	addi	x12,x0,10
    800028b4:	eb5ff06f          	jal	x0,80002768 <vprintfmt+0x2a0>
    800028b8:	11a13823          	sd	x26,272(x2)
    800028bc:	00800613          	addi	x12,x0,8
    800028c0:	ea9ff06f          	jal	x0,80002768 <vprintfmt+0x2a0>
    800028c4:	00048593          	addi	x11,x9,0
    800028c8:	02d00513          	addi	x10,x0,45
    800028cc:	000900e7          	jalr	x1,0(x18)
    800028d0:	413007b3          	sub	x15,x0,x19
    800028d4:	000c0b93          	addi	x23,x24,0
    800028d8:	00a00613          	addi	x12,x0,10
    800028dc:	db9ff06f          	jal	x0,80002694 <vprintfmt+0x1cc>
    800028e0:	00040713          	addi	x14,x8,0
    800028e4:	d45ff06f          	jal	x0,80002628 <vprintfmt+0x160>

00000000800028e8 <sprintf_putch.0>:
    800028e8:	0005b783          	ld	x15,0(x11)
    800028ec:	00a78023          	sb	x10,0(x15)
    800028f0:	0005b783          	ld	x15,0(x11)
    800028f4:	00178793          	addi	x15,x15,1
    800028f8:	00f5b023          	sd	x15,0(x11)
    800028fc:	00008067          	jalr	x0,0(x1)

0000000080002900 <putchar>:
    80002900:	04022803          	lw	x16,64(x4) # 40 <buflen.1>
    80002904:	00020793          	addi	x15,x4,0 # 0 <buf.2>
    80002908:	010787b3          	add	x15,x15,x16
    8000290c:	f9010113          	addi	x2,x2,-112
    80002910:	0018069b          	addiw	x13,x16,1
    80002914:	04d22023          	sw	x13,64(x4) # 40 <buflen.1>
    80002918:	00a78023          	sb	x10,0(x15)
    8000291c:	03f10713          	addi	x14,x2,63
    80002920:	00a00793          	addi	x15,x0,10
    80002924:	fc077713          	andi	x14,x14,-64
    80002928:	00f50c63          	beq	x10,x15,80002940 <putchar+0x40>
    8000292c:	04000793          	addi	x15,x0,64
    80002930:	00f68863          	beq	x13,x15,80002940 <putchar+0x40>
    80002934:	00000513          	addi	x10,x0,0
    80002938:	07010113          	addi	x2,x2,112
    8000293c:	00008067          	jalr	x0,0(x1)
    80002940:	04000793          	addi	x15,x0,64
    80002944:	00f73023          	sd	x15,0(x14)
    80002948:	00100793          	addi	x15,x0,1
    8000294c:	00f73423          	sd	x15,8(x14)
    80002950:	00020613          	addi	x12,x4,0 # 0 <buf.2>
    80002954:	00c73823          	sd	x12,16(x14)
    80002958:	00d73c23          	sd	x13,24(x14)
    8000295c:	0ff0000f          	fence	iorw,iorw
    80002960:	ffffe697          	auipc	x13,0xffffe
    80002964:	6e068693          	addi	x13,x13,1760 # 80001040 <fromhost>
    80002968:	ffffe797          	auipc	x15,0xffffe
    8000296c:	68e7bc23          	sd	x14,1688(x15) # 80001000 <tohost>
    80002970:	0006b783          	ld	x15,0(x13)
    80002974:	fe078ee3          	beq	x15,x0,80002970 <putchar+0x70>
    80002978:	ffffe797          	auipc	x15,0xffffe
    8000297c:	6c07b423          	sd	x0,1736(x15) # 80001040 <fromhost>
    80002980:	0ff0000f          	fence	iorw,iorw
    80002984:	04022023          	sw	x0,64(x4) # 40 <buflen.1>
    80002988:	00073783          	ld	x15,0(x14)
    8000298c:	00000513          	addi	x10,x0,0
    80002990:	07010113          	addi	x2,x2,112
    80002994:	00008067          	jalr	x0,0(x1)

0000000080002998 <setStats>:
    80002998:	b0002773          	csrrs	x14,mcycle,x0
    8000299c:	00005797          	auipc	x15,0x5
    800029a0:	66478793          	addi	x15,x15,1636 # 80008000 <counters>
    800029a4:	00050a63          	beq	x10,x0,800029b8 <setStats+0x20>
    800029a8:	00e7b023          	sd	x14,0(x15)
    800029ac:	b0202773          	csrrs	x14,minstret,x0
    800029b0:	00e7b423          	sd	x14,8(x15)
    800029b4:	00008067          	jalr	x0,0(x1)
    800029b8:	0007b683          	ld	x13,0(x15)
    800029bc:	00001617          	auipc	x12,0x1
    800029c0:	9bc60613          	addi	x12,x12,-1604 # 80003378 <main+0x4a4>
    800029c4:	00c7b823          	sd	x12,16(x15)
    800029c8:	40d70733          	sub	x14,x14,x13
    800029cc:	00e7b023          	sd	x14,0(x15)
    800029d0:	b0202773          	csrrs	x14,minstret,x0
    800029d4:	0087b683          	ld	x13,8(x15)
    800029d8:	00001617          	auipc	x12,0x1
    800029dc:	9a860613          	addi	x12,x12,-1624 # 80003380 <main+0x4ac>
    800029e0:	00c7bc23          	sd	x12,24(x15)
    800029e4:	40d70733          	sub	x14,x14,x13
    800029e8:	00e7b423          	sd	x14,8(x15)
    800029ec:	00008067          	jalr	x0,0(x1)

00000000800029f0 <tohost_exit>:
    800029f0:	00151793          	slli	x15,x10,0x1
    800029f4:	0017e793          	ori	x15,x15,1
    800029f8:	ffffe717          	auipc	x14,0xffffe
    800029fc:	60f73423          	sd	x15,1544(x14) # 80001000 <tohost>
    80002a00:	0000006f          	jal	x0,80002a00 <tohost_exit+0x10>
    80002a04:	000017b7          	lui	x15,0x1
    80002a08:	a7378793          	addi	x15,x15,-1421 # a73 <buflen.1+0xa33>
    80002a0c:	ffffe717          	auipc	x14,0xffffe
    80002a10:	5ef73a23          	sd	x15,1524(x14) # 80001000 <tohost>
    80002a14:	0000006f          	jal	x0,80002a14 <tohost_exit+0x24>

0000000080002a18 <exit>:
    80002a18:	ff010113          	addi	x2,x2,-16
    80002a1c:	00113423          	sd	x1,8(x2)
    80002a20:	fd1ff0ef          	jal	x1,800029f0 <tohost_exit>

0000000080002a24 <abort>:
    80002a24:	10d00793          	addi	x15,x0,269
    80002a28:	ffffe717          	auipc	x14,0xffffe
    80002a2c:	5cf73c23          	sd	x15,1496(x14) # 80001000 <tohost>
    80002a30:	0000006f          	jal	x0,80002a30 <abort+0xc>

0000000080002a34 <printstr>:
    80002a34:	00054783          	lbu	x15,0(x10)
    80002a38:	f9010113          	addi	x2,x2,-112
    80002a3c:	03f10693          	addi	x13,x2,63
    80002a40:	fc06f693          	andi	x13,x13,-64
    80002a44:	06078263          	beq	x15,x0,80002aa8 <printstr+0x74>
    80002a48:	00050793          	addi	x15,x10,0
    80002a4c:	0017c703          	lbu	x14,1(x15)
    80002a50:	00178793          	addi	x15,x15,1
    80002a54:	fe071ce3          	bne	x14,x0,80002a4c <printstr+0x18>
    80002a58:	40a787b3          	sub	x15,x15,x10
    80002a5c:	04000713          	addi	x14,x0,64
    80002a60:	00e6b023          	sd	x14,0(x13)
    80002a64:	00100713          	addi	x14,x0,1
    80002a68:	00e6b423          	sd	x14,8(x13)
    80002a6c:	00a6b823          	sd	x10,16(x13)
    80002a70:	00f6bc23          	sd	x15,24(x13)
    80002a74:	0ff0000f          	fence	iorw,iorw
    80002a78:	ffffe717          	auipc	x14,0xffffe
    80002a7c:	5c870713          	addi	x14,x14,1480 # 80001040 <fromhost>
    80002a80:	ffffe797          	auipc	x15,0xffffe
    80002a84:	58d7b023          	sd	x13,1408(x15) # 80001000 <tohost>
    80002a88:	00073783          	ld	x15,0(x14)
    80002a8c:	fe078ee3          	beq	x15,x0,80002a88 <printstr+0x54>
    80002a90:	ffffe797          	auipc	x15,0xffffe
    80002a94:	5a07b823          	sd	x0,1456(x15) # 80001040 <fromhost>
    80002a98:	0ff0000f          	fence	iorw,iorw
    80002a9c:	0006b783          	ld	x15,0(x13)
    80002aa0:	07010113          	addi	x2,x2,112
    80002aa4:	00008067          	jalr	x0,0(x1)
    80002aa8:	00000793          	addi	x15,x0,0
    80002aac:	fb1ff06f          	jal	x0,80002a5c <printstr+0x28>

0000000080002ab0 <thread_entry>:
    80002ab0:	00050463          	beq	x10,x0,80002ab8 <thread_entry+0x8>
    80002ab4:	0000006f          	jal	x0,80002ab4 <thread_entry+0x4>
    80002ab8:	00008067          	jalr	x0,0(x1)

0000000080002abc <printhex>:
    80002abc:	fd010113          	addi	x2,x2,-48
    80002ac0:	00050793          	addi	x15,x10,0
    80002ac4:	02113423          	sd	x1,40(x2)
    80002ac8:	00810513          	addi	x10,x2,8
    80002acc:	01710713          	addi	x14,x2,23
    80002ad0:	00900813          	addi	x16,x0,9
    80002ad4:	0080006f          	jal	x0,80002adc <printhex+0x20>
    80002ad8:	00068713          	addi	x14,x13,0
    80002adc:	00f7f613          	andi	x12,x15,15
    80002ae0:	00060693          	addi	x13,x12,0
    80002ae4:	03000593          	addi	x11,x0,48
    80002ae8:	00c87463          	bgeu	x16,x12,80002af0 <printhex+0x34>
    80002aec:	05700593          	addi	x11,x0,87
    80002af0:	00b686bb          	addw	x13,x13,x11
    80002af4:	00d70023          	sb	x13,0(x14)
    80002af8:	0047d793          	srli	x15,x15,0x4
    80002afc:	fff70693          	addi	x13,x14,-1
    80002b00:	fce51ce3          	bne	x10,x14,80002ad8 <printhex+0x1c>
    80002b04:	00010c23          	sb	x0,24(x2)
    80002b08:	f2dff0ef          	jal	x1,80002a34 <printstr>
    80002b0c:	02813083          	ld	x1,40(x2)
    80002b10:	03010113          	addi	x2,x2,48
    80002b14:	00008067          	jalr	x0,0(x1)

0000000080002b18 <printf>:
    80002b18:	fa010113          	addi	x2,x2,-96
    80002b1c:	02810313          	addi	x6,x2,40
    80002b20:	02b13423          	sd	x11,40(x2)
    80002b24:	02c13823          	sd	x12,48(x2)
    80002b28:	02d13c23          	sd	x13,56(x2)
    80002b2c:	00050613          	addi	x12,x10,0
    80002b30:	00030693          	addi	x13,x6,0
    80002b34:	00000517          	auipc	x10,0x0
    80002b38:	dcc50513          	addi	x10,x10,-564 # 80002900 <putchar>
    80002b3c:	00000593          	addi	x11,x0,0
    80002b40:	00113c23          	sd	x1,24(x2)
    80002b44:	04e13023          	sd	x14,64(x2)
    80002b48:	04f13423          	sd	x15,72(x2)
    80002b4c:	05013823          	sd	x16,80(x2)
    80002b50:	05113c23          	sd	x17,88(x2)
    80002b54:	00613423          	sd	x6,8(x2)
    80002b58:	971ff0ef          	jal	x1,800024c8 <vprintfmt>
    80002b5c:	01813083          	ld	x1,24(x2)
    80002b60:	00000513          	addi	x10,x0,0
    80002b64:	06010113          	addi	x2,x2,96
    80002b68:	00008067          	jalr	x0,0(x1)

0000000080002b6c <sprintf>:
    80002b6c:	fa010113          	addi	x2,x2,-96
    80002b70:	03010e13          	addi	x28,x2,48
    80002b74:	02813023          	sd	x8,32(x2)
    80002b78:	00a13423          	sd	x10,8(x2)
    80002b7c:	00050413          	addi	x8,x10,0
    80002b80:	02c13823          	sd	x12,48(x2)
    80002b84:	02d13c23          	sd	x13,56(x2)
    80002b88:	00058613          	addi	x12,x11,0
    80002b8c:	00000517          	auipc	x10,0x0
    80002b90:	d5c50513          	addi	x10,x10,-676 # 800028e8 <sprintf_putch.0>
    80002b94:	00810593          	addi	x11,x2,8
    80002b98:	000e0693          	addi	x13,x28,0
    80002b9c:	02113423          	sd	x1,40(x2)
    80002ba0:	04f13423          	sd	x15,72(x2)
    80002ba4:	04e13023          	sd	x14,64(x2)
    80002ba8:	05013823          	sd	x16,80(x2)
    80002bac:	05113c23          	sd	x17,88(x2)
    80002bb0:	01c13c23          	sd	x28,24(x2)
    80002bb4:	915ff0ef          	jal	x1,800024c8 <vprintfmt>
    80002bb8:	00813783          	ld	x15,8(x2)
    80002bbc:	00078023          	sb	x0,0(x15)
    80002bc0:	00813503          	ld	x10,8(x2)
    80002bc4:	02813083          	ld	x1,40(x2)
    80002bc8:	4085053b          	subw	x10,x10,x8
    80002bcc:	02013403          	ld	x8,32(x2)
    80002bd0:	06010113          	addi	x2,x2,96
    80002bd4:	00008067          	jalr	x0,0(x1)

0000000080002bd8 <memcpy>:
    80002bd8:	00c5e7b3          	or	x15,x11,x12
    80002bdc:	00f567b3          	or	x15,x10,x15
    80002be0:	0077f793          	andi	x15,x15,7
    80002be4:	00c506b3          	add	x13,x10,x12
    80002be8:	02078463          	beq	x15,x0,80002c10 <memcpy+0x38>
    80002bec:	00c58633          	add	x12,x11,x12
    80002bf0:	00050793          	addi	x15,x10,0
    80002bf4:	02d57e63          	bgeu	x10,x13,80002c30 <memcpy+0x58>
    80002bf8:	0005c703          	lbu	x14,0(x11)
    80002bfc:	00158593          	addi	x11,x11,1
    80002c00:	00178793          	addi	x15,x15,1
    80002c04:	fee78fa3          	sb	x14,-1(x15)
    80002c08:	feb618e3          	bne	x12,x11,80002bf8 <memcpy+0x20>
    80002c0c:	00008067          	jalr	x0,0(x1)
    80002c10:	fed57ee3          	bgeu	x10,x13,80002c0c <memcpy+0x34>
    80002c14:	00050793          	addi	x15,x10,0
    80002c18:	0005b703          	ld	x14,0(x11)
    80002c1c:	00878793          	addi	x15,x15,8
    80002c20:	00858593          	addi	x11,x11,8
    80002c24:	fee7bc23          	sd	x14,-8(x15)
    80002c28:	fed7e8e3          	bltu	x15,x13,80002c18 <memcpy+0x40>
    80002c2c:	00008067          	jalr	x0,0(x1)
    80002c30:	00008067          	jalr	x0,0(x1)

0000000080002c34 <memset>:
    80002c34:	00c567b3          	or	x15,x10,x12
    80002c38:	0077f793          	andi	x15,x15,7
    80002c3c:	00c50633          	add	x12,x10,x12
    80002c40:	02078063          	beq	x15,x0,80002c60 <memset+0x2c>
    80002c44:	0ff5f713          	andi	x14,x11,255
    80002c48:	00050793          	addi	x15,x10,0
    80002c4c:	04c57663          	bgeu	x10,x12,80002c98 <memset+0x64>
    80002c50:	00178793          	addi	x15,x15,1
    80002c54:	fee78fa3          	sb	x14,-1(x15)
    80002c58:	fec79ce3          	bne	x15,x12,80002c50 <memset+0x1c>
    80002c5c:	00008067          	jalr	x0,0(x1)
    80002c60:	010107b7          	lui	x15,0x1010
    80002c64:	10178793          	addi	x15,x15,257 # 1010101 <buflen.1+0x10100c1>
    80002c68:	01079793          	slli	x15,x15,0x10
    80002c6c:	10178793          	addi	x15,x15,257
    80002c70:	01079793          	slli	x15,x15,0x10
    80002c74:	0ff5f713          	andi	x14,x11,255
    80002c78:	10178793          	addi	x15,x15,257
    80002c7c:	02f70733          	mul	x14,x14,x15
    80002c80:	fcc57ee3          	bgeu	x10,x12,80002c5c <memset+0x28>
    80002c84:	00050793          	addi	x15,x10,0
    80002c88:	00878793          	addi	x15,x15,8
    80002c8c:	fee7bc23          	sd	x14,-8(x15)
    80002c90:	fec7ece3          	bltu	x15,x12,80002c88 <memset+0x54>
    80002c94:	00008067          	jalr	x0,0(x1)
    80002c98:	00008067          	jalr	x0,0(x1)

0000000080002c9c <_init>:
    80002c9c:	f5010113          	addi	x2,x2,-176
    80002ca0:	00005797          	auipc	x15,0x5
    80002ca4:	38078793          	addi	x15,x15,896 # 80008020 <_tdata_begin>
    80002ca8:	09413023          	sd	x20,128(x2)
    80002cac:	00005a17          	auipc	x20,0x5
    80002cb0:	374a0a13          	addi	x20,x20,884 # 80008020 <_tdata_begin>
    80002cb4:	09313423          	sd	x19,136(x2)
    80002cb8:	40fa09b3          	sub	x19,x20,x15
    80002cbc:	08913c23          	sd	x9,152(x2)
    80002cc0:	09213823          	sd	x18,144(x2)
    80002cc4:	00050493          	addi	x9,x10,0
    80002cc8:	00058913          	addi	x18,x11,0
    80002ccc:	00020513          	addi	x10,x4,0 # 0 <buf.2>
    80002cd0:	00078593          	addi	x11,x15,0
    80002cd4:	00098613          	addi	x12,x19,0
    80002cd8:	0a113423          	sd	x1,168(x2)
    80002cdc:	0a813023          	sd	x8,160(x2)
    80002ce0:	07513c23          	sd	x21,120(x2)
    80002ce4:	00020a93          	addi	x21,x4,0 # 0 <buf.2>
    80002ce8:	ef1ff0ef          	jal	x1,80002bd8 <memcpy>
    80002cec:	00005617          	auipc	x12,0x5
    80002cf0:	39860613          	addi	x12,x12,920 # 80008084 <_tbss_end>
    80002cf4:	41460633          	sub	x12,x12,x20
    80002cf8:	00000593          	addi	x11,x0,0
    80002cfc:	013a8533          	add	x10,x21,x19
    80002d00:	f35ff0ef          	jal	x1,80002c34 <memset>
    80002d04:	00090593          	addi	x11,x18,0
    80002d08:	00048513          	addi	x10,x9,0
    80002d0c:	da5ff0ef          	jal	x1,80002ab0 <thread_entry>
    80002d10:	00000593          	addi	x11,x0,0
    80002d14:	00000513          	addi	x10,x0,0
    80002d18:	1bc000ef          	jal	x1,80002ed4 <main>
    80002d1c:	00005917          	auipc	x18,0x5
    80002d20:	2e490913          	addi	x18,x18,740 # 80008000 <counters>
    80002d24:	00093683          	ld	x13,0(x18)
    80002d28:	03f10413          	addi	x8,x2,63
    80002d2c:	fc047413          	andi	x8,x8,-64
    80002d30:	00050493          	addi	x9,x10,0
    80002d34:	04069063          	bne	x13,x0,80002d74 <_init+0xd8>
    80002d38:	00893683          	ld	x13,8(x18)
    80002d3c:	00069663          	bne	x13,x0,80002d48 <_init+0xac>
    80002d40:	00048513          	addi	x10,x9,0
    80002d44:	cadff0ef          	jal	x1,800029f0 <tohost_exit>
    80002d48:	00040993          	addi	x19,x8,0
    80002d4c:	01893603          	ld	x12,24(x18)
    80002d50:	00098513          	addi	x10,x19,0
    80002d54:	00000597          	auipc	x11,0x0
    80002d58:	65458593          	addi	x11,x11,1620 # 800033a8 <main+0x4d4>
    80002d5c:	e11ff0ef          	jal	x1,80002b6c <sprintf>
    80002d60:	00a989b3          	add	x19,x19,x10
    80002d64:	fd340ee3          	beq	x8,x19,80002d40 <_init+0xa4>
    80002d68:	00040513          	addi	x10,x8,0
    80002d6c:	cc9ff0ef          	jal	x1,80002a34 <printstr>
    80002d70:	fd1ff06f          	jal	x0,80002d40 <_init+0xa4>
    80002d74:	01093603          	ld	x12,16(x18)
    80002d78:	00000597          	auipc	x11,0x0
    80002d7c:	63058593          	addi	x11,x11,1584 # 800033a8 <main+0x4d4>
    80002d80:	00040513          	addi	x10,x8,0
    80002d84:	de9ff0ef          	jal	x1,80002b6c <sprintf>
    80002d88:	00893683          	ld	x13,8(x18)
    80002d8c:	00a409b3          	add	x19,x8,x10
    80002d90:	fc068ae3          	beq	x13,x0,80002d64 <_init+0xc8>
    80002d94:	fb9ff06f          	jal	x0,80002d4c <_init+0xb0>

0000000080002d98 <strlen>:
    80002d98:	00054783          	lbu	x15,0(x10)
    80002d9c:	00078e63          	beq	x15,x0,80002db8 <strlen+0x20>
    80002da0:	00050793          	addi	x15,x10,0
    80002da4:	0017c703          	lbu	x14,1(x15)
    80002da8:	00178793          	addi	x15,x15,1
    80002dac:	fe071ce3          	bne	x14,x0,80002da4 <strlen+0xc>
    80002db0:	40a78533          	sub	x10,x15,x10
    80002db4:	00008067          	jalr	x0,0(x1)
    80002db8:	00000513          	addi	x10,x0,0
    80002dbc:	00008067          	jalr	x0,0(x1)

0000000080002dc0 <strnlen>:
    80002dc0:	00b506b3          	add	x13,x10,x11
    80002dc4:	00050793          	addi	x15,x10,0
    80002dc8:	00059863          	bne	x11,x0,80002dd8 <strnlen+0x18>
    80002dcc:	0240006f          	jal	x0,80002df0 <strnlen+0x30>
    80002dd0:	00178793          	addi	x15,x15,1
    80002dd4:	00f68a63          	beq	x13,x15,80002de8 <strnlen+0x28>
    80002dd8:	0007c703          	lbu	x14,0(x15)
    80002ddc:	fe071ae3          	bne	x14,x0,80002dd0 <strnlen+0x10>
    80002de0:	40a78533          	sub	x10,x15,x10
    80002de4:	00008067          	jalr	x0,0(x1)
    80002de8:	40a68533          	sub	x10,x13,x10
    80002dec:	00008067          	jalr	x0,0(x1)
    80002df0:	00000513          	addi	x10,x0,0
    80002df4:	00008067          	jalr	x0,0(x1)

0000000080002df8 <strcmp>:
    80002df8:	00054783          	lbu	x15,0(x10)
    80002dfc:	00158593          	addi	x11,x11,1
    80002e00:	00150513          	addi	x10,x10,1
    80002e04:	fff5c703          	lbu	x14,-1(x11)
    80002e08:	00078a63          	beq	x15,x0,80002e1c <strcmp+0x24>
    80002e0c:	fee786e3          	beq	x15,x14,80002df8 <strcmp>
    80002e10:	0007851b          	addiw	x10,x15,0
    80002e14:	40e5053b          	subw	x10,x10,x14
    80002e18:	00008067          	jalr	x0,0(x1)
    80002e1c:	00000513          	addi	x10,x0,0
    80002e20:	ff5ff06f          	jal	x0,80002e14 <strcmp+0x1c>

0000000080002e24 <strcpy>:
    80002e24:	00050793          	addi	x15,x10,0
    80002e28:	0005c703          	lbu	x14,0(x11)
    80002e2c:	00178793          	addi	x15,x15,1
    80002e30:	00158593          	addi	x11,x11,1
    80002e34:	fee78fa3          	sb	x14,-1(x15)
    80002e38:	fe0718e3          	bne	x14,x0,80002e28 <strcpy+0x4>
    80002e3c:	00008067          	jalr	x0,0(x1)

0000000080002e40 <atol>:
    80002e40:	00054703          	lbu	x14,0(x10)
    80002e44:	02000693          	addi	x13,x0,32
    80002e48:	00050793          	addi	x15,x10,0
    80002e4c:	00d71863          	bne	x14,x13,80002e5c <atol+0x1c>
    80002e50:	0017c703          	lbu	x14,1(x15)
    80002e54:	00178793          	addi	x15,x15,1
    80002e58:	fed70ce3          	beq	x14,x13,80002e50 <atol+0x10>
    80002e5c:	02d00693          	addi	x13,x0,45
    80002e60:	04d70e63          	beq	x14,x13,80002ebc <atol+0x7c>
    80002e64:	02b00693          	addi	x13,x0,43
    80002e68:	04d70063          	beq	x14,x13,80002ea8 <atol+0x68>
    80002e6c:	0007c683          	lbu	x13,0(x15)
    80002e70:	00000593          	addi	x11,x0,0
    80002e74:	04068c63          	beq	x13,x0,80002ecc <atol+0x8c>
    80002e78:	00000513          	addi	x10,x0,0
    80002e7c:	00178793          	addi	x15,x15,1
    80002e80:	00251713          	slli	x14,x10,0x2
    80002e84:	fd06861b          	addiw	x12,x13,-48
    80002e88:	0007c683          	lbu	x13,0(x15)
    80002e8c:	00a70733          	add	x14,x14,x10
    80002e90:	00171713          	slli	x14,x14,0x1
    80002e94:	00e60533          	add	x10,x12,x14
    80002e98:	fe0692e3          	bne	x13,x0,80002e7c <atol+0x3c>
    80002e9c:	02058a63          	beq	x11,x0,80002ed0 <atol+0x90>
    80002ea0:	40a00533          	sub	x10,x0,x10
    80002ea4:	00008067          	jalr	x0,0(x1)
    80002ea8:	0017c683          	lbu	x13,1(x15)
    80002eac:	00178793          	addi	x15,x15,1
    80002eb0:	00068e63          	beq	x13,x0,80002ecc <atol+0x8c>
    80002eb4:	00000593          	addi	x11,x0,0
    80002eb8:	fc1ff06f          	jal	x0,80002e78 <atol+0x38>
    80002ebc:	0017c683          	lbu	x13,1(x15)
    80002ec0:	00100593          	addi	x11,x0,1
    80002ec4:	00178793          	addi	x15,x15,1
    80002ec8:	fa0698e3          	bne	x13,x0,80002e78 <atol+0x38>
    80002ecc:	00000513          	addi	x10,x0,0
    80002ed0:	00008067          	jalr	x0,0(x1)

Disassembly of section .text.startup:

0000000080002ed4 <main>:
    80002ed4:	ff010113          	addi	x2,x2,-16
    80002ed8:	00113423          	sd	x1,8(x2)
    80002edc:	3a005073          	csrrwi	x0,pmpcfg0,0
    80002ee0:	fff00793          	addi	x15,x0,-1
    80002ee4:	3b079073          	csrrw	x0,pmpaddr0,x15
    80002ee8:	3b002673          	csrrs	x12,pmpaddr0,x0
    80002eec:	00167793          	andi	x15,x12,1
    80002ef0:	0e079e63          	bne	x15,x0,80002fec <main+0x118>
    80002ef4:	00200793          	addi	x15,x0,2
    80002ef8:	00100713          	addi	x14,x0,1
    80002efc:	04200593          	addi	x11,x0,66
    80002f00:	00171713          	slli	x14,x14,0x1
    80002f04:	0017879b          	addiw	x15,x15,1
    80002f08:	00e676b3          	and	x13,x12,x14
    80002f0c:	00b78463          	beq	x15,x11,80002f14 <main+0x40>
    80002f10:	fe0688e3          	beq	x13,x0,80002f00 <main+0x2c>
    80002f14:	00004717          	auipc	x14,0x4
    80002f18:	0ec70713          	addi	x14,x14,236 # 80007000 <scratch>
    80002f1c:	00c75713          	srli	x14,x14,0xc
    80002f20:	00002517          	auipc	x10,0x2
    80002f24:	0e050513          	addi	x10,x10,224 # 80005000 <l2pt>
    80002f28:	00001817          	auipc	x16,0x1
    80002f2c:	0d880813          	addi	x16,x16,216 # 80004000 <l3pt>
    80002f30:	00a71713          	slli	x14,x14,0xa
    80002f34:	00100593          	addi	x11,x0,1
    80002f38:	00f595b3          	sll	x11,x11,x15
    80002f3c:	00c55613          	srli	x12,x10,0xc
    80002f40:	0c776793          	ori	x15,x14,199
    80002f44:	00c85693          	srli	x13,x16,0xc
    80002f48:	00003897          	auipc	x17,0x3
    80002f4c:	0b888893          	addi	x17,x17,184 # 80006000 <l1pt>
    80002f50:	00a69693          	slli	x13,x13,0xa
    80002f54:	00f83423          	sd	x15,8(x16)
    80002f58:	00a61613          	slli	x12,x12,0xa
    80002f5c:	fff00793          	addi	x15,x0,-1
    80002f60:	0016e713          	ori	x14,x13,1
    80002f64:	00166613          	ori	x12,x12,1
    80002f68:	00c8d693          	srli	x13,x17,0xc
    80002f6c:	03f79793          	slli	x15,x15,0x3f
    80002f70:	00000317          	auipc	x6,0x0
    80002f74:	58b32e23          	sw	x11,1436(x6) # 8000350c <granule>
    80002f78:	00c8b023          	sd	x12,0(x17)
    80002f7c:	00e53023          	sd	x14,0(x10)
    80002f80:	00f6e7b3          	or	x15,x13,x15
    80002f84:	18079073          	csrrw	x0,satp,x15
    80002f88:	fff00793          	addi	x15,x0,-1
    80002f8c:	3b279073          	csrrw	x0,pmpaddr2,x15
    80002f90:	001907b7          	lui	x15,0x190
    80002f94:	3a079073          	csrrw	x0,pmpcfg0,x15
    80002f98:	00001537          	lui	x10,0x1
    80002f9c:	c4cff0ef          	jal	x1,800023e8 <exhaustive_test.constprop.0>
    80002fa0:	00002537          	lui	x10,0x2
    80002fa4:	fe050513          	addi	x10,x10,-32 # 1fe0 <buflen.1+0x1fa0>
    80002fa8:	c40ff0ef          	jal	x1,800023e8 <exhaustive_test.constprop.0>
    80002fac:	000015b7          	lui	x11,0x1
    80002fb0:	00001537          	lui	x10,0x1
    80002fb4:	84cff0ef          	jal	x1,80002000 <test_range>
    80002fb8:	000015b7          	lui	x11,0x1
    80002fbc:	80058593          	addi	x11,x11,-2048 # 800 <buflen.1+0x7c0>
    80002fc0:	00001537          	lui	x10,0x1
    80002fc4:	83cff0ef          	jal	x1,80002000 <test_range>
    80002fc8:	000015b7          	lui	x11,0x1
    80002fcc:	00002537          	lui	x10,0x2
    80002fd0:	80050513          	addi	x10,x10,-2048 # 1800 <buflen.1+0x17c0>
    80002fd4:	80058593          	addi	x11,x11,-2048 # 800 <buflen.1+0x7c0>
    80002fd8:	828ff0ef          	jal	x1,80002000 <test_range>
    80002fdc:	00813083          	ld	x1,8(x2)
    80002fe0:	00000513          	addi	x10,x0,0
    80002fe4:	01010113          	addi	x2,x2,16
    80002fe8:	00008067          	jalr	x0,0(x1)
    80002fec:	00200793          	addi	x15,x0,2
    80002ff0:	f25ff06f          	jal	x0,80002f14 <main+0x40>
    80002ff4:	ff010113          	addi	x2,x2,-16
    80002ff8:	00000517          	auipc	x10,0x0
    80002ffc:	39850513          	addi	x10,x10,920 # 80003390 <main+0x4bc>
    80003000:	00113423          	sd	x1,8(x2)
    80003004:	a31ff0ef          	jal	x1,80002a34 <printstr>
    80003008:	00813083          	ld	x1,8(x2)
    8000300c:	fff00513          	addi	x10,x0,-1
    80003010:	01010113          	addi	x2,x2,16
    80003014:	00008067          	jalr	x0,0(x1)
