
./spmv.riscv:     file format elf64-littleriscv


Disassembly of section .text.init:

0000000080000000 <_start>:
    80000000:	00000093          	addi	x1,x0,0
    80000004:	00000113          	addi	x2,x0,0
    80000008:	00000193          	addi	x3,x0,0
    8000000c:	00000213          	addi	x4,x0,0
    80000010:	00000293          	addi	x5,x0,0
    80000014:	00000313          	addi	x6,x0,0
    80000018:	00000393          	addi	x7,x0,0
    8000001c:	00000413          	addi	x8,x0,0
    80000020:	00000493          	addi	x9,x0,0
    80000024:	00000513          	addi	x10,x0,0
    80000028:	00000593          	addi	x11,x0,0
    8000002c:	00000613          	addi	x12,x0,0
    80000030:	00000693          	addi	x13,x0,0
    80000034:	00000713          	addi	x14,x0,0
    80000038:	00000793          	addi	x15,x0,0
    8000003c:	00000813          	addi	x16,x0,0
    80000040:	00000893          	addi	x17,x0,0
    80000044:	00000913          	addi	x18,x0,0
    80000048:	00000993          	addi	x19,x0,0
    8000004c:	00000a13          	addi	x20,x0,0
    80000050:	00000a93          	addi	x21,x0,0
    80000054:	00000b13          	addi	x22,x0,0
    80000058:	00000b93          	addi	x23,x0,0
    8000005c:	00000c13          	addi	x24,x0,0
    80000060:	00000c93          	addi	x25,x0,0
    80000064:	00000d13          	addi	x26,x0,0
    80000068:	00000d93          	addi	x27,x0,0
    8000006c:	00000e13          	addi	x28,x0,0
    80000070:	00000e93          	addi	x29,x0,0
    80000074:	00000f13          	addi	x30,x0,0
    80000078:	00000f93          	addi	x31,x0,0
    8000007c:	0001e2b7          	lui	x5,0x1e
    80000080:	3002a073          	csrrs	x0,mstatus,x5
    80000084:	00100293          	addi	x5,x0,1
    80000088:	01f29293          	slli	x5,x5,0x1f
    8000008c:	0002da63          	bge	x5,x0,800000a0 <_start+0xa0>
    80000090:	00100513          	addi	x10,x0,1
    80000094:	00001297          	auipc	x5,0x1
    80000098:	f6a2a623          	sw	x10,-148(x5) # 80001000 <tohost>
    8000009c:	ff5ff06f          	jal	x0,80000090 <_start+0x90>
    800000a0:	00000297          	auipc	x5,0x0
    800000a4:	04028293          	addi	x5,x5,64 # 800000e0 <trap_entry>
    800000a8:	30529073          	csrrw	x0,mtvec,x5
    800000ac:	0000e197          	auipc	x3,0xe
    800000b0:	d6c18193          	addi	x3,x3,-660 # 8000de18 <__global_pointer$>
    800000b4:	86718213          	addi	x4,x3,-1945 # 8000d67f <_end+0x3f>
    800000b8:	fc027213          	andi	x4,x4,-64
    800000bc:	f1402573          	csrrs	x10,mhartid,x0
    800000c0:	00100593          	addi	x11,x0,1
    800000c4:	00b57063          	bgeu	x10,x11,800000c4 <_start+0xc4>
    800000c8:	00150113          	addi	x2,x10,1
    800000cc:	01111113          	slli	x2,x2,0x11
    800000d0:	00410133          	add	x2,x2,x4
    800000d4:	01151613          	slli	x12,x10,0x11
    800000d8:	00c20233          	add	x4,x4,x12
    800000dc:	1610206f          	jal	x0,80002a3c <_init>

00000000800000e0 <trap_entry>:
    800000e0:	ef010113          	addi	x2,x2,-272
    800000e4:	00113423          	sd	x1,8(x2)
    800000e8:	00213823          	sd	x2,16(x2)
    800000ec:	00313c23          	sd	x3,24(x2)
    800000f0:	02413023          	sd	x4,32(x2)
    800000f4:	02513423          	sd	x5,40(x2)
    800000f8:	02613823          	sd	x6,48(x2)
    800000fc:	02713c23          	sd	x7,56(x2)
    80000100:	04813023          	sd	x8,64(x2)
    80000104:	04913423          	sd	x9,72(x2)
    80000108:	04a13823          	sd	x10,80(x2)
    8000010c:	04b13c23          	sd	x11,88(x2)
    80000110:	06c13023          	sd	x12,96(x2)
    80000114:	06d13423          	sd	x13,104(x2)
    80000118:	06e13823          	sd	x14,112(x2)
    8000011c:	06f13c23          	sd	x15,120(x2)
    80000120:	09013023          	sd	x16,128(x2)
    80000124:	09113423          	sd	x17,136(x2)
    80000128:	09213823          	sd	x18,144(x2)
    8000012c:	09313c23          	sd	x19,152(x2)
    80000130:	0b413023          	sd	x20,160(x2)
    80000134:	0b513423          	sd	x21,168(x2)
    80000138:	0b613823          	sd	x22,176(x2)
    8000013c:	0b713c23          	sd	x23,184(x2)
    80000140:	0d813023          	sd	x24,192(x2)
    80000144:	0d913423          	sd	x25,200(x2)
    80000148:	0da13823          	sd	x26,208(x2)
    8000014c:	0db13c23          	sd	x27,216(x2)
    80000150:	0fc13023          	sd	x28,224(x2)
    80000154:	0fd13423          	sd	x29,232(x2)
    80000158:	0fe13823          	sd	x30,240(x2)
    8000015c:	0ff13c23          	sd	x31,248(x2)
    80000160:	34202573          	csrrs	x10,mcause,x0
    80000164:	341025f3          	csrrs	x11,mepc,x0
    80000168:	00010613          	addi	x12,x2,0
    8000016c:	638020ef          	jal	x1,800027a4 <handle_trap>
    80000170:	34151073          	csrrw	x0,mepc,x10
    80000174:	000022b7          	lui	x5,0x2
    80000178:	8002829b          	addiw	x5,x5,-2048 # 1800 <buflen.1+0x17c0>
    8000017c:	3002a073          	csrrs	x0,mstatus,x5
    80000180:	00813083          	ld	x1,8(x2)
    80000184:	01013103          	ld	x2,16(x2)
    80000188:	01813183          	ld	x3,24(x2)
    8000018c:	02013203          	ld	x4,32(x2)
    80000190:	02813283          	ld	x5,40(x2)
    80000194:	03013303          	ld	x6,48(x2)
    80000198:	03813383          	ld	x7,56(x2)
    8000019c:	04013403          	ld	x8,64(x2)
    800001a0:	04813483          	ld	x9,72(x2)
    800001a4:	05013503          	ld	x10,80(x2)
    800001a8:	05813583          	ld	x11,88(x2)
    800001ac:	06013603          	ld	x12,96(x2)
    800001b0:	06813683          	ld	x13,104(x2)
    800001b4:	07013703          	ld	x14,112(x2)
    800001b8:	07813783          	ld	x15,120(x2)
    800001bc:	08013803          	ld	x16,128(x2)
    800001c0:	08813883          	ld	x17,136(x2)
    800001c4:	09013903          	ld	x18,144(x2)
    800001c8:	09813983          	ld	x19,152(x2)
    800001cc:	0a013a03          	ld	x20,160(x2)
    800001d0:	0a813a83          	ld	x21,168(x2)
    800001d4:	0b013b03          	ld	x22,176(x2)
    800001d8:	0b813b83          	ld	x23,184(x2)
    800001dc:	0c013c03          	ld	x24,192(x2)
    800001e0:	0c813c83          	ld	x25,200(x2)
    800001e4:	0d013d03          	ld	x26,208(x2)
    800001e8:	0d813d83          	ld	x27,216(x2)
    800001ec:	0e013e03          	ld	x28,224(x2)
    800001f0:	0e813e83          	ld	x29,232(x2)
    800001f4:	0f013f03          	ld	x30,240(x2)
    800001f8:	0f813f83          	ld	x31,248(x2)
    800001fc:	11010113          	addi	x2,x2,272
    80000200:	30200073          	mret

Disassembly of section .text:

0000000080002000 <spmv>:
    80002000:	f6010113          	addi	x2,x2,-160
    80002004:	08113c23          	sd	x1,152(x2)
    80002008:	00b13423          	sd	x11,8(x2)
    8000200c:	00c13823          	sd	x12,16(x2)
    80002010:	24a05063          	bge	x0,x10,80002250 <spmv+0x250>
    80002014:	00251513          	slli	x10,x10,0x2
    80002018:	05a13023          	sd	x26,64(x2)
    8000201c:	03b13c23          	sd	x27,56(x2)
    80002020:	00070d13          	addi	x26,x14,0
    80002024:	00078d93          	addi	x27,x15,0
    80002028:	00a70733          	add	x14,x14,x10
    8000202c:	02058793          	addi	x15,x11,32
    80002030:	07313c23          	sd	x19,120(x2)
    80002034:	08813823          	sd	x8,144(x2)
    80002038:	08913423          	sd	x9,136(x2)
    8000203c:	09213023          	sd	x18,128(x2)
    80002040:	07413823          	sd	x20,112(x2)
    80002044:	07513423          	sd	x21,104(x2)
    80002048:	07613023          	sd	x22,96(x2)
    8000204c:	05713c23          	sd	x23,88(x2)
    80002050:	05813823          	sd	x24,80(x2)
    80002054:	05913423          	sd	x25,72(x2)
    80002058:	00068993          	addi	x19,x13,0
    8000205c:	02e13023          	sd	x14,32(x2)
    80002060:	02f13423          	sd	x15,40(x2)
    80002064:	004d2c03          	lw	x24,4(x26)
    80002068:	000d2a03          	lw	x20,0(x26)
    8000206c:	ffdc079b          	addiw	x15,x24,-3
    80002070:	1efa5663          	bge	x20,x15,8000225c <spmv+0x25c>
    80002074:	00813703          	ld	x14,8(x2)
    80002078:	ffcc079b          	addiw	x15,x24,-4
    8000207c:	414787bb          	subw	x15,x15,x20
    80002080:	0027dc9b          	srliw	x25,x15,0x2
    80002084:	003a1493          	slli	x9,x20,0x3
    80002088:	0027d79b          	srliw	x15,x15,0x2
    8000208c:	002c9c93          	slli	x25,x25,0x2
    80002090:	009704b3          	add	x9,x14,x9
    80002094:	00f12e23          	sw	x15,28(x2)
    80002098:	01013703          	ld	x14,16(x2)
    8000209c:	02813783          	ld	x15,40(x2)
    800020a0:	014c8cb3          	add	x25,x25,x20
    800020a4:	00000a93          	addi	x21,x0,0
    800020a8:	002a1913          	slli	x18,x20,0x2
    800020ac:	003c9c93          	slli	x25,x25,0x3
    800020b0:	01270933          	add	x18,x14,x18
    800020b4:	00fc8cb3          	add	x25,x25,x15
    800020b8:	000a8b93          	addi	x23,x21,0
    800020bc:	000a8b13          	addi	x22,x21,0
    800020c0:	000a8413          	addi	x8,x21,0
    800020c4:	00092783          	lw	x15,0(x18)
    800020c8:	0004b583          	ld	x11,0(x9)
    800020cc:	02048493          	addi	x9,x9,32
    800020d0:	00379793          	slli	x15,x15,0x3
    800020d4:	00f987b3          	add	x15,x19,x15
    800020d8:	0007b503          	ld	x10,0(x15)
    800020dc:	01090913          	addi	x18,x18,16
    800020e0:	0f8010ef          	jal	x1,800031d8 <__muldf3>
    800020e4:	00050593          	addi	x11,x10,0
    800020e8:	00040513          	addi	x10,x8,0
    800020ec:	385000ef          	jal	x1,80002c70 <__adddf3>
    800020f0:	ff492783          	lw	x15,-12(x18)
    800020f4:	fe84b583          	ld	x11,-24(x9)
    800020f8:	00050413          	addi	x8,x10,0
    800020fc:	00379793          	slli	x15,x15,0x3
    80002100:	00f987b3          	add	x15,x19,x15
    80002104:	0007b503          	ld	x10,0(x15)
    80002108:	0d0010ef          	jal	x1,800031d8 <__muldf3>
    8000210c:	00050593          	addi	x11,x10,0
    80002110:	000b0513          	addi	x10,x22,0
    80002114:	35d000ef          	jal	x1,80002c70 <__adddf3>
    80002118:	ff892783          	lw	x15,-8(x18)
    8000211c:	ff04b583          	ld	x11,-16(x9)
    80002120:	00050b13          	addi	x22,x10,0
    80002124:	00379793          	slli	x15,x15,0x3
    80002128:	00f987b3          	add	x15,x19,x15
    8000212c:	0007b503          	ld	x10,0(x15)
    80002130:	0a8010ef          	jal	x1,800031d8 <__muldf3>
    80002134:	00050593          	addi	x11,x10,0
    80002138:	000b8513          	addi	x10,x23,0
    8000213c:	335000ef          	jal	x1,80002c70 <__adddf3>
    80002140:	ffc92783          	lw	x15,-4(x18)
    80002144:	ff84b583          	ld	x11,-8(x9)
    80002148:	00050b93          	addi	x23,x10,0
    8000214c:	00379793          	slli	x15,x15,0x3
    80002150:	00f987b3          	add	x15,x19,x15
    80002154:	0007b503          	ld	x10,0(x15)
    80002158:	080010ef          	jal	x1,800031d8 <__muldf3>
    8000215c:	00050593          	addi	x11,x10,0
    80002160:	000a8513          	addi	x10,x21,0
    80002164:	30d000ef          	jal	x1,80002c70 <__adddf3>
    80002168:	00050a93          	addi	x21,x10,0
    8000216c:	f49c9ce3          	bne	x25,x9,800020c4 <spmv+0xc4>
    80002170:	01c12783          	lw	x15,28(x2)
    80002174:	000b8593          	addi	x11,x23,0
    80002178:	004a0a1b          	addiw	x20,x20,4
    8000217c:	0027979b          	slliw	x15,x15,0x2
    80002180:	000b0513          	addi	x10,x22,0
    80002184:	01478a3b          	addw	x20,x15,x20
    80002188:	2e9000ef          	jal	x1,80002c70 <__adddf3>
    8000218c:	000a8593          	addi	x11,x21,0
    80002190:	2e1000ef          	jal	x1,80002c70 <__adddf3>
    80002194:	00050493          	addi	x9,x10,0
    80002198:	078a5463          	bge	x20,x24,80002200 <spmv+0x200>
    8000219c:	414c093b          	subw	x18,x24,x20
    800021a0:	02091913          	slli	x18,x18,0x20
    800021a4:	00813783          	ld	x15,8(x2)
    800021a8:	01013703          	ld	x14,16(x2)
    800021ac:	02095913          	srli	x18,x18,0x20
    800021b0:	01490933          	add	x18,x18,x20
    800021b4:	003a1a93          	slli	x21,x20,0x3
    800021b8:	00391913          	slli	x18,x18,0x3
    800021bc:	002a1a13          	slli	x20,x20,0x2
    800021c0:	01578ab3          	add	x21,x15,x21
    800021c4:	01470a33          	add	x20,x14,x20
    800021c8:	01278933          	add	x18,x15,x18
    800021cc:	000a2783          	lw	x15,0(x20)
    800021d0:	000ab583          	ld	x11,0(x21)
    800021d4:	008a8a93          	addi	x21,x21,8
    800021d8:	00379793          	slli	x15,x15,0x3
    800021dc:	00f987b3          	add	x15,x19,x15
    800021e0:	0007b503          	ld	x10,0(x15)
    800021e4:	004a0a13          	addi	x20,x20,4
    800021e8:	7f1000ef          	jal	x1,800031d8 <__muldf3>
    800021ec:	00050593          	addi	x11,x10,0
    800021f0:	00040513          	addi	x10,x8,0
    800021f4:	27d000ef          	jal	x1,80002c70 <__adddf3>
    800021f8:	00050413          	addi	x8,x10,0
    800021fc:	fd5918e3          	bne	x18,x21,800021cc <spmv+0x1cc>
    80002200:	00048593          	addi	x11,x9,0
    80002204:	00040513          	addi	x10,x8,0
    80002208:	269000ef          	jal	x1,80002c70 <__adddf3>
    8000220c:	02013783          	ld	x15,32(x2)
    80002210:	00adb023          	sd	x10,0(x27)
    80002214:	004d0d13          	addi	x26,x26,4
    80002218:	008d8d93          	addi	x27,x27,8
    8000221c:	e5a794e3          	bne	x15,x26,80002064 <spmv+0x64>
    80002220:	09013403          	ld	x8,144(x2)
    80002224:	08813483          	ld	x9,136(x2)
    80002228:	08013903          	ld	x18,128(x2)
    8000222c:	07813983          	ld	x19,120(x2)
    80002230:	07013a03          	ld	x20,112(x2)
    80002234:	06813a83          	ld	x21,104(x2)
    80002238:	06013b03          	ld	x22,96(x2)
    8000223c:	05813b83          	ld	x23,88(x2)
    80002240:	05013c03          	ld	x24,80(x2)
    80002244:	04813c83          	ld	x25,72(x2)
    80002248:	04013d03          	ld	x26,64(x2)
    8000224c:	03813d83          	ld	x27,56(x2)
    80002250:	09813083          	ld	x1,152(x2)
    80002254:	0a010113          	addi	x2,x2,160
    80002258:	00008067          	jalr	x0,0(x1)
    8000225c:	00000493          	addi	x9,x0,0
    80002260:	00048413          	addi	x8,x9,0
    80002264:	f35ff06f          	jal	x0,80002198 <spmv+0x198>

0000000080002268 <vprintfmt>:
    80002268:	e9010113          	addi	x2,x2,-368
    8000226c:	16813023          	sd	x8,352(x2)
    80002270:	14913c23          	sd	x9,344(x2)
    80002274:	15213823          	sd	x18,336(x2)
    80002278:	15413023          	sd	x20,320(x2)
    8000227c:	13513c23          	sd	x21,312(x2)
    80002280:	13613823          	sd	x22,304(x2)
    80002284:	13713423          	sd	x23,296(x2)
    80002288:	16113423          	sd	x1,360(x2)
    8000228c:	15313423          	sd	x19,328(x2)
    80002290:	13813023          	sd	x24,288(x2)
    80002294:	11913c23          	sd	x25,280(x2)
    80002298:	11b13423          	sd	x27,264(x2)
    8000229c:	00050913          	addi	x18,x10,0
    800022a0:	00058493          	addi	x9,x11,0
    800022a4:	00060413          	addi	x8,x12,0
    800022a8:	00068b93          	addi	x23,x13,0
    800022ac:	02500a13          	addi	x20,x0,37
    800022b0:	05500b13          	addi	x22,x0,85
    800022b4:	0000ba97          	auipc	x21,0xb
    800022b8:	ca4a8a93          	addi	x21,x21,-860 # 8000cf58 <val+0x4af8>
    800022bc:	0140006f          	jal	x0,800022d0 <vprintfmt+0x68>
    800022c0:	04050c63          	beq	x10,x0,80002318 <vprintfmt+0xb0>
    800022c4:	00048593          	addi	x11,x9,0
    800022c8:	00140413          	addi	x8,x8,1
    800022cc:	000900e7          	jalr	x1,0(x18)
    800022d0:	00044503          	lbu	x10,0(x8)
    800022d4:	ff4516e3          	bne	x10,x20,800022c0 <vprintfmt+0x58>
    800022d8:	00144683          	lbu	x13,1(x8)
    800022dc:	00140993          	addi	x19,x8,1
    800022e0:	00098713          	addi	x14,x19,0
    800022e4:	02000c93          	addi	x25,x0,32
    800022e8:	fff00c13          	addi	x24,x0,-1
    800022ec:	fff00d93          	addi	x27,x0,-1
    800022f0:	00000593          	addi	x11,x0,0
    800022f4:	fdd6879b          	addiw	x15,x13,-35
    800022f8:	0ff7f793          	andi	x15,x15,255
    800022fc:	00170413          	addi	x8,x14,1
    80002300:	06fb6663          	bltu	x22,x15,8000236c <vprintfmt+0x104>
    80002304:	00279793          	slli	x15,x15,0x2
    80002308:	015787b3          	add	x15,x15,x21
    8000230c:	0007a783          	lw	x15,0(x15)
    80002310:	015787b3          	add	x15,x15,x21
    80002314:	00078067          	jalr	x0,0(x15)
    80002318:	16813083          	ld	x1,360(x2)
    8000231c:	16013403          	ld	x8,352(x2)
    80002320:	15813483          	ld	x9,344(x2)
    80002324:	15013903          	ld	x18,336(x2)
    80002328:	14813983          	ld	x19,328(x2)
    8000232c:	14013a03          	ld	x20,320(x2)
    80002330:	13813a83          	ld	x21,312(x2)
    80002334:	13013b03          	ld	x22,304(x2)
    80002338:	12813b83          	ld	x23,296(x2)
    8000233c:	12013c03          	ld	x24,288(x2)
    80002340:	11813c83          	ld	x25,280(x2)
    80002344:	10813d83          	ld	x27,264(x2)
    80002348:	17010113          	addi	x2,x2,368
    8000234c:	00008067          	jalr	x0,0(x1)
    80002350:	00068c93          	addi	x25,x13,0
    80002354:	00174683          	lbu	x13,1(x14)
    80002358:	00040713          	addi	x14,x8,0
    8000235c:	00170413          	addi	x8,x14,1
    80002360:	fdd6879b          	addiw	x15,x13,-35
    80002364:	0ff7f793          	andi	x15,x15,255
    80002368:	f8fb7ee3          	bgeu	x22,x15,80002304 <vprintfmt+0x9c>
    8000236c:	00048593          	addi	x11,x9,0
    80002370:	02500513          	addi	x10,x0,37
    80002374:	000900e7          	jalr	x1,0(x18)
    80002378:	00098413          	addi	x8,x19,0
    8000237c:	f55ff06f          	jal	x0,800022d0 <vprintfmt+0x68>
    80002380:	fd068c1b          	addiw	x24,x13,-48
    80002384:	00174683          	lbu	x13,1(x14)
    80002388:	00900793          	addi	x15,x0,9
    8000238c:	fd06871b          	addiw	x14,x13,-48
    80002390:	0006861b          	addiw	x12,x13,0
    80002394:	2ee7e663          	bltu	x15,x14,80002680 <vprintfmt+0x418>
    80002398:	00040713          	addi	x14,x8,0
    8000239c:	00900813          	addi	x16,x0,9
    800023a0:	00174683          	lbu	x13,1(x14)
    800023a4:	002c179b          	slliw	x15,x24,0x2
    800023a8:	018787bb          	addw	x15,x15,x24
    800023ac:	0017979b          	slliw	x15,x15,0x1
    800023b0:	00c787bb          	addw	x15,x15,x12
    800023b4:	fd06851b          	addiw	x10,x13,-48
    800023b8:	00170713          	addi	x14,x14,1
    800023bc:	fd078c1b          	addiw	x24,x15,-48
    800023c0:	0006861b          	addiw	x12,x13,0
    800023c4:	fca87ee3          	bgeu	x16,x10,800023a0 <vprintfmt+0x138>
    800023c8:	f20dd6e3          	bge	x27,x0,800022f4 <vprintfmt+0x8c>
    800023cc:	000c0d93          	addi	x27,x24,0
    800023d0:	fff00c13          	addi	x24,x0,-1
    800023d4:	f21ff06f          	jal	x0,800022f4 <vprintfmt+0x8c>
    800023d8:	00174683          	lbu	x13,1(x14)
    800023dc:	00040713          	addi	x14,x8,0
    800023e0:	f15ff06f          	jal	x0,800022f4 <vprintfmt+0x8c>
    800023e4:	00048593          	addi	x11,x9,0
    800023e8:	02500513          	addi	x10,x0,37
    800023ec:	000900e7          	jalr	x1,0(x18)
    800023f0:	ee1ff06f          	jal	x0,800022d0 <vprintfmt+0x68>
    800023f4:	000bac03          	lw	x24,0(x23)
    800023f8:	00174683          	lbu	x13,1(x14)
    800023fc:	008b8b93          	addi	x23,x23,8
    80002400:	00040713          	addi	x14,x8,0
    80002404:	fc5ff06f          	jal	x0,800023c8 <vprintfmt+0x160>
    80002408:	00048593          	addi	x11,x9,0
    8000240c:	03000513          	addi	x10,x0,48
    80002410:	11a13823          	sd	x26,272(x2)
    80002414:	000900e7          	jalr	x1,0(x18)
    80002418:	00048593          	addi	x11,x9,0
    8000241c:	07800513          	addi	x10,x0,120
    80002420:	000900e7          	jalr	x1,0(x18)
    80002424:	01000613          	addi	x12,x0,16
    80002428:	008b8713          	addi	x14,x23,8
    8000242c:	000bb783          	ld	x15,0(x23)
    80002430:	00070b93          	addi	x23,x14,0
    80002434:	02c7f5b3          	remu	x11,x15,x12
    80002438:	000c899b          	addiw	x19,x25,0
    8000243c:	00410693          	addi	x13,x2,4
    80002440:	00100713          	addi	x14,x0,1
    80002444:	00b12023          	sw	x11,0(x2)
    80002448:	1ec7ea63          	bltu	x15,x12,8000263c <vprintfmt+0x3d4>
    8000244c:	02c7d7b3          	divu	x15,x15,x12
    80002450:	00468693          	addi	x13,x13,4
    80002454:	00070c13          	addi	x24,x14,0
    80002458:	0017071b          	addiw	x14,x14,1
    8000245c:	02c7f5b3          	remu	x11,x15,x12
    80002460:	feb6ae23          	sw	x11,-4(x13)
    80002464:	fec7f4e3          	bgeu	x15,x12,8000244c <vprintfmt+0x1e4>
    80002468:	fffd8c9b          	addiw	x25,x27,-1
    8000246c:	fff70d1b          	addiw	x26,x14,-1
    80002470:	01b75c63          	bge	x14,x27,80002488 <vprintfmt+0x220>
    80002474:	00048593          	addi	x11,x9,0
    80002478:	00098513          	addi	x10,x19,0
    8000247c:	fffc8c9b          	addiw	x25,x25,-1
    80002480:	000900e7          	jalr	x1,0(x18)
    80002484:	ffac98e3          	bne	x25,x26,80002474 <vprintfmt+0x20c>
    80002488:	002c1c13          	slli	x24,x24,0x2
    8000248c:	018109b3          	add	x19,x2,x24
    80002490:	ffc10c93          	addi	x25,x2,-4
    80002494:	00900c13          	addi	x24,x0,9
    80002498:	0009a783          	lw	x15,0(x19)
    8000249c:	03000513          	addi	x10,x0,48
    800024a0:	00fc7463          	bgeu	x24,x15,800024a8 <vprintfmt+0x240>
    800024a4:	05700513          	addi	x10,x0,87
    800024a8:	00048593          	addi	x11,x9,0
    800024ac:	00a7853b          	addw	x10,x15,x10
    800024b0:	ffc98993          	addi	x19,x19,-4
    800024b4:	000900e7          	jalr	x1,0(x18)
    800024b8:	ff9990e3          	bne	x19,x25,80002498 <vprintfmt+0x230>
    800024bc:	11013d03          	ld	x26,272(x2)
    800024c0:	e11ff06f          	jal	x0,800022d0 <vprintfmt+0x68>
    800024c4:	11a13823          	sd	x26,272(x2)
    800024c8:	00100793          	addi	x15,x0,1
    800024cc:	008b8c13          	addi	x24,x23,8
    800024d0:	00b7c463          	blt	x15,x11,800024d8 <vprintfmt+0x270>
    800024d4:	16058863          	beq	x11,x0,80002644 <vprintfmt+0x3dc>
    800024d8:	000bb983          	ld	x19,0(x23)
    800024dc:	1809c463          	blt	x19,x0,80002664 <vprintfmt+0x3fc>
    800024e0:	00098793          	addi	x15,x19,0
    800024e4:	000c0b93          	addi	x23,x24,0
    800024e8:	00a00613          	addi	x12,x0,10
    800024ec:	f49ff06f          	jal	x0,80002434 <vprintfmt+0x1cc>
    800024f0:	00174683          	lbu	x13,1(x14)
    800024f4:	0015859b          	addiw	x11,x11,1
    800024f8:	00040713          	addi	x14,x8,0
    800024fc:	df9ff06f          	jal	x0,800022f4 <vprintfmt+0x8c>
    80002500:	11a13823          	sd	x26,272(x2)
    80002504:	01000613          	addi	x12,x0,16
    80002508:	00100793          	addi	x15,x0,1
    8000250c:	008b8713          	addi	x14,x23,8
    80002510:	f0b7cee3          	blt	x15,x11,8000242c <vprintfmt+0x1c4>
    80002514:	f0059ce3          	bne	x11,x0,8000242c <vprintfmt+0x1c4>
    80002518:	000be783          	lwu	x15,0(x23)
    8000251c:	00070b93          	addi	x23,x14,0
    80002520:	f15ff06f          	jal	x0,80002434 <vprintfmt+0x1cc>
    80002524:	11a13823          	sd	x26,272(x2)
    80002528:	000bbd03          	ld	x26,0(x23)
    8000252c:	008b8b93          	addi	x23,x23,8
    80002530:	060d0063          	beq	x26,x0,80002590 <vprintfmt+0x328>
    80002534:	0db05463          	bge	x0,x27,800025fc <vprintfmt+0x394>
    80002538:	02d00793          	addi	x15,x0,45
    8000253c:	06fc9c63          	bne	x25,x15,800025b4 <vprintfmt+0x34c>
    80002540:	000d4503          	lbu	x10,0(x26)
    80002544:	02050863          	beq	x10,x0,80002574 <vprintfmt+0x30c>
    80002548:	fff00993          	addi	x19,x0,-1
    8000254c:	000c4663          	blt	x24,x0,80002558 <vprintfmt+0x2f0>
    80002550:	fffc0c1b          	addiw	x24,x24,-1
    80002554:	013c0e63          	beq	x24,x19,80002570 <vprintfmt+0x308>
    80002558:	00048593          	addi	x11,x9,0
    8000255c:	000900e7          	jalr	x1,0(x18)
    80002560:	001d4503          	lbu	x10,1(x26)
    80002564:	fffd8d9b          	addiw	x27,x27,-1
    80002568:	001d0d13          	addi	x26,x26,1
    8000256c:	fe0510e3          	bne	x10,x0,8000254c <vprintfmt+0x2e4>
    80002570:	f5b056e3          	bge	x0,x27,800024bc <vprintfmt+0x254>
    80002574:	00048593          	addi	x11,x9,0
    80002578:	02000513          	addi	x10,x0,32
    8000257c:	fffd8d9b          	addiw	x27,x27,-1
    80002580:	000900e7          	jalr	x1,0(x18)
    80002584:	fe0d98e3          	bne	x27,x0,80002574 <vprintfmt+0x30c>
    80002588:	11013d03          	ld	x26,272(x2)
    8000258c:	d45ff06f          	jal	x0,800022d0 <vprintfmt+0x68>
    80002590:	0000bd17          	auipc	x26,0xb
    80002594:	018d0d13          	addi	x26,x26,24 # 8000d5a8 <__clz_tab+0x4f8>
    80002598:	02800513          	addi	x10,x0,40
    8000259c:	fbb056e3          	bge	x0,x27,80002548 <vprintfmt+0x2e0>
    800025a0:	02d00793          	addi	x15,x0,45
    800025a4:	0000bd17          	auipc	x26,0xb
    800025a8:	004d0d13          	addi	x26,x26,4 # 8000d5a8 <__clz_tab+0x4f8>
    800025ac:	02800513          	addi	x10,x0,40
    800025b0:	f8fc8ce3          	beq	x25,x15,80002548 <vprintfmt+0x2e0>
    800025b4:	000d861b          	addiw	x12,x27,0
    800025b8:	000d0793          	addi	x15,x26,0
    800025bc:	018d06b3          	add	x13,x26,x24
    800025c0:	000c1863          	bne	x24,x0,800025d0 <vprintfmt+0x368>
    800025c4:	0200006f          	jal	x0,800025e4 <vprintfmt+0x37c>
    800025c8:	00178793          	addi	x15,x15,1
    800025cc:	00d78663          	beq	x15,x13,800025d8 <vprintfmt+0x370>
    800025d0:	0007c703          	lbu	x14,0(x15)
    800025d4:	fe071ae3          	bne	x14,x0,800025c8 <vprintfmt+0x360>
    800025d8:	41a787b3          	sub	x15,x15,x26
    800025dc:	40f60dbb          	subw	x27,x12,x15
    800025e0:	01b05e63          	bge	x0,x27,800025fc <vprintfmt+0x394>
    800025e4:	000c8c9b          	addiw	x25,x25,0
    800025e8:	00048593          	addi	x11,x9,0
    800025ec:	000c8513          	addi	x10,x25,0
    800025f0:	fffd8d9b          	addiw	x27,x27,-1
    800025f4:	000900e7          	jalr	x1,0(x18)
    800025f8:	fe0d98e3          	bne	x27,x0,800025e8 <vprintfmt+0x380>
    800025fc:	000d4503          	lbu	x10,0(x26)
    80002600:	ea050ee3          	beq	x10,x0,800024bc <vprintfmt+0x254>
    80002604:	fff00993          	addi	x19,x0,-1
    80002608:	f45ff06f          	jal	x0,8000254c <vprintfmt+0x2e4>
    8000260c:	fffdc793          	xori	x15,x27,-1
    80002610:	43f7d793          	srai	x15,x15,0x3f
    80002614:	00fdf7b3          	and	x15,x27,x15
    80002618:	00174683          	lbu	x13,1(x14)
    8000261c:	00078d9b          	addiw	x27,x15,0
    80002620:	00040713          	addi	x14,x8,0
    80002624:	cd1ff06f          	jal	x0,800022f4 <vprintfmt+0x8c>
    80002628:	000ba503          	lw	x10,0(x23)
    8000262c:	00048593          	addi	x11,x9,0
    80002630:	008b8b93          	addi	x23,x23,8
    80002634:	000900e7          	jalr	x1,0(x18)
    80002638:	c99ff06f          	jal	x0,800022d0 <vprintfmt+0x68>
    8000263c:	00000c13          	addi	x24,x0,0
    80002640:	e29ff06f          	jal	x0,80002468 <vprintfmt+0x200>
    80002644:	000ba983          	lw	x19,0(x23)
    80002648:	e95ff06f          	jal	x0,800024dc <vprintfmt+0x274>
    8000264c:	11a13823          	sd	x26,272(x2)
    80002650:	00a00613          	addi	x12,x0,10
    80002654:	eb5ff06f          	jal	x0,80002508 <vprintfmt+0x2a0>
    80002658:	11a13823          	sd	x26,272(x2)
    8000265c:	00800613          	addi	x12,x0,8
    80002660:	ea9ff06f          	jal	x0,80002508 <vprintfmt+0x2a0>
    80002664:	00048593          	addi	x11,x9,0
    80002668:	02d00513          	addi	x10,x0,45
    8000266c:	000900e7          	jalr	x1,0(x18)
    80002670:	413007b3          	sub	x15,x0,x19
    80002674:	000c0b93          	addi	x23,x24,0
    80002678:	00a00613          	addi	x12,x0,10
    8000267c:	db9ff06f          	jal	x0,80002434 <vprintfmt+0x1cc>
    80002680:	00040713          	addi	x14,x8,0
    80002684:	d45ff06f          	jal	x0,800023c8 <vprintfmt+0x160>

0000000080002688 <sprintf_putch.0>:
    80002688:	0005b783          	ld	x15,0(x11)
    8000268c:	00a78023          	sb	x10,0(x15)
    80002690:	0005b783          	ld	x15,0(x11)
    80002694:	00178793          	addi	x15,x15,1
    80002698:	00f5b023          	sd	x15,0(x11)
    8000269c:	00008067          	jalr	x0,0(x1)

00000000800026a0 <putchar>:
    800026a0:	04022803          	lw	x16,64(x4) # 40 <buflen.1>
    800026a4:	00020793          	addi	x15,x4,0 # 0 <buf.2>
    800026a8:	010787b3          	add	x15,x15,x16
    800026ac:	f9010113          	addi	x2,x2,-112
    800026b0:	0018069b          	addiw	x13,x16,1
    800026b4:	04d22023          	sw	x13,64(x4) # 40 <buflen.1>
    800026b8:	00a78023          	sb	x10,0(x15)
    800026bc:	03f10713          	addi	x14,x2,63
    800026c0:	00a00793          	addi	x15,x0,10
    800026c4:	fc077713          	andi	x14,x14,-64
    800026c8:	00f50c63          	beq	x10,x15,800026e0 <putchar+0x40>
    800026cc:	04000793          	addi	x15,x0,64
    800026d0:	00f68863          	beq	x13,x15,800026e0 <putchar+0x40>
    800026d4:	00000513          	addi	x10,x0,0
    800026d8:	07010113          	addi	x2,x2,112
    800026dc:	00008067          	jalr	x0,0(x1)
    800026e0:	04000793          	addi	x15,x0,64
    800026e4:	00f73023          	sd	x15,0(x14)
    800026e8:	00100793          	addi	x15,x0,1
    800026ec:	00f73423          	sd	x15,8(x14)
    800026f0:	00020613          	addi	x12,x4,0 # 0 <buf.2>
    800026f4:	00c73823          	sd	x12,16(x14)
    800026f8:	00d73c23          	sd	x13,24(x14)
    800026fc:	0ff0000f          	fence	iorw,iorw
    80002700:	fffff697          	auipc	x13,0xfffff
    80002704:	94068693          	addi	x13,x13,-1728 # 80001040 <fromhost>
    80002708:	fffff797          	auipc	x15,0xfffff
    8000270c:	8ee7bc23          	sd	x14,-1800(x15) # 80001000 <tohost>
    80002710:	0006b783          	ld	x15,0(x13)
    80002714:	fe078ee3          	beq	x15,x0,80002710 <putchar+0x70>
    80002718:	fffff797          	auipc	x15,0xfffff
    8000271c:	9207b423          	sd	x0,-1752(x15) # 80001040 <fromhost>
    80002720:	0ff0000f          	fence	iorw,iorw
    80002724:	04022023          	sw	x0,64(x4) # 40 <buflen.1>
    80002728:	00073783          	ld	x15,0(x14)
    8000272c:	00000513          	addi	x10,x0,0
    80002730:	07010113          	addi	x2,x2,112
    80002734:	00008067          	jalr	x0,0(x1)

0000000080002738 <setStats>:
    80002738:	b0002773          	csrrs	x14,mcycle,x0
    8000273c:	0000b797          	auipc	x15,0xb
    80002740:	edc78793          	addi	x15,x15,-292 # 8000d618 <counters>
    80002744:	00050a63          	beq	x10,x0,80002758 <setStats+0x20>
    80002748:	00e7b023          	sd	x14,0(x15)
    8000274c:	b0202773          	csrrs	x14,minstret,x0
    80002750:	00e7b423          	sd	x14,8(x15)
    80002754:	00008067          	jalr	x0,0(x1)
    80002758:	0007b683          	ld	x13,0(x15)
    8000275c:	0000b617          	auipc	x12,0xb
    80002760:	e5c60613          	addi	x12,x12,-420 # 8000d5b8 <__clz_tab+0x508>
    80002764:	00c7b823          	sd	x12,16(x15)
    80002768:	40d70733          	sub	x14,x14,x13
    8000276c:	00e7b023          	sd	x14,0(x15)
    80002770:	b0202773          	csrrs	x14,minstret,x0
    80002774:	0087b683          	ld	x13,8(x15)
    80002778:	0000b617          	auipc	x12,0xb
    8000277c:	e4860613          	addi	x12,x12,-440 # 8000d5c0 <__clz_tab+0x510>
    80002780:	00c7bc23          	sd	x12,24(x15)
    80002784:	40d70733          	sub	x14,x14,x13
    80002788:	00e7b423          	sd	x14,8(x15)
    8000278c:	00008067          	jalr	x0,0(x1)

0000000080002790 <tohost_exit>:
    80002790:	00151793          	slli	x15,x10,0x1
    80002794:	0017e793          	ori	x15,x15,1
    80002798:	fffff717          	auipc	x14,0xfffff
    8000279c:	86f73423          	sd	x15,-1944(x14) # 80001000 <tohost>
    800027a0:	0000006f          	jal	x0,800027a0 <tohost_exit+0x10>

00000000800027a4 <handle_trap>:
    800027a4:	000017b7          	lui	x15,0x1
    800027a8:	a7378793          	addi	x15,x15,-1421 # a73 <buflen.1+0xa33>
    800027ac:	fffff717          	auipc	x14,0xfffff
    800027b0:	84f73a23          	sd	x15,-1964(x14) # 80001000 <tohost>
    800027b4:	0000006f          	jal	x0,800027b4 <handle_trap+0x10>

00000000800027b8 <exit>:
    800027b8:	ff010113          	addi	x2,x2,-16
    800027bc:	00113423          	sd	x1,8(x2)
    800027c0:	fd1ff0ef          	jal	x1,80002790 <tohost_exit>

00000000800027c4 <abort>:
    800027c4:	10d00793          	addi	x15,x0,269
    800027c8:	fffff717          	auipc	x14,0xfffff
    800027cc:	82f73c23          	sd	x15,-1992(x14) # 80001000 <tohost>
    800027d0:	0000006f          	jal	x0,800027d0 <abort+0xc>

00000000800027d4 <printstr>:
    800027d4:	00054783          	lbu	x15,0(x10)
    800027d8:	f9010113          	addi	x2,x2,-112
    800027dc:	03f10693          	addi	x13,x2,63
    800027e0:	fc06f693          	andi	x13,x13,-64
    800027e4:	06078263          	beq	x15,x0,80002848 <printstr+0x74>
    800027e8:	00050793          	addi	x15,x10,0
    800027ec:	0017c703          	lbu	x14,1(x15)
    800027f0:	00178793          	addi	x15,x15,1
    800027f4:	fe071ce3          	bne	x14,x0,800027ec <printstr+0x18>
    800027f8:	40a787b3          	sub	x15,x15,x10
    800027fc:	04000713          	addi	x14,x0,64
    80002800:	00e6b023          	sd	x14,0(x13)
    80002804:	00100713          	addi	x14,x0,1
    80002808:	00e6b423          	sd	x14,8(x13)
    8000280c:	00a6b823          	sd	x10,16(x13)
    80002810:	00f6bc23          	sd	x15,24(x13)
    80002814:	0ff0000f          	fence	iorw,iorw
    80002818:	fffff717          	auipc	x14,0xfffff
    8000281c:	82870713          	addi	x14,x14,-2008 # 80001040 <fromhost>
    80002820:	ffffe797          	auipc	x15,0xffffe
    80002824:	7ed7b023          	sd	x13,2016(x15) # 80001000 <tohost>
    80002828:	00073783          	ld	x15,0(x14)
    8000282c:	fe078ee3          	beq	x15,x0,80002828 <printstr+0x54>
    80002830:	fffff797          	auipc	x15,0xfffff
    80002834:	8007b823          	sd	x0,-2032(x15) # 80001040 <fromhost>
    80002838:	0ff0000f          	fence	iorw,iorw
    8000283c:	0006b783          	ld	x15,0(x13)
    80002840:	07010113          	addi	x2,x2,112
    80002844:	00008067          	jalr	x0,0(x1)
    80002848:	00000793          	addi	x15,x0,0
    8000284c:	fb1ff06f          	jal	x0,800027fc <printstr+0x28>

0000000080002850 <thread_entry>:
    80002850:	00050463          	beq	x10,x0,80002858 <thread_entry+0x8>
    80002854:	0000006f          	jal	x0,80002854 <thread_entry+0x4>
    80002858:	00008067          	jalr	x0,0(x1)

000000008000285c <printhex>:
    8000285c:	fd010113          	addi	x2,x2,-48
    80002860:	00050793          	addi	x15,x10,0
    80002864:	02113423          	sd	x1,40(x2)
    80002868:	00810513          	addi	x10,x2,8
    8000286c:	01710713          	addi	x14,x2,23
    80002870:	00900813          	addi	x16,x0,9
    80002874:	0080006f          	jal	x0,8000287c <printhex+0x20>
    80002878:	00068713          	addi	x14,x13,0
    8000287c:	00f7f613          	andi	x12,x15,15
    80002880:	00060693          	addi	x13,x12,0
    80002884:	03000593          	addi	x11,x0,48
    80002888:	00c87463          	bgeu	x16,x12,80002890 <printhex+0x34>
    8000288c:	05700593          	addi	x11,x0,87
    80002890:	00b686bb          	addw	x13,x13,x11
    80002894:	00d70023          	sb	x13,0(x14)
    80002898:	0047d793          	srli	x15,x15,0x4
    8000289c:	fff70693          	addi	x13,x14,-1
    800028a0:	fce51ce3          	bne	x10,x14,80002878 <printhex+0x1c>
    800028a4:	00010c23          	sb	x0,24(x2)
    800028a8:	f2dff0ef          	jal	x1,800027d4 <printstr>
    800028ac:	02813083          	ld	x1,40(x2)
    800028b0:	03010113          	addi	x2,x2,48
    800028b4:	00008067          	jalr	x0,0(x1)

00000000800028b8 <printf>:
    800028b8:	fa010113          	addi	x2,x2,-96
    800028bc:	02810313          	addi	x6,x2,40
    800028c0:	02b13423          	sd	x11,40(x2)
    800028c4:	02c13823          	sd	x12,48(x2)
    800028c8:	02d13c23          	sd	x13,56(x2)
    800028cc:	00050613          	addi	x12,x10,0
    800028d0:	00030693          	addi	x13,x6,0
    800028d4:	00000517          	auipc	x10,0x0
    800028d8:	dcc50513          	addi	x10,x10,-564 # 800026a0 <putchar>
    800028dc:	00000593          	addi	x11,x0,0
    800028e0:	00113c23          	sd	x1,24(x2)
    800028e4:	04e13023          	sd	x14,64(x2)
    800028e8:	04f13423          	sd	x15,72(x2)
    800028ec:	05013823          	sd	x16,80(x2)
    800028f0:	05113c23          	sd	x17,88(x2)
    800028f4:	00613423          	sd	x6,8(x2)
    800028f8:	971ff0ef          	jal	x1,80002268 <vprintfmt>
    800028fc:	01813083          	ld	x1,24(x2)
    80002900:	00000513          	addi	x10,x0,0
    80002904:	06010113          	addi	x2,x2,96
    80002908:	00008067          	jalr	x0,0(x1)

000000008000290c <sprintf>:
    8000290c:	fa010113          	addi	x2,x2,-96
    80002910:	03010e13          	addi	x28,x2,48
    80002914:	02813023          	sd	x8,32(x2)
    80002918:	00a13423          	sd	x10,8(x2)
    8000291c:	00050413          	addi	x8,x10,0
    80002920:	02c13823          	sd	x12,48(x2)
    80002924:	02d13c23          	sd	x13,56(x2)
    80002928:	00058613          	addi	x12,x11,0
    8000292c:	00000517          	auipc	x10,0x0
    80002930:	d5c50513          	addi	x10,x10,-676 # 80002688 <sprintf_putch.0>
    80002934:	00810593          	addi	x11,x2,8
    80002938:	000e0693          	addi	x13,x28,0
    8000293c:	02113423          	sd	x1,40(x2)
    80002940:	04f13423          	sd	x15,72(x2)
    80002944:	04e13023          	sd	x14,64(x2)
    80002948:	05013823          	sd	x16,80(x2)
    8000294c:	05113c23          	sd	x17,88(x2)
    80002950:	01c13c23          	sd	x28,24(x2)
    80002954:	915ff0ef          	jal	x1,80002268 <vprintfmt>
    80002958:	00813783          	ld	x15,8(x2)
    8000295c:	00078023          	sb	x0,0(x15)
    80002960:	00813503          	ld	x10,8(x2)
    80002964:	02813083          	ld	x1,40(x2)
    80002968:	4085053b          	subw	x10,x10,x8
    8000296c:	02013403          	ld	x8,32(x2)
    80002970:	06010113          	addi	x2,x2,96
    80002974:	00008067          	jalr	x0,0(x1)

0000000080002978 <memcpy>:
    80002978:	00c5e7b3          	or	x15,x11,x12
    8000297c:	00f567b3          	or	x15,x10,x15
    80002980:	0077f793          	andi	x15,x15,7
    80002984:	00c506b3          	add	x13,x10,x12
    80002988:	02078463          	beq	x15,x0,800029b0 <memcpy+0x38>
    8000298c:	00c58633          	add	x12,x11,x12
    80002990:	00050793          	addi	x15,x10,0
    80002994:	02d57e63          	bgeu	x10,x13,800029d0 <memcpy+0x58>
    80002998:	0005c703          	lbu	x14,0(x11)
    8000299c:	00158593          	addi	x11,x11,1
    800029a0:	00178793          	addi	x15,x15,1
    800029a4:	fee78fa3          	sb	x14,-1(x15)
    800029a8:	feb618e3          	bne	x12,x11,80002998 <memcpy+0x20>
    800029ac:	00008067          	jalr	x0,0(x1)
    800029b0:	fed57ee3          	bgeu	x10,x13,800029ac <memcpy+0x34>
    800029b4:	00050793          	addi	x15,x10,0
    800029b8:	0005b703          	ld	x14,0(x11)
    800029bc:	00878793          	addi	x15,x15,8
    800029c0:	00858593          	addi	x11,x11,8
    800029c4:	fee7bc23          	sd	x14,-8(x15)
    800029c8:	fed7e8e3          	bltu	x15,x13,800029b8 <memcpy+0x40>
    800029cc:	00008067          	jalr	x0,0(x1)
    800029d0:	00008067          	jalr	x0,0(x1)

00000000800029d4 <memset>:
    800029d4:	00c567b3          	or	x15,x10,x12
    800029d8:	0077f793          	andi	x15,x15,7
    800029dc:	00c50633          	add	x12,x10,x12
    800029e0:	02078063          	beq	x15,x0,80002a00 <memset+0x2c>
    800029e4:	0ff5f713          	andi	x14,x11,255
    800029e8:	00050793          	addi	x15,x10,0
    800029ec:	04c57663          	bgeu	x10,x12,80002a38 <memset+0x64>
    800029f0:	00178793          	addi	x15,x15,1
    800029f4:	fee78fa3          	sb	x14,-1(x15)
    800029f8:	fec79ce3          	bne	x15,x12,800029f0 <memset+0x1c>
    800029fc:	00008067          	jalr	x0,0(x1)
    80002a00:	010107b7          	lui	x15,0x1010
    80002a04:	10178793          	addi	x15,x15,257 # 1010101 <buflen.1+0x10100c1>
    80002a08:	01079793          	slli	x15,x15,0x10
    80002a0c:	10178793          	addi	x15,x15,257
    80002a10:	01079793          	slli	x15,x15,0x10
    80002a14:	0ff5f713          	andi	x14,x11,255
    80002a18:	10178793          	addi	x15,x15,257
    80002a1c:	02f70733          	mul	x14,x14,x15
    80002a20:	fcc57ee3          	bgeu	x10,x12,800029fc <memset+0x28>
    80002a24:	00050793          	addi	x15,x10,0
    80002a28:	00878793          	addi	x15,x15,8
    80002a2c:	fee7bc23          	sd	x14,-8(x15)
    80002a30:	fec7ece3          	bltu	x15,x12,80002a28 <memset+0x54>
    80002a34:	00008067          	jalr	x0,0(x1)
    80002a38:	00008067          	jalr	x0,0(x1)

0000000080002a3c <_init>:
    80002a3c:	f5010113          	addi	x2,x2,-176
    80002a40:	0000b797          	auipc	x15,0xb
    80002a44:	bf878793          	addi	x15,x15,-1032 # 8000d638 <_tdata_begin>
    80002a48:	09413023          	sd	x20,128(x2)
    80002a4c:	0000ba17          	auipc	x20,0xb
    80002a50:	beca0a13          	addi	x20,x20,-1044 # 8000d638 <_tdata_begin>
    80002a54:	09313423          	sd	x19,136(x2)
    80002a58:	40fa09b3          	sub	x19,x20,x15
    80002a5c:	08913c23          	sd	x9,152(x2)
    80002a60:	09213823          	sd	x18,144(x2)
    80002a64:	00050493          	addi	x9,x10,0
    80002a68:	00058913          	addi	x18,x11,0
    80002a6c:	00020513          	addi	x10,x4,0 # 0 <buf.2>
    80002a70:	00078593          	addi	x11,x15,0
    80002a74:	00098613          	addi	x12,x19,0
    80002a78:	0a113423          	sd	x1,168(x2)
    80002a7c:	0a813023          	sd	x8,160(x2)
    80002a80:	07513c23          	sd	x21,120(x2)
    80002a84:	00020a93          	addi	x21,x4,0 # 0 <buf.2>
    80002a88:	ef1ff0ef          	jal	x1,80002978 <memcpy>
    80002a8c:	86c18613          	addi	x12,x3,-1940 # 8000d684 <_tbss_end>
    80002a90:	41460633          	sub	x12,x12,x20
    80002a94:	00000593          	addi	x11,x0,0
    80002a98:	013a8533          	add	x10,x21,x19
    80002a9c:	f39ff0ef          	jal	x1,800029d4 <memset>
    80002aa0:	00090593          	addi	x11,x18,0
    80002aa4:	00048513          	addi	x10,x9,0
    80002aa8:	da9ff0ef          	jal	x1,80002850 <thread_entry>
    80002aac:	00000593          	addi	x11,x0,0
    80002ab0:	00000513          	addi	x10,x0,0
    80002ab4:	3b5000ef          	jal	x1,80003668 <main>
    80002ab8:	0000b917          	auipc	x18,0xb
    80002abc:	b6090913          	addi	x18,x18,-1184 # 8000d618 <counters>
    80002ac0:	00093683          	ld	x13,0(x18)
    80002ac4:	03f10413          	addi	x8,x2,63
    80002ac8:	fc047413          	andi	x8,x8,-64
    80002acc:	00050493          	addi	x9,x10,0
    80002ad0:	04069063          	bne	x13,x0,80002b10 <_init+0xd4>
    80002ad4:	00893683          	ld	x13,8(x18)
    80002ad8:	00069663          	bne	x13,x0,80002ae4 <_init+0xa8>
    80002adc:	00048513          	addi	x10,x9,0
    80002ae0:	cb1ff0ef          	jal	x1,80002790 <tohost_exit>
    80002ae4:	00040993          	addi	x19,x8,0
    80002ae8:	01893603          	ld	x12,24(x18)
    80002aec:	00098513          	addi	x10,x19,0
    80002af0:	0000b597          	auipc	x11,0xb
    80002af4:	af858593          	addi	x11,x11,-1288 # 8000d5e8 <__clz_tab+0x538>
    80002af8:	e15ff0ef          	jal	x1,8000290c <sprintf>
    80002afc:	00a989b3          	add	x19,x19,x10
    80002b00:	fd340ee3          	beq	x8,x19,80002adc <_init+0xa0>
    80002b04:	00040513          	addi	x10,x8,0
    80002b08:	ccdff0ef          	jal	x1,800027d4 <printstr>
    80002b0c:	fd1ff06f          	jal	x0,80002adc <_init+0xa0>
    80002b10:	01093603          	ld	x12,16(x18)
    80002b14:	0000b597          	auipc	x11,0xb
    80002b18:	ad458593          	addi	x11,x11,-1324 # 8000d5e8 <__clz_tab+0x538>
    80002b1c:	00040513          	addi	x10,x8,0
    80002b20:	dedff0ef          	jal	x1,8000290c <sprintf>
    80002b24:	00893683          	ld	x13,8(x18)
    80002b28:	00a409b3          	add	x19,x8,x10
    80002b2c:	fc068ae3          	beq	x13,x0,80002b00 <_init+0xc4>
    80002b30:	fb9ff06f          	jal	x0,80002ae8 <_init+0xac>

0000000080002b34 <strlen>:
    80002b34:	00054783          	lbu	x15,0(x10)
    80002b38:	00078e63          	beq	x15,x0,80002b54 <strlen+0x20>
    80002b3c:	00050793          	addi	x15,x10,0
    80002b40:	0017c703          	lbu	x14,1(x15)
    80002b44:	00178793          	addi	x15,x15,1
    80002b48:	fe071ce3          	bne	x14,x0,80002b40 <strlen+0xc>
    80002b4c:	40a78533          	sub	x10,x15,x10
    80002b50:	00008067          	jalr	x0,0(x1)
    80002b54:	00000513          	addi	x10,x0,0
    80002b58:	00008067          	jalr	x0,0(x1)

0000000080002b5c <strnlen>:
    80002b5c:	00b506b3          	add	x13,x10,x11
    80002b60:	00050793          	addi	x15,x10,0
    80002b64:	00059863          	bne	x11,x0,80002b74 <strnlen+0x18>
    80002b68:	0240006f          	jal	x0,80002b8c <strnlen+0x30>
    80002b6c:	00178793          	addi	x15,x15,1
    80002b70:	00f68a63          	beq	x13,x15,80002b84 <strnlen+0x28>
    80002b74:	0007c703          	lbu	x14,0(x15)
    80002b78:	fe071ae3          	bne	x14,x0,80002b6c <strnlen+0x10>
    80002b7c:	40a78533          	sub	x10,x15,x10
    80002b80:	00008067          	jalr	x0,0(x1)
    80002b84:	40a68533          	sub	x10,x13,x10
    80002b88:	00008067          	jalr	x0,0(x1)
    80002b8c:	00000513          	addi	x10,x0,0
    80002b90:	00008067          	jalr	x0,0(x1)

0000000080002b94 <strcmp>:
    80002b94:	00054783          	lbu	x15,0(x10)
    80002b98:	00158593          	addi	x11,x11,1
    80002b9c:	00150513          	addi	x10,x10,1
    80002ba0:	fff5c703          	lbu	x14,-1(x11)
    80002ba4:	00078a63          	beq	x15,x0,80002bb8 <strcmp+0x24>
    80002ba8:	fee786e3          	beq	x15,x14,80002b94 <strcmp>
    80002bac:	0007851b          	addiw	x10,x15,0
    80002bb0:	40e5053b          	subw	x10,x10,x14
    80002bb4:	00008067          	jalr	x0,0(x1)
    80002bb8:	00000513          	addi	x10,x0,0
    80002bbc:	ff5ff06f          	jal	x0,80002bb0 <strcmp+0x1c>

0000000080002bc0 <strcpy>:
    80002bc0:	00050793          	addi	x15,x10,0
    80002bc4:	0005c703          	lbu	x14,0(x11)
    80002bc8:	00178793          	addi	x15,x15,1
    80002bcc:	00158593          	addi	x11,x11,1
    80002bd0:	fee78fa3          	sb	x14,-1(x15)
    80002bd4:	fe0718e3          	bne	x14,x0,80002bc4 <strcpy+0x4>
    80002bd8:	00008067          	jalr	x0,0(x1)

0000000080002bdc <atol>:
    80002bdc:	00054703          	lbu	x14,0(x10)
    80002be0:	02000693          	addi	x13,x0,32
    80002be4:	00050793          	addi	x15,x10,0
    80002be8:	00d71863          	bne	x14,x13,80002bf8 <atol+0x1c>
    80002bec:	0017c703          	lbu	x14,1(x15)
    80002bf0:	00178793          	addi	x15,x15,1
    80002bf4:	fed70ce3          	beq	x14,x13,80002bec <atol+0x10>
    80002bf8:	02d00693          	addi	x13,x0,45
    80002bfc:	04d70e63          	beq	x14,x13,80002c58 <atol+0x7c>
    80002c00:	02b00693          	addi	x13,x0,43
    80002c04:	04d70063          	beq	x14,x13,80002c44 <atol+0x68>
    80002c08:	0007c683          	lbu	x13,0(x15)
    80002c0c:	00000593          	addi	x11,x0,0
    80002c10:	04068c63          	beq	x13,x0,80002c68 <atol+0x8c>
    80002c14:	00000513          	addi	x10,x0,0
    80002c18:	00178793          	addi	x15,x15,1
    80002c1c:	00251713          	slli	x14,x10,0x2
    80002c20:	fd06861b          	addiw	x12,x13,-48
    80002c24:	0007c683          	lbu	x13,0(x15)
    80002c28:	00a70733          	add	x14,x14,x10
    80002c2c:	00171713          	slli	x14,x14,0x1
    80002c30:	00e60533          	add	x10,x12,x14
    80002c34:	fe0692e3          	bne	x13,x0,80002c18 <atol+0x3c>
    80002c38:	02058a63          	beq	x11,x0,80002c6c <atol+0x90>
    80002c3c:	40a00533          	sub	x10,x0,x10
    80002c40:	00008067          	jalr	x0,0(x1)
    80002c44:	0017c683          	lbu	x13,1(x15)
    80002c48:	00178793          	addi	x15,x15,1
    80002c4c:	00068e63          	beq	x13,x0,80002c68 <atol+0x8c>
    80002c50:	00000593          	addi	x11,x0,0
    80002c54:	fc1ff06f          	jal	x0,80002c14 <atol+0x38>
    80002c58:	0017c683          	lbu	x13,1(x15)
    80002c5c:	00100593          	addi	x11,x0,1
    80002c60:	00178793          	addi	x15,x15,1
    80002c64:	fa0698e3          	bne	x13,x0,80002c14 <atol+0x38>
    80002c68:	00000513          	addi	x10,x0,0
    80002c6c:	00008067          	jalr	x0,0(x1)

0000000080002c70 <__adddf3>:
    80002c70:	fff00713          	addi	x14,x0,-1
    80002c74:	fe010113          	addi	x2,x2,-32
    80002c78:	00c75713          	srli	x14,x14,0xc
    80002c7c:	00a776b3          	and	x13,x14,x10
    80002c80:	00b77e33          	and	x28,x14,x11
    80002c84:	0345d613          	srli	x12,x11,0x34
    80002c88:	00813823          	sd	x8,16(x2)
    80002c8c:	00913423          	sd	x9,8(x2)
    80002c90:	03455413          	srli	x8,x10,0x34
    80002c94:	03f55493          	srli	x9,x10,0x3f
    80002c98:	00113c23          	sd	x1,24(x2)
    80002c9c:	03f5d593          	srli	x11,x11,0x3f
    80002ca0:	00068793          	addi	x15,x13,0
    80002ca4:	7ff47413          	andi	x8,x8,2047
    80002ca8:	00048893          	addi	x17,x9,0
    80002cac:	00369813          	slli	x16,x13,0x3
    80002cb0:	7ff67513          	andi	x10,x12,2047
    80002cb4:	003e1313          	slli	x6,x28,0x3
    80002cb8:	14b48863          	beq	x9,x11,80002e08 <__adddf3+0x198>
    80002cbc:	40a40ebb          	subw	x29,x8,x10
    80002cc0:	000e861b          	addiw	x12,x29,0
    80002cc4:	10c05263          	bge	x0,x12,80002dc8 <__adddf3+0x158>
    80002cc8:	16050a63          	beq	x10,x0,80002e3c <__adddf3+0x1cc>
    80002ccc:	7ff00793          	addi	x15,x0,2047
    80002cd0:	12f40063          	beq	x8,x15,80002df0 <__adddf3+0x180>
    80002cd4:	00100793          	addi	x15,x0,1
    80002cd8:	03779793          	slli	x15,x15,0x37
    80002cdc:	00f36333          	or	x6,x6,x15
    80002ce0:	03800713          	addi	x14,x0,56
    80002ce4:	00100793          	addi	x15,x0,1
    80002ce8:	00c74e63          	blt	x14,x12,80002d04 <__adddf3+0x94>
    80002cec:	04000793          	addi	x15,x0,64
    80002cf0:	40c787bb          	subw	x15,x15,x12
    80002cf4:	00f317b3          	sll	x15,x6,x15
    80002cf8:	00c35633          	srl	x12,x6,x12
    80002cfc:	00f037b3          	sltu	x15,x0,x15
    80002d00:	00f667b3          	or	x15,x12,x15
    80002d04:	40f80833          	sub	x16,x16,x15
    80002d08:	00881793          	slli	x15,x16,0x8
    80002d0c:	1e07d463          	bge	x15,x0,80002ef4 <__adddf3+0x284>
    80002d10:	01213023          	sd	x18,0(x2)
    80002d14:	00981913          	slli	x18,x16,0x9
    80002d18:	00995913          	srli	x18,x18,0x9
    80002d1c:	00090513          	addi	x10,x18,0
    80002d20:	0d9000ef          	jal	x1,800035f8 <__clzdi2>
    80002d24:	ff85079b          	addiw	x15,x10,-8
    80002d28:	00f91933          	sll	x18,x18,x15
    80002d2c:	2087c463          	blt	x15,x8,80002f34 <__adddf3+0x2c4>
    80002d30:	4087853b          	subw	x10,x15,x8
    80002d34:	0015051b          	addiw	x10,x10,1
    80002d38:	04000813          	addi	x16,x0,64
    80002d3c:	40a8083b          	subw	x16,x16,x10
    80002d40:	01091833          	sll	x16,x18,x16
    80002d44:	01003833          	sltu	x16,x0,x16
    80002d48:	00a95933          	srl	x18,x18,x10
    80002d4c:	01096833          	or	x16,x18,x16
    80002d50:	00013903          	ld	x18,0(x2)
    80002d54:	00000413          	addi	x8,x0,0
    80002d58:	00787793          	andi	x15,x16,7
    80002d5c:	00078a63          	beq	x15,x0,80002d70 <__adddf3+0x100>
    80002d60:	00f87793          	andi	x15,x16,15
    80002d64:	00400713          	addi	x14,x0,4
    80002d68:	00e78463          	beq	x15,x14,80002d70 <__adddf3+0x100>
    80002d6c:	00480813          	addi	x16,x16,4
    80002d70:	00881793          	slli	x15,x16,0x8
    80002d74:	1407da63          	bge	x15,x0,80002ec8 <__adddf3+0x258>
    80002d78:	00140413          	addi	x8,x8,1
    80002d7c:	7ff00793          	addi	x15,x0,2047
    80002d80:	00048893          	addi	x17,x9,0
    80002d84:	16f40263          	beq	x8,x15,80002ee8 <__adddf3+0x278>
    80002d88:	fff00793          	addi	x15,x0,-1
    80002d8c:	03779793          	slli	x15,x15,0x37
    80002d90:	fff78793          	addi	x15,x15,-1
    80002d94:	00f877b3          	and	x15,x16,x15
    80002d98:	7ff47513          	andi	x10,x8,2047
    80002d9c:	00979793          	slli	x15,x15,0x9
    80002da0:	00c7d793          	srli	x15,x15,0xc
    80002da4:	01813083          	ld	x1,24(x2)
    80002da8:	01013403          	ld	x8,16(x2)
    80002dac:	03451513          	slli	x10,x10,0x34
    80002db0:	00f56533          	or	x10,x10,x15
    80002db4:	03f89793          	slli	x15,x17,0x3f
    80002db8:	00813483          	ld	x9,8(x2)
    80002dbc:	00f56533          	or	x10,x10,x15
    80002dc0:	02010113          	addi	x2,x2,32
    80002dc4:	00008067          	jalr	x0,0(x1)
    80002dc8:	08060663          	beq	x12,x0,80002e54 <__adddf3+0x1e4>
    80002dcc:	1e041a63          	bne	x8,x0,80002fc0 <__adddf3+0x350>
    80002dd0:	0e080663          	beq	x16,x0,80002ebc <__adddf3+0x24c>
    80002dd4:	fffece93          	xori	x29,x29,-1
    80002dd8:	000e8e9b          	addiw	x29,x29,0
    80002ddc:	300e8263          	beq	x29,x0,800030e0 <__adddf3+0x470>
    80002de0:	7ff00793          	addi	x15,x0,2047
    80002de4:	1ef51a63          	bne	x10,x15,80002fd8 <__adddf3+0x368>
    80002de8:	00058493          	addi	x9,x11,0
    80002dec:	000e0693          	addi	x13,x28,0
    80002df0:	16068063          	beq	x13,x0,80002f50 <__adddf3+0x2e0>
    80002df4:	00100793          	addi	x15,x0,1
    80002df8:	00000893          	addi	x17,x0,0
    80002dfc:	7ff00513          	addi	x10,x0,2047
    80002e00:	03379793          	slli	x15,x15,0x33
    80002e04:	fa1ff06f          	jal	x0,80002da4 <__adddf3+0x134>
    80002e08:	40a405bb          	subw	x11,x8,x10
    80002e0c:	0005861b          	addiw	x12,x11,0
    80002e10:	0ec05863          	bge	x0,x12,80002f00 <__adddf3+0x290>
    80002e14:	08050863          	beq	x10,x0,80002ea4 <__adddf3+0x234>
    80002e18:	7ff00793          	addi	x15,x0,2047
    80002e1c:	fcf40ae3          	beq	x8,x15,80002df0 <__adddf3+0x180>
    80002e20:	00100793          	addi	x15,x0,1
    80002e24:	03779793          	slli	x15,x15,0x37
    80002e28:	00f36333          	or	x6,x6,x15
    80002e2c:	03800793          	addi	x15,x0,56
    80002e30:	1cc7de63          	bge	x15,x12,8000300c <__adddf3+0x39c>
    80002e34:	00180813          	addi	x16,x16,1
    80002e38:	f21ff06f          	jal	x0,80002d58 <__adddf3+0xe8>
    80002e3c:	08030663          	beq	x6,x0,80002ec8 <__adddf3+0x258>
    80002e40:	fffe861b          	addiw	x12,x29,-1
    80002e44:	26060263          	beq	x12,x0,800030a8 <__adddf3+0x438>
    80002e48:	7ff00793          	addi	x15,x0,2047
    80002e4c:	e8f41ae3          	bne	x8,x15,80002ce0 <__adddf3+0x70>
    80002e50:	fa1ff06f          	jal	x0,80002df0 <__adddf3+0x180>
    80002e54:	00140693          	addi	x13,x8,1
    80002e58:	7fe6f693          	andi	x13,x13,2046
    80002e5c:	12069e63          	bne	x13,x0,80002f98 <__adddf3+0x328>
    80002e60:	f8041ae3          	bne	x8,x0,80002df4 <__adddf3+0x184>
    80002e64:	28080663          	beq	x16,x0,800030f0 <__adddf3+0x480>
    80002e68:	00000513          	addi	x10,x0,0
    80002e6c:	f2030ce3          	beq	x6,x0,80002da4 <__adddf3+0x134>
    80002e70:	406807b3          	sub	x15,x16,x6
    80002e74:	00879693          	slli	x13,x15,0x8
    80002e78:	2c06d063          	bge	x13,x0,80003138 <__adddf3+0x4c8>
    80002e7c:	410307b3          	sub	x15,x6,x16
    80002e80:	00879693          	slli	x13,x15,0x8
    80002e84:	2c06d263          	bge	x13,x0,80003148 <__adddf3+0x4d8>
    80002e88:	fff00713          	addi	x14,x0,-1
    80002e8c:	03771713          	slli	x14,x14,0x37
    80002e90:	fff70713          	addi	x14,x14,-1
    80002e94:	00e7f7b3          	and	x15,x15,x14
    80002e98:	00058893          	addi	x17,x11,0
    80002e9c:	00100513          	addi	x10,x0,1
    80002ea0:	efdff06f          	jal	x0,80002d9c <__adddf3+0x12c>
    80002ea4:	02030263          	beq	x6,x0,80002ec8 <__adddf3+0x258>
    80002ea8:	fff5861b          	addiw	x12,x11,-1
    80002eac:	1e060a63          	beq	x12,x0,800030a0 <__adddf3+0x430>
    80002eb0:	7ff00793          	addi	x15,x0,2047
    80002eb4:	f6f41ce3          	bne	x8,x15,80002e2c <__adddf3+0x1bc>
    80002eb8:	f39ff06f          	jal	x0,80002df0 <__adddf3+0x180>
    80002ebc:	00050413          	addi	x8,x10,0
    80002ec0:	00058493          	addi	x9,x11,0
    80002ec4:	00030813          	addi	x16,x6,0
    80002ec8:	7ff00793          	addi	x15,x0,2047
    80002ecc:	00385693          	srli	x13,x16,0x3
    80002ed0:	f2f400e3          	beq	x8,x15,80002df0 <__adddf3+0x180>
    80002ed4:	00c69693          	slli	x13,x13,0xc
    80002ed8:	00c6d793          	srli	x15,x13,0xc
    80002edc:	7ff47513          	andi	x10,x8,2047
    80002ee0:	00048893          	addi	x17,x9,0
    80002ee4:	ec1ff06f          	jal	x0,80002da4 <__adddf3+0x134>
    80002ee8:	7ff00513          	addi	x10,x0,2047
    80002eec:	00000793          	addi	x15,x0,0
    80002ef0:	eb5ff06f          	jal	x0,80002da4 <__adddf3+0x134>
    80002ef4:	00787793          	andi	x15,x16,7
    80002ef8:	e60794e3          	bne	x15,x0,80002d60 <__adddf3+0xf0>
    80002efc:	fcdff06f          	jal	x0,80002ec8 <__adddf3+0x258>
    80002f00:	06060063          	beq	x12,x0,80002f60 <__adddf3+0x2f0>
    80002f04:	14040c63          	beq	x8,x0,8000305c <__adddf3+0x3ec>
    80002f08:	7ff00793          	addi	x15,x0,2047
    80002f0c:	eef500e3          	beq	x10,x15,80002dec <__adddf3+0x17c>
    80002f10:	00100793          	addi	x15,x0,1
    80002f14:	03779793          	slli	x15,x15,0x37
    80002f18:	40b005bb          	subw	x11,x0,x11
    80002f1c:	00f86833          	or	x16,x16,x15
    80002f20:	03800793          	addi	x15,x0,56
    80002f24:	18b7d663          	bge	x15,x11,800030b0 <__adddf3+0x440>
    80002f28:	00130813          	addi	x16,x6,1
    80002f2c:	00050413          	addi	x8,x10,0
    80002f30:	e29ff06f          	jal	x0,80002d58 <__adddf3+0xe8>
    80002f34:	fff00813          	addi	x16,x0,-1
    80002f38:	03781813          	slli	x16,x16,0x37
    80002f3c:	fff80813          	addi	x16,x16,-1
    80002f40:	01097833          	and	x16,x18,x16
    80002f44:	40f40433          	sub	x8,x8,x15
    80002f48:	00013903          	ld	x18,0(x2)
    80002f4c:	e0dff06f          	jal	x0,80002d58 <__adddf3+0xe8>
    80002f50:	00048893          	addi	x17,x9,0
    80002f54:	7ff00513          	addi	x10,x0,2047
    80002f58:	00000793          	addi	x15,x0,0
    80002f5c:	e49ff06f          	jal	x0,80002da4 <__adddf3+0x134>
    80002f60:	00140693          	addi	x13,x8,1
    80002f64:	7fe6f613          	andi	x12,x13,2046
    80002f68:	10061a63          	bne	x12,x0,8000307c <__adddf3+0x40c>
    80002f6c:	16041463          	bne	x8,x0,800030d4 <__adddf3+0x464>
    80002f70:	1a080063          	beq	x16,x0,80003110 <__adddf3+0x4a0>
    80002f74:	00000513          	addi	x10,x0,0
    80002f78:	e20306e3          	beq	x6,x0,80002da4 <__adddf3+0x134>
    80002f7c:	00680333          	add	x6,x16,x6
    80002f80:	00335793          	srli	x15,x6,0x3
    80002f84:	00831693          	slli	x13,x6,0x8
    80002f88:	00e7f7b3          	and	x15,x15,x14
    80002f8c:	e006dce3          	bge	x13,x0,80002da4 <__adddf3+0x134>
    80002f90:	00100513          	addi	x10,x0,1
    80002f94:	e11ff06f          	jal	x0,80002da4 <__adddf3+0x134>
    80002f98:	01213023          	sd	x18,0(x2)
    80002f9c:	40680933          	sub	x18,x16,x6
    80002fa0:	00891793          	slli	x15,x18,0x8
    80002fa4:	0e07c863          	blt	x15,x0,80003094 <__adddf3+0x424>
    80002fa8:	d6091ae3          	bne	x18,x0,80002d1c <__adddf3+0xac>
    80002fac:	00013903          	ld	x18,0(x2)
    80002fb0:	00000893          	addi	x17,x0,0
    80002fb4:	00000513          	addi	x10,x0,0
    80002fb8:	00000793          	addi	x15,x0,0
    80002fbc:	de9ff06f          	jal	x0,80002da4 <__adddf3+0x134>
    80002fc0:	7ff00793          	addi	x15,x0,2047
    80002fc4:	e2f502e3          	beq	x10,x15,80002de8 <__adddf3+0x178>
    80002fc8:	00100793          	addi	x15,x0,1
    80002fcc:	03779793          	slli	x15,x15,0x37
    80002fd0:	41d00ebb          	subw	x29,x0,x29
    80002fd4:	00f86833          	or	x16,x16,x15
    80002fd8:	03800713          	addi	x14,x0,56
    80002fdc:	00100793          	addi	x15,x0,1
    80002fe0:	01d74e63          	blt	x14,x29,80002ffc <__adddf3+0x38c>
    80002fe4:	04000793          	addi	x15,x0,64
    80002fe8:	41d787bb          	subw	x15,x15,x29
    80002fec:	00f817b3          	sll	x15,x16,x15
    80002ff0:	01d85eb3          	srl	x29,x16,x29
    80002ff4:	00f037b3          	sltu	x15,x0,x15
    80002ff8:	00fee7b3          	or	x15,x29,x15
    80002ffc:	40f30833          	sub	x16,x6,x15
    80003000:	00050413          	addi	x8,x10,0
    80003004:	00058493          	addi	x9,x11,0
    80003008:	d01ff06f          	jal	x0,80002d08 <__adddf3+0x98>
    8000300c:	04000793          	addi	x15,x0,64
    80003010:	40c787bb          	subw	x15,x15,x12
    80003014:	00f317b3          	sll	x15,x6,x15
    80003018:	00c35633          	srl	x12,x6,x12
    8000301c:	00f037b3          	sltu	x15,x0,x15
    80003020:	00f66633          	or	x12,x12,x15
    80003024:	00c80833          	add	x16,x16,x12
    80003028:	00881793          	slli	x15,x16,0x8
    8000302c:	ec07d4e3          	bge	x15,x0,80002ef4 <__adddf3+0x284>
    80003030:	00140413          	addi	x8,x8,1
    80003034:	7ff00793          	addi	x15,x0,2047
    80003038:	eaf408e3          	beq	x8,x15,80002ee8 <__adddf3+0x278>
    8000303c:	1ff00793          	addi	x15,x0,511
    80003040:	03679793          	slli	x15,x15,0x36
    80003044:	00185713          	srli	x14,x16,0x1
    80003048:	fff78793          	addi	x15,x15,-1
    8000304c:	00187813          	andi	x16,x16,1
    80003050:	00f777b3          	and	x15,x14,x15
    80003054:	0107e833          	or	x16,x15,x16
    80003058:	d01ff06f          	jal	x0,80002d58 <__adddf3+0xe8>
    8000305c:	0a080463          	beq	x16,x0,80003104 <__adddf3+0x494>
    80003060:	fff5c593          	xori	x11,x11,-1
    80003064:	0005859b          	addiw	x11,x11,0
    80003068:	0a058a63          	beq	x11,x0,8000311c <__adddf3+0x4ac>
    8000306c:	7ff00793          	addi	x15,x0,2047
    80003070:	eaf518e3          	bne	x10,x15,80002f20 <__adddf3+0x2b0>
    80003074:	000e0693          	addi	x13,x28,0
    80003078:	d79ff06f          	jal	x0,80002df0 <__adddf3+0x180>
    8000307c:	7ff00793          	addi	x15,x0,2047
    80003080:	e6f684e3          	beq	x13,x15,80002ee8 <__adddf3+0x278>
    80003084:	00680333          	add	x6,x16,x6
    80003088:	00135813          	srli	x16,x6,0x1
    8000308c:	00068413          	addi	x8,x13,0
    80003090:	cc9ff06f          	jal	x0,80002d58 <__adddf3+0xe8>
    80003094:	41030933          	sub	x18,x6,x16
    80003098:	00058493          	addi	x9,x11,0
    8000309c:	c81ff06f          	jal	x0,80002d1c <__adddf3+0xac>
    800030a0:	00680833          	add	x16,x16,x6
    800030a4:	f85ff06f          	jal	x0,80003028 <__adddf3+0x3b8>
    800030a8:	40680833          	sub	x16,x16,x6
    800030ac:	c5dff06f          	jal	x0,80002d08 <__adddf3+0x98>
    800030b0:	04000793          	addi	x15,x0,64
    800030b4:	40b787bb          	subw	x15,x15,x11
    800030b8:	00f817b3          	sll	x15,x16,x15
    800030bc:	00b855b3          	srl	x11,x16,x11
    800030c0:	00f037b3          	sltu	x15,x0,x15
    800030c4:	00f5e5b3          	or	x11,x11,x15
    800030c8:	00658833          	add	x16,x11,x6
    800030cc:	00050413          	addi	x8,x10,0
    800030d0:	f59ff06f          	jal	x0,80003028 <__adddf3+0x3b8>
    800030d4:	d20810e3          	bne	x16,x0,80002df4 <__adddf3+0x184>
    800030d8:	000e0693          	addi	x13,x28,0
    800030dc:	d15ff06f          	jal	x0,80002df0 <__adddf3+0x180>
    800030e0:	41030833          	sub	x16,x6,x16
    800030e4:	00050413          	addi	x8,x10,0
    800030e8:	00058493          	addi	x9,x11,0
    800030ec:	c1dff06f          	jal	x0,80002d08 <__adddf3+0x98>
    800030f0:	02030c63          	beq	x6,x0,80003128 <__adddf3+0x4b8>
    800030f4:	00058893          	addi	x17,x11,0
    800030f8:	000e0793          	addi	x15,x28,0
    800030fc:	00000513          	addi	x10,x0,0
    80003100:	ca5ff06f          	jal	x0,80002da4 <__adddf3+0x134>
    80003104:	00050413          	addi	x8,x10,0
    80003108:	00030813          	addi	x16,x6,0
    8000310c:	dbdff06f          	jal	x0,80002ec8 <__adddf3+0x258>
    80003110:	000e0793          	addi	x15,x28,0
    80003114:	00000513          	addi	x10,x0,0
    80003118:	c8dff06f          	jal	x0,80002da4 <__adddf3+0x134>
    8000311c:	00680833          	add	x16,x16,x6
    80003120:	00050413          	addi	x8,x10,0
    80003124:	f05ff06f          	jal	x0,80003028 <__adddf3+0x3b8>
    80003128:	00000893          	addi	x17,x0,0
    8000312c:	00000513          	addi	x10,x0,0
    80003130:	00000793          	addi	x15,x0,0
    80003134:	c71ff06f          	jal	x0,80002da4 <__adddf3+0x134>
    80003138:	02078063          	beq	x15,x0,80003158 <__adddf3+0x4e8>
    8000313c:	0037d793          	srli	x15,x15,0x3
    80003140:	00e7f7b3          	and	x15,x15,x14
    80003144:	c61ff06f          	jal	x0,80002da4 <__adddf3+0x134>
    80003148:	0037d793          	srli	x15,x15,0x3
    8000314c:	00e7f7b3          	and	x15,x15,x14
    80003150:	00058893          	addi	x17,x11,0
    80003154:	c51ff06f          	jal	x0,80002da4 <__adddf3+0x134>
    80003158:	00000893          	addi	x17,x0,0
    8000315c:	00000793          	addi	x15,x0,0
    80003160:	c45ff06f          	jal	x0,80002da4 <__adddf3+0x134>

0000000080003164 <__eqdf2>:
    80003164:	03455693          	srli	x13,x10,0x34
    80003168:	fff00713          	addi	x14,x0,-1
    8000316c:	00c75713          	srli	x14,x14,0xc
    80003170:	0345d613          	srli	x12,x11,0x34
    80003174:	7ff6f693          	andi	x13,x13,2047
    80003178:	7ff00813          	addi	x16,x0,2047
    8000317c:	00a778b3          	and	x17,x14,x10
    80003180:	03f55793          	srli	x15,x10,0x3f
    80003184:	00b77733          	and	x14,x14,x11
    80003188:	7ff67613          	andi	x12,x12,2047
    8000318c:	03f5d593          	srli	x11,x11,0x3f
    80003190:	00100513          	addi	x10,x0,1
    80003194:	01068c63          	beq	x13,x16,800031ac <__eqdf2+0x48>
    80003198:	01060863          	beq	x12,x16,800031a8 <__eqdf2+0x44>
    8000319c:	00c69463          	bne	x13,x12,800031a4 <__eqdf2+0x40>
    800031a0:	02e88063          	beq	x17,x14,800031c0 <__eqdf2+0x5c>
    800031a4:	00008067          	jalr	x0,0(x1)
    800031a8:	00008067          	jalr	x0,0(x1)
    800031ac:	fe089ce3          	bne	x17,x0,800031a4 <__eqdf2+0x40>
    800031b0:	fed61ae3          	bne	x12,x13,800031a4 <__eqdf2+0x40>
    800031b4:	fe0718e3          	bne	x14,x0,800031a4 <__eqdf2+0x40>
    800031b8:	00b7c533          	xor	x10,x15,x11
    800031bc:	00008067          	jalr	x0,0(x1)
    800031c0:	00000513          	addi	x10,x0,0
    800031c4:	feb780e3          	beq	x15,x11,800031a4 <__eqdf2+0x40>
    800031c8:	00100513          	addi	x10,x0,1
    800031cc:	fc069ce3          	bne	x13,x0,800031a4 <__eqdf2+0x40>
    800031d0:	01103533          	sltu	x10,x0,x17
    800031d4:	00008067          	jalr	x0,0(x1)

00000000800031d8 <__muldf3>:
    800031d8:	fb010113          	addi	x2,x2,-80
    800031dc:	03455793          	srli	x15,x10,0x34
    800031e0:	03213823          	sd	x18,48(x2)
    800031e4:	03313423          	sd	x19,40(x2)
    800031e8:	04113423          	sd	x1,72(x2)
    800031ec:	00c51993          	slli	x19,x10,0xc
    800031f0:	04813023          	sd	x8,64(x2)
    800031f4:	02913c23          	sd	x9,56(x2)
    800031f8:	03413023          	sd	x20,32(x2)
    800031fc:	01513c23          	sd	x21,24(x2)
    80003200:	01613823          	sd	x22,16(x2)
    80003204:	7ff7f793          	andi	x15,x15,2047
    80003208:	00c9d993          	srli	x19,x19,0xc
    8000320c:	03f55913          	srli	x18,x10,0x3f
    80003210:	24078e63          	beq	x15,x0,8000346c <__muldf3+0x294>
    80003214:	7ff00713          	addi	x14,x0,2047
    80003218:	18e78063          	beq	x15,x14,80003398 <__muldf3+0x1c0>
    8000321c:	00100713          	addi	x14,x0,1
    80003220:	00399993          	slli	x19,x19,0x3
    80003224:	03771713          	slli	x14,x14,0x37
    80003228:	00e9e9b3          	or	x19,x19,x14
    8000322c:	c0178b13          	addi	x22,x15,-1023
    80003230:	00000493          	addi	x9,x0,0
    80003234:	00000a93          	addi	x21,x0,0
    80003238:	0345d793          	srli	x15,x11,0x34
    8000323c:	00c59a13          	slli	x20,x11,0xc
    80003240:	7ff7f793          	andi	x15,x15,2047
    80003244:	00ca5a13          	srli	x20,x20,0xc
    80003248:	03f5d413          	srli	x8,x11,0x3f
    8000324c:	16078a63          	beq	x15,x0,800033c0 <__muldf3+0x1e8>
    80003250:	7ff00713          	addi	x14,x0,2047
    80003254:	1ee78263          	beq	x15,x14,80003438 <__muldf3+0x260>
    80003258:	00100713          	addi	x14,x0,1
    8000325c:	003a1a13          	slli	x20,x20,0x3
    80003260:	03771713          	slli	x14,x14,0x37
    80003264:	c0178793          	addi	x15,x15,-1023
    80003268:	00ea6a33          	or	x20,x20,x14
    8000326c:	00fb0b33          	add	x22,x22,x15
    80003270:	00000593          	addi	x11,x0,0
    80003274:	00a00793          	addi	x15,x0,10
    80003278:	001b0613          	addi	x12,x22,1
    8000327c:	1497ce63          	blt	x15,x9,800033d8 <__muldf3+0x200>
    80003280:	00894533          	xor	x10,x18,x8
    80003284:	00200793          	addi	x15,x0,2
    80003288:	00050693          	addi	x13,x10,0
    8000328c:	2097d263          	bge	x15,x9,80003490 <__muldf3+0x2b8>
    80003290:	00100713          	addi	x14,x0,1
    80003294:	00971733          	sll	x14,x14,x9
    80003298:	53077793          	andi	x15,x14,1328
    8000329c:	14079063          	bne	x15,x0,800033dc <__muldf3+0x204>
    800032a0:	24077793          	andi	x15,x14,576
    800032a4:	28079663          	bne	x15,x0,80003530 <__muldf3+0x358>
    800032a8:	08877713          	andi	x14,x14,136
    800032ac:	26071a63          	bne	x14,x0,80003520 <__muldf3+0x348>
    800032b0:	fff00793          	addi	x15,x0,-1
    800032b4:	0207d793          	srli	x15,x15,0x20
    800032b8:	0209d593          	srli	x11,x19,0x20
    800032bc:	020a5813          	srli	x16,x20,0x20
    800032c0:	00f9f9b3          	and	x19,x19,x15
    800032c4:	00fa77b3          	and	x15,x20,x15
    800032c8:	03378533          	mul	x10,x15,x19
    800032cc:	02f587b3          	mul	x15,x11,x15
    800032d0:	02055713          	srli	x14,x10,0x20
    800032d4:	033809b3          	mul	x19,x16,x19
    800032d8:	00f989b3          	add	x19,x19,x15
    800032dc:	01370733          	add	x14,x14,x19
    800032e0:	030585b3          	mul	x11,x11,x16
    800032e4:	00f77863          	bgeu	x14,x15,800032f4 <__muldf3+0x11c>
    800032e8:	00100793          	addi	x15,x0,1
    800032ec:	02079793          	slli	x15,x15,0x20
    800032f0:	00f585b3          	add	x11,x11,x15
    800032f4:	fff00813          	addi	x16,x0,-1
    800032f8:	02085813          	srli	x16,x16,0x20
    800032fc:	010777b3          	and	x15,x14,x16
    80003300:	02079793          	slli	x15,x15,0x20
    80003304:	01057533          	and	x10,x10,x16
    80003308:	00a787b3          	add	x15,x15,x10
    8000330c:	02075713          	srli	x14,x14,0x20
    80003310:	00979993          	slli	x19,x15,0x9
    80003314:	00b70733          	add	x14,x14,x11
    80003318:	0377d793          	srli	x15,x15,0x37
    8000331c:	00971713          	slli	x14,x14,0x9
    80003320:	013039b3          	sltu	x19,x0,x19
    80003324:	00f9e9b3          	or	x19,x19,x15
    80003328:	00771793          	slli	x15,x14,0x7
    8000332c:	013769b3          	or	x19,x14,x19
    80003330:	0007da63          	bge	x15,x0,80003344 <__muldf3+0x16c>
    80003334:	0019d793          	srli	x15,x19,0x1
    80003338:	0019f993          	andi	x19,x19,1
    8000333c:	0137e9b3          	or	x19,x15,x19
    80003340:	00060b13          	addi	x22,x12,0
    80003344:	3ffb0793          	addi	x15,x22,1023
    80003348:	1ef05e63          	bge	x0,x15,80003544 <__muldf3+0x36c>
    8000334c:	0079f713          	andi	x14,x19,7
    80003350:	00070a63          	beq	x14,x0,80003364 <__muldf3+0x18c>
    80003354:	00f9f713          	andi	x14,x19,15
    80003358:	00400613          	addi	x12,x0,4
    8000335c:	00c70463          	beq	x14,x12,80003364 <__muldf3+0x18c>
    80003360:	00498993          	addi	x19,x19,4
    80003364:	00799713          	slli	x14,x19,0x7
    80003368:	00075c63          	bge	x14,x0,80003380 <__muldf3+0x1a8>
    8000336c:	fff00793          	addi	x15,x0,-1
    80003370:	03879793          	slli	x15,x15,0x38
    80003374:	fff78793          	addi	x15,x15,-1
    80003378:	00f9f9b3          	and	x19,x19,x15
    8000337c:	400b0793          	addi	x15,x22,1024
    80003380:	7fe00713          	addi	x14,x0,2046
    80003384:	20f74a63          	blt	x14,x15,80003598 <__muldf3+0x3c0>
    80003388:	00999713          	slli	x14,x19,0x9
    8000338c:	00c75713          	srli	x14,x14,0xc
    80003390:	7ff7f793          	andi	x15,x15,2047
    80003394:	06c0006f          	jal	x0,80003400 <__muldf3+0x228>
    80003398:	16099c63          	bne	x19,x0,80003510 <__muldf3+0x338>
    8000339c:	0345d793          	srli	x15,x11,0x34
    800033a0:	00c59a13          	slli	x20,x11,0xc
    800033a4:	7ff7f793          	andi	x15,x15,2047
    800033a8:	00800493          	addi	x9,x0,8
    800033ac:	7ff00b13          	addi	x22,x0,2047
    800033b0:	00200a93          	addi	x21,x0,2
    800033b4:	00ca5a13          	srli	x20,x20,0xc
    800033b8:	03f5d413          	srli	x8,x11,0x3f
    800033bc:	e8079ae3          	bne	x15,x0,80003250 <__muldf3+0x78>
    800033c0:	100a1e63          	bne	x20,x0,800034dc <__muldf3+0x304>
    800033c4:	0014e493          	ori	x9,x9,1
    800033c8:	00a00793          	addi	x15,x0,10
    800033cc:	00100593          	addi	x11,x0,1
    800033d0:	001b0613          	addi	x12,x22,1
    800033d4:	ea97d6e3          	bge	x15,x9,80003280 <__muldf3+0xa8>
    800033d8:	00090513          	addi	x10,x18,0
    800033dc:	00200793          	addi	x15,x0,2
    800033e0:	0afa8063          	beq	x21,x15,80003480 <__muldf3+0x2a8>
    800033e4:	00300793          	addi	x15,x0,3
    800033e8:	14fa8463          	beq	x21,x15,80003530 <__muldf3+0x358>
    800033ec:	00100793          	addi	x15,x0,1
    800033f0:	00050693          	addi	x13,x10,0
    800033f4:	18fa9e63          	bne	x21,x15,80003590 <__muldf3+0x3b8>
    800033f8:	00000793          	addi	x15,x0,0
    800033fc:	00000713          	addi	x14,x0,0
    80003400:	04813083          	ld	x1,72(x2)
    80003404:	04013403          	ld	x8,64(x2)
    80003408:	03479513          	slli	x10,x15,0x34
    8000340c:	00e56533          	or	x10,x10,x14
    80003410:	03f69793          	slli	x15,x13,0x3f
    80003414:	03813483          	ld	x9,56(x2)
    80003418:	03013903          	ld	x18,48(x2)
    8000341c:	02813983          	ld	x19,40(x2)
    80003420:	02013a03          	ld	x20,32(x2)
    80003424:	01813a83          	ld	x21,24(x2)
    80003428:	01013b03          	ld	x22,16(x2)
    8000342c:	00f56533          	or	x10,x10,x15
    80003430:	05010113          	addi	x2,x2,80
    80003434:	00008067          	jalr	x0,0(x1)
    80003438:	7ffb0713          	addi	x14,x22,2047
    8000343c:	0c0a0263          	beq	x20,x0,80003500 <__muldf3+0x328>
    80003440:	00001637          	lui	x12,0x1
    80003444:	80060613          	addi	x12,x12,-2048 # 800 <buflen.1+0x7c0>
    80003448:	0034e493          	ori	x9,x9,3
    8000344c:	00a00693          	addi	x13,x0,10
    80003450:	00cb0633          	add	x12,x22,x12
    80003454:	1096ce63          	blt	x13,x9,80003570 <__muldf3+0x398>
    80003458:	008946b3          	xor	x13,x18,x8
    8000345c:	00068513          	addi	x10,x13,0
    80003460:	00070b13          	addi	x22,x14,0
    80003464:	00300593          	addi	x11,x0,3
    80003468:	e29ff06f          	jal	x0,80003290 <__muldf3+0xb8>
    8000346c:	04099063          	bne	x19,x0,800034ac <__muldf3+0x2d4>
    80003470:	00400493          	addi	x9,x0,4
    80003474:	00000b13          	addi	x22,x0,0
    80003478:	00100a93          	addi	x21,x0,1
    8000347c:	dbdff06f          	jal	x0,80003238 <__muldf3+0x60>
    80003480:	00050693          	addi	x13,x10,0
    80003484:	7ff00793          	addi	x15,x0,2047
    80003488:	00000713          	addi	x14,x0,0
    8000348c:	f75ff06f          	jal	x0,80003400 <__muldf3+0x228>
    80003490:	fff48493          	addi	x9,x9,-1
    80003494:	00100713          	addi	x14,x0,1
    80003498:	e0976ce3          	bltu	x14,x9,800032b0 <__muldf3+0xd8>
    8000349c:	fef582e3          	beq	x11,x15,80003480 <__muldf3+0x2a8>
    800034a0:	000a0993          	addi	x19,x20,0
    800034a4:	00058a93          	addi	x21,x11,0
    800034a8:	f45ff06f          	jal	x0,800033ec <__muldf3+0x214>
    800034ac:	00098513          	addi	x10,x19,0
    800034b0:	00b13423          	sd	x11,8(x2)
    800034b4:	144000ef          	jal	x1,800035f8 <__clzdi2>
    800034b8:	0005071b          	addiw	x14,x10,0
    800034bc:	c0d00793          	addi	x15,x0,-1011
    800034c0:	ff85051b          	addiw	x10,x10,-8
    800034c4:	00813583          	ld	x11,8(x2)
    800034c8:	00a999b3          	sll	x19,x19,x10
    800034cc:	40e78b33          	sub	x22,x15,x14
    800034d0:	00000493          	addi	x9,x0,0
    800034d4:	00000a93          	addi	x21,x0,0
    800034d8:	d61ff06f          	jal	x0,80003238 <__muldf3+0x60>
    800034dc:	000a0513          	addi	x10,x20,0
    800034e0:	118000ef          	jal	x1,800035f8 <__clzdi2>
    800034e4:	0005079b          	addiw	x15,x10,0
    800034e8:	40fb07b3          	sub	x15,x22,x15
    800034ec:	ff85051b          	addiw	x10,x10,-8
    800034f0:	00aa1a33          	sll	x20,x20,x10
    800034f4:	c0d78b13          	addi	x22,x15,-1011
    800034f8:	00000593          	addi	x11,x0,0
    800034fc:	d79ff06f          	jal	x0,80003274 <__muldf3+0x9c>
    80003500:	0024e493          	ori	x9,x9,2
    80003504:	00070b13          	addi	x22,x14,0
    80003508:	00200593          	addi	x11,x0,2
    8000350c:	d69ff06f          	jal	x0,80003274 <__muldf3+0x9c>
    80003510:	00c00493          	addi	x9,x0,12
    80003514:	7ff00b13          	addi	x22,x0,2047
    80003518:	00300a93          	addi	x21,x0,3
    8000351c:	d1dff06f          	jal	x0,80003238 <__muldf3+0x60>
    80003520:	000a0993          	addi	x19,x20,0
    80003524:	00058a93          	addi	x21,x11,0
    80003528:	00040513          	addi	x10,x8,0
    8000352c:	eb1ff06f          	jal	x0,800033dc <__muldf3+0x204>
    80003530:	00100713          	addi	x14,x0,1
    80003534:	00000693          	addi	x13,x0,0
    80003538:	7ff00793          	addi	x15,x0,2047
    8000353c:	03371713          	slli	x14,x14,0x33
    80003540:	ec1ff06f          	jal	x0,80003400 <__muldf3+0x228>
    80003544:	06078063          	beq	x15,x0,800035a4 <__muldf3+0x3cc>
    80003548:	00100613          	addi	x12,x0,1
    8000354c:	40f60633          	sub	x12,x12,x15
    80003550:	03800593          	addi	x11,x0,56
    80003554:	00000793          	addi	x15,x0,0
    80003558:	00000713          	addi	x14,x0,0
    8000355c:	eac5c2e3          	blt	x11,x12,80003400 <__muldf3+0x228>
    80003560:	04000793          	addi	x15,x0,64
    80003564:	0006071b          	addiw	x14,x12,0
    80003568:	40c787bb          	subw	x15,x15,x12
    8000356c:	0400006f          	jal	x0,800035ac <__muldf3+0x3d4>
    80003570:	00100713          	addi	x14,x0,1
    80003574:	00f00593          	addi	x11,x0,15
    80003578:	00000693          	addi	x13,x0,0
    8000357c:	03371713          	slli	x14,x14,0x33
    80003580:	000a0993          	addi	x19,x20,0
    80003584:	00300a93          	addi	x21,x0,3
    80003588:	e6b48ce3          	beq	x9,x11,80003400 <__muldf3+0x228>
    8000358c:	f9dff06f          	jal	x0,80003528 <__muldf3+0x350>
    80003590:	00060b13          	addi	x22,x12,0
    80003594:	db1ff06f          	jal	x0,80003344 <__muldf3+0x16c>
    80003598:	7ff00793          	addi	x15,x0,2047
    8000359c:	00000713          	addi	x14,x0,0
    800035a0:	e61ff06f          	jal	x0,80003400 <__muldf3+0x228>
    800035a4:	03f00793          	addi	x15,x0,63
    800035a8:	00100713          	addi	x14,x0,1
    800035ac:	00f997b3          	sll	x15,x19,x15
    800035b0:	00f037b3          	sltu	x15,x0,x15
    800035b4:	00e9d733          	srl	x14,x19,x14
    800035b8:	00f76733          	or	x14,x14,x15
    800035bc:	00777793          	andi	x15,x14,7
    800035c0:	00078a63          	beq	x15,x0,800035d4 <__muldf3+0x3fc>
    800035c4:	00f77793          	andi	x15,x14,15
    800035c8:	00400613          	addi	x12,x0,4
    800035cc:	00c78463          	beq	x15,x12,800035d4 <__muldf3+0x3fc>
    800035d0:	00470713          	addi	x14,x14,4
    800035d4:	00871793          	slli	x15,x14,0x8
    800035d8:	0007d863          	bge	x15,x0,800035e8 <__muldf3+0x410>
    800035dc:	00100793          	addi	x15,x0,1
    800035e0:	00000713          	addi	x14,x0,0
    800035e4:	e1dff06f          	jal	x0,80003400 <__muldf3+0x228>
    800035e8:	00971713          	slli	x14,x14,0x9
    800035ec:	00c75713          	srli	x14,x14,0xc
    800035f0:	00000793          	addi	x15,x0,0
    800035f4:	e0dff06f          	jal	x0,80003400 <__muldf3+0x228>

00000000800035f8 <__clzdi2>:
    800035f8:	03855793          	srli	x15,x10,0x38
    800035fc:	06079063          	bne	x15,x0,8000365c <__clzdi2+0x64>
    80003600:	03800793          	addi	x15,x0,56
    80003604:	0080006f          	jal	x0,8000360c <__clzdi2+0x14>
    80003608:	02069863          	bne	x13,x0,80003638 <__clzdi2+0x40>
    8000360c:	ff878793          	addi	x15,x15,-8
    80003610:	00f55733          	srl	x14,x10,x15
    80003614:	0ff77693          	andi	x13,x14,255
    80003618:	fe0798e3          	bne	x15,x0,80003608 <__clzdi2+0x10>
    8000361c:	04000693          	addi	x13,x0,64
    80003620:	0000a797          	auipc	x15,0xa
    80003624:	fe07b783          	ld	x15,-32(x15) # 8000d600 <_GLOBAL_OFFSET_TABLE_+0x8>
    80003628:	00a787b3          	add	x15,x15,x10
    8000362c:	0007c503          	lbu	x10,0(x15)
    80003630:	40a6853b          	subw	x10,x13,x10
    80003634:	00008067          	jalr	x0,0(x1)
    80003638:	04000693          	addi	x13,x0,64
    8000363c:	40f686b3          	sub	x13,x13,x15
    80003640:	00070513          	addi	x10,x14,0
    80003644:	0000a797          	auipc	x15,0xa
    80003648:	fbc7b783          	ld	x15,-68(x15) # 8000d600 <_GLOBAL_OFFSET_TABLE_+0x8>
    8000364c:	00a787b3          	add	x15,x15,x10
    80003650:	0007c503          	lbu	x10,0(x15)
    80003654:	40a6853b          	subw	x10,x13,x10
    80003658:	00008067          	jalr	x0,0(x1)
    8000365c:	00078513          	addi	x10,x15,0
    80003660:	00800693          	addi	x13,x0,8
    80003664:	fbdff06f          	jal	x0,80003620 <__clzdi2+0x28>

Disassembly of section .text.startup:

0000000080003668 <main>:
    80003668:	81010113          	addi	x2,x2,-2032
    8000366c:	fffff7b7          	lui	x15,0xfffff
    80003670:	00001737          	lui	x14,0x1
    80003674:	7e113423          	sd	x1,2024(x2)
    80003678:	7e813023          	sd	x8,2016(x2)
    8000367c:	7d213823          	sd	x18,2000(x2)
    80003680:	7d313423          	sd	x19,1992(x2)
    80003684:	7b513c23          	sd	x21,1976(x2)
    80003688:	7c913c23          	sd	x9,2008(x2)
    8000368c:	7d413023          	sd	x20,1984(x2)
    80003690:	06078793          	addi	x15,x15,96 # fffffffffffff060 <__global_pointer$+0xffffffff7fff1248>
    80003694:	80010113          	addi	x2,x2,-2048
    80003698:	fa070713          	addi	x14,x14,-96 # fa0 <buflen.1+0xf60>
    8000369c:	00f70733          	add	x14,x14,x15
    800036a0:	01010793          	addi	x15,x2,16
    800036a4:	00f707b3          	add	x15,x14,x15
    800036a8:	00002697          	auipc	x13,0x2
    800036ac:	89868693          	addi	x13,x13,-1896 # 80004f40 <x>
    800036b0:	00000717          	auipc	x14,0x0
    800036b4:	11870713          	addi	x14,x14,280 # 800037c8 <ptr>
    800036b8:	00003617          	auipc	x12,0x3
    800036bc:	82860613          	addi	x12,x12,-2008 # 80005ee0 <idx>
    800036c0:	00005597          	auipc	x11,0x5
    800036c4:	da058593          	addi	x11,x11,-608 # 80008460 <val>
    800036c8:	1f400513          	addi	x10,x0,500
    800036cc:	00f13423          	sd	x15,8(x2)
    800036d0:	931fe0ef          	jal	x1,80002000 <spmv>
    800036d4:	00100513          	addi	x10,x0,1
    800036d8:	860ff0ef          	jal	x1,80002738 <setStats>
    800036dc:	00813783          	ld	x15,8(x2)
    800036e0:	00000717          	auipc	x14,0x0
    800036e4:	0e870713          	addi	x14,x14,232 # 800037c8 <ptr>
    800036e8:	00002697          	auipc	x13,0x2
    800036ec:	85868693          	addi	x13,x13,-1960 # 80004f40 <x>
    800036f0:	00002617          	auipc	x12,0x2
    800036f4:	7f060613          	addi	x12,x12,2032 # 80005ee0 <idx>
    800036f8:	00005597          	auipc	x11,0x5
    800036fc:	d6858593          	addi	x11,x11,-664 # 80008460 <val>
    80003700:	1f400513          	addi	x10,x0,500
    80003704:	8fdfe0ef          	jal	x1,80002000 <spmv>
    80003708:	00000513          	addi	x10,x0,0
    8000370c:	82cff0ef          	jal	x1,80002738 <setStats>
    80003710:	00813403          	ld	x8,8(x2)
    80003714:	00001917          	auipc	x18,0x1
    80003718:	88c90913          	addi	x18,x18,-1908 # 80003fa0 <verify_data>
    8000371c:	00000993          	addi	x19,x0,0
    80003720:	1f400a93          	addi	x21,x0,500
    80003724:	00043583          	ld	x11,0(x8)
    80003728:	00093503          	ld	x10,0(x18)
    8000372c:	00843a03          	ld	x20,8(x8)
    80003730:	a35ff0ef          	jal	x1,80003164 <__eqdf2>
    80003734:	00050493          	addi	x9,x10,0
    80003738:	00893503          	ld	x10,8(x18)
    8000373c:	000a0593          	addi	x11,x20,0
    80003740:	0014b493          	sltiu	x9,x9,1
    80003744:	a21ff0ef          	jal	x1,80003164 <__eqdf2>
    80003748:	02050e63          	beq	x10,x0,80003784 <main+0x11c>
    8000374c:	0019851b          	addiw	x10,x19,1
    80003750:	0095053b          	addw	x10,x10,x9
    80003754:	000012b7          	lui	x5,0x1
    80003758:	80028293          	addi	x5,x5,-2048 # 800 <buflen.1+0x7c0>
    8000375c:	00510133          	add	x2,x2,x5
    80003760:	7e813083          	ld	x1,2024(x2)
    80003764:	7e013403          	ld	x8,2016(x2)
    80003768:	7d813483          	ld	x9,2008(x2)
    8000376c:	7d013903          	ld	x18,2000(x2)
    80003770:	7c813983          	ld	x19,1992(x2)
    80003774:	7c013a03          	ld	x20,1984(x2)
    80003778:	7b813a83          	ld	x21,1976(x2)
    8000377c:	7f010113          	addi	x2,x2,2032
    80003780:	00008067          	jalr	x0,0(x1)
    80003784:	fc0484e3          	beq	x9,x0,8000374c <main+0xe4>
    80003788:	0029899b          	addiw	x19,x19,2
    8000378c:	01040413          	addi	x8,x8,16
    80003790:	01090913          	addi	x18,x18,16
    80003794:	f95998e3          	bne	x19,x21,80003724 <main+0xbc>
    80003798:	00000513          	addi	x10,x0,0
    8000379c:	fb9ff06f          	jal	x0,80003754 <main+0xec>
    800037a0:	ff010113          	addi	x2,x2,-16
    800037a4:	0000a517          	auipc	x10,0xa
    800037a8:	e2c50513          	addi	x10,x10,-468 # 8000d5d0 <__clz_tab+0x520>
    800037ac:	00113423          	sd	x1,8(x2)
    800037b0:	824ff0ef          	jal	x1,800027d4 <printstr>
    800037b4:	00813083          	ld	x1,8(x2)
    800037b8:	fff00513          	addi	x10,x0,-1
    800037bc:	01010113          	addi	x2,x2,16
    800037c0:	00008067          	jalr	x0,0(x1)
