
./towers.riscv:     file format elf64-littleriscv


Disassembly of section .text.init:

0000000080000000 <_start>:
    80000000:	00000093          	addi	x1,x0,0
    80000004:	00000113          	addi	x2,x0,0
    80000008:	00000193          	addi	x3,x0,0
    8000000c:	00000213          	addi	x4,x0,0
    80000010:	00000293          	addi	x5,x0,0
    80000014:	00000313          	addi	x6,x0,0
    80000018:	00000393          	addi	x7,x0,0
    8000001c:	00000413          	addi	x8,x0,0
    80000020:	00000493          	addi	x9,x0,0
    80000024:	00000513          	addi	x10,x0,0
    80000028:	00000593          	addi	x11,x0,0
    8000002c:	00000613          	addi	x12,x0,0
    80000030:	00000693          	addi	x13,x0,0
    80000034:	00000713          	addi	x14,x0,0
    80000038:	00000793          	addi	x15,x0,0
    8000003c:	00000813          	addi	x16,x0,0
    80000040:	00000893          	addi	x17,x0,0
    80000044:	00000913          	addi	x18,x0,0
    80000048:	00000993          	addi	x19,x0,0
    8000004c:	00000a13          	addi	x20,x0,0
    80000050:	00000a93          	addi	x21,x0,0
    80000054:	00000b13          	addi	x22,x0,0
    80000058:	00000b93          	addi	x23,x0,0
    8000005c:	00000c13          	addi	x24,x0,0
    80000060:	00000c93          	addi	x25,x0,0
    80000064:	00000d13          	addi	x26,x0,0
    80000068:	00000d93          	addi	x27,x0,0
    8000006c:	00000e13          	addi	x28,x0,0
    80000070:	00000e93          	addi	x29,x0,0
    80000074:	00000f13          	addi	x30,x0,0
    80000078:	00000f93          	addi	x31,x0,0
    8000007c:	0001e2b7          	lui	x5,0x1e
    80000080:	3002a073          	csrrs	x0,mstatus,x5
    80000084:	00100293          	addi	x5,x0,1
    80000088:	01f29293          	slli	x5,x5,0x1f
    8000008c:	0002da63          	bge	x5,x0,800000a0 <_start+0xa0>
    80000090:	00100513          	addi	x10,x0,1
    80000094:	00001297          	auipc	x5,0x1
    80000098:	f6a2a623          	sw	x10,-148(x5) # 80001000 <tohost>
    8000009c:	ff5ff06f          	jal	x0,80000090 <_start+0x90>
    800000a0:	00000297          	auipc	x5,0x0
    800000a4:	04028293          	addi	x5,x5,64 # 800000e0 <trap_entry>
    800000a8:	30529073          	csrrw	x0,mtvec,x5
    800000ac:	00004197          	auipc	x3,0x4
    800000b0:	df818193          	addi	x3,x3,-520 # 80003ea4 <__global_pointer$>
    800000b4:	91b18213          	addi	x4,x3,-1765 # 800037bf <_end+0x3f>
    800000b8:	fc027213          	andi	x4,x4,-64
    800000bc:	f1402573          	csrrs	x10,mhartid,x0
    800000c0:	00100593          	addi	x11,x0,1
    800000c4:	00b57063          	bgeu	x10,x11,800000c4 <_start+0xc4>
    800000c8:	00150113          	addi	x2,x10,1
    800000cc:	01111113          	slli	x2,x2,0x11
    800000d0:	00410133          	add	x2,x2,x4
    800000d4:	01151613          	slli	x12,x10,0x11
    800000d8:	00c20233          	add	x4,x4,x12
    800000dc:	5810206f          	jal	x0,80002e5c <_init>

00000000800000e0 <trap_entry>:
    800000e0:	ef010113          	addi	x2,x2,-272
    800000e4:	00113423          	sd	x1,8(x2)
    800000e8:	00213823          	sd	x2,16(x2)
    800000ec:	00313c23          	sd	x3,24(x2)
    800000f0:	02413023          	sd	x4,32(x2)
    800000f4:	02513423          	sd	x5,40(x2)
    800000f8:	02613823          	sd	x6,48(x2)
    800000fc:	02713c23          	sd	x7,56(x2)
    80000100:	04813023          	sd	x8,64(x2)
    80000104:	04913423          	sd	x9,72(x2)
    80000108:	04a13823          	sd	x10,80(x2)
    8000010c:	04b13c23          	sd	x11,88(x2)
    80000110:	06c13023          	sd	x12,96(x2)
    80000114:	06d13423          	sd	x13,104(x2)
    80000118:	06e13823          	sd	x14,112(x2)
    8000011c:	06f13c23          	sd	x15,120(x2)
    80000120:	09013023          	sd	x16,128(x2)
    80000124:	09113423          	sd	x17,136(x2)
    80000128:	09213823          	sd	x18,144(x2)
    8000012c:	09313c23          	sd	x19,152(x2)
    80000130:	0b413023          	sd	x20,160(x2)
    80000134:	0b513423          	sd	x21,168(x2)
    80000138:	0b613823          	sd	x22,176(x2)
    8000013c:	0b713c23          	sd	x23,184(x2)
    80000140:	0d813023          	sd	x24,192(x2)
    80000144:	0d913423          	sd	x25,200(x2)
    80000148:	0da13823          	sd	x26,208(x2)
    8000014c:	0db13c23          	sd	x27,216(x2)
    80000150:	0fc13023          	sd	x28,224(x2)
    80000154:	0fd13423          	sd	x29,232(x2)
    80000158:	0fe13823          	sd	x30,240(x2)
    8000015c:	0ff13c23          	sd	x31,248(x2)
    80000160:	34202573          	csrrs	x10,mcause,x0
    80000164:	341025f3          	csrrs	x11,mepc,x0
    80000168:	00010613          	addi	x12,x2,0
    8000016c:	259020ef          	jal	x1,80002bc4 <handle_trap>
    80000170:	34151073          	csrrw	x0,mepc,x10
    80000174:	000022b7          	lui	x5,0x2
    80000178:	8002829b          	addiw	x5,x5,-2048 # 1800 <buflen.1+0x17c0>
    8000017c:	3002a073          	csrrs	x0,mstatus,x5
    80000180:	00813083          	ld	x1,8(x2)
    80000184:	01013103          	ld	x2,16(x2)
    80000188:	01813183          	ld	x3,24(x2)
    8000018c:	02013203          	ld	x4,32(x2)
    80000190:	02813283          	ld	x5,40(x2)
    80000194:	03013303          	ld	x6,48(x2)
    80000198:	03813383          	ld	x7,56(x2)
    8000019c:	04013403          	ld	x8,64(x2)
    800001a0:	04813483          	ld	x9,72(x2)
    800001a4:	05013503          	ld	x10,80(x2)
    800001a8:	05813583          	ld	x11,88(x2)
    800001ac:	06013603          	ld	x12,96(x2)
    800001b0:	06813683          	ld	x13,104(x2)
    800001b4:	07013703          	ld	x14,112(x2)
    800001b8:	07813783          	ld	x15,120(x2)
    800001bc:	08013803          	ld	x16,128(x2)
    800001c0:	08813883          	ld	x17,136(x2)
    800001c4:	09013903          	ld	x18,144(x2)
    800001c8:	09813983          	ld	x19,152(x2)
    800001cc:	0a013a03          	ld	x20,160(x2)
    800001d0:	0a813a83          	ld	x21,168(x2)
    800001d4:	0b013b03          	ld	x22,176(x2)
    800001d8:	0b813b83          	ld	x23,184(x2)
    800001dc:	0c013c03          	ld	x24,192(x2)
    800001e0:	0c813c83          	ld	x25,200(x2)
    800001e4:	0d013d03          	ld	x26,208(x2)
    800001e8:	0d813d83          	ld	x27,216(x2)
    800001ec:	0e013e03          	ld	x28,224(x2)
    800001f0:	0e813e83          	ld	x29,232(x2)
    800001f4:	0f013f03          	ld	x30,240(x2)
    800001f8:	0f813f83          	ld	x31,248(x2)
    800001fc:	11010113          	addi	x2,x2,272
    80000200:	30200073          	mret

Disassembly of section .text:

0000000080002000 <list_getSize>:
    80002000:	00052503          	lw	x10,0(x10)
    80002004:	00008067          	jalr	x0,0(x1)

0000000080002008 <list_init>:
    80002008:	00052023          	sw	x0,0(x10)
    8000200c:	00053423          	sd	x0,8(x10)
    80002010:	00008067          	jalr	x0,0(x1)

0000000080002014 <list_push>:
    80002014:	00001697          	auipc	x13,0x1
    80002018:	69468693          	addi	x13,x13,1684 # 800036a8 <g_nodeFreeList>
    8000201c:	0086b783          	ld	x15,8(x13)
    80002020:	00052703          	lw	x14,0(x10)
    80002024:	0087b603          	ld	x12,8(x15)
    80002028:	0017071b          	addiw	x14,x14,1
    8000202c:	00c6b423          	sd	x12,8(x13)
    80002030:	00853683          	ld	x13,8(x10)
    80002034:	00d7b423          	sd	x13,8(x15)
    80002038:	00f53423          	sd	x15,8(x10)
    8000203c:	00b7a023          	sw	x11,0(x15)
    80002040:	00e52023          	sw	x14,0(x10)
    80002044:	00008067          	jalr	x0,0(x1)

0000000080002048 <list_pop>:
    80002048:	00853703          	ld	x14,8(x10)
    8000204c:	00050793          	addi	x15,x10,0
    80002050:	00052683          	lw	x13,0(x10)
    80002054:	00873583          	ld	x11,8(x14)
    80002058:	00072503          	lw	x10,0(x14)
    8000205c:	00001617          	auipc	x12,0x1
    80002060:	64c60613          	addi	x12,x12,1612 # 800036a8 <g_nodeFreeList>
    80002064:	00b7b423          	sd	x11,8(x15)
    80002068:	00863583          	ld	x11,8(x12)
    8000206c:	fff6869b          	addiw	x13,x13,-1
    80002070:	00b73423          	sd	x11,8(x14)
    80002074:	00e63423          	sd	x14,8(x12)
    80002078:	00d7a023          	sw	x13,0(x15)
    8000207c:	00008067          	jalr	x0,0(x1)

0000000080002080 <list_clear>:
    80002080:	00052703          	lw	x14,0(x10)
    80002084:	02e05863          	bge	x0,x14,800020b4 <list_clear+0x34>
    80002088:	00001697          	auipc	x13,0x1
    8000208c:	62068693          	addi	x13,x13,1568 # 800036a8 <g_nodeFreeList>
    80002090:	00853783          	ld	x15,8(x10)
    80002094:	fff7071b          	addiw	x14,x14,-1
    80002098:	0087b603          	ld	x12,8(x15)
    8000209c:	00c53423          	sd	x12,8(x10)
    800020a0:	0086b603          	ld	x12,8(x13)
    800020a4:	00c7b423          	sd	x12,8(x15)
    800020a8:	00f6b423          	sd	x15,8(x13)
    800020ac:	fe0712e3          	bne	x14,x0,80002090 <list_clear+0x10>
    800020b0:	00052023          	sw	x0,0(x10)
    800020b4:	00008067          	jalr	x0,0(x1)

00000000800020b8 <towers_init>:
    800020b8:	00b52023          	sw	x11,0(x10)
    800020bc:	00052223          	sw	x0,4(x10)
    800020c0:	00052423          	sw	x0,8(x10)
    800020c4:	00053823          	sd	x0,16(x10)
    800020c8:	00052c23          	sw	x0,24(x10)
    800020cc:	02053023          	sd	x0,32(x10)
    800020d0:	02052423          	sw	x0,40(x10)
    800020d4:	02053823          	sd	x0,48(x10)
    800020d8:	04b05863          	bge	x0,x11,80002128 <towers_init+0x70>
    800020dc:	00001817          	auipc	x16,0x1
    800020e0:	5cc80813          	addi	x16,x16,1484 # 800036a8 <g_nodeFreeList>
    800020e4:	00883783          	ld	x15,8(x16)
    800020e8:	0005871b          	addiw	x14,x11,0
    800020ec:	00000693          	addi	x13,x0,0
    800020f0:	00c0006f          	jal	x0,800020fc <towers_init+0x44>
    800020f4:	00078693          	addi	x13,x15,0
    800020f8:	00060793          	addi	x15,x12,0
    800020fc:	0087b603          	ld	x12,8(x15)
    80002100:	00e7a023          	sw	x14,0(x15)
    80002104:	00d7b423          	sd	x13,8(x15)
    80002108:	fff7071b          	addiw	x14,x14,-1
    8000210c:	fe0714e3          	bne	x14,x0,800020f4 <towers_init+0x3c>
    80002110:	00c83423          	sd	x12,8(x16)
    80002114:	00d7b423          	sd	x13,8(x15)
    80002118:	00f53823          	sd	x15,16(x10)
    8000211c:	00100713          	addi	x14,x0,1
    80002120:	00e7a023          	sw	x14,0(x15)
    80002124:	00b52423          	sw	x11,8(x10)
    80002128:	00008067          	jalr	x0,0(x1)

000000008000212c <towers_clear>:
    8000212c:	00852703          	lw	x14,8(x10)
    80002130:	04e05263          	bge	x0,x14,80002174 <towers_clear+0x48>
    80002134:	00001817          	auipc	x16,0x1
    80002138:	57480813          	addi	x16,x16,1396 # 800036a8 <g_nodeFreeList>
    8000213c:	01053783          	ld	x15,16(x10)
    80002140:	00883683          	ld	x13,8(x16)
    80002144:	00c0006f          	jal	x0,80002150 <towers_clear+0x24>
    80002148:	00060793          	addi	x15,x12,0
    8000214c:	00058693          	addi	x13,x11,0
    80002150:	0087b603          	ld	x12,8(x15)
    80002154:	fff7071b          	addiw	x14,x14,-1
    80002158:	00d7b423          	sd	x13,8(x15)
    8000215c:	00078593          	addi	x11,x15,0
    80002160:	fe0714e3          	bne	x14,x0,80002148 <towers_clear+0x1c>
    80002164:	00c53823          	sd	x12,16(x10)
    80002168:	00d7b423          	sd	x13,8(x15)
    8000216c:	00f83423          	sd	x15,8(x16)
    80002170:	00052423          	sw	x0,8(x10)
    80002174:	01852703          	lw	x14,24(x10)
    80002178:	04e05263          	bge	x0,x14,800021bc <towers_clear+0x90>
    8000217c:	00001817          	auipc	x16,0x1
    80002180:	52c80813          	addi	x16,x16,1324 # 800036a8 <g_nodeFreeList>
    80002184:	02053783          	ld	x15,32(x10)
    80002188:	00883683          	ld	x13,8(x16)
    8000218c:	00c0006f          	jal	x0,80002198 <towers_clear+0x6c>
    80002190:	00060793          	addi	x15,x12,0
    80002194:	00058693          	addi	x13,x11,0
    80002198:	0087b603          	ld	x12,8(x15)
    8000219c:	fff7071b          	addiw	x14,x14,-1
    800021a0:	00d7b423          	sd	x13,8(x15)
    800021a4:	00078593          	addi	x11,x15,0
    800021a8:	fe0714e3          	bne	x14,x0,80002190 <towers_clear+0x64>
    800021ac:	02c53023          	sd	x12,32(x10)
    800021b0:	00d7b423          	sd	x13,8(x15)
    800021b4:	00f83423          	sd	x15,8(x16)
    800021b8:	00052c23          	sw	x0,24(x10)
    800021bc:	02852703          	lw	x14,40(x10)
    800021c0:	02e05a63          	bge	x0,x14,800021f4 <towers_clear+0xc8>
    800021c4:	00001817          	auipc	x16,0x1
    800021c8:	4e480813          	addi	x16,x16,1252 # 800036a8 <g_nodeFreeList>
    800021cc:	03053783          	ld	x15,48(x10)
    800021d0:	00883683          	ld	x13,8(x16)
    800021d4:	0080006f          	jal	x0,800021dc <towers_clear+0xb0>
    800021d8:	00060793          	addi	x15,x12,0
    800021dc:	0087b603          	ld	x12,8(x15)
    800021e0:	fff7071b          	addiw	x14,x14,-1
    800021e4:	00d7b423          	sd	x13,8(x15)
    800021e8:	00078693          	addi	x13,x15,0
    800021ec:	fe0716e3          	bne	x14,x0,800021d8 <towers_clear+0xac>
    800021f0:	00f83423          	sd	x15,8(x16)
    800021f4:	00052583          	lw	x11,0(x10)
    800021f8:	00052223          	sw	x0,4(x10)
    800021fc:	00052423          	sw	x0,8(x10)
    80002200:	00053823          	sd	x0,16(x10)
    80002204:	00052c23          	sw	x0,24(x10)
    80002208:	02053023          	sd	x0,32(x10)
    8000220c:	02052423          	sw	x0,40(x10)
    80002210:	02053823          	sd	x0,48(x10)
    80002214:	04b05863          	bge	x0,x11,80002264 <towers_clear+0x138>
    80002218:	00001817          	auipc	x16,0x1
    8000221c:	49080813          	addi	x16,x16,1168 # 800036a8 <g_nodeFreeList>
    80002220:	00883783          	ld	x15,8(x16)
    80002224:	0005871b          	addiw	x14,x11,0
    80002228:	00000693          	addi	x13,x0,0
    8000222c:	00c0006f          	jal	x0,80002238 <towers_clear+0x10c>
    80002230:	00078693          	addi	x13,x15,0
    80002234:	00060793          	addi	x15,x12,0
    80002238:	0087b603          	ld	x12,8(x15)
    8000223c:	00e7a023          	sw	x14,0(x15)
    80002240:	00d7b423          	sd	x13,8(x15)
    80002244:	fff7071b          	addiw	x14,x14,-1
    80002248:	fe0714e3          	bne	x14,x0,80002230 <towers_clear+0x104>
    8000224c:	00c83423          	sd	x12,8(x16)
    80002250:	00d7b423          	sd	x13,8(x15)
    80002254:	00f53823          	sd	x15,16(x10)
    80002258:	00100713          	addi	x14,x0,1
    8000225c:	00e7a023          	sw	x14,0(x15)
    80002260:	00b52423          	sw	x11,8(x10)
    80002264:	00008067          	jalr	x0,0(x1)

0000000080002268 <towers_solve_h>:
    80002268:	f7010113          	addi	x2,x2,-144
    8000226c:	07213823          	sd	x18,112(x2)
    80002270:	05513c23          	sd	x21,88(x2)
    80002274:	08113423          	sd	x1,136(x2)
    80002278:	05813023          	sd	x24,64(x2)
    8000227c:	00b13423          	sd	x11,8(x2)
    80002280:	00100793          	addi	x15,x0,1
    80002284:	00c13823          	sd	x12,16(x2)
    80002288:	00e13c23          	sd	x14,24(x2)
    8000228c:	00050913          	addi	x18,x10,0
    80002290:	00001a97          	auipc	x21,0x1
    80002294:	418a8a93          	addi	x21,x21,1048 # 800036a8 <g_nodeFreeList>
    80002298:	34f58863          	beq	x11,x15,800025e8 <towers_solve_h+0x380>
    8000229c:	07413023          	sd	x20,96(x2)
    800022a0:	08813023          	sd	x8,128(x2)
    800022a4:	06913c23          	sd	x9,120(x2)
    800022a8:	07313423          	sd	x19,104(x2)
    800022ac:	05613823          	sd	x22,80(x2)
    800022b0:	05713423          	sd	x23,72(x2)
    800022b4:	03913c23          	sd	x25,56(x2)
    800022b8:	03a13823          	sd	x26,48(x2)
    800022bc:	03b13423          	sd	x27,40(x2)
    800022c0:	00068c13          	addi	x24,x13,0
    800022c4:	00100a13          	addi	x20,x0,1
    800022c8:	00813783          	ld	x15,8(x2)
    800022cc:	fff7879b          	addiw	x15,x15,-1
    800022d0:	00f13423          	sd	x15,8(x2)
    800022d4:	1d478e63          	beq	x15,x20,800024b0 <towers_solve_h+0x248>
    800022d8:	00813783          	ld	x15,8(x2)
    800022dc:	01813d03          	ld	x26,24(x2)
    800022e0:	01013b83          	ld	x23,16(x2)
    800022e4:	00f13023          	sd	x15,0(x2)
    800022e8:	00013783          	ld	x15,0(x2)
    800022ec:	fff7879b          	addiw	x15,x15,-1
    800022f0:	00f13023          	sd	x15,0(x2)
    800022f4:	11478863          	beq	x15,x20,80002404 <towers_solve_h+0x19c>
    800022f8:	00013b03          	ld	x22,0(x2)
    800022fc:	000c0493          	addi	x9,x24,0
    80002300:	000b8993          	addi	x19,x23,0
    80002304:	fffb0b1b          	addiw	x22,x22,-1
    80002308:	054b0c63          	beq	x22,x20,80002360 <towers_solve_h+0xf8>
    8000230c:	000d0c93          	addi	x25,x26,0
    80002310:	00098413          	addi	x8,x19,0
    80002314:	000b0d93          	addi	x27,x22,0
    80002318:	fffd8d9b          	addiw	x27,x27,-1
    8000231c:	000c8713          	addi	x14,x25,0
    80002320:	00048693          	addi	x13,x9,0
    80002324:	00040613          	addi	x12,x8,0
    80002328:	000d8593          	addi	x11,x27,0
    8000232c:	00090513          	addi	x10,x18,0
    80002330:	f39ff0ef          	jal	x1,80002268 <towers_solve_h>
    80002334:	00048713          	addi	x14,x9,0
    80002338:	000c8693          	addi	x13,x25,0
    8000233c:	00040613          	addi	x12,x8,0
    80002340:	00100593          	addi	x11,x0,1
    80002344:	00090513          	addi	x10,x18,0
    80002348:	f21ff0ef          	jal	x1,80002268 <towers_solve_h>
    8000234c:	00040713          	addi	x14,x8,0
    80002350:	014d8a63          	beq	x27,x20,80002364 <towers_solve_h+0xfc>
    80002354:	000c8413          	addi	x8,x25,0
    80002358:	00070c93          	addi	x25,x14,0
    8000235c:	fbdff06f          	jal	x0,80002318 <towers_solve_h+0xb0>
    80002360:	00098c93          	addi	x25,x19,0
    80002364:	008cb703          	ld	x14,8(x25)
    80002368:	000ca603          	lw	x12,0(x25)
    8000236c:	00492683          	lw	x13,4(x18)
    80002370:	00873503          	ld	x10,8(x14)
    80002374:	00072583          	lw	x11,0(x14)
    80002378:	fff6061b          	addiw	x12,x12,-1
    8000237c:	00acb423          	sd	x10,8(x25)
    80002380:	008ab503          	ld	x10,8(x21)
    80002384:	00cca023          	sw	x12,0(x25)
    80002388:	0004a603          	lw	x12,0(x9)
    8000238c:	00aab423          	sd	x10,8(x21)
    80002390:	0084b783          	ld	x15,8(x9)
    80002394:	0016061b          	addiw	x12,x12,1
    80002398:	0026851b          	addiw	x10,x13,2
    8000239c:	00f73423          	sd	x15,8(x14)
    800023a0:	00e4b423          	sd	x14,8(x9)
    800023a4:	0089b783          	ld	x15,8(x19)
    800023a8:	00b72023          	sw	x11,0(x14)
    800023ac:	00c4a023          	sw	x12,0(x9)
    800023b0:	0087b583          	ld	x11,8(x15)
    800023b4:	0009a703          	lw	x14,0(x19)
    800023b8:	0007a603          	lw	x12,0(x15)
    800023bc:	00b9b423          	sd	x11,8(x19)
    800023c0:	008ab583          	ld	x11,8(x21)
    800023c4:	fff7071b          	addiw	x14,x14,-1
    800023c8:	00e9a023          	sw	x14,0(x19)
    800023cc:	00bab423          	sd	x11,8(x21)
    800023d0:	008d3583          	ld	x11,8(x26)
    800023d4:	000d2703          	lw	x14,0(x26)
    800023d8:	00b7b423          	sd	x11,8(x15)
    800023dc:	00fd3423          	sd	x15,8(x26)
    800023e0:	00c7a023          	sw	x12,0(x15)
    800023e4:	0017079b          	addiw	x15,x14,1
    800023e8:	00fd2023          	sw	x15,0(x26)
    800023ec:	00a92223          	sw	x10,4(x18)
    800023f0:	014b0e63          	beq	x22,x20,8000240c <towers_solve_h+0x1a4>
    800023f4:	00098793          	addi	x15,x19,0
    800023f8:	00048993          	addi	x19,x9,0
    800023fc:	00078493          	addi	x9,x15,0
    80002400:	f05ff06f          	jal	x0,80002304 <towers_solve_h+0x9c>
    80002404:	00492503          	lw	x10,4(x18)
    80002408:	000b8493          	addi	x9,x23,0
    8000240c:	0084b703          	ld	x14,8(x9)
    80002410:	0004a783          	lw	x15,0(x9)
    80002414:	0025051b          	addiw	x10,x10,2
    80002418:	00873683          	ld	x13,8(x14)
    8000241c:	00072603          	lw	x12,0(x14)
    80002420:	fff7879b          	addiw	x15,x15,-1
    80002424:	00d4b423          	sd	x13,8(x9)
    80002428:	008ab583          	ld	x11,8(x21)
    8000242c:	00f4a023          	sw	x15,0(x9)
    80002430:	000d2683          	lw	x13,0(x26)
    80002434:	00bab423          	sd	x11,8(x21)
    80002438:	008d3783          	ld	x15,8(x26)
    8000243c:	0016869b          	addiw	x13,x13,1
    80002440:	0005059b          	addiw	x11,x10,0
    80002444:	00f73423          	sd	x15,8(x14)
    80002448:	00ed3423          	sd	x14,8(x26)
    8000244c:	008bb783          	ld	x15,8(x23)
    80002450:	00c72023          	sw	x12,0(x14)
    80002454:	00dd2023          	sw	x13,0(x26)
    80002458:	0087b603          	ld	x12,8(x15)
    8000245c:	000ba703          	lw	x14,0(x23)
    80002460:	0007a683          	lw	x13,0(x15)
    80002464:	00cbb423          	sd	x12,8(x23)
    80002468:	008ab603          	ld	x12,8(x21)
    8000246c:	fff7071b          	addiw	x14,x14,-1
    80002470:	00eba023          	sw	x14,0(x23)
    80002474:	00cab423          	sd	x12,8(x21)
    80002478:	008c3603          	ld	x12,8(x24)
    8000247c:	000c2703          	lw	x14,0(x24)
    80002480:	00c7b423          	sd	x12,8(x15)
    80002484:	00fc3423          	sd	x15,8(x24)
    80002488:	00d7a023          	sw	x13,0(x15)
    8000248c:	0017079b          	addiw	x15,x14,1
    80002490:	00fc2023          	sw	x15,0(x24)
    80002494:	00013783          	ld	x15,0(x2)
    80002498:	00a92223          	sw	x10,4(x18)
    8000249c:	01478e63          	beq	x15,x20,800024b8 <towers_solve_h+0x250>
    800024a0:	000b8793          	addi	x15,x23,0
    800024a4:	000d0b93          	addi	x23,x26,0
    800024a8:	00078d13          	addi	x26,x15,0
    800024ac:	e3dff06f          	jal	x0,800022e8 <towers_solve_h+0x80>
    800024b0:	00492583          	lw	x11,4(x18)
    800024b4:	01013d03          	ld	x26,16(x2)
    800024b8:	008d3703          	ld	x14,8(x26)
    800024bc:	000d2783          	lw	x15,0(x26)
    800024c0:	01013803          	ld	x16,16(x2)
    800024c4:	00873683          	ld	x13,8(x14)
    800024c8:	00072503          	lw	x10,0(x14)
    800024cc:	fff7879b          	addiw	x15,x15,-1
    800024d0:	00dd3423          	sd	x13,8(x26)
    800024d4:	008ab603          	ld	x12,8(x21)
    800024d8:	00fd2023          	sw	x15,0(x26)
    800024dc:	000c2683          	lw	x13,0(x24)
    800024e0:	00cab423          	sd	x12,8(x21)
    800024e4:	008c3783          	ld	x15,8(x24)
    800024e8:	0016869b          	addiw	x13,x13,1
    800024ec:	01813883          	ld	x17,24(x2)
    800024f0:	00f73423          	sd	x15,8(x14)
    800024f4:	00ec3423          	sd	x14,8(x24)
    800024f8:	00883783          	ld	x15,8(x16)
    800024fc:	00a72023          	sw	x10,0(x14)
    80002500:	00dc2023          	sw	x13,0(x24)
    80002504:	0087b503          	ld	x10,8(x15)
    80002508:	00082703          	lw	x14,0(x16)
    8000250c:	0007a683          	lw	x13,0(x15)
    80002510:	00a83423          	sd	x10,8(x16)
    80002514:	008ab503          	ld	x10,8(x21)
    80002518:	fff7071b          	addiw	x14,x14,-1
    8000251c:	00e82023          	sw	x14,0(x16)
    80002520:	00aab423          	sd	x10,8(x21)
    80002524:	0088b503          	ld	x10,8(x17)
    80002528:	0008a703          	lw	x14,0(x17)
    8000252c:	0025859b          	addiw	x11,x11,2
    80002530:	00a7b423          	sd	x10,8(x15)
    80002534:	00f8b423          	sd	x15,8(x17)
    80002538:	00d7a023          	sw	x13,0(x15)
    8000253c:	0017079b          	addiw	x15,x14,1
    80002540:	00f8a023          	sw	x15,0(x17)
    80002544:	00813783          	ld	x15,8(x2)
    80002548:	00b92223          	sw	x11,4(x18)
    8000254c:	0005861b          	addiw	x12,x11,0
    80002550:	01478863          	beq	x15,x20,80002560 <towers_solve_h+0x2f8>
    80002554:	01813823          	sd	x24,16(x2)
    80002558:	00080c13          	addi	x24,x16,0
    8000255c:	d6dff06f          	jal	x0,800022c8 <towers_solve_h+0x60>
    80002560:	08013403          	ld	x8,128(x2)
    80002564:	07813483          	ld	x9,120(x2)
    80002568:	06813983          	ld	x19,104(x2)
    8000256c:	06013a03          	ld	x20,96(x2)
    80002570:	05013b03          	ld	x22,80(x2)
    80002574:	04813b83          	ld	x23,72(x2)
    80002578:	03813c83          	ld	x25,56(x2)
    8000257c:	03013d03          	ld	x26,48(x2)
    80002580:	02813d83          	ld	x27,40(x2)
    80002584:	008c3783          	ld	x15,8(x24)
    80002588:	000c2703          	lw	x14,0(x24)
    8000258c:	01813503          	ld	x10,24(x2)
    80002590:	0087b583          	ld	x11,8(x15)
    80002594:	0007a683          	lw	x13,0(x15)
    80002598:	fff7071b          	addiw	x14,x14,-1
    8000259c:	00bc3423          	sd	x11,8(x24)
    800025a0:	008ab583          	ld	x11,8(x21)
    800025a4:	00ec2023          	sw	x14,0(x24)
    800025a8:	00052703          	lw	x14,0(x10)
    800025ac:	00bab423          	sd	x11,8(x21)
    800025b0:	00853583          	ld	x11,8(x10)
    800025b4:	08813083          	ld	x1,136(x2)
    800025b8:	0017071b          	addiw	x14,x14,1
    800025bc:	00b7b423          	sd	x11,8(x15)
    800025c0:	00f53423          	sd	x15,8(x10)
    800025c4:	00d7a023          	sw	x13,0(x15)
    800025c8:	00e52023          	sw	x14,0(x10)
    800025cc:	0016061b          	addiw	x12,x12,1
    800025d0:	00c92223          	sw	x12,4(x18)
    800025d4:	05813a83          	ld	x21,88(x2)
    800025d8:	07013903          	ld	x18,112(x2)
    800025dc:	04013c03          	ld	x24,64(x2)
    800025e0:	09010113          	addi	x2,x2,144
    800025e4:	00008067          	jalr	x0,0(x1)
    800025e8:	00452603          	lw	x12,4(x10)
    800025ec:	01013c03          	ld	x24,16(x2)
    800025f0:	f95ff06f          	jal	x0,80002584 <towers_solve_h+0x31c>

00000000800025f4 <towers_solve>:
    800025f4:	00052583          	lw	x11,0(x10)
    800025f8:	02850713          	addi	x14,x10,40
    800025fc:	01850693          	addi	x13,x10,24
    80002600:	00850613          	addi	x12,x10,8
    80002604:	c65ff06f          	jal	x0,80002268 <towers_solve_h>

0000000080002608 <towers_verify>:
    80002608:	00852783          	lw	x15,8(x10)
    8000260c:	00050613          	addi	x12,x10,0
    80002610:	04079663          	bne	x15,x0,8000265c <towers_verify+0x54>
    80002614:	01852503          	lw	x10,24(x10)
    80002618:	06051663          	bne	x10,x0,80002684 <towers_verify+0x7c>
    8000261c:	00062583          	lw	x11,0(x12)
    80002620:	02862783          	lw	x15,40(x12)
    80002624:	02b79863          	bne	x15,x11,80002654 <towers_verify+0x4c>
    80002628:	03063783          	ld	x15,48(x12)
    8000262c:	02078c63          	beq	x15,x0,80002664 <towers_verify+0x5c>
    80002630:	00000713          	addi	x14,x0,0
    80002634:	00c0006f          	jal	x0,80002640 <towers_verify+0x38>
    80002638:	0087b783          	ld	x15,8(x15)
    8000263c:	02078463          	beq	x15,x0,80002664 <towers_verify+0x5c>
    80002640:	0007a683          	lw	x13,0(x15)
    80002644:	0017071b          	addiw	x14,x14,1
    80002648:	fee688e3          	beq	x13,x14,80002638 <towers_verify+0x30>
    8000264c:	00500513          	addi	x10,x0,5
    80002650:	00008067          	jalr	x0,0(x1)
    80002654:	00400513          	addi	x10,x0,4
    80002658:	00008067          	jalr	x0,0(x1)
    8000265c:	00200513          	addi	x10,x0,2
    80002660:	00008067          	jalr	x0,0(x1)
    80002664:	00100793          	addi	x15,x0,1
    80002668:	00462703          	lw	x14,4(x12)
    8000266c:	00b797bb          	sllw	x15,x15,x11
    80002670:	fff7879b          	addiw	x15,x15,-1
    80002674:	00f71463          	bne	x14,x15,8000267c <towers_verify+0x74>
    80002678:	00008067          	jalr	x0,0(x1)
    8000267c:	00600513          	addi	x10,x0,6
    80002680:	00008067          	jalr	x0,0(x1)
    80002684:	00300513          	addi	x10,x0,3
    80002688:	00008067          	jalr	x0,0(x1)

000000008000268c <vprintfmt>:
    8000268c:	e9010113          	addi	x2,x2,-368
    80002690:	16813023          	sd	x8,352(x2)
    80002694:	14913c23          	sd	x9,344(x2)
    80002698:	15213823          	sd	x18,336(x2)
    8000269c:	15413023          	sd	x20,320(x2)
    800026a0:	13513c23          	sd	x21,312(x2)
    800026a4:	13613823          	sd	x22,304(x2)
    800026a8:	13713423          	sd	x23,296(x2)
    800026ac:	16113423          	sd	x1,360(x2)
    800026b0:	15313423          	sd	x19,328(x2)
    800026b4:	13813023          	sd	x24,288(x2)
    800026b8:	11913c23          	sd	x25,280(x2)
    800026bc:	11b13423          	sd	x27,264(x2)
    800026c0:	00050913          	addi	x18,x10,0
    800026c4:	00058493          	addi	x9,x11,0
    800026c8:	00060413          	addi	x8,x12,0
    800026cc:	00068b93          	addi	x23,x13,0
    800026d0:	02500a13          	addi	x20,x0,37
    800026d4:	05500b13          	addi	x22,x0,85
    800026d8:	00001a97          	auipc	x21,0x1
    800026dc:	e74a8a93          	addi	x21,x21,-396 # 8000354c <main+0x4c8>
    800026e0:	0140006f          	jal	x0,800026f4 <vprintfmt+0x68>
    800026e4:	04050c63          	beq	x10,x0,8000273c <vprintfmt+0xb0>
    800026e8:	00048593          	addi	x11,x9,0
    800026ec:	00140413          	addi	x8,x8,1
    800026f0:	000900e7          	jalr	x1,0(x18)
    800026f4:	00044503          	lbu	x10,0(x8)
    800026f8:	ff4516e3          	bne	x10,x20,800026e4 <vprintfmt+0x58>
    800026fc:	00144683          	lbu	x13,1(x8)
    80002700:	00140993          	addi	x19,x8,1
    80002704:	00098713          	addi	x14,x19,0
    80002708:	02000c93          	addi	x25,x0,32
    8000270c:	fff00c13          	addi	x24,x0,-1
    80002710:	fff00d93          	addi	x27,x0,-1
    80002714:	00000593          	addi	x11,x0,0
    80002718:	fdd6879b          	addiw	x15,x13,-35
    8000271c:	0ff7f793          	andi	x15,x15,255
    80002720:	00170413          	addi	x8,x14,1
    80002724:	06fb6663          	bltu	x22,x15,80002790 <vprintfmt+0x104>
    80002728:	00279793          	slli	x15,x15,0x2
    8000272c:	015787b3          	add	x15,x15,x21
    80002730:	0007a783          	lw	x15,0(x15)
    80002734:	015787b3          	add	x15,x15,x21
    80002738:	00078067          	jalr	x0,0(x15)
    8000273c:	16813083          	ld	x1,360(x2)
    80002740:	16013403          	ld	x8,352(x2)
    80002744:	15813483          	ld	x9,344(x2)
    80002748:	15013903          	ld	x18,336(x2)
    8000274c:	14813983          	ld	x19,328(x2)
    80002750:	14013a03          	ld	x20,320(x2)
    80002754:	13813a83          	ld	x21,312(x2)
    80002758:	13013b03          	ld	x22,304(x2)
    8000275c:	12813b83          	ld	x23,296(x2)
    80002760:	12013c03          	ld	x24,288(x2)
    80002764:	11813c83          	ld	x25,280(x2)
    80002768:	10813d83          	ld	x27,264(x2)
    8000276c:	17010113          	addi	x2,x2,368
    80002770:	00008067          	jalr	x0,0(x1)
    80002774:	00068c93          	addi	x25,x13,0
    80002778:	00174683          	lbu	x13,1(x14)
    8000277c:	00040713          	addi	x14,x8,0
    80002780:	00170413          	addi	x8,x14,1
    80002784:	fdd6879b          	addiw	x15,x13,-35
    80002788:	0ff7f793          	andi	x15,x15,255
    8000278c:	f8fb7ee3          	bgeu	x22,x15,80002728 <vprintfmt+0x9c>
    80002790:	00048593          	addi	x11,x9,0
    80002794:	02500513          	addi	x10,x0,37
    80002798:	000900e7          	jalr	x1,0(x18)
    8000279c:	00098413          	addi	x8,x19,0
    800027a0:	f55ff06f          	jal	x0,800026f4 <vprintfmt+0x68>
    800027a4:	fd068c1b          	addiw	x24,x13,-48
    800027a8:	00174683          	lbu	x13,1(x14)
    800027ac:	00900793          	addi	x15,x0,9
    800027b0:	fd06871b          	addiw	x14,x13,-48
    800027b4:	0006861b          	addiw	x12,x13,0
    800027b8:	2ee7e663          	bltu	x15,x14,80002aa4 <vprintfmt+0x418>
    800027bc:	00040713          	addi	x14,x8,0
    800027c0:	00900813          	addi	x16,x0,9
    800027c4:	00174683          	lbu	x13,1(x14)
    800027c8:	002c179b          	slliw	x15,x24,0x2
    800027cc:	018787bb          	addw	x15,x15,x24
    800027d0:	0017979b          	slliw	x15,x15,0x1
    800027d4:	00c787bb          	addw	x15,x15,x12
    800027d8:	fd06851b          	addiw	x10,x13,-48
    800027dc:	00170713          	addi	x14,x14,1
    800027e0:	fd078c1b          	addiw	x24,x15,-48
    800027e4:	0006861b          	addiw	x12,x13,0
    800027e8:	fca87ee3          	bgeu	x16,x10,800027c4 <vprintfmt+0x138>
    800027ec:	f20dd6e3          	bge	x27,x0,80002718 <vprintfmt+0x8c>
    800027f0:	000c0d93          	addi	x27,x24,0
    800027f4:	fff00c13          	addi	x24,x0,-1
    800027f8:	f21ff06f          	jal	x0,80002718 <vprintfmt+0x8c>
    800027fc:	00174683          	lbu	x13,1(x14)
    80002800:	00040713          	addi	x14,x8,0
    80002804:	f15ff06f          	jal	x0,80002718 <vprintfmt+0x8c>
    80002808:	00048593          	addi	x11,x9,0
    8000280c:	02500513          	addi	x10,x0,37
    80002810:	000900e7          	jalr	x1,0(x18)
    80002814:	ee1ff06f          	jal	x0,800026f4 <vprintfmt+0x68>
    80002818:	000bac03          	lw	x24,0(x23)
    8000281c:	00174683          	lbu	x13,1(x14)
    80002820:	008b8b93          	addi	x23,x23,8
    80002824:	00040713          	addi	x14,x8,0
    80002828:	fc5ff06f          	jal	x0,800027ec <vprintfmt+0x160>
    8000282c:	00048593          	addi	x11,x9,0
    80002830:	03000513          	addi	x10,x0,48
    80002834:	11a13823          	sd	x26,272(x2)
    80002838:	000900e7          	jalr	x1,0(x18)
    8000283c:	00048593          	addi	x11,x9,0
    80002840:	07800513          	addi	x10,x0,120
    80002844:	000900e7          	jalr	x1,0(x18)
    80002848:	01000613          	addi	x12,x0,16
    8000284c:	008b8713          	addi	x14,x23,8
    80002850:	000bb783          	ld	x15,0(x23)
    80002854:	00070b93          	addi	x23,x14,0
    80002858:	02c7f5b3          	remu	x11,x15,x12
    8000285c:	000c899b          	addiw	x19,x25,0
    80002860:	00410693          	addi	x13,x2,4
    80002864:	00100713          	addi	x14,x0,1
    80002868:	00b12023          	sw	x11,0(x2)
    8000286c:	1ec7ea63          	bltu	x15,x12,80002a60 <vprintfmt+0x3d4>
    80002870:	02c7d7b3          	divu	x15,x15,x12
    80002874:	00468693          	addi	x13,x13,4
    80002878:	00070c13          	addi	x24,x14,0
    8000287c:	0017071b          	addiw	x14,x14,1
    80002880:	02c7f5b3          	remu	x11,x15,x12
    80002884:	feb6ae23          	sw	x11,-4(x13)
    80002888:	fec7f4e3          	bgeu	x15,x12,80002870 <vprintfmt+0x1e4>
    8000288c:	fffd8c9b          	addiw	x25,x27,-1
    80002890:	fff70d1b          	addiw	x26,x14,-1
    80002894:	01b75c63          	bge	x14,x27,800028ac <vprintfmt+0x220>
    80002898:	00048593          	addi	x11,x9,0
    8000289c:	00098513          	addi	x10,x19,0
    800028a0:	fffc8c9b          	addiw	x25,x25,-1
    800028a4:	000900e7          	jalr	x1,0(x18)
    800028a8:	ffac98e3          	bne	x25,x26,80002898 <vprintfmt+0x20c>
    800028ac:	002c1c13          	slli	x24,x24,0x2
    800028b0:	018109b3          	add	x19,x2,x24
    800028b4:	ffc10c93          	addi	x25,x2,-4
    800028b8:	00900c13          	addi	x24,x0,9
    800028bc:	0009a783          	lw	x15,0(x19)
    800028c0:	03000513          	addi	x10,x0,48
    800028c4:	00fc7463          	bgeu	x24,x15,800028cc <vprintfmt+0x240>
    800028c8:	05700513          	addi	x10,x0,87
    800028cc:	00048593          	addi	x11,x9,0
    800028d0:	00a7853b          	addw	x10,x15,x10
    800028d4:	ffc98993          	addi	x19,x19,-4
    800028d8:	000900e7          	jalr	x1,0(x18)
    800028dc:	ff9990e3          	bne	x19,x25,800028bc <vprintfmt+0x230>
    800028e0:	11013d03          	ld	x26,272(x2)
    800028e4:	e11ff06f          	jal	x0,800026f4 <vprintfmt+0x68>
    800028e8:	11a13823          	sd	x26,272(x2)
    800028ec:	00100793          	addi	x15,x0,1
    800028f0:	008b8c13          	addi	x24,x23,8
    800028f4:	00b7c463          	blt	x15,x11,800028fc <vprintfmt+0x270>
    800028f8:	16058863          	beq	x11,x0,80002a68 <vprintfmt+0x3dc>
    800028fc:	000bb983          	ld	x19,0(x23)
    80002900:	1809c463          	blt	x19,x0,80002a88 <vprintfmt+0x3fc>
    80002904:	00098793          	addi	x15,x19,0
    80002908:	000c0b93          	addi	x23,x24,0
    8000290c:	00a00613          	addi	x12,x0,10
    80002910:	f49ff06f          	jal	x0,80002858 <vprintfmt+0x1cc>
    80002914:	00174683          	lbu	x13,1(x14)
    80002918:	0015859b          	addiw	x11,x11,1
    8000291c:	00040713          	addi	x14,x8,0
    80002920:	df9ff06f          	jal	x0,80002718 <vprintfmt+0x8c>
    80002924:	11a13823          	sd	x26,272(x2)
    80002928:	01000613          	addi	x12,x0,16
    8000292c:	00100793          	addi	x15,x0,1
    80002930:	008b8713          	addi	x14,x23,8
    80002934:	f0b7cee3          	blt	x15,x11,80002850 <vprintfmt+0x1c4>
    80002938:	f0059ce3          	bne	x11,x0,80002850 <vprintfmt+0x1c4>
    8000293c:	000be783          	lwu	x15,0(x23)
    80002940:	00070b93          	addi	x23,x14,0
    80002944:	f15ff06f          	jal	x0,80002858 <vprintfmt+0x1cc>
    80002948:	11a13823          	sd	x26,272(x2)
    8000294c:	000bbd03          	ld	x26,0(x23)
    80002950:	008b8b93          	addi	x23,x23,8
    80002954:	060d0063          	beq	x26,x0,800029b4 <vprintfmt+0x328>
    80002958:	0db05463          	bge	x0,x27,80002a20 <vprintfmt+0x394>
    8000295c:	02d00793          	addi	x15,x0,45
    80002960:	06fc9c63          	bne	x25,x15,800029d8 <vprintfmt+0x34c>
    80002964:	000d4503          	lbu	x10,0(x26)
    80002968:	02050863          	beq	x10,x0,80002998 <vprintfmt+0x30c>
    8000296c:	fff00993          	addi	x19,x0,-1
    80002970:	000c4663          	blt	x24,x0,8000297c <vprintfmt+0x2f0>
    80002974:	fffc0c1b          	addiw	x24,x24,-1
    80002978:	013c0e63          	beq	x24,x19,80002994 <vprintfmt+0x308>
    8000297c:	00048593          	addi	x11,x9,0
    80002980:	000900e7          	jalr	x1,0(x18)
    80002984:	001d4503          	lbu	x10,1(x26)
    80002988:	fffd8d9b          	addiw	x27,x27,-1
    8000298c:	001d0d13          	addi	x26,x26,1
    80002990:	fe0510e3          	bne	x10,x0,80002970 <vprintfmt+0x2e4>
    80002994:	f5b056e3          	bge	x0,x27,800028e0 <vprintfmt+0x254>
    80002998:	00048593          	addi	x11,x9,0
    8000299c:	02000513          	addi	x10,x0,32
    800029a0:	fffd8d9b          	addiw	x27,x27,-1
    800029a4:	000900e7          	jalr	x1,0(x18)
    800029a8:	fe0d98e3          	bne	x27,x0,80002998 <vprintfmt+0x30c>
    800029ac:	11013d03          	ld	x26,272(x2)
    800029b0:	d45ff06f          	jal	x0,800026f4 <vprintfmt+0x68>
    800029b4:	00001d17          	auipc	x26,0x1
    800029b8:	b4cd0d13          	addi	x26,x26,-1204 # 80003500 <main+0x47c>
    800029bc:	02800513          	addi	x10,x0,40
    800029c0:	fbb056e3          	bge	x0,x27,8000296c <vprintfmt+0x2e0>
    800029c4:	02d00793          	addi	x15,x0,45
    800029c8:	00001d17          	auipc	x26,0x1
    800029cc:	b38d0d13          	addi	x26,x26,-1224 # 80003500 <main+0x47c>
    800029d0:	02800513          	addi	x10,x0,40
    800029d4:	f8fc8ce3          	beq	x25,x15,8000296c <vprintfmt+0x2e0>
    800029d8:	000d861b          	addiw	x12,x27,0
    800029dc:	000d0793          	addi	x15,x26,0
    800029e0:	018d06b3          	add	x13,x26,x24
    800029e4:	000c1863          	bne	x24,x0,800029f4 <vprintfmt+0x368>
    800029e8:	0200006f          	jal	x0,80002a08 <vprintfmt+0x37c>
    800029ec:	00178793          	addi	x15,x15,1
    800029f0:	00d78663          	beq	x15,x13,800029fc <vprintfmt+0x370>
    800029f4:	0007c703          	lbu	x14,0(x15)
    800029f8:	fe071ae3          	bne	x14,x0,800029ec <vprintfmt+0x360>
    800029fc:	41a787b3          	sub	x15,x15,x26
    80002a00:	40f60dbb          	subw	x27,x12,x15
    80002a04:	01b05e63          	bge	x0,x27,80002a20 <vprintfmt+0x394>
    80002a08:	000c8c9b          	addiw	x25,x25,0
    80002a0c:	00048593          	addi	x11,x9,0
    80002a10:	000c8513          	addi	x10,x25,0
    80002a14:	fffd8d9b          	addiw	x27,x27,-1
    80002a18:	000900e7          	jalr	x1,0(x18)
    80002a1c:	fe0d98e3          	bne	x27,x0,80002a0c <vprintfmt+0x380>
    80002a20:	000d4503          	lbu	x10,0(x26)
    80002a24:	ea050ee3          	beq	x10,x0,800028e0 <vprintfmt+0x254>
    80002a28:	fff00993          	addi	x19,x0,-1
    80002a2c:	f45ff06f          	jal	x0,80002970 <vprintfmt+0x2e4>
    80002a30:	fffdc793          	xori	x15,x27,-1
    80002a34:	43f7d793          	srai	x15,x15,0x3f
    80002a38:	00fdf7b3          	and	x15,x27,x15
    80002a3c:	00174683          	lbu	x13,1(x14)
    80002a40:	00078d9b          	addiw	x27,x15,0
    80002a44:	00040713          	addi	x14,x8,0
    80002a48:	cd1ff06f          	jal	x0,80002718 <vprintfmt+0x8c>
    80002a4c:	000ba503          	lw	x10,0(x23)
    80002a50:	00048593          	addi	x11,x9,0
    80002a54:	008b8b93          	addi	x23,x23,8
    80002a58:	000900e7          	jalr	x1,0(x18)
    80002a5c:	c99ff06f          	jal	x0,800026f4 <vprintfmt+0x68>
    80002a60:	00000c13          	addi	x24,x0,0
    80002a64:	e29ff06f          	jal	x0,8000288c <vprintfmt+0x200>
    80002a68:	000ba983          	lw	x19,0(x23)
    80002a6c:	e95ff06f          	jal	x0,80002900 <vprintfmt+0x274>
    80002a70:	11a13823          	sd	x26,272(x2)
    80002a74:	00a00613          	addi	x12,x0,10
    80002a78:	eb5ff06f          	jal	x0,8000292c <vprintfmt+0x2a0>
    80002a7c:	11a13823          	sd	x26,272(x2)
    80002a80:	00800613          	addi	x12,x0,8
    80002a84:	ea9ff06f          	jal	x0,8000292c <vprintfmt+0x2a0>
    80002a88:	00048593          	addi	x11,x9,0
    80002a8c:	02d00513          	addi	x10,x0,45
    80002a90:	000900e7          	jalr	x1,0(x18)
    80002a94:	413007b3          	sub	x15,x0,x19
    80002a98:	000c0b93          	addi	x23,x24,0
    80002a9c:	00a00613          	addi	x12,x0,10
    80002aa0:	db9ff06f          	jal	x0,80002858 <vprintfmt+0x1cc>
    80002aa4:	00040713          	addi	x14,x8,0
    80002aa8:	d45ff06f          	jal	x0,800027ec <vprintfmt+0x160>

0000000080002aac <sprintf_putch.0>:
    80002aac:	0005b783          	ld	x15,0(x11)
    80002ab0:	00a78023          	sb	x10,0(x15)
    80002ab4:	0005b783          	ld	x15,0(x11)
    80002ab8:	00178793          	addi	x15,x15,1
    80002abc:	00f5b023          	sd	x15,0(x11)
    80002ac0:	00008067          	jalr	x0,0(x1)

0000000080002ac4 <putchar>:
    80002ac4:	04022803          	lw	x16,64(x4) # 40 <buflen.1>
    80002ac8:	00020793          	addi	x15,x4,0 # 0 <buf.2>
    80002acc:	010787b3          	add	x15,x15,x16
    80002ad0:	f9010113          	addi	x2,x2,-112
    80002ad4:	0018069b          	addiw	x13,x16,1
    80002ad8:	04d22023          	sw	x13,64(x4) # 40 <buflen.1>
    80002adc:	00a78023          	sb	x10,0(x15)
    80002ae0:	03f10713          	addi	x14,x2,63
    80002ae4:	00a00793          	addi	x15,x0,10
    80002ae8:	fc077713          	andi	x14,x14,-64
    80002aec:	00f50c63          	beq	x10,x15,80002b04 <putchar+0x40>
    80002af0:	04000793          	addi	x15,x0,64
    80002af4:	00f68863          	beq	x13,x15,80002b04 <putchar+0x40>
    80002af8:	00000513          	addi	x10,x0,0
    80002afc:	07010113          	addi	x2,x2,112
    80002b00:	00008067          	jalr	x0,0(x1)
    80002b04:	04000793          	addi	x15,x0,64
    80002b08:	00f73023          	sd	x15,0(x14)
    80002b0c:	00100793          	addi	x15,x0,1
    80002b10:	00f73423          	sd	x15,8(x14)
    80002b14:	00020613          	addi	x12,x4,0 # 0 <buf.2>
    80002b18:	00c73823          	sd	x12,16(x14)
    80002b1c:	00d73c23          	sd	x13,24(x14)
    80002b20:	0ff0000f          	fence	iorw,iorw
    80002b24:	ffffe697          	auipc	x13,0xffffe
    80002b28:	51c68693          	addi	x13,x13,1308 # 80001040 <fromhost>
    80002b2c:	ffffe797          	auipc	x15,0xffffe
    80002b30:	4ce7ba23          	sd	x14,1236(x15) # 80001000 <tohost>
    80002b34:	0006b783          	ld	x15,0(x13)
    80002b38:	fe078ee3          	beq	x15,x0,80002b34 <putchar+0x70>
    80002b3c:	ffffe797          	auipc	x15,0xffffe
    80002b40:	5007b223          	sd	x0,1284(x15) # 80001040 <fromhost>
    80002b44:	0ff0000f          	fence	iorw,iorw
    80002b48:	04022023          	sw	x0,64(x4) # 40 <buflen.1>
    80002b4c:	00073783          	ld	x15,0(x14)
    80002b50:	00000513          	addi	x10,x0,0
    80002b54:	07010113          	addi	x2,x2,112
    80002b58:	00008067          	jalr	x0,0(x1)

0000000080002b5c <setStats>:
    80002b5c:	b0002773          	csrrs	x14,mcycle,x0
    80002b60:	88418793          	addi	x15,x3,-1916 # 80003728 <counters>
    80002b64:	00050a63          	beq	x10,x0,80002b78 <setStats+0x1c>
    80002b68:	00e7b023          	sd	x14,0(x15)
    80002b6c:	b0202773          	csrrs	x14,minstret,x0
    80002b70:	00e7b423          	sd	x14,8(x15)
    80002b74:	00008067          	jalr	x0,0(x1)
    80002b78:	0007b683          	ld	x13,0(x15)
    80002b7c:	00001617          	auipc	x12,0x1
    80002b80:	99460613          	addi	x12,x12,-1644 # 80003510 <main+0x48c>
    80002b84:	00c7b823          	sd	x12,16(x15)
    80002b88:	40d70733          	sub	x14,x14,x13
    80002b8c:	00e7b023          	sd	x14,0(x15)
    80002b90:	b0202773          	csrrs	x14,minstret,x0
    80002b94:	0087b683          	ld	x13,8(x15)
    80002b98:	00001617          	auipc	x12,0x1
    80002b9c:	98060613          	addi	x12,x12,-1664 # 80003518 <main+0x494>
    80002ba0:	00c7bc23          	sd	x12,24(x15)
    80002ba4:	40d70733          	sub	x14,x14,x13
    80002ba8:	00e7b423          	sd	x14,8(x15)
    80002bac:	00008067          	jalr	x0,0(x1)

0000000080002bb0 <tohost_exit>:
    80002bb0:	00151793          	slli	x15,x10,0x1
    80002bb4:	0017e793          	ori	x15,x15,1
    80002bb8:	ffffe717          	auipc	x14,0xffffe
    80002bbc:	44f73423          	sd	x15,1096(x14) # 80001000 <tohost>
    80002bc0:	0000006f          	jal	x0,80002bc0 <tohost_exit+0x10>

0000000080002bc4 <handle_trap>:
    80002bc4:	000017b7          	lui	x15,0x1
    80002bc8:	a7378793          	addi	x15,x15,-1421 # a73 <buflen.1+0xa33>
    80002bcc:	ffffe717          	auipc	x14,0xffffe
    80002bd0:	42f73a23          	sd	x15,1076(x14) # 80001000 <tohost>
    80002bd4:	0000006f          	jal	x0,80002bd4 <handle_trap+0x10>

0000000080002bd8 <exit>:
    80002bd8:	ff010113          	addi	x2,x2,-16
    80002bdc:	00113423          	sd	x1,8(x2)
    80002be0:	fd1ff0ef          	jal	x1,80002bb0 <tohost_exit>

0000000080002be4 <abort>:
    80002be4:	10d00793          	addi	x15,x0,269
    80002be8:	ffffe717          	auipc	x14,0xffffe
    80002bec:	40f73c23          	sd	x15,1048(x14) # 80001000 <tohost>
    80002bf0:	0000006f          	jal	x0,80002bf0 <abort+0xc>

0000000080002bf4 <printstr>:
    80002bf4:	00054783          	lbu	x15,0(x10)
    80002bf8:	f9010113          	addi	x2,x2,-112
    80002bfc:	03f10693          	addi	x13,x2,63
    80002c00:	fc06f693          	andi	x13,x13,-64
    80002c04:	06078263          	beq	x15,x0,80002c68 <printstr+0x74>
    80002c08:	00050793          	addi	x15,x10,0
    80002c0c:	0017c703          	lbu	x14,1(x15)
    80002c10:	00178793          	addi	x15,x15,1
    80002c14:	fe071ce3          	bne	x14,x0,80002c0c <printstr+0x18>
    80002c18:	40a787b3          	sub	x15,x15,x10
    80002c1c:	04000713          	addi	x14,x0,64
    80002c20:	00e6b023          	sd	x14,0(x13)
    80002c24:	00100713          	addi	x14,x0,1
    80002c28:	00e6b423          	sd	x14,8(x13)
    80002c2c:	00a6b823          	sd	x10,16(x13)
    80002c30:	00f6bc23          	sd	x15,24(x13)
    80002c34:	0ff0000f          	fence	iorw,iorw
    80002c38:	ffffe717          	auipc	x14,0xffffe
    80002c3c:	40870713          	addi	x14,x14,1032 # 80001040 <fromhost>
    80002c40:	ffffe797          	auipc	x15,0xffffe
    80002c44:	3cd7b023          	sd	x13,960(x15) # 80001000 <tohost>
    80002c48:	00073783          	ld	x15,0(x14)
    80002c4c:	fe078ee3          	beq	x15,x0,80002c48 <printstr+0x54>
    80002c50:	ffffe797          	auipc	x15,0xffffe
    80002c54:	3e07b823          	sd	x0,1008(x15) # 80001040 <fromhost>
    80002c58:	0ff0000f          	fence	iorw,iorw
    80002c5c:	0006b783          	ld	x15,0(x13)
    80002c60:	07010113          	addi	x2,x2,112
    80002c64:	00008067          	jalr	x0,0(x1)
    80002c68:	00000793          	addi	x15,x0,0
    80002c6c:	fb1ff06f          	jal	x0,80002c1c <printstr+0x28>

0000000080002c70 <thread_entry>:
    80002c70:	00050463          	beq	x10,x0,80002c78 <thread_entry+0x8>
    80002c74:	0000006f          	jal	x0,80002c74 <thread_entry+0x4>
    80002c78:	00008067          	jalr	x0,0(x1)

0000000080002c7c <printhex>:
    80002c7c:	fd010113          	addi	x2,x2,-48
    80002c80:	00050793          	addi	x15,x10,0
    80002c84:	02113423          	sd	x1,40(x2)
    80002c88:	00810513          	addi	x10,x2,8
    80002c8c:	01710713          	addi	x14,x2,23
    80002c90:	00900813          	addi	x16,x0,9
    80002c94:	0080006f          	jal	x0,80002c9c <printhex+0x20>
    80002c98:	00068713          	addi	x14,x13,0
    80002c9c:	00f7f613          	andi	x12,x15,15
    80002ca0:	00060693          	addi	x13,x12,0
    80002ca4:	03000593          	addi	x11,x0,48
    80002ca8:	00c87463          	bgeu	x16,x12,80002cb0 <printhex+0x34>
    80002cac:	05700593          	addi	x11,x0,87
    80002cb0:	00b686bb          	addw	x13,x13,x11
    80002cb4:	00d70023          	sb	x13,0(x14)
    80002cb8:	0047d793          	srli	x15,x15,0x4
    80002cbc:	fff70693          	addi	x13,x14,-1
    80002cc0:	fce51ce3          	bne	x10,x14,80002c98 <printhex+0x1c>
    80002cc4:	00010c23          	sb	x0,24(x2)
    80002cc8:	f2dff0ef          	jal	x1,80002bf4 <printstr>
    80002ccc:	02813083          	ld	x1,40(x2)
    80002cd0:	03010113          	addi	x2,x2,48
    80002cd4:	00008067          	jalr	x0,0(x1)

0000000080002cd8 <printf>:
    80002cd8:	fa010113          	addi	x2,x2,-96
    80002cdc:	02810313          	addi	x6,x2,40
    80002ce0:	02b13423          	sd	x11,40(x2)
    80002ce4:	02c13823          	sd	x12,48(x2)
    80002ce8:	02d13c23          	sd	x13,56(x2)
    80002cec:	00050613          	addi	x12,x10,0
    80002cf0:	00030693          	addi	x13,x6,0
    80002cf4:	00000517          	auipc	x10,0x0
    80002cf8:	dd050513          	addi	x10,x10,-560 # 80002ac4 <putchar>
    80002cfc:	00000593          	addi	x11,x0,0
    80002d00:	00113c23          	sd	x1,24(x2)
    80002d04:	04e13023          	sd	x14,64(x2)
    80002d08:	04f13423          	sd	x15,72(x2)
    80002d0c:	05013823          	sd	x16,80(x2)
    80002d10:	05113c23          	sd	x17,88(x2)
    80002d14:	00613423          	sd	x6,8(x2)
    80002d18:	975ff0ef          	jal	x1,8000268c <vprintfmt>
    80002d1c:	01813083          	ld	x1,24(x2)
    80002d20:	00000513          	addi	x10,x0,0
    80002d24:	06010113          	addi	x2,x2,96
    80002d28:	00008067          	jalr	x0,0(x1)

0000000080002d2c <sprintf>:
    80002d2c:	fa010113          	addi	x2,x2,-96
    80002d30:	03010e13          	addi	x28,x2,48
    80002d34:	02813023          	sd	x8,32(x2)
    80002d38:	00a13423          	sd	x10,8(x2)
    80002d3c:	00050413          	addi	x8,x10,0
    80002d40:	02c13823          	sd	x12,48(x2)
    80002d44:	02d13c23          	sd	x13,56(x2)
    80002d48:	00058613          	addi	x12,x11,0
    80002d4c:	00000517          	auipc	x10,0x0
    80002d50:	d6050513          	addi	x10,x10,-672 # 80002aac <sprintf_putch.0>
    80002d54:	00810593          	addi	x11,x2,8
    80002d58:	000e0693          	addi	x13,x28,0
    80002d5c:	02113423          	sd	x1,40(x2)
    80002d60:	04f13423          	sd	x15,72(x2)
    80002d64:	04e13023          	sd	x14,64(x2)
    80002d68:	05013823          	sd	x16,80(x2)
    80002d6c:	05113c23          	sd	x17,88(x2)
    80002d70:	01c13c23          	sd	x28,24(x2)
    80002d74:	919ff0ef          	jal	x1,8000268c <vprintfmt>
    80002d78:	00813783          	ld	x15,8(x2)
    80002d7c:	00078023          	sb	x0,0(x15)
    80002d80:	00813503          	ld	x10,8(x2)
    80002d84:	02813083          	ld	x1,40(x2)
    80002d88:	4085053b          	subw	x10,x10,x8
    80002d8c:	02013403          	ld	x8,32(x2)
    80002d90:	06010113          	addi	x2,x2,96
    80002d94:	00008067          	jalr	x0,0(x1)

0000000080002d98 <memcpy>:
    80002d98:	00c5e7b3          	or	x15,x11,x12
    80002d9c:	00f567b3          	or	x15,x10,x15
    80002da0:	0077f793          	andi	x15,x15,7
    80002da4:	00c506b3          	add	x13,x10,x12
    80002da8:	02078463          	beq	x15,x0,80002dd0 <memcpy+0x38>
    80002dac:	00c58633          	add	x12,x11,x12
    80002db0:	00050793          	addi	x15,x10,0
    80002db4:	02d57e63          	bgeu	x10,x13,80002df0 <memcpy+0x58>
    80002db8:	0005c703          	lbu	x14,0(x11)
    80002dbc:	00158593          	addi	x11,x11,1
    80002dc0:	00178793          	addi	x15,x15,1
    80002dc4:	fee78fa3          	sb	x14,-1(x15)
    80002dc8:	feb618e3          	bne	x12,x11,80002db8 <memcpy+0x20>
    80002dcc:	00008067          	jalr	x0,0(x1)
    80002dd0:	fed57ee3          	bgeu	x10,x13,80002dcc <memcpy+0x34>
    80002dd4:	00050793          	addi	x15,x10,0
    80002dd8:	0005b703          	ld	x14,0(x11)
    80002ddc:	00878793          	addi	x15,x15,8
    80002de0:	00858593          	addi	x11,x11,8
    80002de4:	fee7bc23          	sd	x14,-8(x15)
    80002de8:	fed7e8e3          	bltu	x15,x13,80002dd8 <memcpy+0x40>
    80002dec:	00008067          	jalr	x0,0(x1)
    80002df0:	00008067          	jalr	x0,0(x1)

0000000080002df4 <memset>:
    80002df4:	00c567b3          	or	x15,x10,x12
    80002df8:	0077f793          	andi	x15,x15,7
    80002dfc:	00c50633          	add	x12,x10,x12
    80002e00:	02078063          	beq	x15,x0,80002e20 <memset+0x2c>
    80002e04:	0ff5f713          	andi	x14,x11,255
    80002e08:	00050793          	addi	x15,x10,0
    80002e0c:	04c57663          	bgeu	x10,x12,80002e58 <memset+0x64>
    80002e10:	00178793          	addi	x15,x15,1
    80002e14:	fee78fa3          	sb	x14,-1(x15)
    80002e18:	fec79ce3          	bne	x15,x12,80002e10 <memset+0x1c>
    80002e1c:	00008067          	jalr	x0,0(x1)
    80002e20:	010107b7          	lui	x15,0x1010
    80002e24:	10178793          	addi	x15,x15,257 # 1010101 <buflen.1+0x10100c1>
    80002e28:	01079793          	slli	x15,x15,0x10
    80002e2c:	10178793          	addi	x15,x15,257
    80002e30:	01079793          	slli	x15,x15,0x10
    80002e34:	0ff5f713          	andi	x14,x11,255
    80002e38:	10178793          	addi	x15,x15,257
    80002e3c:	02f70733          	mul	x14,x14,x15
    80002e40:	fcc57ee3          	bgeu	x10,x12,80002e1c <memset+0x28>
    80002e44:	00050793          	addi	x15,x10,0
    80002e48:	00878793          	addi	x15,x15,8
    80002e4c:	fee7bc23          	sd	x14,-8(x15)
    80002e50:	fec7ece3          	bltu	x15,x12,80002e48 <memset+0x54>
    80002e54:	00008067          	jalr	x0,0(x1)
    80002e58:	00008067          	jalr	x0,0(x1)

0000000080002e5c <_init>:
    80002e5c:	f5010113          	addi	x2,x2,-176
    80002e60:	8a418793          	addi	x15,x3,-1884 # 80003748 <_tdata_begin>
    80002e64:	09413023          	sd	x20,128(x2)
    80002e68:	8a418a13          	addi	x20,x3,-1884 # 80003748 <_tdata_begin>
    80002e6c:	09313423          	sd	x19,136(x2)
    80002e70:	40fa09b3          	sub	x19,x20,x15
    80002e74:	08913c23          	sd	x9,152(x2)
    80002e78:	09213823          	sd	x18,144(x2)
    80002e7c:	00050493          	addi	x9,x10,0
    80002e80:	00058913          	addi	x18,x11,0
    80002e84:	00020513          	addi	x10,x4,0 # 0 <buf.2>
    80002e88:	00078593          	addi	x11,x15,0
    80002e8c:	00098613          	addi	x12,x19,0
    80002e90:	0a113423          	sd	x1,168(x2)
    80002e94:	0a813023          	sd	x8,160(x2)
    80002e98:	07513c23          	sd	x21,120(x2)
    80002e9c:	00020a93          	addi	x21,x4,0 # 0 <buf.2>
    80002ea0:	ef9ff0ef          	jal	x1,80002d98 <memcpy>
    80002ea4:	92018613          	addi	x12,x3,-1760 # 800037c4 <_tbss_end>
    80002ea8:	41460633          	sub	x12,x12,x20
    80002eac:	00000593          	addi	x11,x0,0
    80002eb0:	013a8533          	add	x10,x21,x19
    80002eb4:	f41ff0ef          	jal	x1,80002df4 <memset>
    80002eb8:	00090593          	addi	x11,x18,0
    80002ebc:	00048513          	addi	x10,x9,0
    80002ec0:	db1ff0ef          	jal	x1,80002c70 <thread_entry>
    80002ec4:	00000593          	addi	x11,x0,0
    80002ec8:	00000513          	addi	x10,x0,0
    80002ecc:	1b8000ef          	jal	x1,80003084 <main>
    80002ed0:	88418913          	addi	x18,x3,-1916 # 80003728 <counters>
    80002ed4:	00093683          	ld	x13,0(x18)
    80002ed8:	03f10413          	addi	x8,x2,63
    80002edc:	fc047413          	andi	x8,x8,-64
    80002ee0:	00050493          	addi	x9,x10,0
    80002ee4:	04069063          	bne	x13,x0,80002f24 <_init+0xc8>
    80002ee8:	00893683          	ld	x13,8(x18)
    80002eec:	00069663          	bne	x13,x0,80002ef8 <_init+0x9c>
    80002ef0:	00048513          	addi	x10,x9,0
    80002ef4:	cbdff0ef          	jal	x1,80002bb0 <tohost_exit>
    80002ef8:	00040993          	addi	x19,x8,0
    80002efc:	01893603          	ld	x12,24(x18)
    80002f00:	00098513          	addi	x10,x19,0
    80002f04:	00000597          	auipc	x11,0x0
    80002f08:	63c58593          	addi	x11,x11,1596 # 80003540 <main+0x4bc>
    80002f0c:	e21ff0ef          	jal	x1,80002d2c <sprintf>
    80002f10:	00a989b3          	add	x19,x19,x10
    80002f14:	fd340ee3          	beq	x8,x19,80002ef0 <_init+0x94>
    80002f18:	00040513          	addi	x10,x8,0
    80002f1c:	cd9ff0ef          	jal	x1,80002bf4 <printstr>
    80002f20:	fd1ff06f          	jal	x0,80002ef0 <_init+0x94>
    80002f24:	01093603          	ld	x12,16(x18)
    80002f28:	00000597          	auipc	x11,0x0
    80002f2c:	61858593          	addi	x11,x11,1560 # 80003540 <main+0x4bc>
    80002f30:	00040513          	addi	x10,x8,0
    80002f34:	df9ff0ef          	jal	x1,80002d2c <sprintf>
    80002f38:	00893683          	ld	x13,8(x18)
    80002f3c:	00a409b3          	add	x19,x8,x10
    80002f40:	fc068ae3          	beq	x13,x0,80002f14 <_init+0xb8>
    80002f44:	fb9ff06f          	jal	x0,80002efc <_init+0xa0>

0000000080002f48 <strlen>:
    80002f48:	00054783          	lbu	x15,0(x10)
    80002f4c:	00078e63          	beq	x15,x0,80002f68 <strlen+0x20>
    80002f50:	00050793          	addi	x15,x10,0
    80002f54:	0017c703          	lbu	x14,1(x15)
    80002f58:	00178793          	addi	x15,x15,1
    80002f5c:	fe071ce3          	bne	x14,x0,80002f54 <strlen+0xc>
    80002f60:	40a78533          	sub	x10,x15,x10
    80002f64:	00008067          	jalr	x0,0(x1)
    80002f68:	00000513          	addi	x10,x0,0
    80002f6c:	00008067          	jalr	x0,0(x1)

0000000080002f70 <strnlen>:
    80002f70:	00b506b3          	add	x13,x10,x11
    80002f74:	00050793          	addi	x15,x10,0
    80002f78:	00059863          	bne	x11,x0,80002f88 <strnlen+0x18>
    80002f7c:	0240006f          	jal	x0,80002fa0 <strnlen+0x30>
    80002f80:	00178793          	addi	x15,x15,1
    80002f84:	00f68a63          	beq	x13,x15,80002f98 <strnlen+0x28>
    80002f88:	0007c703          	lbu	x14,0(x15)
    80002f8c:	fe071ae3          	bne	x14,x0,80002f80 <strnlen+0x10>
    80002f90:	40a78533          	sub	x10,x15,x10
    80002f94:	00008067          	jalr	x0,0(x1)
    80002f98:	40a68533          	sub	x10,x13,x10
    80002f9c:	00008067          	jalr	x0,0(x1)
    80002fa0:	00000513          	addi	x10,x0,0
    80002fa4:	00008067          	jalr	x0,0(x1)

0000000080002fa8 <strcmp>:
    80002fa8:	00054783          	lbu	x15,0(x10)
    80002fac:	00158593          	addi	x11,x11,1
    80002fb0:	00150513          	addi	x10,x10,1
    80002fb4:	fff5c703          	lbu	x14,-1(x11)
    80002fb8:	00078a63          	beq	x15,x0,80002fcc <strcmp+0x24>
    80002fbc:	fee786e3          	beq	x15,x14,80002fa8 <strcmp>
    80002fc0:	0007851b          	addiw	x10,x15,0
    80002fc4:	40e5053b          	subw	x10,x10,x14
    80002fc8:	00008067          	jalr	x0,0(x1)
    80002fcc:	00000513          	addi	x10,x0,0
    80002fd0:	ff5ff06f          	jal	x0,80002fc4 <strcmp+0x1c>

0000000080002fd4 <strcpy>:
    80002fd4:	00050793          	addi	x15,x10,0
    80002fd8:	0005c703          	lbu	x14,0(x11)
    80002fdc:	00178793          	addi	x15,x15,1
    80002fe0:	00158593          	addi	x11,x11,1
    80002fe4:	fee78fa3          	sb	x14,-1(x15)
    80002fe8:	fe0718e3          	bne	x14,x0,80002fd8 <strcpy+0x4>
    80002fec:	00008067          	jalr	x0,0(x1)

0000000080002ff0 <atol>:
    80002ff0:	00054703          	lbu	x14,0(x10)
    80002ff4:	02000693          	addi	x13,x0,32
    80002ff8:	00050793          	addi	x15,x10,0
    80002ffc:	00d71863          	bne	x14,x13,8000300c <atol+0x1c>
    80003000:	0017c703          	lbu	x14,1(x15)
    80003004:	00178793          	addi	x15,x15,1
    80003008:	fed70ce3          	beq	x14,x13,80003000 <atol+0x10>
    8000300c:	02d00693          	addi	x13,x0,45
    80003010:	04d70e63          	beq	x14,x13,8000306c <atol+0x7c>
    80003014:	02b00693          	addi	x13,x0,43
    80003018:	04d70063          	beq	x14,x13,80003058 <atol+0x68>
    8000301c:	0007c683          	lbu	x13,0(x15)
    80003020:	00000593          	addi	x11,x0,0
    80003024:	04068c63          	beq	x13,x0,8000307c <atol+0x8c>
    80003028:	00000513          	addi	x10,x0,0
    8000302c:	00178793          	addi	x15,x15,1
    80003030:	00251713          	slli	x14,x10,0x2
    80003034:	fd06861b          	addiw	x12,x13,-48
    80003038:	0007c683          	lbu	x13,0(x15)
    8000303c:	00a70733          	add	x14,x14,x10
    80003040:	00171713          	slli	x14,x14,0x1
    80003044:	00e60533          	add	x10,x12,x14
    80003048:	fe0692e3          	bne	x13,x0,8000302c <atol+0x3c>
    8000304c:	02058a63          	beq	x11,x0,80003080 <atol+0x90>
    80003050:	40a00533          	sub	x10,x0,x10
    80003054:	00008067          	jalr	x0,0(x1)
    80003058:	0017c683          	lbu	x13,1(x15)
    8000305c:	00178793          	addi	x15,x15,1
    80003060:	00068e63          	beq	x13,x0,8000307c <atol+0x8c>
    80003064:	00000593          	addi	x11,x0,0
    80003068:	fc1ff06f          	jal	x0,80003028 <atol+0x38>
    8000306c:	0017c683          	lbu	x13,1(x15)
    80003070:	00100593          	addi	x11,x0,1
    80003074:	00178793          	addi	x15,x15,1
    80003078:	fa0698e3          	bne	x13,x0,80003028 <atol+0x38>
    8000307c:	00000513          	addi	x10,x0,0
    80003080:	00008067          	jalr	x0,0(x1)

Disassembly of section .text.startup:

0000000080003084 <main>:
    80003084:	fb010113          	addi	x2,x2,-80
    80003088:	00000797          	auipc	x15,0x0
    8000308c:	62078793          	addi	x15,x15,1568 # 800036a8 <g_nodeFreeList>
    80003090:	04113423          	sd	x1,72(x2)
    80003094:	00000717          	auipc	x14,0x0
    80003098:	62470713          	addi	x14,x14,1572 # 800036b8 <g_nodePool>
    8000309c:	00e7b423          	sd	x14,8(x15)
    800030a0:	00700713          	addi	x14,x0,7
    800030a4:	00e7a023          	sw	x14,0(x15)
    800030a8:	8601be23          	sd	x0,-1924(x3) # 80003720 <g_nodePool+0x68>
    800030ac:	06300713          	addi	x14,x0,99
    800030b0:	06e7a823          	sw	x14,112(x15)
    800030b4:	00600613          	addi	x12,x0,6
    800030b8:	00000797          	auipc	x15,0x0
    800030bc:	61078793          	addi	x15,x15,1552 # 800036c8 <g_nodePool+0x10>
    800030c0:	00000713          	addi	x14,x0,0
    800030c4:	fee7a823          	sw	x14,-16(x15)
    800030c8:	fef7bc23          	sd	x15,-8(x15)
    800030cc:	0017071b          	addiw	x14,x14,1
    800030d0:	01078793          	addi	x15,x15,16
    800030d4:	fec718e3          	bne	x14,x12,800030c4 <main+0x40>
    800030d8:	00700593          	addi	x11,x0,7
    800030dc:	00810513          	addi	x10,x2,8
    800030e0:	fd9fe0ef          	jal	x1,800020b8 <towers_init>
    800030e4:	00810513          	addi	x10,x2,8
    800030e8:	d0cff0ef          	jal	x1,800025f4 <towers_solve>
    800030ec:	00810513          	addi	x10,x2,8
    800030f0:	83cff0ef          	jal	x1,8000212c <towers_clear>
    800030f4:	00100513          	addi	x10,x0,1
    800030f8:	a65ff0ef          	jal	x1,80002b5c <setStats>
    800030fc:	00810513          	addi	x10,x2,8
    80003100:	cf4ff0ef          	jal	x1,800025f4 <towers_solve>
    80003104:	00000513          	addi	x10,x0,0
    80003108:	a55ff0ef          	jal	x1,80002b5c <setStats>
    8000310c:	00810513          	addi	x10,x2,8
    80003110:	cf8ff0ef          	jal	x1,80002608 <towers_verify>
    80003114:	04813083          	ld	x1,72(x2)
    80003118:	05010113          	addi	x2,x2,80
    8000311c:	00008067          	jalr	x0,0(x1)
    80003120:	ff010113          	addi	x2,x2,-16
    80003124:	00000517          	auipc	x10,0x0
    80003128:	40450513          	addi	x10,x10,1028 # 80003528 <main+0x4a4>
    8000312c:	00113423          	sd	x1,8(x2)
    80003130:	ac5ff0ef          	jal	x1,80002bf4 <printstr>
    80003134:	00813083          	ld	x1,8(x2)
    80003138:	fff00513          	addi	x10,x0,-1
    8000313c:	01010113          	addi	x2,x2,16
    80003140:	00008067          	jalr	x0,0(x1)
